---
triple:          'arm64-apple-darwin'
binary-path:     '/Users/lehatrutenb/Desktop/prog/memdb/memdb/internal/parser/parser'
relocations:
  - { offsetInCU: 0x38, offset: 0x38, size: 0x8, addend: 0x0, symName: __ZN5memdb8IsBoolOpENS_9OperationE, symObjAddr: 0x0, symBinAddr: 0x10000190C, symSize: 0x83C }
  - { offsetInCU: 0x61, offset: 0x61, size: 0x8, addend: 0x0, symName: __ZZN5memdb8IsBoolOpENS_9OperationEE4bOps, symObjAddr: 0x3E4AE0, symBinAddr: 0x1001E1B20, symSize: 0x0 }
  - { offsetInCU: 0xEA, offset: 0xEA, size: 0x8, addend: 0x0, symName: __ZN5memdb8IsMathOpENS_9OperationE, symObjAddr: 0x1670, symBinAddr: 0x100002F7C, symSize: 0x6C0 }
  - { offsetInCU: 0x113, offset: 0x113, size: 0x8, addend: 0x0, symName: __ZZN5memdb8IsMathOpENS_9OperationEE4mOps, symObjAddr: 0x3E4B40, symBinAddr: 0x1001E1B80, symSize: 0x0 }
  - { offsetInCU: 0x12F, offset: 0x12F, size: 0x8, addend: 0x0, symName: __ZN5memdb7IsCmpOpENS_9OperationE, symObjAddr: 0x1D30, symBinAddr: 0x10000363C, symSize: 0x6BC }
  - { offsetInCU: 0x158, offset: 0x158, size: 0x8, addend: 0x0, symName: __ZZN5memdb7IsCmpOpENS_9OperationEE4cOps, symObjAddr: 0x3E4BA0, symBinAddr: 0x1001E1BE0, symSize: 0x0 }
  - { offsetInCU: 0x174, offset: 0x174, size: 0x8, addend: 0x0, symName: __ZN5memdb13IsNonDefCmpOpENS_9OperationE, symObjAddr: 0x23EC, symBinAddr: 0x100003CF8, symSize: 0x83C }
  - { offsetInCU: 0x19D, offset: 0x19D, size: 0x8, addend: 0x0, symName: __ZZN5memdb13IsNonDefCmpOpENS_9OperationEE4cOps, symObjAddr: 0x3E4C00, symBinAddr: 0x1001E1C40, symSize: 0x0 }
  - { offsetInCU: 0x1CA, offset: 0x1CA, size: 0x8, addend: 0x0, symName: __ZN5memdb5lexer3s2cE, symObjAddr: 0x3E4C60, symBinAddr: 0x1001E1CA0, symSize: 0x0 }
  - { offsetInCU: 0x214, offset: 0x214, size: 0x8, addend: 0x0, symName: __ZN5memdb5lexer4s2scE, symObjAddr: 0x3E4CA0, symBinAddr: 0x1001E1CE0, symSize: 0x0 }
  - { offsetInCU: 0x258, offset: 0x258, size: 0x8, addend: 0x0, symName: __ZN5memdb5lexer3s2aE, symObjAddr: 0x3E4CE0, symBinAddr: 0x1001E1D20, symSize: 0x0 }
  - { offsetInCU: 0x29C, offset: 0x29C, size: 0x8, addend: 0x0, symName: __ZN5memdb5lexer4s2opE, symObjAddr: 0x3E4D20, symBinAddr: 0x1001E1D60, symSize: 0x0 }
  - { offsetInCU: 0x2B5, offset: 0x2B5, size: 0x8, addend: 0x0, symName: __ZN5memdb5lexer4s2brE, symObjAddr: 0x3E4D60, symBinAddr: 0x1001E1DA0, symSize: 0x0 }
  - { offsetInCU: 0x30B, offset: 0x30B, size: 0x8, addend: 0x0, symName: __ZN5memdb5lexer4s2ctE, symObjAddr: 0x3E4DA0, symBinAddr: 0x1001E1DE0, symSize: 0x0 }
  - { offsetInCU: 0x324, offset: 0x324, size: 0x8, addend: 0x0, symName: __ZN5memdb5lexer5s2othE, symObjAddr: 0x3E4DE0, symBinAddr: 0x1001E1E20, symSize: 0x0 }
  - { offsetInCU: 0x34A, offset: 0x34A, size: 0x8, addend: 0x0, symName: __ZN5memdb5lexer8AddSpaceERKNSt3__117basic_string_viewIcNS1_11char_traitsIcEEEERiRbS9_, symObjAddr: 0x4C74, symBinAddr: 0x100006580, symSize: 0x139C }
  - { offsetInCU: 0x3BD, offset: 0x3BD, size: 0x8, addend: 0x0, symName: __ZN5memdb5lexer9IsCommandERNSt3__16vectorINS1_12basic_stringIcNS1_11char_traitsIcEENS1_9allocatorIcEEEENS6_IS8_EEEEi, symObjAddr: 0x63F4, symBinAddr: 0x100007D00, symSize: 0x7F0 }
  - { offsetInCU: 0x3F9, offset: 0x3F9, size: 0x8, addend: 0x0, symName: __ZN5memdb5lexer12IsSubCommandERNSt3__16vectorINS1_12basic_stringIcNS1_11char_traitsIcEENS1_9allocatorIcEEEENS6_IS8_EEEEi, symObjAddr: 0x7DBC, symBinAddr: 0x1000096C8, symSize: 0x7F0 }
  - { offsetInCU: 0x435, offset: 0x435, size: 0x8, addend: 0x0, symName: __ZN5memdb5lexer11IsAttributeERNSt3__16vectorINS1_12basic_stringIcNS1_11char_traitsIcEENS1_9allocatorIcEEEENS6_IS8_EEEEi, symObjAddr: 0x9344, symBinAddr: 0x10000AC50, symSize: 0x7F0 }
  - { offsetInCU: 0x471, offset: 0x471, size: 0x8, addend: 0x0, symName: __ZN5memdb5lexer11IsOperationERNSt3__16vectorINS1_12basic_stringIcNS1_11char_traitsIcEENS1_9allocatorIcEEEENS6_IS8_EEEEi, symObjAddr: 0xA8CC, symBinAddr: 0x10000C1D8, symSize: 0x7F0 }
  - { offsetInCU: 0x4AD, offset: 0x4AD, size: 0x8, addend: 0x0, symName: __ZN5memdb5lexer7IsOtherERNSt3__16vectorINS1_12basic_stringIcNS1_11char_traitsIcEENS1_9allocatorIcEEEENS6_IS8_EEEEi, symObjAddr: 0xBE54, symBinAddr: 0x10000D760, symSize: 0x7F0 }
  - { offsetInCU: 0x4E9, offset: 0x4E9, size: 0x8, addend: 0x0, symName: __ZN5memdb5lexer9IsBracketERNSt3__16vectorINS1_12basic_stringIcNS1_11char_traitsIcEENS1_9allocatorIcEEEENS6_IS8_EEEEi, symObjAddr: 0xD3DC, symBinAddr: 0x10000ECE8, symSize: 0x11DC }
  - { offsetInCU: 0x525, offset: 0x525, size: 0x8, addend: 0x0, symName: __ZN5memdb5lexer5IsIntERNSt3__16vectorINS1_12basic_stringIcNS1_11char_traitsIcEENS1_9allocatorIcEEEENS6_IS8_EEEEi, symObjAddr: 0xFBA8, symBinAddr: 0x1000114B4, symSize: 0x82C }
  - { offsetInCU: 0x57E, offset: 0x57E, size: 0x8, addend: 0x0, symName: __ZN5memdb5lexer12IsColumnTypeERNSt3__16vectorINS1_12basic_stringIcNS1_11char_traitsIcEENS1_9allocatorIcEEEENS6_IS8_EEEEi, symObjAddr: 0x10DEC, symBinAddr: 0x1000126F8, symSize: 0x173C }
  - { offsetInCU: 0x5D3, offset: 0x5D3, size: 0x8, addend: 0x0, symName: __ZN5memdb5lexer8IsStringERNSt3__16vectorINS1_12basic_stringIcNS1_11char_traitsIcEENS1_9allocatorIcEEEENS6_IS8_EEEEi, symObjAddr: 0x13340, symBinAddr: 0x100014C4C, symSize: 0x83C }
  - { offsetInCU: 0x60F, offset: 0x60F, size: 0x8, addend: 0x0, symName: __ZN5memdb5lexer7IsBytesERNSt3__16vectorINS1_12basic_stringIcNS1_11char_traitsIcEENS1_9allocatorIcEEEENS6_IS8_EEEEi, symObjAddr: 0x1422C, symBinAddr: 0x100015B38, symSize: 0x1310 }
  - { offsetInCU: 0x688, offset: 0x688, size: 0x8, addend: 0x0, symName: __ZN5memdb5lexer6IsBoolERNSt3__16vectorINS1_12basic_stringIcNS1_11char_traitsIcEENS1_9allocatorIcEEEENS6_IS8_EEEEi, symObjAddr: 0x15ADC, symBinAddr: 0x1000173E8, symSize: 0x6E4 }
  - { offsetInCU: 0x984, offset: 0x984, size: 0x8, addend: 0x0, symName: __ZN5memdb6parser8getValueINS_9Tokenizer8BracketTENS_5lexer7BracketEEET0_NSt3__110shared_ptrINS2_5TokenEEE, symObjAddr: 0xA521C, symBinAddr: 0x1000A6B28, symSize: 0x320 }
  - { offsetInCU: 0x9C5, offset: 0x9C5, size: 0x8, addend: 0x0, symName: __ZN5memdb6parser8getValueINS_9Tokenizer6OtherTENS_5lexer5OtherEEET0_NSt3__110shared_ptrINS2_5TokenEEE, symObjAddr: 0xBC890, symBinAddr: 0x1000BE19C, symSize: 0x320 }
  - { offsetInCU: 0xA06, offset: 0xA06, size: 0x8, addend: 0x0, symName: __ZN5memdb6parser8getValueINS_9Tokenizer10AttributeTENS_5lexer9AttributeEEET0_NSt3__110shared_ptrINS2_5TokenEEE, symObjAddr: 0xBCBB0, symBinAddr: 0x1000BE4BC, symSize: 0x320 }
  - { offsetInCU: 0xA47, offset: 0xA47, size: 0x8, addend: 0x0, symName: __ZN5memdb6parser8getValueINS_9Tokenizer7StringTENSt3__112basic_stringIcNS4_11char_traitsIcEENS4_9allocatorIcEEEEEET0_NS4_10shared_ptrINS2_5TokenEEE, symObjAddr: 0xC5104, symBinAddr: 0x1000C6A10, symSize: 0x308 }
  - { offsetInCU: 0xA88, offset: 0xA88, size: 0x8, addend: 0x0, symName: __ZN5memdb6parser8getValueINS_9Tokenizer11ColumnTypeTENS_10ColumnTypeEEET0_NSt3__110shared_ptrINS2_5TokenEEE, symObjAddr: 0xC540C, symBinAddr: 0x1000C6D18, symSize: 0x4D0 }
  - { offsetInCU: 0xACA, offset: 0xACA, size: 0x8, addend: 0x0, symName: __ZN5memdb6parser8getValueINS_9Tokenizer10OperationTENS_9OperationEEET0_NSt3__110shared_ptrINS2_5TokenEEE, symObjAddr: 0xC5FD8, symBinAddr: 0x1000C78E4, symSize: 0x320 }
  - { offsetInCU: 0xB0B, offset: 0xB0B, size: 0x8, addend: 0x0, symName: __ZN5memdb6parser8getValueINS_9Tokenizer7DBTypeTENSt3__110shared_ptrINS_6DbTypeEEEEET0_NS5_INS2_5TokenEEE, symObjAddr: 0xC62F8, symBinAddr: 0x1000C7C04, symSize: 0x308 }
  - { offsetInCU: 0x1509, offset: 0x1509, size: 0x8, addend: 0x0, symName: __ZN5memdb16ParseTableColumnERKNSt3__112basic_stringIcNS0_11char_traitsIcEENS0_9allocatorIcEEEE, symObjAddr: 0x16544, symBinAddr: 0x100017E50, symSize: 0x6C4 }
  - { offsetInCU: 0x1EB59, offset: 0x1EB59, size: 0x8, addend: 0x0, symName: __ZNSt3__119piecewise_constructE, symObjAddr: 0x16CEAE, symBinAddr: 0x10016F4AE, symSize: 0x0 }
  - { offsetInCU: 0x221C7, offset: 0x221C7, size: 0x8, addend: 0x0, symName: __ZNSt3__16copy_nB8ue170006IPKcmPcEENS_9enable_ifIXsr37__has_random_access_iterator_categoryIT_EE5valueET1_E4typeES5_T0_S6_, symObjAddr: 0x2B14C, symBinAddr: 0x10002CA58, symSize: 0x13C }
  - { offsetInCU: 0x2342F, offset: 0x2342F, size: 0x8, addend: 0x0, symName: __ZNSt3__17advanceB8ue170006IPNS_6vectorIN5memdb9OperationENS_9allocatorIS3_EEEEllvEEvRT_T0_, symObjAddr: 0x45C68, symBinAddr: 0x100047574, symSize: 0x80 }
  - { offsetInCU: 0x237F8, offset: 0x237F8, size: 0x8, addend: 0x0, symName: __ZNSt3__17advanceB8ue170006IPNS_12basic_stringIcNS_11char_traitsIcEENS_9allocatorIcEEEEllvEEvRT_T0_, symObjAddr: 0x52B18, symBinAddr: 0x100054424, symSize: 0x80 }
  - { offsetInCU: 0x23A78, offset: 0x23A78, size: 0x8, addend: 0x0, symName: __ZNSt3__17advanceB8ue170006INS_16reverse_iteratorIPNS_12basic_stringIcNS_11char_traitsIcEENS_9allocatorIcEEEEEEllvEEvRT_T0_, symObjAddr: 0x544D4, symBinAddr: 0x100055DE0, symSize: 0x80 }
  - { offsetInCU: 0x23EE2, offset: 0x23EE2, size: 0x8, addend: 0x0, symName: __ZNSt3__17advanceB8ue170006IPNS_10shared_ptrIN5memdb9Tokenizer5TokenEEEllvEEvRT_T0_, symObjAddr: 0x947B0, symBinAddr: 0x1000960BC, symSize: 0x80 }
  - { offsetInCU: 0x242A4, offset: 0x242A4, size: 0x8, addend: 0x0, symName: __ZNSt3__17advanceB8ue170006INS_16reverse_iteratorIPNS_10shared_ptrIN5memdb9Tokenizer5TokenEEEEEllvEEvRT_T0_, symObjAddr: 0x9C898, symBinAddr: 0x10009E1A4, symSize: 0x80 }
  - { offsetInCU: 0x277A4, offset: 0x277A4, size: 0x8, addend: 0x0, symName: __ZNSt3__17advanceB8ue170006IPN5memdb21ColumnFullDescriptionEllvEEvRT_T0_, symObjAddr: 0xB5D94, symBinAddr: 0x1000B76A0, symSize: 0x80 }
  - { offsetInCU: 0x27A24, offset: 0x27A24, size: 0x8, addend: 0x0, symName: __ZNSt3__17advanceB8ue170006INS_16reverse_iteratorIPN5memdb21ColumnFullDescriptionEEEllvEEvRT_T0_, symObjAddr: 0xB7748, symBinAddr: 0x1000B9054, symSize: 0x80 }
  - { offsetInCU: 0x27E06, offset: 0x27E06, size: 0x8, addend: 0x0, symName: __ZNSt3__17advanceB8ue170006INS_21__tree_const_iteratorINS_12__value_typeINS_17basic_string_viewIcNS_11char_traitsIcEEEEN5memdb5lexer7CommandEEEPNS_11__tree_nodeISA_PvEElEEllvEEvRT_T0_, symObjAddr: 0xD2CC8, symBinAddr: 0x1000D45D4, symSize: 0x80 }
  - { offsetInCU: 0x27E8D, offset: 0x27E8D, size: 0x8, addend: 0x0, symName: __ZNSt3__17advanceB8ue170006INS_21__tree_const_iteratorINS_12__value_typeINS_17basic_string_viewIcNS_11char_traitsIcEEEEN5memdb5lexer10SubCommandEEEPNS_11__tree_nodeISA_PvEElEEllvEEvRT_T0_, symObjAddr: 0xE1D50, symBinAddr: 0x1000E365C, symSize: 0x80 }
  - { offsetInCU: 0x27F14, offset: 0x27F14, size: 0x8, addend: 0x0, symName: __ZNSt3__17advanceB8ue170006INS_21__tree_const_iteratorINS_12__value_typeINS_17basic_string_viewIcNS_11char_traitsIcEEEEN5memdb5lexer9AttributeEEEPNS_11__tree_nodeISA_PvEElEEllvEEvRT_T0_, symObjAddr: 0xEDA50, symBinAddr: 0x1000EF35C, symSize: 0x80 }
  - { offsetInCU: 0x27F9B, offset: 0x27F9B, size: 0x8, addend: 0x0, symName: __ZNSt3__17advanceB8ue170006INS_21__tree_const_iteratorINS_12__value_typeINS_17basic_string_viewIcNS_11char_traitsIcEEEEN5memdb9OperationEEEPNS_11__tree_nodeIS9_PvEElEEllvEEvRT_T0_, symObjAddr: 0xF9750, symBinAddr: 0x1000FB05C, symSize: 0x80 }
  - { offsetInCU: 0x28022, offset: 0x28022, size: 0x8, addend: 0x0, symName: __ZNSt3__17advanceB8ue170006INS_21__tree_const_iteratorINS_12__value_typeINS_17basic_string_viewIcNS_11char_traitsIcEEEEN5memdb5lexer7BracketEEEPNS_11__tree_nodeISA_PvEElEEllvEEvRT_T0_, symObjAddr: 0x105450, symBinAddr: 0x100106D5C, symSize: 0x80 }
  - { offsetInCU: 0x280A9, offset: 0x280A9, size: 0x8, addend: 0x0, symName: __ZNSt3__17advanceB8ue170006INS_21__tree_const_iteratorINS_12__value_typeINS_17basic_string_viewIcNS_11char_traitsIcEEEEN5memdb4TypeEEEPNS_11__tree_nodeIS9_PvEElEEllvEEvRT_T0_, symObjAddr: 0x111150, symBinAddr: 0x100112A5C, symSize: 0x80 }
  - { offsetInCU: 0x28130, offset: 0x28130, size: 0x8, addend: 0x0, symName: __ZNSt3__17advanceB8ue170006INS_21__tree_const_iteratorINS_12__value_typeINS_17basic_string_viewIcNS_11char_traitsIcEEEEN5memdb5lexer5OtherEEEPNS_11__tree_nodeISA_PvEElEEllvEEvRT_T0_, symObjAddr: 0x11CE50, symBinAddr: 0x10011E75C, symSize: 0x80 }
  - { offsetInCU: 0x293B7, offset: 0x293B7, size: 0x8, addend: 0x0, symName: __ZNSt3__1neB8ue170006IPN5memdb9OperationEEEbRKNS_11__wrap_iterIT_EES8_, symObjAddr: 0xB50, symBinAddr: 0x10000245C, symSize: 0xC4 }
  - { offsetInCU: 0x293FA, offset: 0x293FA, size: 0x8, addend: 0x0, symName: __ZNSt3__14findB8ue170006INS_11__wrap_iterIPN5memdb9OperationEEES3_EET_S6_S6_RKT0_, symObjAddr: 0xC14, symBinAddr: 0x100002520, symSize: 0x4F8 }
  - { offsetInCU: 0x29470, offset: 0x29470, size: 0x8, addend: 0x0, symName: __ZNSt3__1eqB8ue170006ERKNS_14__map_iteratorINS_15__tree_iteratorINS_12__value_typeINS_17basic_string_viewIcNS_11char_traitsIcEEEEN5memdb5lexer7CommandEEEPNS_11__tree_nodeISA_PvEElEEEESI_, symObjAddr: 0x6BE4, symBinAddr: 0x1000084F0, symSize: 0xC0 }
  - { offsetInCU: 0x295FD, offset: 0x295FD, size: 0x8, addend: 0x0, symName: __ZNSt3__1eqB8ue170006ERKNS_14__map_iteratorINS_15__tree_iteratorINS_12__value_typeINS_17basic_string_viewIcNS_11char_traitsIcEEEEN5memdb5lexer10SubCommandEEEPNS_11__tree_nodeISA_PvEElEEEESI_, symObjAddr: 0x85AC, symBinAddr: 0x100009EB8, symSize: 0xC0 }
  - { offsetInCU: 0x2978A, offset: 0x2978A, size: 0x8, addend: 0x0, symName: __ZNSt3__1eqB8ue170006ERKNS_14__map_iteratorINS_15__tree_iteratorINS_12__value_typeINS_17basic_string_viewIcNS_11char_traitsIcEEEEN5memdb5lexer9AttributeEEEPNS_11__tree_nodeISA_PvEElEEEESI_, symObjAddr: 0x9B34, symBinAddr: 0x10000B440, symSize: 0xC0 }
  - { offsetInCU: 0x29917, offset: 0x29917, size: 0x8, addend: 0x0, symName: __ZNSt3__1eqB8ue170006ERKNS_14__map_iteratorINS_15__tree_iteratorINS_12__value_typeINS_17basic_string_viewIcNS_11char_traitsIcEEEEN5memdb9OperationEEEPNS_11__tree_nodeIS9_PvEElEEEESH_, symObjAddr: 0xB0BC, symBinAddr: 0x10000C9C8, symSize: 0xC0 }
  - { offsetInCU: 0x29AA4, offset: 0x29AA4, size: 0x8, addend: 0x0, symName: __ZNSt3__1eqB8ue170006ERKNS_14__map_iteratorINS_15__tree_iteratorINS_12__value_typeINS_17basic_string_viewIcNS_11char_traitsIcEEEEN5memdb5lexer5OtherEEEPNS_11__tree_nodeISA_PvEElEEEESI_, symObjAddr: 0xC644, symBinAddr: 0x10000DF50, symSize: 0xC0 }
  - { offsetInCU: 0x29C31, offset: 0x29C31, size: 0x8, addend: 0x0, symName: __ZNSt3__1neB8ue170006ERKNS_14__map_iteratorINS_15__tree_iteratorINS_12__value_typeINS_17basic_string_viewIcNS_11char_traitsIcEEEEN5memdb5lexer7BracketEEEPNS_11__tree_nodeISA_PvEElEEEESI_, symObjAddr: 0xE6B0, symBinAddr: 0x10000FFBC, symSize: 0xC0 }
  - { offsetInCU: 0x29C6E, offset: 0x29C6E, size: 0x8, addend: 0x0, symName: __ZNSt3__1plB8ue170006IcNS_11char_traitsIcEENS_9allocatorIcEEEENS_12basic_stringIT_T0_T1_EERKS9_SB_, symObjAddr: 0xEB00, symBinAddr: 0x10001040C, symSize: 0x6A0 }
  - { offsetInCU: 0x29E65, offset: 0x29E65, size: 0x8, addend: 0x0, symName: __ZNSt3__1eqB8ue170006ERKNS_14__map_iteratorINS_15__tree_iteratorINS_12__value_typeINS_17basic_string_viewIcNS_11char_traitsIcEEEEN5memdb5lexer7BracketEEEPNS_11__tree_nodeISA_PvEElEEEESI_, symObjAddr: 0xFA60, symBinAddr: 0x10001136C, symSize: 0xC0 }
  - { offsetInCU: 0x29EA2, offset: 0x29EA2, size: 0x8, addend: 0x0, symName: '__ZNSt3__16all_ofB8ue170006INS_11__wrap_iterIPcEEZN5memdb5lexer5IsIntERNS_6vectorINS_12basic_stringIcNS_11char_traitsIcEENS_9allocatorIcEEEENSA_ISC_EEEEiE3$_0EEbT_SH_T0_', symObjAddr: 0x103D4, symBinAddr: 0x100011CE0, symSize: 0x384 }
  - { offsetInCU: 0x2A029, offset: 0x2A029, size: 0x8, addend: 0x0, symName: __ZNSt3__1eqB8ue170006ERKNS_14__map_iteratorINS_15__tree_iteratorINS_12__value_typeINS_17basic_string_viewIcNS_11char_traitsIcEEEEN5memdb4TypeEEEPNS_11__tree_nodeIS9_PvEElEEEESH_, symObjAddr: 0x12528, symBinAddr: 0x100013E34, symSize: 0xC0 }
  - { offsetInCU: 0x2A40E, offset: 0x2A40E, size: 0x8, addend: 0x0, symName: __ZNSt3__1eqB8ue170006IcNS_11char_traitsIcEENS_9allocatorIcEEEEbRKNS_12basic_stringIT_T0_T1_EEPKS6_, symObjAddr: 0x161C0, symBinAddr: 0x100017ACC, symSize: 0x318 }
  - { offsetInCU: 0x2A589, offset: 0x2A589, size: 0x8, addend: 0x0, symName: __ZNSt3__122__make_exception_guardB8ue170006INS_6vectorIN5memdb9OperationENS_9allocatorIS3_EEE16__destroy_vectorEEENS_28__exception_guard_exceptionsIT_EES9_, symObjAddr: 0x18BF4, symBinAddr: 0x10001A500, symSize: 0x2BC }
  - { offsetInCU: 0x2A5C2, offset: 0x2A5C2, size: 0x8, addend: 0x0, symName: __ZNSt3__119__allocate_at_leastB8ue170006INS_9allocatorIN5memdb9OperationEEEEEDaRT_m, symObjAddr: 0x1ABF8, symBinAddr: 0x10001C504, symSize: 0x250 }
  - { offsetInCU: 0x2A607, offset: 0x2A607, size: 0x8, addend: 0x0, symName: __ZNSt3__13minB8ue170006ImEERKT_S3_S3_, symObjAddr: 0x1B38C, symBinAddr: 0x10001CC98, symSize: 0x104 }
  - { offsetInCU: 0x2A834, offset: 0x2A834, size: 0x8, addend: 0x0, symName: __ZNSt3__13minB8ue170006ImNS_6__lessIvvEEEERKT_S5_S5_T0_, symObjAddr: 0x1B5E8, symBinAddr: 0x10001CEF4, symSize: 0x2C0 }
  - { offsetInCU: 0x2AAC5, offset: 0x2AAC5, size: 0x8, addend: 0x0, symName: __ZNSt3__120__throw_length_errorB8ue170006EPKc, symObjAddr: 0x1BB34, symBinAddr: 0x10001D440, symSize: 0xB4 }
  - { offsetInCU: 0x2AAEF, offset: 0x2AAEF, size: 0x8, addend: 0x0, symName: __ZNSt3__117allocate_at_leastB8ue170006INS_9allocatorIN5memdb9OperationEEEEENS_17allocation_resultINS_16allocator_traitsIT_E7pointerEEERS7_m, symObjAddr: 0x1BD90, symBinAddr: 0x10001D69C, symSize: 0x224 }
  - { offsetInCU: 0x2AB34, offset: 0x2AB34, size: 0x8, addend: 0x0, symName: __ZNSt3__117__libcpp_allocateB8ue170006Emm, symObjAddr: 0x1C3B4, symBinAddr: 0x10001DCC0, symSize: 0x60 }
  - { offsetInCU: 0x2AB8E, offset: 0x2AB8E, size: 0x8, addend: 0x0, symName: __ZNSt3__124__is_overaligned_for_newB8ue170006Em, symObjAddr: 0x1C414, symBinAddr: 0x10001DD20, symSize: 0x20 }
  - { offsetInCU: 0x2ABBC, offset: 0x2ABBC, size: 0x8, addend: 0x0, symName: __ZNSt3__121__libcpp_operator_newB8ue170006IJmSt11align_val_tEEEPvDpT_, symObjAddr: 0x1C434, symBinAddr: 0x10001DD40, symSize: 0x6C }
  - { offsetInCU: 0x2AC09, offset: 0x2AC09, size: 0x8, addend: 0x0, symName: __ZNSt3__121__libcpp_operator_newB8ue170006IJmEEEPvDpT_, symObjAddr: 0x1C4A0, symBinAddr: 0x10001DDAC, symSize: 0x24 }
  - { offsetInCU: 0x2AC42, offset: 0x2AC42, size: 0x8, addend: 0x0, symName: __ZNSt3__112__to_addressB8ue170006IN5memdb9OperationEEEPT_S4_, symObjAddr: 0x1CAA0, symBinAddr: 0x10001E3AC, symSize: 0x14 }
  - { offsetInCU: 0x2AC77, offset: 0x2AC77, size: 0x8, addend: 0x0, symName: __ZNSt3__130__uninitialized_allocator_copyB8ue170006INS_9allocatorIN5memdb9OperationEEEPKS3_S6_PS3_EET2_RT_T0_T1_S8_, symObjAddr: 0x1CE0C, symBinAddr: 0x10001E718, symSize: 0x334 }
  - { offsetInCU: 0x2AD1D, offset: 0x2AD1D, size: 0x8, addend: 0x0, symName: __ZNSt3__114__unwrap_rangeB8ue170006IPKN5memdb9OperationES4_EEDaT_T0_, symObjAddr: 0x1DAD4, symBinAddr: 0x10001F3E0, symSize: 0x224 }
  - { offsetInCU: 0x2AD6B, offset: 0x2AD6B, size: 0x8, addend: 0x0, symName: __ZNSt3__135__uninitialized_allocator_copy_implB8ue170006INS_9allocatorIN5memdb9OperationEEEKS3_S3_S3_LPv0EEEPT2_RT_PT0_SC_S8_, symObjAddr: 0x1DCF8, symBinAddr: 0x10001F604, symSize: 0x38 }
  - { offsetInCU: 0x2ADEC, offset: 0x2ADEC, size: 0x8, addend: 0x0, symName: __ZNSt3__113__unwrap_iterB8ue170006IPN5memdb9OperationENS_18__unwrap_iter_implIS3_Lb1EEELi0EEEDTclsrT0_8__unwrapclsr3stdE7declvalIT_EEEES7_, symObjAddr: 0x1DD30, symBinAddr: 0x10001F63C, symSize: 0x24 }
  - { offsetInCU: 0x2AE30, offset: 0x2AE30, size: 0x8, addend: 0x0, symName: __ZNSt3__113__rewrap_iterB8ue170006IPN5memdb9OperationES3_NS_18__unwrap_iter_implIS3_Lb1EEEEET_S6_T0_, symObjAddr: 0x1DD54, symBinAddr: 0x10001F660, symSize: 0x48 }
  - { offsetInCU: 0x2AFEE, offset: 0x2AFEE, size: 0x8, addend: 0x0, symName: __ZNSt3__113__unwrap_iterB8ue170006IPKN5memdb9OperationENS_18__unwrap_iter_implIS4_Lb1EEELi0EEEDTclsrT0_8__unwrapclsr3stdE7declvalIT_EEEES8_, symObjAddr: 0x1E0A8, symBinAddr: 0x10001F9B4, symSize: 0x24 }
  - { offsetInCU: 0x2B085, offset: 0x2B085, size: 0x8, addend: 0x0, symName: __ZNSt3__112__to_addressB8ue170006IKN5memdb9OperationEEEPT_S5_, symObjAddr: 0x1E178, symBinAddr: 0x10001FA84, symSize: 0x14 }
  - { offsetInCU: 0x2B0BA, offset: 0x2B0BA, size: 0x8, addend: 0x0, symName: __ZNSt3__14copyB8ue170006IPKN5memdb9OperationEPS2_EET0_T_S7_S6_, symObjAddr: 0x1E39C, symBinAddr: 0x10001FCA8, symSize: 0x2B4 }
  - { offsetInCU: 0x2B117, offset: 0x2B117, size: 0x8, addend: 0x0, symName: __ZNSt3__16__copyB8ue170006INS_17_ClassicAlgPolicyEPKN5memdb9OperationES5_PS3_EENS_4pairIT0_T2_EES8_T1_S9_, symObjAddr: 0x1E650, symBinAddr: 0x10001FF5C, symSize: 0x22C }
  - { offsetInCU: 0x2B186, offset: 0x2B186, size: 0x8, addend: 0x0, symName: __ZNSt3__123__dispatch_copy_or_moveB8ue170006INS_17_ClassicAlgPolicyENS_11__copy_loopIS1_EENS_14__copy_trivialEPKN5memdb9OperationES8_PS6_EENS_4pairIT2_T4_EESB_T3_SC_, symObjAddr: 0x1E87C, symBinAddr: 0x100020188, symSize: 0x22C }
  - { offsetInCU: 0x2B207, offset: 0x2B207, size: 0x8, addend: 0x0, symName: __ZNSt3__121__unwrap_and_dispatchB8ue170006INS_10__overloadINS_11__copy_loopINS_17_ClassicAlgPolicyEEENS_14__copy_trivialEEEPKN5memdb9OperationESA_PS8_Li0EEENS_4pairIT0_T2_EESD_T1_SE_, symObjAddr: 0x1EAA8, symBinAddr: 0x1000203B4, symSize: 0x634 }
  - { offsetInCU: 0x2B526, offset: 0x2B526, size: 0x8, addend: 0x0, symName: __ZNSt3__19make_pairB8ue170006IPKN5memdb9OperationEPS2_EENS_4pairINS_18__unwrap_ref_decayIT_E4typeENS7_IT0_E4typeEEEOS8_OSB_, symObjAddr: 0x1F338, symBinAddr: 0x100020C44, symSize: 0x2A0 }
  - { offsetInCU: 0x2B577, offset: 0x2B577, size: 0x8, addend: 0x0, symName: __ZNSt3__114__rewrap_rangeB8ue170006IPKN5memdb9OperationES4_S4_EET0_S5_T1_, symObjAddr: 0x1F5D8, symBinAddr: 0x100020EE4, symSize: 0x2C }
  - { offsetInCU: 0x2B5CC, offset: 0x2B5CC, size: 0x8, addend: 0x0, symName: __ZNSt3__119__copy_trivial_implB8ue170006IKN5memdb9OperationES2_EENS_4pairIPT_PT0_EES6_S6_S8_, symObjAddr: 0x1F604, symBinAddr: 0x100020F10, symSize: 0x480 }
  - { offsetInCU: 0x2B63B, offset: 0x2B63B, size: 0x8, addend: 0x0, symName: __ZNSt3__119__constexpr_memmoveB8ue170006IN5memdb9OperationEKS2_Li0EEEPT_S5_PT0_NS_15__element_countE, symObjAddr: 0x1FA84, symBinAddr: 0x100021390, symSize: 0x64 }
  - { offsetInCU: 0x2B6A9, offset: 0x2B6A9, size: 0x8, addend: 0x0, symName: __ZNSt3__19make_pairB8ue170006IRPKN5memdb9OperationEPS2_EENS_4pairINS_18__unwrap_ref_decayIT_E4typeENS8_IT0_E4typeEEEOS9_OSC_, symObjAddr: 0x1FAE8, symBinAddr: 0x1000213F4, symSize: 0x2A0 }
  - { offsetInCU: 0x2B6FA, offset: 0x2B6FA, size: 0x8, addend: 0x0, symName: __ZNSt3__113__rewrap_iterB8ue170006IPKN5memdb9OperationES4_NS_18__unwrap_iter_implIS4_Lb1EEEEET_S7_T0_, symObjAddr: 0x202E4, symBinAddr: 0x100021BF0, symSize: 0x48 }
  - { offsetInCU: 0x2B7A2, offset: 0x2B7A2, size: 0x8, addend: 0x0, symName: __ZNSt3__110destroy_atB8ue170006IN5memdb9OperationELi0EEEvPT_, symObjAddr: 0x218E8, symBinAddr: 0x1000231F4, symSize: 0x24 }
  - { offsetInCU: 0x2B7D9, offset: 0x2B7D9, size: 0x8, addend: 0x0, symName: __ZNSt3__112__destroy_atB8ue170006IN5memdb9OperationELi0EEEvPT_, symObjAddr: 0x2190C, symBinAddr: 0x100023218, symSize: 0x10 }
  - { offsetInCU: 0x2B810, offset: 0x2B810, size: 0x8, addend: 0x0, symName: __ZNSt3__119__libcpp_deallocateB8ue170006EPvmm, symObjAddr: 0x21994, symBinAddr: 0x1000232A0, symSize: 0x60 }
  - { offsetInCU: 0x2B875, offset: 0x2B875, size: 0x8, addend: 0x0, symName: __ZNSt3__127__do_deallocate_handle_sizeB8ue170006IJSt11align_val_tEEEvPvmDpT_, symObjAddr: 0x219F4, symBinAddr: 0x100023300, symSize: 0x30 }
  - { offsetInCU: 0x2B8C8, offset: 0x2B8C8, size: 0x8, addend: 0x0, symName: __ZNSt3__127__do_deallocate_handle_sizeB8ue170006IJEEEvPvmDpT_, symObjAddr: 0x21A24, symBinAddr: 0x100023330, symSize: 0x28 }
  - { offsetInCU: 0x2B906, offset: 0x2B906, size: 0x8, addend: 0x0, symName: __ZNSt3__124__libcpp_operator_deleteB8ue170006IJPvSt11align_val_tEEEvDpT_, symObjAddr: 0x21A4C, symBinAddr: 0x100023358, symSize: 0x2C }
  - { offsetInCU: 0x2B94F, offset: 0x2B94F, size: 0x8, addend: 0x0, symName: __ZNSt3__124__libcpp_operator_deleteB8ue170006IJPvEEEvDpT_, symObjAddr: 0x21A78, symBinAddr: 0x100023384, symSize: 0x24 }
  - { offsetInCU: 0x2B984, offset: 0x2B984, size: 0x8, addend: 0x0, symName: __ZNSt3__1eqB8ue170006IPN5memdb9OperationEEEbRKNS_11__wrap_iterIT_EES8_, symObjAddr: 0x21D30, symBinAddr: 0x10002363C, symSize: 0x9C }
  - { offsetInCU: 0x2B9C7, offset: 0x2B9C7, size: 0x8, addend: 0x0, symName: __ZNSt3__113__rewrap_iterB8ue170006INS_11__wrap_iterIPN5memdb9OperationEEES4_NS_18__unwrap_iter_implIS5_Lb1EEEEET_S8_T0_, symObjAddr: 0x21E78, symBinAddr: 0x100023784, symSize: 0x338 }
  - { offsetInCU: 0x2BA21, offset: 0x2BA21, size: 0x8, addend: 0x0, symName: __ZNSt3__111__find_implB8ue170006IPN5memdb9OperationES3_S2_NS_10__identityEEET_S5_T0_RKT1_RT2_, symObjAddr: 0x221B0, symBinAddr: 0x100023ABC, symSize: 0x28C }
  - { offsetInCU: 0x2BA9B, offset: 0x2BA9B, size: 0x8, addend: 0x0, symName: __ZNSt3__113__unwrap_iterB8ue170006INS_11__wrap_iterIPN5memdb9OperationEEENS_18__unwrap_iter_implIS5_Lb1EEELi0EEEDTclsrT0_8__unwrapclsr3stdE7declvalIT_EEEES9_, symObjAddr: 0x2243C, symBinAddr: 0x100023D48, symSize: 0x274 }
  - { offsetInCU: 0x2BB36, offset: 0x2BB36, size: 0x8, addend: 0x0, symName: __ZNSt3__112__to_addressB8ue170006INS_11__wrap_iterIPN5memdb9OperationEEEvEEu7__decayIDTclsr19__to_address_helperIT_EE6__callclsr3stdE7declvalIRKS6_EEEEES8_, symObjAddr: 0x22BDC, symBinAddr: 0x1000244E8, symSize: 0x6C }
  - { offsetInCU: 0x2BBD3, offset: 0x2BBD3, size: 0x8, addend: 0x0, symName: __ZNSt3__18__invokeB8ue170006IRNS_10__identityEJRN5memdb9OperationEEEEDTclclsr3stdE7declvalIT_EEspclsr3stdE7declvalIT0_EEEEOS6_DpOS7_, symObjAddr: 0x23264, symBinAddr: 0x100024B70, symSize: 0xE8 }
  - { offsetInCU: 0x2BC51, offset: 0x2BC51, size: 0x8, addend: 0x0, symName: __ZNSt3__112__to_addressB8ue170006IKcEEPT_S3_, symObjAddr: 0x26994, symBinAddr: 0x1000282A0, symSize: 0x14 }
  - { offsetInCU: 0x2BCB9, offset: 0x2BCB9, size: 0x8, addend: 0x0, symName: __ZNSt3__112__to_addressB8ue170006IcEEPT_S2_, symObjAddr: 0x28FB0, symBinAddr: 0x10002A8BC, symSize: 0x14 }
  - { offsetInCU: 0x2BCEE, offset: 0x2BCEE, size: 0x8, addend: 0x0, symName: __ZNSt3__14copyB8ue170006IPKcPcEET0_T_S5_S4_, symObjAddr: 0x2B288, symBinAddr: 0x10002CB94, symSize: 0x2B4 }
  - { offsetInCU: 0x2BD4B, offset: 0x2BD4B, size: 0x8, addend: 0x0, symName: __ZNSt3__16__copyB8ue170006INS_17_ClassicAlgPolicyEPKcS3_PcEENS_4pairIT0_T2_EES6_T1_S7_, symObjAddr: 0x2B53C, symBinAddr: 0x10002CE48, symSize: 0x22C }
  - { offsetInCU: 0x2BDBA, offset: 0x2BDBA, size: 0x8, addend: 0x0, symName: __ZNSt3__123__dispatch_copy_or_moveB8ue170006INS_17_ClassicAlgPolicyENS_11__copy_loopIS1_EENS_14__copy_trivialEPKcS6_PcEENS_4pairIT2_T4_EES9_T3_SA_, symObjAddr: 0x2B768, symBinAddr: 0x10002D074, symSize: 0x22C }
  - { offsetInCU: 0x2BE3B, offset: 0x2BE3B, size: 0x8, addend: 0x0, symName: __ZNSt3__121__unwrap_and_dispatchB8ue170006INS_10__overloadINS_11__copy_loopINS_17_ClassicAlgPolicyEEENS_14__copy_trivialEEEPKcS8_PcLi0EEENS_4pairIT0_T2_EESB_T1_SC_, symObjAddr: 0x2B994, symBinAddr: 0x10002D2A0, symSize: 0x634 }
  - { offsetInCU: 0x2BED4, offset: 0x2BED4, size: 0x8, addend: 0x0, symName: __ZNSt3__114__unwrap_rangeB8ue170006IPKcS2_EEDaT_T0_, symObjAddr: 0x2BFC8, symBinAddr: 0x10002D8D4, symSize: 0x224 }
  - { offsetInCU: 0x2C072, offset: 0x2C072, size: 0x8, addend: 0x0, symName: __ZNSt3__113__unwrap_iterB8ue170006IPcNS_18__unwrap_iter_implIS1_Lb1EEELi0EEEDTclsrT0_8__unwrapclsr3stdE7declvalIT_EEEES5_, symObjAddr: 0x2C448, symBinAddr: 0x10002DD54, symSize: 0x24 }
  - { offsetInCU: 0x2C0B6, offset: 0x2C0B6, size: 0x8, addend: 0x0, symName: __ZNSt3__19make_pairB8ue170006IPKcPcEENS_4pairINS_18__unwrap_ref_decayIT_E4typeENS5_IT0_E4typeEEEOS6_OS9_, symObjAddr: 0x2C46C, symBinAddr: 0x10002DD78, symSize: 0x2A0 }
  - { offsetInCU: 0x2C107, offset: 0x2C107, size: 0x8, addend: 0x0, symName: __ZNSt3__114__rewrap_rangeB8ue170006IPKcS2_S2_EET0_S3_T1_, symObjAddr: 0x2C70C, symBinAddr: 0x10002E018, symSize: 0x2C }
  - { offsetInCU: 0x2C15C, offset: 0x2C15C, size: 0x8, addend: 0x0, symName: __ZNSt3__113__rewrap_iterB8ue170006IPcS1_NS_18__unwrap_iter_implIS1_Lb1EEEEET_S4_T0_, symObjAddr: 0x2C738, symBinAddr: 0x10002E044, symSize: 0x48 }
  - { offsetInCU: 0x2C31A, offset: 0x2C31A, size: 0x8, addend: 0x0, symName: __ZNSt3__113__unwrap_iterB8ue170006IPKcNS_18__unwrap_iter_implIS2_Lb1EEELi0EEEDTclsrT0_8__unwrapclsr3stdE7declvalIT_EEEES6_, symObjAddr: 0x2CA8C, symBinAddr: 0x10002E398, symSize: 0x24 }
  - { offsetInCU: 0x2C3B1, offset: 0x2C3B1, size: 0x8, addend: 0x0, symName: __ZNSt3__119__copy_trivial_implB8ue170006IKccEENS_4pairIPT_PT0_EES4_S4_S6_, symObjAddr: 0x2CD6C, symBinAddr: 0x10002E678, symSize: 0x474 }
  - { offsetInCU: 0x2C420, offset: 0x2C420, size: 0x8, addend: 0x0, symName: __ZNSt3__119__constexpr_memmoveB8ue170006IcKcLi0EEEPT_S3_PT0_NS_15__element_countE, symObjAddr: 0x2D1E0, symBinAddr: 0x10002EAEC, symSize: 0x64 }
  - { offsetInCU: 0x2C48E, offset: 0x2C48E, size: 0x8, addend: 0x0, symName: __ZNSt3__19make_pairB8ue170006IRPKcPcEENS_4pairINS_18__unwrap_ref_decayIT_E4typeENS6_IT0_E4typeEEEOS7_OSA_, symObjAddr: 0x2D244, symBinAddr: 0x10002EB50, symSize: 0x2A0 }
  - { offsetInCU: 0x2C532, offset: 0x2C532, size: 0x8, addend: 0x0, symName: __ZNSt3__113__rewrap_iterB8ue170006IPKcS2_NS_18__unwrap_iter_implIS2_Lb1EEEEET_S5_T0_, symObjAddr: 0x2DA64, symBinAddr: 0x10002F370, symSize: 0x48 }
  - { offsetInCU: 0x2C587, offset: 0x2C587, size: 0x8, addend: 0x0, symName: __ZNSt3__16fill_nB8ue170006IPcmcEET_S2_T0_RKT1_, symObjAddr: 0x2DD14, symBinAddr: 0x10002F620, symSize: 0x74 }
  - { offsetInCU: 0x2C5EA, offset: 0x2C5EA, size: 0x8, addend: 0x0, symName: __ZNSt3__18__fill_nB8ue170006IPcmcEET_S2_T0_RKT1_, symObjAddr: 0x2DD88, symBinAddr: 0x10002F694, symSize: 0x1DC }
  - { offsetInCU: 0x2C64D, offset: 0x2C64D, size: 0x8, addend: 0x0, symName: __ZNSt3__121__convert_to_integralB8ue170006Em, symObjAddr: 0x2DF64, symBinAddr: 0x10002F870, symSize: 0x14 }
  - { offsetInCU: 0x2C679, offset: 0x2C679, size: 0x8, addend: 0x0, symName: __ZNSt3__1neB8ue170006IPcEEbRKNS_11__wrap_iterIT_EES6_, symObjAddr: 0x2E500, symBinAddr: 0x10002FE0C, symSize: 0xC4 }
  - { offsetInCU: 0x2C6BC, offset: 0x2C6BC, size: 0x8, addend: 0x0, symName: __ZNSt3__1eqB8ue170006IPcEEbRKNS_11__wrap_iterIT_EES6_, symObjAddr: 0x2E894, symBinAddr: 0x1000301A0, symSize: 0x9C }
  - { offsetInCU: 0x2C6FF, offset: 0x2C6FF, size: 0x8, addend: 0x0, symName: __ZNSt3__122__make_exception_guardB8ue170006INS_6vectorIcNS_9allocatorIcEEE16__destroy_vectorEEENS_28__exception_guard_exceptionsIT_EES7_, symObjAddr: 0x30180, symBinAddr: 0x100031A8C, symSize: 0x2BC }
  - { offsetInCU: 0x2C738, offset: 0x2C738, size: 0x8, addend: 0x0, symName: __ZNSt3__119__allocate_at_leastB8ue170006INS_9allocatorIcEEEEDaRT_m, symObjAddr: 0x31E18, symBinAddr: 0x100033724, symSize: 0x250 }
  - { offsetInCU: 0x2C77D, offset: 0x2C77D, size: 0x8, addend: 0x0, symName: __ZNSt3__117allocate_at_leastB8ue170006INS_9allocatorIcEEEENS_17allocation_resultINS_16allocator_traitsIT_E7pointerEEERS5_m, symObjAddr: 0x32798, symBinAddr: 0x1000340A4, symSize: 0x224 }
  - { offsetInCU: 0x2C7E7, offset: 0x2C7E7, size: 0x8, addend: 0x0, symName: __ZNSt3__112construct_atB8ue170006IcJEPcEEPT_S3_DpOT0_, symObjAddr: 0x33EE0, symBinAddr: 0x1000357EC, symSize: 0xE8 }
  - { offsetInCU: 0x2C843, offset: 0x2C843, size: 0x8, addend: 0x0, symName: __ZNSt3__110destroy_atB8ue170006IcLi0EEEvPT_, symObjAddr: 0x352E0, symBinAddr: 0x100036BEC, symSize: 0x24 }
  - { offsetInCU: 0x2C87A, offset: 0x2C87A, size: 0x8, addend: 0x0, symName: __ZNSt3__112__destroy_atB8ue170006IcLi0EEEvPT_, symObjAddr: 0x35304, symBinAddr: 0x100036C10, symSize: 0x10 }
  - { offsetInCU: 0x2C8B1, offset: 0x2C8B1, size: 0x8, addend: 0x0, symName: __ZNSt3__130__uninitialized_allocator_copyB8ue170006INS_9allocatorIcEEPcS3_S3_EET2_RT_T0_T1_S4_, symObjAddr: 0x3757C, symBinAddr: 0x100038E88, symSize: 0x334 }
  - { offsetInCU: 0x2C957, offset: 0x2C957, size: 0x8, addend: 0x0, symName: __ZNSt3__114__unwrap_rangeB8ue170006IPcS1_EEDaT_T0_, symObjAddr: 0x378B0, symBinAddr: 0x1000391BC, symSize: 0x224 }
  - { offsetInCU: 0x2C9A5, offset: 0x2C9A5, size: 0x8, addend: 0x0, symName: __ZNSt3__135__uninitialized_allocator_copy_implB8ue170006INS_9allocatorIcEEcccLPv0EEEPT2_RT_PT0_S9_S5_, symObjAddr: 0x37AD4, symBinAddr: 0x1000393E0, symSize: 0x38 }
  - { offsetInCU: 0x2CBBE, offset: 0x2CBBE, size: 0x8, addend: 0x0, symName: __ZNSt3__14copyB8ue170006IPcS1_EET0_T_S3_S2_, symObjAddr: 0x380B0, symBinAddr: 0x1000399BC, symSize: 0x2B4 }
  - { offsetInCU: 0x2CC1B, offset: 0x2CC1B, size: 0x8, addend: 0x0, symName: __ZNSt3__16__copyB8ue170006INS_17_ClassicAlgPolicyEPcS2_S2_EENS_4pairIT0_T2_EES4_T1_S5_, symObjAddr: 0x38364, symBinAddr: 0x100039C70, symSize: 0x22C }
  - { offsetInCU: 0x2CC8A, offset: 0x2CC8A, size: 0x8, addend: 0x0, symName: __ZNSt3__123__dispatch_copy_or_moveB8ue170006INS_17_ClassicAlgPolicyENS_11__copy_loopIS1_EENS_14__copy_trivialEPcS5_S5_EENS_4pairIT2_T4_EES7_T3_S8_, symObjAddr: 0x38590, symBinAddr: 0x100039E9C, symSize: 0x22C }
  - { offsetInCU: 0x2CD0B, offset: 0x2CD0B, size: 0x8, addend: 0x0, symName: __ZNSt3__121__unwrap_and_dispatchB8ue170006INS_10__overloadINS_11__copy_loopINS_17_ClassicAlgPolicyEEENS_14__copy_trivialEEEPcS7_S7_Li0EEENS_4pairIT0_T2_EES9_T1_SA_, symObjAddr: 0x387BC, symBinAddr: 0x10003A0C8, symSize: 0x634 }
  - { offsetInCU: 0x2CDA4, offset: 0x2CDA4, size: 0x8, addend: 0x0, symName: __ZNSt3__19make_pairB8ue170006IPcS1_EENS_4pairINS_18__unwrap_ref_decayIT_E4typeENS3_IT0_E4typeEEEOS4_OS7_, symObjAddr: 0x3904C, symBinAddr: 0x10003A958, symSize: 0x2A0 }
  - { offsetInCU: 0x2CDF5, offset: 0x2CDF5, size: 0x8, addend: 0x0, symName: __ZNSt3__114__rewrap_rangeB8ue170006IPcS1_S1_EET0_S2_T1_, symObjAddr: 0x392EC, symBinAddr: 0x10003ABF8, symSize: 0x2C }
  - { offsetInCU: 0x2CE4A, offset: 0x2CE4A, size: 0x8, addend: 0x0, symName: __ZNSt3__119__copy_trivial_implB8ue170006IccEENS_4pairIPT_PT0_EES3_S3_S5_, symObjAddr: 0x39318, symBinAddr: 0x10003AC24, symSize: 0x474 }
  - { offsetInCU: 0x2CEB9, offset: 0x2CEB9, size: 0x8, addend: 0x0, symName: __ZNSt3__119__constexpr_memmoveB8ue170006IccLi0EEEPT_S2_PT0_NS_15__element_countE, symObjAddr: 0x3978C, symBinAddr: 0x10003B098, symSize: 0x64 }
  - { offsetInCU: 0x2CF27, offset: 0x2CF27, size: 0x8, addend: 0x0, symName: __ZNSt3__19make_pairB8ue170006IRPcS1_EENS_4pairINS_18__unwrap_ref_decayIT_E4typeENS4_IT0_E4typeEEEOS5_OS8_, symObjAddr: 0x397F0, symBinAddr: 0x10003B0FC, symSize: 0x2A0 }
  - { offsetInCU: 0x2CF78, offset: 0x2CF78, size: 0x8, addend: 0x0, symName: __ZNSt3__1eqB8ue170006IcNS_11char_traitsIcEEEEbNS_17basic_string_viewIT_T0_EES6_, symObjAddr: 0x39D54, symBinAddr: 0x10003B660, symSize: 0x348 }
  - { offsetInCU: 0x2CFCF, offset: 0x2CFCF, size: 0x8, addend: 0x0, symName: __ZNSt3__118__constexpr_strlenB8ue170006EPKc, symObjAddr: 0x3AE64, symBinAddr: 0x10003C770, symSize: 0x24 }
  - { offsetInCU: 0x2CFFB, offset: 0x2CFFB, size: 0x8, addend: 0x0, symName: __ZNSt3__122__make_exception_guardB8ue170006INS_6vectorINS1_IN5memdb9OperationENS_9allocatorIS3_EEEENS4_IS6_EEE16__destroy_vectorEEENS_28__exception_guard_exceptionsIT_EESB_, symObjAddr: 0x3B4C0, symBinAddr: 0x10003CDCC, symSize: 0x2BC }
  - { offsetInCU: 0x2D034, offset: 0x2D034, size: 0x8, addend: 0x0, symName: __ZNSt3__119__allocate_at_leastB8ue170006INS_9allocatorINS_6vectorIN5memdb9OperationENS1_IS4_EEEEEEEEDaRT_m, symObjAddr: 0x3D4D4, symBinAddr: 0x10003EDE0, symSize: 0x250 }
  - { offsetInCU: 0x2D079, offset: 0x2D079, size: 0x8, addend: 0x0, symName: __ZNSt3__117allocate_at_leastB8ue170006INS_9allocatorINS_6vectorIN5memdb9OperationENS1_IS4_EEEEEEEENS_17allocation_resultINS_16allocator_traitsIT_E7pointerEEERSA_m, symObjAddr: 0x3DF34, symBinAddr: 0x10003F840, symSize: 0x224 }
  - { offsetInCU: 0x2D0BE, offset: 0x2D0BE, size: 0x8, addend: 0x0, symName: __ZNSt3__112__to_addressB8ue170006INS_6vectorIN5memdb9OperationENS_9allocatorIS3_EEEEEEPT_S8_, symObjAddr: 0x3EABC, symBinAddr: 0x1000403C8, symSize: 0x14 }
  - { offsetInCU: 0x2D0F3, offset: 0x2D0F3, size: 0x8, addend: 0x0, symName: __ZNSt3__130__uninitialized_allocator_copyB8ue170006INS_9allocatorINS_6vectorIN5memdb9OperationENS1_IS4_EEEEEEPKS6_S9_PS6_EET2_RT_T0_T1_SB_, symObjAddr: 0x3EE28, symBinAddr: 0x100040734, symSize: 0x334 }
  - { offsetInCU: 0x2D199, offset: 0x2D199, size: 0x8, addend: 0x0, symName: __ZNSt3__114__unwrap_rangeB8ue170006IPKNS_6vectorIN5memdb9OperationENS_9allocatorIS3_EEEES8_EEDaT_T0_, symObjAddr: 0x3FB18, symBinAddr: 0x100041424, symSize: 0x224 }
  - { offsetInCU: 0x2D1E7, offset: 0x2D1E7, size: 0x8, addend: 0x0, symName: __ZNSt3__135__uninitialized_allocator_copy_implB8ue170006INS_9allocatorINS_6vectorIN5memdb9OperationENS1_IS4_EEEEEEPKS6_S9_PS6_EET2_RT_T0_T1_SB_, symObjAddr: 0x3FD3C, symBinAddr: 0x100041648, symSize: 0x6EC }
  - { offsetInCU: 0x2D293, offset: 0x2D293, size: 0x8, addend: 0x0, symName: __ZNSt3__113__unwrap_iterB8ue170006IPNS_6vectorIN5memdb9OperationENS_9allocatorIS3_EEEENS_18__unwrap_iter_implIS7_Lb1EEELi0EEEDTclsrT0_8__unwrapclsr3stdE7declvalIT_EEEESB_, symObjAddr: 0x40428, symBinAddr: 0x100041D34, symSize: 0x24 }
  - { offsetInCU: 0x2D2D7, offset: 0x2D2D7, size: 0x8, addend: 0x0, symName: __ZNSt3__113__rewrap_iterB8ue170006IPNS_6vectorIN5memdb9OperationENS_9allocatorIS3_EEEES7_NS_18__unwrap_iter_implIS7_Lb1EEEEET_SA_T0_, symObjAddr: 0x4044C, symBinAddr: 0x100041D58, symSize: 0x48 }
  - { offsetInCU: 0x2D47B, offset: 0x2D47B, size: 0x8, addend: 0x0, symName: __ZNSt3__113__unwrap_iterB8ue170006IPKNS_6vectorIN5memdb9OperationENS_9allocatorIS3_EEEENS_18__unwrap_iter_implIS8_Lb1EEELi0EEEDTclsrT0_8__unwrapclsr3stdE7declvalIT_EEEESC_, symObjAddr: 0x407A0, symBinAddr: 0x1000420AC, symSize: 0x24 }
  - { offsetInCU: 0x2D512, offset: 0x2D512, size: 0x8, addend: 0x0, symName: __ZNSt3__112__to_addressB8ue170006IKNS_6vectorIN5memdb9OperationENS_9allocatorIS3_EEEEEEPT_S9_, symObjAddr: 0x40870, symBinAddr: 0x10004217C, symSize: 0x14 }
  - { offsetInCU: 0x2D547, offset: 0x2D547, size: 0x8, addend: 0x0, symName: __ZNSt3__122__make_exception_guardB8ue170006INS_29_AllocatorDestroyRangeReverseINS_9allocatorINS_6vectorIN5memdb9OperationENS2_IS5_EEEEEEPS7_EEEENS_28__exception_guard_exceptionsIT_EESC_, symObjAddr: 0x40A94, symBinAddr: 0x1000423A0, symSize: 0x23C }
  - { offsetInCU: 0x2D5A3, offset: 0x2D5A3, size: 0x8, addend: 0x0, symName: __ZNSt3__112construct_atB8ue170006INS_6vectorIN5memdb9OperationENS_9allocatorIS3_EEEEJRKS6_EPS6_EEPT_SB_DpOT0_, symObjAddr: 0x412B8, symBinAddr: 0x100042BC4, symSize: 0x110 }
  - { offsetInCU: 0x2D613, offset: 0x2D613, size: 0x8, addend: 0x0, symName: __ZNSt3__130__uninitialized_allocator_copyB8ue170006INS_9allocatorIN5memdb9OperationEEEPS3_S5_S5_EET2_RT_T0_T1_S6_, symObjAddr: 0x423E8, symBinAddr: 0x100043CF4, symSize: 0x334 }
  - { offsetInCU: 0x2D6B9, offset: 0x2D6B9, size: 0x8, addend: 0x0, symName: __ZNSt3__114__unwrap_rangeB8ue170006IPN5memdb9OperationES3_EEDaT_T0_, symObjAddr: 0x4271C, symBinAddr: 0x100044028, symSize: 0x224 }
  - { offsetInCU: 0x2D707, offset: 0x2D707, size: 0x8, addend: 0x0, symName: __ZNSt3__135__uninitialized_allocator_copy_implB8ue170006INS_9allocatorIN5memdb9OperationEEES3_S3_S3_LPv0EEEPT2_RT_PT0_SB_S7_, symObjAddr: 0x42940, symBinAddr: 0x10004424C, symSize: 0x38 }
  - { offsetInCU: 0x2D920, offset: 0x2D920, size: 0x8, addend: 0x0, symName: __ZNSt3__14copyB8ue170006IPN5memdb9OperationES3_EET0_T_S5_S4_, symObjAddr: 0x42F1C, symBinAddr: 0x100044828, symSize: 0x2B4 }
  - { offsetInCU: 0x2D97D, offset: 0x2D97D, size: 0x8, addend: 0x0, symName: __ZNSt3__16__copyB8ue170006INS_17_ClassicAlgPolicyEPN5memdb9OperationES4_S4_EENS_4pairIT0_T2_EES6_T1_S7_, symObjAddr: 0x431D0, symBinAddr: 0x100044ADC, symSize: 0x22C }
  - { offsetInCU: 0x2D9EC, offset: 0x2D9EC, size: 0x8, addend: 0x0, symName: __ZNSt3__123__dispatch_copy_or_moveB8ue170006INS_17_ClassicAlgPolicyENS_11__copy_loopIS1_EENS_14__copy_trivialEPN5memdb9OperationES7_S7_EENS_4pairIT2_T4_EES9_T3_SA_, symObjAddr: 0x433FC, symBinAddr: 0x100044D08, symSize: 0x22C }
  - { offsetInCU: 0x2DA6D, offset: 0x2DA6D, size: 0x8, addend: 0x0, symName: __ZNSt3__121__unwrap_and_dispatchB8ue170006INS_10__overloadINS_11__copy_loopINS_17_ClassicAlgPolicyEEENS_14__copy_trivialEEEPN5memdb9OperationES9_S9_Li0EEENS_4pairIT0_T2_EESB_T1_SC_, symObjAddr: 0x43628, symBinAddr: 0x100044F34, symSize: 0x634 }
  - { offsetInCU: 0x2DB06, offset: 0x2DB06, size: 0x8, addend: 0x0, symName: __ZNSt3__19make_pairB8ue170006IPN5memdb9OperationES3_EENS_4pairINS_18__unwrap_ref_decayIT_E4typeENS5_IT0_E4typeEEEOS6_OS9_, symObjAddr: 0x43EB8, symBinAddr: 0x1000457C4, symSize: 0x2A0 }
  - { offsetInCU: 0x2DB57, offset: 0x2DB57, size: 0x8, addend: 0x0, symName: __ZNSt3__114__rewrap_rangeB8ue170006IPN5memdb9OperationES3_S3_EET0_S4_T1_, symObjAddr: 0x44158, symBinAddr: 0x100045A64, symSize: 0x2C }
  - { offsetInCU: 0x2DBAC, offset: 0x2DBAC, size: 0x8, addend: 0x0, symName: __ZNSt3__119__copy_trivial_implB8ue170006IN5memdb9OperationES2_EENS_4pairIPT_PT0_EES5_S5_S7_, symObjAddr: 0x44184, symBinAddr: 0x100045A90, symSize: 0x480 }
  - { offsetInCU: 0x2DC1B, offset: 0x2DC1B, size: 0x8, addend: 0x0, symName: __ZNSt3__119__constexpr_memmoveB8ue170006IN5memdb9OperationES2_Li0EEEPT_S4_PT0_NS_15__element_countE, symObjAddr: 0x44604, symBinAddr: 0x100045F10, symSize: 0x64 }
  - { offsetInCU: 0x2DC89, offset: 0x2DC89, size: 0x8, addend: 0x0, symName: __ZNSt3__19make_pairB8ue170006IRPN5memdb9OperationES3_EENS_4pairINS_18__unwrap_ref_decayIT_E4typeENS6_IT0_E4typeEEEOS7_OSA_, symObjAddr: 0x44668, symBinAddr: 0x100045F74, symSize: 0x2A0 }
  - { offsetInCU: 0x2DCDA, offset: 0x2DCDA, size: 0x8, addend: 0x0, symName: __ZNSt3__119__allocator_destroyB8ue170006INS_9allocatorINS_6vectorIN5memdb9OperationENS1_IS4_EEEEEENS_16reverse_iteratorIPS6_EESA_EEvRT_T0_T1_, symObjAddr: 0x45154, symBinAddr: 0x100046A60, symSize: 0x2DC }
  - { offsetInCU: 0x2DD46, offset: 0x2DD46, size: 0x8, addend: 0x0, symName: __ZNSt3__1neB8ue170006IPNS_6vectorIN5memdb9OperationENS_9allocatorIS3_EEEES7_EEbRKNS_16reverse_iteratorIT_EERKNS8_IT0_EE, symObjAddr: 0x454B0, symBinAddr: 0x100046DBC, symSize: 0x9C }
  - { offsetInCU: 0x2DD92, offset: 0x2DD92, size: 0x8, addend: 0x0, symName: __ZNSt3__112__to_addressB8ue170006INS_16reverse_iteratorIPNS_6vectorIN5memdb9OperationENS_9allocatorIS4_EEEEEEvEEu7__decayIDTclsr19__to_address_helperIT_EE6__callclsr3stdE7declvalIRKSA_EEEEESC_, symObjAddr: 0x45574, symBinAddr: 0x100046E80, symSize: 0x6C }
  - { offsetInCU: 0x2DDC8, offset: 0x2DDC8, size: 0x8, addend: 0x0, symName: __ZNSt3__110destroy_atB8ue170006INS_6vectorIN5memdb9OperationENS_9allocatorIS3_EEEELi0EEEvPT_, symObjAddr: 0x45840, symBinAddr: 0x10004714C, symSize: 0x24 }
  - { offsetInCU: 0x2DDFF, offset: 0x2DDFF, size: 0x8, addend: 0x0, symName: __ZNSt3__112__destroy_atB8ue170006INS_6vectorIN5memdb9OperationENS_9allocatorIS3_EEEELi0EEEvPT_, symObjAddr: 0x45864, symBinAddr: 0x100047170, symSize: 0x6C }
  - { offsetInCU: 0x2DE5F, offset: 0x2DE5F, size: 0x8, addend: 0x0, symName: __ZNSt3__14prevB8ue170006IPNS_6vectorIN5memdb9OperationENS_9allocatorIS3_EEEEEENS_9enable_ifIXsr29__has_input_iterator_categoryIT_EE5valueES9_E4typeES9_NS_15iterator_traitsIS9_E15difference_typeE, symObjAddr: 0x459F8, symBinAddr: 0x100047304, symSize: 0x270 }
  - { offsetInCU: 0x2DEA7, offset: 0x2DEA7, size: 0x8, addend: 0x0, symName: __ZNSt3__121__convert_to_integralB8ue170006El, symObjAddr: 0x45CE8, symBinAddr: 0x1000475F4, symSize: 0x14 }
  - { offsetInCU: 0x2DED3, offset: 0x2DED3, size: 0x8, addend: 0x0, symName: __ZNSt3__19__advanceB8ue170006IPNS_6vectorIN5memdb9OperationENS_9allocatorIS3_EEEEEEvRT_NS_15iterator_traitsIS8_E15difference_typeENS_26random_access_iterator_tagE, symObjAddr: 0x45CFC, symBinAddr: 0x100047608, symSize: 0x1A4 }
  - { offsetInCU: 0x2DF6F, offset: 0x2DF6F, size: 0x8, addend: 0x0, symName: __ZNSt3__128__char_traits_length_checkedB8ue170006INS_11char_traitsIcEEEEmPKNT_9char_typeE, symObjAddr: 0x47860, symBinAddr: 0x10004916C, symSize: 0x24 }
  - { offsetInCU: 0x2E359, offset: 0x2E359, size: 0x8, addend: 0x0, symName: __ZNSt3__112__to_addressB8ue170006INS_12basic_stringIcNS_11char_traitsIcEENS_9allocatorIcEEEEEEPT_S8_, symObjAddr: 0x4C3BC, symBinAddr: 0x10004DCC8, symSize: 0x14 }
  - { offsetInCU: 0x2E3B3, offset: 0x2E3B3, size: 0x8, addend: 0x0, symName: __ZNSt3__112construct_atB8ue170006INS_12basic_stringIcNS_11char_traitsIcEENS_9allocatorIcEEEEJS6_EPS6_EEPT_S9_DpOT0_, symObjAddr: 0x4D1F4, symBinAddr: 0x10004EB00, symSize: 0x110 }
  - { offsetInCU: 0x2E423, offset: 0x2E423, size: 0x8, addend: 0x0, symName: __ZNSt3__13maxB8ue170006ImEERKT_S3_S3_, symObjAddr: 0x4ED80, symBinAddr: 0x10005068C, symSize: 0x104 }
  - { offsetInCU: 0x2E466, offset: 0x2E466, size: 0x8, addend: 0x0, symName: __ZNSt3__13maxB8ue170006ImNS_6__lessIvvEEEERKT_S5_S5_T0_, symObjAddr: 0x4F138, symBinAddr: 0x100050A44, symSize: 0x2C0 }
  - { offsetInCU: 0x2E4C6, offset: 0x2E4C6, size: 0x8, addend: 0x0, symName: __ZNSt3__119__allocate_at_leastB8ue170006INS_9allocatorINS_12basic_stringIcNS_11char_traitsIcEENS1_IcEEEEEEEEDaRT_m, symObjAddr: 0x4FC68, symBinAddr: 0x100051574, symSize: 0x250 }
  - { offsetInCU: 0x2E50B, offset: 0x2E50B, size: 0x8, addend: 0x0, symName: __ZNSt3__117allocate_at_leastB8ue170006INS_9allocatorINS_12basic_stringIcNS_11char_traitsIcEENS1_IcEEEEEEEENS_17allocation_resultINS_16allocator_traitsIT_E7pointerEEERSA_m, symObjAddr: 0x50320, symBinAddr: 0x100051C2C, symSize: 0x224 }
  - { offsetInCU: 0x2E550, offset: 0x2E550, size: 0x8, addend: 0x0, symName: __ZNSt3__142__uninitialized_allocator_move_if_noexceptB8ue170006INS_9allocatorINS_12basic_stringIcNS_11char_traitsIcEENS1_IcEEEEEENS_16reverse_iteratorIPS6_EESA_SA_EET2_RT_T0_T1_SB_, symObjAddr: 0x50F60, symBinAddr: 0x10005286C, symSize: 0x5D8 }
  - { offsetInCU: 0x2E605, offset: 0x2E605, size: 0x8, addend: 0x0, symName: __ZNSt3__14swapB8ue170006IPNS_12basic_stringIcNS_11char_traitsIcEENS_9allocatorIcEEEEEENS_9enable_ifIXaasr21is_move_constructibleIT_EE5valuesr18is_move_assignableIS9_EE5valueEvE4typeERS9_SC_, symObjAddr: 0x51668, symBinAddr: 0x100052F74, symSize: 0x1C0 }
  - { offsetInCU: 0x2E656, offset: 0x2E656, size: 0x8, addend: 0x0, symName: __ZNSt3__122__make_exception_guardB8ue170006INS_29_AllocatorDestroyRangeReverseINS_9allocatorINS_12basic_stringIcNS_11char_traitsIcEENS2_IcEEEEEENS_16reverse_iteratorIPS7_EEEEEENS_28__exception_guard_exceptionsIT_EESE_, symObjAddr: 0x51BA0, symBinAddr: 0x1000534AC, symSize: 0x23C }
  - { offsetInCU: 0x2E68D, offset: 0x2E68D, size: 0x8, addend: 0x0, symName: __ZNSt3__1neB8ue170006IPNS_12basic_stringIcNS_11char_traitsIcEENS_9allocatorIcEEEES7_EEbRKNS_16reverse_iteratorIT_EERKNS8_IT0_EE, symObjAddr: 0x51E6C, symBinAddr: 0x100053778, symSize: 0x9C }
  - { offsetInCU: 0x2E6D9, offset: 0x2E6D9, size: 0x8, addend: 0x0, symName: __ZNSt3__112__to_addressB8ue170006INS_16reverse_iteratorIPNS_12basic_stringIcNS_11char_traitsIcEENS_9allocatorIcEEEEEEvEEu7__decayIDTclsr19__to_address_helperIT_EE6__callclsr3stdE7declvalIRKSA_EEEEESC_, symObjAddr: 0x51F08, symBinAddr: 0x100053814, symSize: 0x6C }
  - { offsetInCU: 0x2E738, offset: 0x2E738, size: 0x8, addend: 0x0, symName: __ZNSt3__14prevB8ue170006IPNS_12basic_stringIcNS_11char_traitsIcEENS_9allocatorIcEEEEEENS_9enable_ifIXsr29__has_input_iterator_categoryIT_EE5valueES9_E4typeES9_NS_15iterator_traitsIS9_E15difference_typeE, symObjAddr: 0x528A8, symBinAddr: 0x1000541B4, symSize: 0x270 }
  - { offsetInCU: 0x2E780, offset: 0x2E780, size: 0x8, addend: 0x0, symName: __ZNSt3__19__advanceB8ue170006IPNS_12basic_stringIcNS_11char_traitsIcEENS_9allocatorIcEEEEEEvRT_NS_15iterator_traitsIS8_E15difference_typeENS_26random_access_iterator_tagE, symObjAddr: 0x52B98, symBinAddr: 0x1000544A4, symSize: 0x1A4 }
  - { offsetInCU: 0x2E7C9, offset: 0x2E7C9, size: 0x8, addend: 0x0, symName: __ZNSt3__119__allocator_destroyB8ue170006INS_9allocatorINS_12basic_stringIcNS_11char_traitsIcEENS1_IcEEEEEENS_16reverse_iteratorINS8_IPS6_EEEESB_EEvRT_T0_T1_, symObjAddr: 0x532D0, symBinAddr: 0x100054BDC, symSize: 0x1A4 }
  - { offsetInCU: 0x2E82E, offset: 0x2E82E, size: 0x8, addend: 0x0, symName: __ZNSt3__1neB8ue170006INS_16reverse_iteratorIPNS_12basic_stringIcNS_11char_traitsIcEENS_9allocatorIcEEEEEES9_EEbRKNS1_IT_EERKNS1_IT0_EE, symObjAddr: 0x53710, symBinAddr: 0x10005501C, symSize: 0x324 }
  - { offsetInCU: 0x2E87C, offset: 0x2E87C, size: 0x8, addend: 0x0, symName: __ZNSt3__112__to_addressB8ue170006INS_16reverse_iteratorINS1_IPNS_12basic_stringIcNS_11char_traitsIcEENS_9allocatorIcEEEEEEEEvEEu7__decayIDTclsr19__to_address_helperIT_EE6__callclsr3stdE7declvalIRKSB_EEEEESD_, symObjAddr: 0x53A5C, symBinAddr: 0x100055368, symSize: 0x6C }
  - { offsetInCU: 0x2E8B2, offset: 0x2E8B2, size: 0x8, addend: 0x0, symName: __ZNSt3__110destroy_atB8ue170006INS_12basic_stringIcNS_11char_traitsIcEENS_9allocatorIcEEEELi0EEEvPT_, symObjAddr: 0x53E20, symBinAddr: 0x10005572C, symSize: 0x24 }
  - { offsetInCU: 0x2E8E9, offset: 0x2E8E9, size: 0x8, addend: 0x0, symName: __ZNSt3__112__destroy_atB8ue170006INS_12basic_stringIcNS_11char_traitsIcEENS_9allocatorIcEEEELi0EEEvPT_, symObjAddr: 0x53E44, symBinAddr: 0x100055750, symSize: 0x6C }
  - { offsetInCU: 0x2E949, offset: 0x2E949, size: 0x8, addend: 0x0, symName: __ZNSt3__14prevB8ue170006INS_16reverse_iteratorIPNS_12basic_stringIcNS_11char_traitsIcEENS_9allocatorIcEEEEEEEENS_9enable_ifIXsr29__has_input_iterator_categoryIT_EE5valueESB_E4typeESB_NS_15iterator_traitsISB_E15difference_typeE, symObjAddr: 0x54210, symBinAddr: 0x100055B1C, symSize: 0x2C4 }
  - { offsetInCU: 0x2E991, offset: 0x2E991, size: 0x8, addend: 0x0, symName: __ZNSt3__19__advanceB8ue170006INS_16reverse_iteratorIPNS_12basic_stringIcNS_11char_traitsIcEENS_9allocatorIcEEEEEEEEvRT_NS_15iterator_traitsISA_E15difference_typeENS_26random_access_iterator_tagE, symObjAddr: 0x54554, symBinAddr: 0x100055E60, symSize: 0x7C }
  - { offsetInCU: 0x2F43C, offset: 0x2F43C, size: 0x8, addend: 0x0, symName: __ZNSt3__14swapB8ue170006IPN5memdb9Tokenizer5TokenEEENS_9enable_ifIXaasr21is_move_constructibleIT_EE5valuesr18is_move_assignableIS6_EE5valueEvE4typeERS6_S9_, symObjAddr: 0x59EB8, symBinAddr: 0x10005B7C4, symSize: 0x1C0 }
  - { offsetInCU: 0x2F48D, offset: 0x2F48D, size: 0x8, addend: 0x0, symName: __ZNSt3__14swapB8ue170006IPNS_19__shared_weak_countEEENS_9enable_ifIXaasr21is_move_constructibleIT_EE5valuesr18is_move_assignableIS4_EE5valueEvE4typeERS4_S7_, symObjAddr: 0x5A078, symBinAddr: 0x10005B984, symSize: 0x1C0 }
  - { offsetInCU: 0x33C95, offset: 0x33C95, size: 0x8, addend: 0x0, symName: __ZNSt3__134__libcpp_atomic_refcount_decrementB8ue170006IlEET_RS1_, symObjAddr: 0x7BBAC, symBinAddr: 0x10007D4B8, symSize: 0x80 }
  - { offsetInCU: 0x33CCA, offset: 0x33CCA, size: 0x8, addend: 0x0, symName: __ZNSt3__134__libcpp_atomic_refcount_incrementB8ue170006IlEET_RS1_, symObjAddr: 0x7C2EC, symBinAddr: 0x10007DBF8, symSize: 0x80 }
  - { offsetInCU: 0x34761, offset: 0x34761, size: 0x8, addend: 0x0, symName: __ZNSt3__14swapB8ue170006IPN5memdb6DbTypeEEENS_9enable_ifIXaasr21is_move_constructibleIT_EE5valuesr18is_move_assignableIS5_EE5valueEvE4typeERS5_S8_, symObjAddr: 0x805EC, symBinAddr: 0x100081EF8, symSize: 0x1C0 }
  - { offsetInCU: 0x35D6D, offset: 0x35D6D, size: 0x8, addend: 0x0, symName: __ZNSt3__122__make_exception_guardB8ue170006INS_6vectorINS_10shared_ptrIN5memdb9Tokenizer5TokenEEENS_9allocatorIS6_EEE16__destroy_vectorEEENS_28__exception_guard_exceptionsIT_EESC_, symObjAddr: 0x8D57C, symBinAddr: 0x10008EE88, symSize: 0x2BC }
  - { offsetInCU: 0x35DA6, offset: 0x35DA6, size: 0x8, addend: 0x0, symName: __ZNSt3__119__allocate_at_leastB8ue170006INS_9allocatorINS_10shared_ptrIN5memdb9Tokenizer5TokenEEEEEEEDaRT_m, symObjAddr: 0x8F580, symBinAddr: 0x100090E8C, symSize: 0x250 }
  - { offsetInCU: 0x35DEB, offset: 0x35DEB, size: 0x8, addend: 0x0, symName: __ZNSt3__117allocate_at_leastB8ue170006INS_9allocatorINS_10shared_ptrIN5memdb9Tokenizer5TokenEEEEEEENS_17allocation_resultINS_16allocator_traitsIT_E7pointerEEERSA_m, symObjAddr: 0x8FFC8, symBinAddr: 0x1000918D4, symSize: 0x224 }
  - { offsetInCU: 0x35E30, offset: 0x35E30, size: 0x8, addend: 0x0, symName: __ZNSt3__112__to_addressB8ue170006INS_10shared_ptrIN5memdb9Tokenizer5TokenEEEEEPT_S7_, symObjAddr: 0x90B4C, symBinAddr: 0x100092458, symSize: 0x14 }
  - { offsetInCU: 0x35E65, offset: 0x35E65, size: 0x8, addend: 0x0, symName: __ZNSt3__130__uninitialized_allocator_copyB8ue170006INS_9allocatorINS_10shared_ptrIN5memdb9Tokenizer5TokenEEEEEPKS6_S9_PS6_EET2_RT_T0_T1_SB_, symObjAddr: 0x90EB8, symBinAddr: 0x1000927C4, symSize: 0x334 }
  - { offsetInCU: 0x35F0B, offset: 0x35F0B, size: 0x8, addend: 0x0, symName: __ZNSt3__114__unwrap_rangeB8ue170006IPKNS_10shared_ptrIN5memdb9Tokenizer5TokenEEES7_EEDaT_T0_, symObjAddr: 0x91A88, symBinAddr: 0x100093394, symSize: 0x224 }
  - { offsetInCU: 0x35F59, offset: 0x35F59, size: 0x8, addend: 0x0, symName: __ZNSt3__135__uninitialized_allocator_copy_implB8ue170006INS_9allocatorINS_10shared_ptrIN5memdb9Tokenizer5TokenEEEEEPKS6_S9_PS6_EET2_RT_T0_T1_SB_, symObjAddr: 0x91CAC, symBinAddr: 0x1000935B8, symSize: 0x6EC }
  - { offsetInCU: 0x36005, offset: 0x36005, size: 0x8, addend: 0x0, symName: __ZNSt3__113__unwrap_iterB8ue170006IPNS_10shared_ptrIN5memdb9Tokenizer5TokenEEENS_18__unwrap_iter_implIS6_Lb1EEELi0EEEDTclsrT0_8__unwrapclsr3stdE7declvalIT_EEEESA_, symObjAddr: 0x92398, symBinAddr: 0x100093CA4, symSize: 0x24 }
  - { offsetInCU: 0x36049, offset: 0x36049, size: 0x8, addend: 0x0, symName: __ZNSt3__113__rewrap_iterB8ue170006IPNS_10shared_ptrIN5memdb9Tokenizer5TokenEEES6_NS_18__unwrap_iter_implIS6_Lb1EEEEET_S9_T0_, symObjAddr: 0x923BC, symBinAddr: 0x100093CC8, symSize: 0x48 }
  - { offsetInCU: 0x361ED, offset: 0x361ED, size: 0x8, addend: 0x0, symName: __ZNSt3__113__unwrap_iterB8ue170006IPKNS_10shared_ptrIN5memdb9Tokenizer5TokenEEENS_18__unwrap_iter_implIS7_Lb1EEELi0EEEDTclsrT0_8__unwrapclsr3stdE7declvalIT_EEEESB_, symObjAddr: 0x92710, symBinAddr: 0x10009401C, symSize: 0x24 }
  - { offsetInCU: 0x36284, offset: 0x36284, size: 0x8, addend: 0x0, symName: __ZNSt3__112__to_addressB8ue170006IKNS_10shared_ptrIN5memdb9Tokenizer5TokenEEEEEPT_S8_, symObjAddr: 0x927E0, symBinAddr: 0x1000940EC, symSize: 0x14 }
  - { offsetInCU: 0x362B9, offset: 0x362B9, size: 0x8, addend: 0x0, symName: __ZNSt3__122__make_exception_guardB8ue170006INS_29_AllocatorDestroyRangeReverseINS_9allocatorINS_10shared_ptrIN5memdb9Tokenizer5TokenEEEEEPS7_EEEENS_28__exception_guard_exceptionsIT_EESC_, symObjAddr: 0x92A04, symBinAddr: 0x100094310, symSize: 0x23C }
  - { offsetInCU: 0x36315, offset: 0x36315, size: 0x8, addend: 0x0, symName: __ZNSt3__112construct_atB8ue170006INS_10shared_ptrIN5memdb9Tokenizer5TokenEEEJRKS5_EPS5_EEPT_SA_DpOT0_, symObjAddr: 0x93228, symBinAddr: 0x100094B34, symSize: 0x110 }
  - { offsetInCU: 0x36385, offset: 0x36385, size: 0x8, addend: 0x0, symName: __ZNSt3__119__allocator_destroyB8ue170006INS_9allocatorINS_10shared_ptrIN5memdb9Tokenizer5TokenEEEEENS_16reverse_iteratorIPS6_EESA_EEvRT_T0_T1_, symObjAddr: 0x93C9C, symBinAddr: 0x1000955A8, symSize: 0x2DC }
  - { offsetInCU: 0x363F1, offset: 0x363F1, size: 0x8, addend: 0x0, symName: __ZNSt3__1neB8ue170006IPNS_10shared_ptrIN5memdb9Tokenizer5TokenEEES6_EEbRKNS_16reverse_iteratorIT_EERKNS7_IT0_EE, symObjAddr: 0x93FF8, symBinAddr: 0x100095904, symSize: 0x9C }
  - { offsetInCU: 0x3643D, offset: 0x3643D, size: 0x8, addend: 0x0, symName: __ZNSt3__112__to_addressB8ue170006INS_16reverse_iteratorIPNS_10shared_ptrIN5memdb9Tokenizer5TokenEEEEEvEEu7__decayIDTclsr19__to_address_helperIT_EE6__callclsr3stdE7declvalIRKS9_EEEEESB_, symObjAddr: 0x940BC, symBinAddr: 0x1000959C8, symSize: 0x6C }
  - { offsetInCU: 0x36473, offset: 0x36473, size: 0x8, addend: 0x0, symName: __ZNSt3__110destroy_atB8ue170006INS_10shared_ptrIN5memdb9Tokenizer5TokenEEELi0EEEvPT_, symObjAddr: 0x94388, symBinAddr: 0x100095C94, symSize: 0x24 }
  - { offsetInCU: 0x364AA, offset: 0x364AA, size: 0x8, addend: 0x0, symName: __ZNSt3__112__destroy_atB8ue170006INS_10shared_ptrIN5memdb9Tokenizer5TokenEEELi0EEEvPT_, symObjAddr: 0x943AC, symBinAddr: 0x100095CB8, symSize: 0x6C }
  - { offsetInCU: 0x3650A, offset: 0x3650A, size: 0x8, addend: 0x0, symName: __ZNSt3__14prevB8ue170006IPNS_10shared_ptrIN5memdb9Tokenizer5TokenEEEEENS_9enable_ifIXsr29__has_input_iterator_categoryIT_EE5valueES8_E4typeES8_NS_15iterator_traitsIS8_E15difference_typeE, symObjAddr: 0x94540, symBinAddr: 0x100095E4C, symSize: 0x270 }
  - { offsetInCU: 0x36552, offset: 0x36552, size: 0x8, addend: 0x0, symName: __ZNSt3__19__advanceB8ue170006IPNS_10shared_ptrIN5memdb9Tokenizer5TokenEEEEEvRT_NS_15iterator_traitsIS7_E15difference_typeENS_26random_access_iterator_tagE, symObjAddr: 0x94830, symBinAddr: 0x10009613C, symSize: 0x19C }
  - { offsetInCU: 0x365EE, offset: 0x365EE, size: 0x8, addend: 0x0, symName: __ZNSt3__1neB8ue170006IPNS_10shared_ptrIN5memdb9Tokenizer5TokenEEEEEbRKNS_11__wrap_iterIT_EESB_, symObjAddr: 0x96584, symBinAddr: 0x100097E90, symSize: 0xC4 }
  - { offsetInCU: 0x36631, offset: 0x36631, size: 0x8, addend: 0x0, symName: __ZNSt3__1eqB8ue170006IPNS_10shared_ptrIN5memdb9Tokenizer5TokenEEEEEbRKNS_11__wrap_iterIT_EESB_, symObjAddr: 0x97258, symBinAddr: 0x100098B64, symSize: 0x9C }
  - { offsetInCU: 0x36674, offset: 0x36674, size: 0x8, addend: 0x0, symName: __ZNSt3__112construct_atB8ue170006INS_10shared_ptrIN5memdb9Tokenizer5TokenEEEJS5_EPS5_EEPT_S8_DpOT0_, symObjAddr: 0x97F20, symBinAddr: 0x10009982C, symSize: 0x110 }
  - { offsetInCU: 0x366E4, offset: 0x366E4, size: 0x8, addend: 0x0, symName: __ZNSt3__142__uninitialized_allocator_move_if_noexceptB8ue170006INS_9allocatorINS_10shared_ptrIN5memdb9Tokenizer5TokenEEEEENS_16reverse_iteratorIPS6_EESA_SA_EET2_RT_T0_T1_SB_, symObjAddr: 0x9A100, symBinAddr: 0x10009BA0C, symSize: 0x5D0 }
  - { offsetInCU: 0x36799, offset: 0x36799, size: 0x8, addend: 0x0, symName: __ZNSt3__14swapB8ue170006IPNS_10shared_ptrIN5memdb9Tokenizer5TokenEEEEENS_9enable_ifIXaasr21is_move_constructibleIT_EE5valuesr18is_move_assignableIS8_EE5valueEvE4typeERS8_SB_, symObjAddr: 0x9A6D0, symBinAddr: 0x10009BFDC, symSize: 0x1C0 }
  - { offsetInCU: 0x367EA, offset: 0x367EA, size: 0x8, addend: 0x0, symName: __ZNSt3__122__make_exception_guardB8ue170006INS_29_AllocatorDestroyRangeReverseINS_9allocatorINS_10shared_ptrIN5memdb9Tokenizer5TokenEEEEENS_16reverse_iteratorIPS7_EEEEEENS_28__exception_guard_exceptionsIT_EESE_, symObjAddr: 0x9A890, symBinAddr: 0x10009C19C, symSize: 0x23C }
  - { offsetInCU: 0x36821, offset: 0x36821, size: 0x8, addend: 0x0, symName: __ZNSt3__119__allocator_destroyB8ue170006INS_9allocatorINS_10shared_ptrIN5memdb9Tokenizer5TokenEEEEENS_16reverse_iteratorINS8_IPS6_EEEESB_EEvRT_T0_T1_, symObjAddr: 0x9B74C, symBinAddr: 0x10009D058, symSize: 0x1A4 }
  - { offsetInCU: 0x36886, offset: 0x36886, size: 0x8, addend: 0x0, symName: __ZNSt3__1neB8ue170006INS_16reverse_iteratorIPNS_10shared_ptrIN5memdb9Tokenizer5TokenEEEEES8_EEbRKNS1_IT_EERKNS1_IT0_EE, symObjAddr: 0x9BB8C, symBinAddr: 0x10009D498, symSize: 0x324 }
  - { offsetInCU: 0x368D4, offset: 0x368D4, size: 0x8, addend: 0x0, symName: __ZNSt3__112__to_addressB8ue170006INS_16reverse_iteratorINS1_IPNS_10shared_ptrIN5memdb9Tokenizer5TokenEEEEEEEvEEu7__decayIDTclsr19__to_address_helperIT_EE6__callclsr3stdE7declvalIRKSA_EEEEESC_, symObjAddr: 0x9BEB0, symBinAddr: 0x10009D7BC, symSize: 0x6C }
  - { offsetInCU: 0x36933, offset: 0x36933, size: 0x8, addend: 0x0, symName: __ZNSt3__14prevB8ue170006INS_16reverse_iteratorIPNS_10shared_ptrIN5memdb9Tokenizer5TokenEEEEEEENS_9enable_ifIXsr29__has_input_iterator_categoryIT_EE5valueESA_E4typeESA_NS_15iterator_traitsISA_E15difference_typeE, symObjAddr: 0x9C5D4, symBinAddr: 0x10009DEE0, symSize: 0x2C4 }
  - { offsetInCU: 0x3697B, offset: 0x3697B, size: 0x8, addend: 0x0, symName: __ZNSt3__19__advanceB8ue170006INS_16reverse_iteratorIPNS_10shared_ptrIN5memdb9Tokenizer5TokenEEEEEEEvRT_NS_15iterator_traitsIS9_E15difference_typeENS_26random_access_iterator_tagE, symObjAddr: 0x9C918, symBinAddr: 0x10009E224, symSize: 0x7C }
  - { offsetInCU: 0x369C4, offset: 0x369C4, size: 0x8, addend: 0x0, symName: __ZNSt3__122__make_exception_guardB8ue170006INS_6vectorINS_12basic_stringIcNS_11char_traitsIcEENS_9allocatorIcEEEENS5_IS7_EEE16__destroy_vectorEEENS_28__exception_guard_exceptionsIT_EESC_, symObjAddr: 0x9E32C, symBinAddr: 0x10009FC38, symSize: 0x2BC }
  - { offsetInCU: 0x369FD, offset: 0x369FD, size: 0x8, addend: 0x0, symName: __ZNSt3__130__uninitialized_allocator_copyB8ue170006INS_9allocatorINS_12basic_stringIcNS_11char_traitsIcEENS1_IcEEEEEEPS6_S8_S8_EET2_RT_T0_T1_S9_, symObjAddr: 0x9F88C, symBinAddr: 0x1000A1198, symSize: 0x334 }
  - { offsetInCU: 0x36AA3, offset: 0x36AA3, size: 0x8, addend: 0x0, symName: __ZNSt3__114__unwrap_rangeB8ue170006IPNS_12basic_stringIcNS_11char_traitsIcEENS_9allocatorIcEEEES7_EEDaT_T0_, symObjAddr: 0x9FBC0, symBinAddr: 0x1000A14CC, symSize: 0x224 }
  - { offsetInCU: 0x36AF1, offset: 0x36AF1, size: 0x8, addend: 0x0, symName: __ZNSt3__135__uninitialized_allocator_copy_implB8ue170006INS_9allocatorINS_12basic_stringIcNS_11char_traitsIcEENS1_IcEEEEEEPS6_S8_S8_EET2_RT_T0_T1_S9_, symObjAddr: 0x9FDE4, symBinAddr: 0x1000A16F0, symSize: 0x6EC }
  - { offsetInCU: 0x36B9D, offset: 0x36B9D, size: 0x8, addend: 0x0, symName: __ZNSt3__113__unwrap_iterB8ue170006IPNS_12basic_stringIcNS_11char_traitsIcEENS_9allocatorIcEEEENS_18__unwrap_iter_implIS7_Lb1EEELi0EEEDTclsrT0_8__unwrapclsr3stdE7declvalIT_EEEESB_, symObjAddr: 0xA04D0, symBinAddr: 0x1000A1DDC, symSize: 0x24 }
  - { offsetInCU: 0x36BE1, offset: 0x36BE1, size: 0x8, addend: 0x0, symName: __ZNSt3__113__rewrap_iterB8ue170006IPNS_12basic_stringIcNS_11char_traitsIcEENS_9allocatorIcEEEES7_NS_18__unwrap_iter_implIS7_Lb1EEEEET_SA_T0_, symObjAddr: 0xA04F4, symBinAddr: 0x1000A1E00, symSize: 0x48 }
  - { offsetInCU: 0x36D85, offset: 0x36D85, size: 0x8, addend: 0x0, symName: __ZNSt3__122__make_exception_guardB8ue170006INS_29_AllocatorDestroyRangeReverseINS_9allocatorINS_12basic_stringIcNS_11char_traitsIcEENS2_IcEEEEEEPS7_EEEENS_28__exception_guard_exceptionsIT_EESC_, symObjAddr: 0xA0AE0, symBinAddr: 0x1000A23EC, symSize: 0x23C }
  - { offsetInCU: 0x36DBC, offset: 0x36DBC, size: 0x8, addend: 0x0, symName: __ZNSt3__112construct_atB8ue170006INS_12basic_stringIcNS_11char_traitsIcEENS_9allocatorIcEEEEJRS6_EPS6_EEPT_SA_DpOT0_, symObjAddr: 0xA1304, symBinAddr: 0x1000A2C10, symSize: 0x110 }
  - { offsetInCU: 0x36E2C, offset: 0x36E2C, size: 0x8, addend: 0x0, symName: __ZNSt3__119__allocator_destroyB8ue170006INS_9allocatorINS_12basic_stringIcNS_11char_traitsIcEENS1_IcEEEEEENS_16reverse_iteratorIPS6_EESA_EEvRT_T0_T1_, symObjAddr: 0xA199C, symBinAddr: 0x1000A32A8, symSize: 0x2DC }
  - { offsetInCU: 0x36EEB, offset: 0x36EEB, size: 0x8, addend: 0x0, symName: __ZNSt3__112__to_addressB8ue170006IN5memdb21ColumnFullDescriptionEEEPT_S4_, symObjAddr: 0xA6730, symBinAddr: 0x1000A803C, symSize: 0x14 }
  - { offsetInCU: 0x36F45, offset: 0x36F45, size: 0x8, addend: 0x0, symName: __ZNSt3__112construct_atB8ue170006IN5memdb21ColumnFullDescriptionEJS2_EPS2_EEPT_S5_DpOT0_, symObjAddr: 0xA7638, symBinAddr: 0x1000A8F44, symSize: 0x110 }
  - { offsetInCU: 0x36FB5, offset: 0x36FB5, size: 0x8, addend: 0x0, symName: __ZNSt3__122__make_exception_guardB8ue170006INS_6vectorIN5memdb11ColumnAttrsENS_9allocatorIS3_EEE16__destroy_vectorEEENS_28__exception_guard_exceptionsIT_EES9_, symObjAddr: 0xA8B8C, symBinAddr: 0x1000AA498, symSize: 0x2BC }
  - { offsetInCU: 0x36FEE, offset: 0x36FEE, size: 0x8, addend: 0x0, symName: __ZNSt3__119__allocate_at_leastB8ue170006INS_9allocatorIN5memdb11ColumnAttrsEEEEEDaRT_m, symObjAddr: 0xAA51C, symBinAddr: 0x1000ABE28, symSize: 0x250 }
  - { offsetInCU: 0x37033, offset: 0x37033, size: 0x8, addend: 0x0, symName: __ZNSt3__117allocate_at_leastB8ue170006INS_9allocatorIN5memdb11ColumnAttrsEEEEENS_17allocation_resultINS_16allocator_traitsIT_E7pointerEEERS7_m, symObjAddr: 0xAAD04, symBinAddr: 0x1000AC610, symSize: 0x224 }
  - { offsetInCU: 0x37078, offset: 0x37078, size: 0x8, addend: 0x0, symName: __ZNSt3__112__to_addressB8ue170006IN5memdb11ColumnAttrsEEEPT_S4_, symObjAddr: 0xAB888, symBinAddr: 0x1000AD194, symSize: 0x14 }
  - { offsetInCU: 0x370AD, offset: 0x370AD, size: 0x8, addend: 0x0, symName: __ZNSt3__130__uninitialized_allocator_copyB8ue170006INS_9allocatorIN5memdb11ColumnAttrsEEEPS3_S5_S5_EET2_RT_T0_T1_S6_, symObjAddr: 0xABBF4, symBinAddr: 0x1000AD500, symSize: 0x334 }
  - { offsetInCU: 0x37153, offset: 0x37153, size: 0x8, addend: 0x0, symName: __ZNSt3__114__unwrap_rangeB8ue170006IPN5memdb11ColumnAttrsES3_EEDaT_T0_, symObjAddr: 0xAC7C4, symBinAddr: 0x1000AE0D0, symSize: 0x224 }
  - { offsetInCU: 0x371A1, offset: 0x371A1, size: 0x8, addend: 0x0, symName: __ZNSt3__135__uninitialized_allocator_copy_implB8ue170006INS_9allocatorIN5memdb11ColumnAttrsEEES3_S3_S3_LPv0EEEPT2_RT_PT0_SB_S7_, symObjAddr: 0xAC9E8, symBinAddr: 0x1000AE2F4, symSize: 0x38 }
  - { offsetInCU: 0x37222, offset: 0x37222, size: 0x8, addend: 0x0, symName: __ZNSt3__113__unwrap_iterB8ue170006IPN5memdb11ColumnAttrsENS_18__unwrap_iter_implIS3_Lb1EEELi0EEEDTclsrT0_8__unwrapclsr3stdE7declvalIT_EEEES7_, symObjAddr: 0xACA20, symBinAddr: 0x1000AE32C, symSize: 0x24 }
  - { offsetInCU: 0x37266, offset: 0x37266, size: 0x8, addend: 0x0, symName: __ZNSt3__113__rewrap_iterB8ue170006IPN5memdb11ColumnAttrsES3_NS_18__unwrap_iter_implIS3_Lb1EEEEET_S6_T0_, symObjAddr: 0xACA44, symBinAddr: 0x1000AE350, symSize: 0x48 }
  - { offsetInCU: 0x37453, offset: 0x37453, size: 0x8, addend: 0x0, symName: __ZNSt3__14copyB8ue170006IPN5memdb11ColumnAttrsES3_EET0_T_S5_S4_, symObjAddr: 0xAD030, symBinAddr: 0x1000AE93C, symSize: 0x2B4 }
  - { offsetInCU: 0x374B0, offset: 0x374B0, size: 0x8, addend: 0x0, symName: __ZNSt3__16__copyB8ue170006INS_17_ClassicAlgPolicyEPN5memdb11ColumnAttrsES4_S4_EENS_4pairIT0_T2_EES6_T1_S7_, symObjAddr: 0xAD2E4, symBinAddr: 0x1000AEBF0, symSize: 0x22C }
  - { offsetInCU: 0x3751F, offset: 0x3751F, size: 0x8, addend: 0x0, symName: __ZNSt3__123__dispatch_copy_or_moveB8ue170006INS_17_ClassicAlgPolicyENS_11__copy_loopIS1_EENS_14__copy_trivialEPN5memdb11ColumnAttrsES7_S7_EENS_4pairIT2_T4_EES9_T3_SA_, symObjAddr: 0xAD510, symBinAddr: 0x1000AEE1C, symSize: 0x22C }
  - { offsetInCU: 0x375A0, offset: 0x375A0, size: 0x8, addend: 0x0, symName: __ZNSt3__121__unwrap_and_dispatchB8ue170006INS_10__overloadINS_11__copy_loopINS_17_ClassicAlgPolicyEEENS_14__copy_trivialEEEPN5memdb11ColumnAttrsES9_S9_Li0EEENS_4pairIT0_T2_EESB_T1_SC_, symObjAddr: 0xAD73C, symBinAddr: 0x1000AF048, symSize: 0x634 }
  - { offsetInCU: 0x37639, offset: 0x37639, size: 0x8, addend: 0x0, symName: __ZNSt3__19make_pairB8ue170006IPN5memdb11ColumnAttrsES3_EENS_4pairINS_18__unwrap_ref_decayIT_E4typeENS5_IT0_E4typeEEEOS6_OS9_, symObjAddr: 0xADFCC, symBinAddr: 0x1000AF8D8, symSize: 0x2A0 }
  - { offsetInCU: 0x3768A, offset: 0x3768A, size: 0x8, addend: 0x0, symName: __ZNSt3__114__rewrap_rangeB8ue170006IPN5memdb11ColumnAttrsES3_S3_EET0_S4_T1_, symObjAddr: 0xAE26C, symBinAddr: 0x1000AFB78, symSize: 0x2C }
  - { offsetInCU: 0x376DF, offset: 0x376DF, size: 0x8, addend: 0x0, symName: __ZNSt3__119__copy_trivial_implB8ue170006IN5memdb11ColumnAttrsES2_EENS_4pairIPT_PT0_EES5_S5_S7_, symObjAddr: 0xAE298, symBinAddr: 0x1000AFBA4, symSize: 0x480 }
  - { offsetInCU: 0x3774E, offset: 0x3774E, size: 0x8, addend: 0x0, symName: __ZNSt3__119__constexpr_memmoveB8ue170006IN5memdb11ColumnAttrsES2_Li0EEEPT_S4_PT0_NS_15__element_countE, symObjAddr: 0xAE718, symBinAddr: 0x1000B0024, symSize: 0x64 }
  - { offsetInCU: 0x377BC, offset: 0x377BC, size: 0x8, addend: 0x0, symName: __ZNSt3__19make_pairB8ue170006IRPN5memdb11ColumnAttrsES3_EENS_4pairINS_18__unwrap_ref_decayIT_E4typeENS6_IT0_E4typeEEEOS7_OSA_, symObjAddr: 0xAE77C, symBinAddr: 0x1000B0088, symSize: 0x2A0 }
  - { offsetInCU: 0x37860, offset: 0x37860, size: 0x8, addend: 0x0, symName: __ZNSt3__110destroy_atB8ue170006IN5memdb11ColumnAttrsELi0EEEvPT_, symObjAddr: 0xB0160, symBinAddr: 0x1000B1A6C, symSize: 0x24 }
  - { offsetInCU: 0x37897, offset: 0x37897, size: 0x8, addend: 0x0, symName: __ZNSt3__112__destroy_atB8ue170006IN5memdb11ColumnAttrsELi0EEEvPT_, symObjAddr: 0xB0184, symBinAddr: 0x1000B1A90, symSize: 0x10 }
  - { offsetInCU: 0x378CE, offset: 0x378CE, size: 0x8, addend: 0x0, symName: __ZNSt3__119__allocate_at_leastB8ue170006INS_9allocatorIN5memdb21ColumnFullDescriptionEEEEEDaRT_m, symObjAddr: 0xB2A40, symBinAddr: 0x1000B434C, symSize: 0x250 }
  - { offsetInCU: 0x37913, offset: 0x37913, size: 0x8, addend: 0x0, symName: __ZNSt3__117allocate_at_leastB8ue170006INS_9allocatorIN5memdb21ColumnFullDescriptionEEEEENS_17allocation_resultINS_16allocator_traitsIT_E7pointerEEERS7_m, symObjAddr: 0xB30F8, symBinAddr: 0x1000B4A04, symSize: 0x224 }
  - { offsetInCU: 0x37958, offset: 0x37958, size: 0x8, addend: 0x0, symName: __ZNSt3__142__uninitialized_allocator_move_if_noexceptB8ue170006INS_9allocatorIN5memdb21ColumnFullDescriptionEEENS_16reverse_iteratorIPS3_EES7_S7_EET2_RT_T0_T1_S8_, symObjAddr: 0xB3D1C, symBinAddr: 0x1000B5628, symSize: 0x5D8 }
  - { offsetInCU: 0x37A0D, offset: 0x37A0D, size: 0x8, addend: 0x0, symName: __ZNSt3__14swapB8ue170006IPN5memdb21ColumnFullDescriptionEEENS_9enable_ifIXaasr21is_move_constructibleIT_EE5valuesr18is_move_assignableIS5_EE5valueEvE4typeERS5_S8_, symObjAddr: 0xB4424, symBinAddr: 0x1000B5D30, symSize: 0x1C0 }
  - { offsetInCU: 0x37A5E, offset: 0x37A5E, size: 0x8, addend: 0x0, symName: __ZNSt3__122__make_exception_guardB8ue170006INS_29_AllocatorDestroyRangeReverseINS_9allocatorIN5memdb21ColumnFullDescriptionEEENS_16reverse_iteratorIPS4_EEEEEENS_28__exception_guard_exceptionsIT_EESB_, symObjAddr: 0xB4944, symBinAddr: 0x1000B6250, symSize: 0x23C }
  - { offsetInCU: 0x37A95, offset: 0x37A95, size: 0x8, addend: 0x0, symName: __ZNSt3__1neB8ue170006IPN5memdb21ColumnFullDescriptionES3_EEbRKNS_16reverse_iteratorIT_EERKNS4_IT0_EE, symObjAddr: 0xB4C10, symBinAddr: 0x1000B651C, symSize: 0x9C }
  - { offsetInCU: 0x37AE1, offset: 0x37AE1, size: 0x8, addend: 0x0, symName: __ZNSt3__112__to_addressB8ue170006INS_16reverse_iteratorIPN5memdb21ColumnFullDescriptionEEEvEEu7__decayIDTclsr19__to_address_helperIT_EE6__callclsr3stdE7declvalIRKS6_EEEEES8_, symObjAddr: 0xB4D2C, symBinAddr: 0x1000B6638, symSize: 0x6C }
  - { offsetInCU: 0x37B17, offset: 0x37B17, size: 0x8, addend: 0x0, symName: __ZNSt3__112construct_atB8ue170006IN5memdb21ColumnFullDescriptionEJRKS2_EPS2_EEPT_S7_DpOT0_, symObjAddr: 0xB55A4, symBinAddr: 0x1000B6EB0, symSize: 0x110 }
  - { offsetInCU: 0x37BB0, offset: 0x37BB0, size: 0x8, addend: 0x0, symName: __ZNSt3__14prevB8ue170006IPN5memdb21ColumnFullDescriptionEEENS_9enable_ifIXsr29__has_input_iterator_categoryIT_EE5valueES5_E4typeES5_NS_15iterator_traitsIS5_E15difference_typeE, symObjAddr: 0xB5B24, symBinAddr: 0x1000B7430, symSize: 0x270 }
  - { offsetInCU: 0x37BF8, offset: 0x37BF8, size: 0x8, addend: 0x0, symName: __ZNSt3__19__advanceB8ue170006IPN5memdb21ColumnFullDescriptionEEEvRT_NS_15iterator_traitsIS4_E15difference_typeENS_26random_access_iterator_tagE, symObjAddr: 0xB5E14, symBinAddr: 0x1000B7720, symSize: 0x19C }
  - { offsetInCU: 0x37C41, offset: 0x37C41, size: 0x8, addend: 0x0, symName: __ZNSt3__119__allocator_destroyB8ue170006INS_9allocatorIN5memdb21ColumnFullDescriptionEEENS_16reverse_iteratorINS5_IPS3_EEEES8_EEvRT_T0_T1_, symObjAddr: 0xB6544, symBinAddr: 0x1000B7E50, symSize: 0x1A4 }
  - { offsetInCU: 0x37CA6, offset: 0x37CA6, size: 0x8, addend: 0x0, symName: __ZNSt3__1neB8ue170006INS_16reverse_iteratorIPN5memdb21ColumnFullDescriptionEEES5_EEbRKNS1_IT_EERKNS1_IT0_EE, symObjAddr: 0xB6984, symBinAddr: 0x1000B8290, symSize: 0x324 }
  - { offsetInCU: 0x37CF4, offset: 0x37CF4, size: 0x8, addend: 0x0, symName: __ZNSt3__112__to_addressB8ue170006INS_16reverse_iteratorINS1_IPN5memdb21ColumnFullDescriptionEEEEEvEEu7__decayIDTclsr19__to_address_helperIT_EE6__callclsr3stdE7declvalIRKS7_EEEEES9_, symObjAddr: 0xB6CD0, symBinAddr: 0x1000B85DC, symSize: 0x6C }
  - { offsetInCU: 0x37D2A, offset: 0x37D2A, size: 0x8, addend: 0x0, symName: __ZNSt3__110destroy_atB8ue170006IN5memdb21ColumnFullDescriptionELi0EEEvPT_, symObjAddr: 0xB7094, symBinAddr: 0x1000B89A0, symSize: 0x24 }
  - { offsetInCU: 0x37D61, offset: 0x37D61, size: 0x8, addend: 0x0, symName: __ZNSt3__112__destroy_atB8ue170006IN5memdb21ColumnFullDescriptionELi0EEEvPT_, symObjAddr: 0xB70B8, symBinAddr: 0x1000B89C4, symSize: 0x6C }
  - { offsetInCU: 0x37DC1, offset: 0x37DC1, size: 0x8, addend: 0x0, symName: __ZNSt3__14prevB8ue170006INS_16reverse_iteratorIPN5memdb21ColumnFullDescriptionEEEEENS_9enable_ifIXsr29__has_input_iterator_categoryIT_EE5valueES7_E4typeES7_NS_15iterator_traitsIS7_E15difference_typeE, symObjAddr: 0xB7484, symBinAddr: 0x1000B8D90, symSize: 0x2C4 }
  - { offsetInCU: 0x37E09, offset: 0x37E09, size: 0x8, addend: 0x0, symName: __ZNSt3__19__advanceB8ue170006INS_16reverse_iteratorIPN5memdb21ColumnFullDescriptionEEEEEvRT_NS_15iterator_traitsIS6_E15difference_typeENS_26random_access_iterator_tagE, symObjAddr: 0xB77C8, symBinAddr: 0x1000B90D4, symSize: 0x7C }
  - { offsetInCU: 0x37E77, offset: 0x37E77, size: 0x8, addend: 0x0, symName: __ZNSt3__112construct_atB8ue170006IN5memdb11ColumnAttrsEJS2_EPS2_EEPT_S5_DpOT0_, symObjAddr: 0xBE2B0, symBinAddr: 0x1000BFBBC, symSize: 0x1D8 }
  - { offsetInCU: 0x37EE7, offset: 0x37EE7, size: 0x8, addend: 0x0, symName: __ZNSt3__142__uninitialized_allocator_move_if_noexceptB8ue170006INS_9allocatorIN5memdb11ColumnAttrsEEENS_16reverse_iteratorIPS3_EES7_S3_vEET1_RT_T0_SB_S8_, symObjAddr: 0xC021C, symBinAddr: 0x1000C1B28, symSize: 0x4A8 }
  - { offsetInCU: 0x37F71, offset: 0x37F71, size: 0x8, addend: 0x0, symName: __ZNSt3__14swapB8ue170006IPN5memdb11ColumnAttrsEEENS_9enable_ifIXaasr21is_move_constructibleIT_EE5valuesr18is_move_assignableIS5_EE5valueEvE4typeERS5_S8_, symObjAddr: 0xC07F4, symBinAddr: 0x1000C2100, symSize: 0x1C0 }
  - { offsetInCU: 0x37FC2, offset: 0x37FC2, size: 0x8, addend: 0x0, symName: __ZNSt3__14moveB8ue170006INS_16reverse_iteratorIPN5memdb11ColumnAttrsEEES5_EET0_T_S7_S6_, symObjAddr: 0xC09B4, symBinAddr: 0x1000C22C0, symSize: 0x4B0 }
  - { offsetInCU: 0x38029, offset: 0x38029, size: 0x8, addend: 0x0, symName: __ZNSt3__16__moveB8ue170006INS_17_ClassicAlgPolicyENS_16reverse_iteratorIPN5memdb11ColumnAttrsEEES6_S6_EENS_4pairIT0_T2_EES8_T1_S9_, symObjAddr: 0xC0E64, symBinAddr: 0x1000C2770, symSize: 0x424 }
  - { offsetInCU: 0x380A1, offset: 0x380A1, size: 0x8, addend: 0x0, symName: __ZNSt3__123__dispatch_copy_or_moveB8ue170006INS_17_ClassicAlgPolicyENS_11__move_loopIS1_EENS_14__move_trivialENS_16reverse_iteratorIPN5memdb11ColumnAttrsEEES9_S9_EENS_4pairIT2_T4_EESB_T3_SC_, symObjAddr: 0xC1288, symBinAddr: 0x1000C2B94, symSize: 0x424 }
  - { offsetInCU: 0x3812B, offset: 0x3812B, size: 0x8, addend: 0x0, symName: __ZNSt3__121__unwrap_and_dispatchB8ue170006INS_10__overloadINS_11__move_loopINS_17_ClassicAlgPolicyEEENS_14__move_trivialEEENS_16reverse_iteratorIPN5memdb11ColumnAttrsEEESB_SB_Li0EEENS_4pairIT0_T2_EESD_T1_SE_, symObjAddr: 0xC16AC, symBinAddr: 0x1000C2FB8, symSize: 0x880 }
  - { offsetInCU: 0x381CF, offset: 0x381CF, size: 0x8, addend: 0x0, symName: __ZNSt3__114__unwrap_rangeB8ue170006INS_16reverse_iteratorIPN5memdb11ColumnAttrsEEES5_EEDaT_T0_, symObjAddr: 0xC1F2C, symBinAddr: 0x1000C3838, symSize: 0x35C }
  - { offsetInCU: 0x3839F, offset: 0x3839F, size: 0x8, addend: 0x0, symName: __ZNSt3__113__unwrap_iterB8ue170006INS_16reverse_iteratorIPN5memdb11ColumnAttrsEEENS_18__unwrap_iter_implIS5_Lb0EEELi0EEEDTclsrT0_8__unwrapclsr3stdE7declvalIT_EEEES9_, symObjAddr: 0xC2734, symBinAddr: 0x1000C4040, symSize: 0x2EC }
  - { offsetInCU: 0x383E7, offset: 0x383E7, size: 0x8, addend: 0x0, symName: __ZNSt3__19make_pairB8ue170006INS_16reverse_iteratorIPN5memdb11ColumnAttrsEEES5_EENS_4pairINS_18__unwrap_ref_decayIT_E4typeENS7_IT0_E4typeEEEOS8_OSB_, symObjAddr: 0xC2A20, symBinAddr: 0x1000C432C, symSize: 0x108 }
  - { offsetInCU: 0x38436, offset: 0x38436, size: 0x8, addend: 0x0, symName: __ZNSt3__114__rewrap_rangeB8ue170006INS_16reverse_iteratorIPN5memdb11ColumnAttrsEEES5_S5_EET0_S6_T1_, symObjAddr: 0xC2B28, symBinAddr: 0x1000C4434, symSize: 0x3D4 }
  - { offsetInCU: 0x38493, offset: 0x38493, size: 0x8, addend: 0x0, symName: __ZNSt3__113__rewrap_iterB8ue170006INS_16reverse_iteratorIPN5memdb11ColumnAttrsEEES5_NS_18__unwrap_iter_implIS5_Lb0EEEEET_S8_T0_, symObjAddr: 0xC2EFC, symBinAddr: 0x1000C4808, symSize: 0x3E8 }
  - { offsetInCU: 0x38540, offset: 0x38540, size: 0x8, addend: 0x0, symName: __ZNSt3__1neB8ue170006IPN5memdb11ColumnAttrsES3_EEbRKNS_16reverse_iteratorIT_EERKNS4_IT0_EE, symObjAddr: 0xC389C, symBinAddr: 0x1000C51A8, symSize: 0x9C }
  - { offsetInCU: 0x38695, offset: 0x38695, size: 0x8, addend: 0x0, symName: __ZNSt3__1eqB8ue170006ERKNS_21__tree_const_iteratorINS_12__value_typeINS_17basic_string_viewIcNS_11char_traitsIcEEEEN5memdb5lexer7CommandEEEPNS_11__tree_nodeIS9_PvEElEESG_, symObjAddr: 0xCF180, symBinAddr: 0x1000D0A8C, symSize: 0x114 }
  - { offsetInCU: 0x386D2, offset: 0x386D2, size: 0x8, addend: 0x0, symName: __ZNSt3__14nextB8ue170006INS_21__tree_const_iteratorINS_12__value_typeINS_17basic_string_viewIcNS_11char_traitsIcEEEEN5memdb5lexer7CommandEEEPNS_11__tree_nodeISA_PvEElEEEENS_9enable_ifIXsr29__has_input_iterator_categoryIT_EE5valueESH_E4typeESH_NS_15iterator_traitsISH_E15difference_typeE, symObjAddr: 0xD0E10, symBinAddr: 0x1000D271C, symSize: 0x288 }
  - { offsetInCU: 0x3871A, offset: 0x3871A, size: 0x8, addend: 0x0, symName: __ZNSt3__1ltB8ue170006ENS_15strong_orderingENS_20_CmpUnspecifiedParamE, symObjAddr: 0xD1B84, symBinAddr: 0x1000D3490, symSize: 0x274 }
  - { offsetInCU: 0x38758, offset: 0x38758, size: 0x8, addend: 0x0, symName: __ZNSt3__1ssB8ue170006IcNS_11char_traitsIcEEEEDaNS_17basic_string_viewIT_T0_EES7_, symObjAddr: 0xD1DF8, symBinAddr: 0x1000D3704, symSize: 0x3E8 }
  - { offsetInCU: 0x387CB, offset: 0x387CB, size: 0x8, addend: 0x0, symName: __ZNSt3__17launderB8ue170006IKNS_4pairIKNS_17basic_string_viewIcNS_11char_traitsIcEEEEN5memdb5lexer7CommandEEEEEPT_SD_, symObjAddr: 0xD229C, symBinAddr: 0x1000D3BA8, symSize: 0x24 }
  - { offsetInCU: 0x38802, offset: 0x38802, size: 0x8, addend: 0x0, symName: __ZNSt3__19__launderB8ue170006IKNS_4pairIKNS_17basic_string_viewIcNS_11char_traitsIcEEEEN5memdb5lexer7CommandEEEEEPT_SD_, symObjAddr: 0xD22C0, symBinAddr: 0x1000D3BCC, symSize: 0x14 }
  - { offsetInCU: 0x38839, offset: 0x38839, size: 0x8, addend: 0x0, symName: __ZNSt3__116__tree_prev_iterB8ue170006IPNS_16__tree_node_baseIPvEEPNS_15__tree_end_nodeIS4_EEEET_T0_, symObjAddr: 0xD22D4, symBinAddr: 0x1000D3BE0, symSize: 0x310 }
  - { offsetInCU: 0x38885, offset: 0x38885, size: 0x8, addend: 0x0, symName: __ZNSt3__110__tree_maxB8ue170006IPNS_16__tree_node_baseIPvEEEET_S5_, symObjAddr: 0xD25E4, symBinAddr: 0x1000D3EF0, symSize: 0x1E4 }
  - { offsetInCU: 0x388BA, offset: 0x388BA, size: 0x8, addend: 0x0, symName: __ZNSt3__120__tree_is_left_childB8ue170006IPNS_16__tree_node_baseIPvEEEEbT_, symObjAddr: 0xD27C8, symBinAddr: 0x1000D40D4, symSize: 0x1D0 }
  - { offsetInCU: 0x388EF, offset: 0x388EF, size: 0x8, addend: 0x0, symName: __ZNSt3__19__advanceB8ue170006INS_21__tree_const_iteratorINS_12__value_typeINS_17basic_string_viewIcNS_11char_traitsIcEEEEN5memdb5lexer7CommandEEEPNS_11__tree_nodeISA_PvEElEEEEvRT_NS_15iterator_traitsISG_E15difference_typeENS_26bidirectional_iterator_tagE, symObjAddr: 0xD2D48, symBinAddr: 0x1000D4654, symSize: 0x194 }
  - { offsetInCU: 0x38938, offset: 0x38938, size: 0x8, addend: 0x0, symName: __ZNSt3__116__tree_next_iterB8ue170006IPNS_15__tree_end_nodeIPNS_16__tree_node_baseIPvEEEES5_EET_T0_, symObjAddr: 0xD3058, symBinAddr: 0x1000D4964, symSize: 0x36C }
  - { offsetInCU: 0x38976, offset: 0x38976, size: 0x8, addend: 0x0, symName: __ZNSt3__110__tree_minB8ue170006IPNS_16__tree_node_baseIPvEEEET_S5_, symObjAddr: 0xD33C4, symBinAddr: 0x1000D4CD0, symSize: 0x22C }
  - { offsetInCU: 0x389EE, offset: 0x389EE, size: 0x8, addend: 0x0, symName: __ZNSt3__112construct_atB8ue170006INS_4pairIKNS_17basic_string_viewIcNS_11char_traitsIcEEEEN5memdb5lexer7CommandEEEJRKSA_EPSA_EEPT_SF_DpOT0_, symObjAddr: 0xD4658, symBinAddr: 0x1000D5F64, symSize: 0xCC }
  - { offsetInCU: 0x38A5E, offset: 0x38A5E, size: 0x8, addend: 0x0, symName: __ZNSt3__17launderB8ue170006INS_4pairIKNS_17basic_string_viewIcNS_11char_traitsIcEEEEN5memdb5lexer7CommandEEEEEPT_SC_, symObjAddr: 0xD47D8, symBinAddr: 0x1000D60E4, symSize: 0x24 }
  - { offsetInCU: 0x38A95, offset: 0x38A95, size: 0x8, addend: 0x0, symName: __ZNSt3__19__launderB8ue170006INS_4pairIKNS_17basic_string_viewIcNS_11char_traitsIcEEEEN5memdb5lexer7CommandEEEEEPT_SC_, symObjAddr: 0xD47FC, symBinAddr: 0x1000D6108, symSize: 0x14 }
  - { offsetInCU: 0x38ACC, offset: 0x38ACC, size: 0x8, addend: 0x0, symName: __ZNSt3__127__tree_balance_after_insertB8ue170006IPNS_16__tree_node_baseIPvEEEEvT_S5_, symObjAddr: 0xD4BB8, symBinAddr: 0x1000D64C4, symSize: 0x16D4 }
  - { offsetInCU: 0x38B40, offset: 0x38B40, size: 0x8, addend: 0x0, symName: __ZNSt3__118__tree_left_rotateB8ue170006IPNS_16__tree_node_baseIPvEEEEvT_, symObjAddr: 0xD638C, symBinAddr: 0x1000D7C98, symSize: 0xAA0 }
  - { offsetInCU: 0x38B82, offset: 0x38B82, size: 0x8, addend: 0x0, symName: __ZNSt3__119__tree_right_rotateB8ue170006IPNS_16__tree_node_baseIPvEEEEvT_, symObjAddr: 0xD6E2C, symBinAddr: 0x1000D8738, symSize: 0xAD0 }
  - { offsetInCU: 0x38BC4, offset: 0x38BC4, size: 0x8, addend: 0x0, symName: __ZNSt3__110destroy_atB8ue170006INS_4pairIKNS_17basic_string_viewIcNS_11char_traitsIcEEEEN5memdb5lexer7CommandEEELi0EEEvPT_, symObjAddr: 0xD8400, symBinAddr: 0x1000D9D0C, symSize: 0x24 }
  - { offsetInCU: 0x38BFB, offset: 0x38BFB, size: 0x8, addend: 0x0, symName: __ZNSt3__112__destroy_atB8ue170006INS_4pairIKNS_17basic_string_viewIcNS_11char_traitsIcEEEEN5memdb5lexer7CommandEEELi0EEEvPT_, symObjAddr: 0xD8424, symBinAddr: 0x1000D9D30, symSize: 0x10 }
  - { offsetInCU: 0x38C32, offset: 0x38C32, size: 0x8, addend: 0x0, symName: __ZNSt3__1eqB8ue170006ERKNS_21__tree_const_iteratorINS_12__value_typeINS_17basic_string_viewIcNS_11char_traitsIcEEEEN5memdb5lexer10SubCommandEEEPNS_11__tree_nodeIS9_PvEElEESG_, symObjAddr: 0xDF498, symBinAddr: 0x1000E0DA4, symSize: 0x114 }
  - { offsetInCU: 0x38C6F, offset: 0x38C6F, size: 0x8, addend: 0x0, symName: __ZNSt3__14nextB8ue170006INS_21__tree_const_iteratorINS_12__value_typeINS_17basic_string_viewIcNS_11char_traitsIcEEEEN5memdb5lexer10SubCommandEEEPNS_11__tree_nodeISA_PvEElEEEENS_9enable_ifIXsr29__has_input_iterator_categoryIT_EE5valueESH_E4typeESH_NS_15iterator_traitsISH_E15difference_typeE, symObjAddr: 0xE1128, symBinAddr: 0x1000E2A34, symSize: 0x288 }
  - { offsetInCU: 0x38CB7, offset: 0x38CB7, size: 0x8, addend: 0x0, symName: __ZNSt3__17launderB8ue170006IKNS_4pairIKNS_17basic_string_viewIcNS_11char_traitsIcEEEEN5memdb5lexer10SubCommandEEEEEPT_SD_, symObjAddr: 0xE1AE0, symBinAddr: 0x1000E33EC, symSize: 0x24 }
  - { offsetInCU: 0x38CEE, offset: 0x38CEE, size: 0x8, addend: 0x0, symName: __ZNSt3__19__launderB8ue170006IKNS_4pairIKNS_17basic_string_viewIcNS_11char_traitsIcEEEEN5memdb5lexer10SubCommandEEEEEPT_SD_, symObjAddr: 0xE1B04, symBinAddr: 0x1000E3410, symSize: 0x14 }
  - { offsetInCU: 0x38D25, offset: 0x38D25, size: 0x8, addend: 0x0, symName: __ZNSt3__19__advanceB8ue170006INS_21__tree_const_iteratorINS_12__value_typeINS_17basic_string_viewIcNS_11char_traitsIcEEEEN5memdb5lexer10SubCommandEEEPNS_11__tree_nodeISA_PvEElEEEEvRT_NS_15iterator_traitsISG_E15difference_typeENS_26bidirectional_iterator_tagE, symObjAddr: 0xE1DD0, symBinAddr: 0x1000E36DC, symSize: 0x194 }
  - { offsetInCU: 0x38DB1, offset: 0x38DB1, size: 0x8, addend: 0x0, symName: __ZNSt3__112construct_atB8ue170006INS_4pairIKNS_17basic_string_viewIcNS_11char_traitsIcEEEEN5memdb5lexer10SubCommandEEEJRKSA_EPSA_EEPT_SF_DpOT0_, symObjAddr: 0xE3148, symBinAddr: 0x1000E4A54, symSize: 0xCC }
  - { offsetInCU: 0x38E21, offset: 0x38E21, size: 0x8, addend: 0x0, symName: __ZNSt3__17launderB8ue170006INS_4pairIKNS_17basic_string_viewIcNS_11char_traitsIcEEEEN5memdb5lexer10SubCommandEEEEEPT_SC_, symObjAddr: 0xE32C8, symBinAddr: 0x1000E4BD4, symSize: 0x24 }
  - { offsetInCU: 0x38E58, offset: 0x38E58, size: 0x8, addend: 0x0, symName: __ZNSt3__19__launderB8ue170006INS_4pairIKNS_17basic_string_viewIcNS_11char_traitsIcEEEEN5memdb5lexer10SubCommandEEEEEPT_SC_, symObjAddr: 0xE32EC, symBinAddr: 0x1000E4BF8, symSize: 0x14 }
  - { offsetInCU: 0x38E8F, offset: 0x38E8F, size: 0x8, addend: 0x0, symName: __ZNSt3__110destroy_atB8ue170006INS_4pairIKNS_17basic_string_viewIcNS_11char_traitsIcEEEEN5memdb5lexer10SubCommandEEELi0EEEvPT_, symObjAddr: 0xE4100, symBinAddr: 0x1000E5A0C, symSize: 0x24 }
  - { offsetInCU: 0x38EC6, offset: 0x38EC6, size: 0x8, addend: 0x0, symName: __ZNSt3__112__destroy_atB8ue170006INS_4pairIKNS_17basic_string_viewIcNS_11char_traitsIcEEEEN5memdb5lexer10SubCommandEEELi0EEEvPT_, symObjAddr: 0xE4124, symBinAddr: 0x1000E5A30, symSize: 0x10 }
  - { offsetInCU: 0x38EFD, offset: 0x38EFD, size: 0x8, addend: 0x0, symName: __ZNSt3__1eqB8ue170006ERKNS_21__tree_const_iteratorINS_12__value_typeINS_17basic_string_viewIcNS_11char_traitsIcEEEEN5memdb5lexer9AttributeEEEPNS_11__tree_nodeIS9_PvEElEESG_, symObjAddr: 0xEB198, symBinAddr: 0x1000ECAA4, symSize: 0x114 }
  - { offsetInCU: 0x38F3A, offset: 0x38F3A, size: 0x8, addend: 0x0, symName: __ZNSt3__14nextB8ue170006INS_21__tree_const_iteratorINS_12__value_typeINS_17basic_string_viewIcNS_11char_traitsIcEEEEN5memdb5lexer9AttributeEEEPNS_11__tree_nodeISA_PvEElEEEENS_9enable_ifIXsr29__has_input_iterator_categoryIT_EE5valueESH_E4typeESH_NS_15iterator_traitsISH_E15difference_typeE, symObjAddr: 0xECE28, symBinAddr: 0x1000EE734, symSize: 0x288 }
  - { offsetInCU: 0x38F82, offset: 0x38F82, size: 0x8, addend: 0x0, symName: __ZNSt3__17launderB8ue170006IKNS_4pairIKNS_17basic_string_viewIcNS_11char_traitsIcEEEEN5memdb5lexer9AttributeEEEEEPT_SD_, symObjAddr: 0xED7E0, symBinAddr: 0x1000EF0EC, symSize: 0x24 }
  - { offsetInCU: 0x38FB9, offset: 0x38FB9, size: 0x8, addend: 0x0, symName: __ZNSt3__19__launderB8ue170006IKNS_4pairIKNS_17basic_string_viewIcNS_11char_traitsIcEEEEN5memdb5lexer9AttributeEEEEEPT_SD_, symObjAddr: 0xED804, symBinAddr: 0x1000EF110, symSize: 0x14 }
  - { offsetInCU: 0x38FF0, offset: 0x38FF0, size: 0x8, addend: 0x0, symName: __ZNSt3__19__advanceB8ue170006INS_21__tree_const_iteratorINS_12__value_typeINS_17basic_string_viewIcNS_11char_traitsIcEEEEN5memdb5lexer9AttributeEEEPNS_11__tree_nodeISA_PvEElEEEEvRT_NS_15iterator_traitsISG_E15difference_typeENS_26bidirectional_iterator_tagE, symObjAddr: 0xEDAD0, symBinAddr: 0x1000EF3DC, symSize: 0x194 }
  - { offsetInCU: 0x3907C, offset: 0x3907C, size: 0x8, addend: 0x0, symName: __ZNSt3__112construct_atB8ue170006INS_4pairIKNS_17basic_string_viewIcNS_11char_traitsIcEEEEN5memdb5lexer9AttributeEEEJRKSA_EPSA_EEPT_SF_DpOT0_, symObjAddr: 0xEEE48, symBinAddr: 0x1000F0754, symSize: 0xCC }
  - { offsetInCU: 0x390EC, offset: 0x390EC, size: 0x8, addend: 0x0, symName: __ZNSt3__17launderB8ue170006INS_4pairIKNS_17basic_string_viewIcNS_11char_traitsIcEEEEN5memdb5lexer9AttributeEEEEEPT_SC_, symObjAddr: 0xEEFC8, symBinAddr: 0x1000F08D4, symSize: 0x24 }
  - { offsetInCU: 0x39123, offset: 0x39123, size: 0x8, addend: 0x0, symName: __ZNSt3__19__launderB8ue170006INS_4pairIKNS_17basic_string_viewIcNS_11char_traitsIcEEEEN5memdb5lexer9AttributeEEEEEPT_SC_, symObjAddr: 0xEEFEC, symBinAddr: 0x1000F08F8, symSize: 0x14 }
  - { offsetInCU: 0x3915A, offset: 0x3915A, size: 0x8, addend: 0x0, symName: __ZNSt3__110destroy_atB8ue170006INS_4pairIKNS_17basic_string_viewIcNS_11char_traitsIcEEEEN5memdb5lexer9AttributeEEELi0EEEvPT_, symObjAddr: 0xEFE00, symBinAddr: 0x1000F170C, symSize: 0x24 }
  - { offsetInCU: 0x39191, offset: 0x39191, size: 0x8, addend: 0x0, symName: __ZNSt3__112__destroy_atB8ue170006INS_4pairIKNS_17basic_string_viewIcNS_11char_traitsIcEEEEN5memdb5lexer9AttributeEEELi0EEEvPT_, symObjAddr: 0xEFE24, symBinAddr: 0x1000F1730, symSize: 0x10 }
  - { offsetInCU: 0x391C8, offset: 0x391C8, size: 0x8, addend: 0x0, symName: __ZNSt3__1eqB8ue170006ERKNS_21__tree_const_iteratorINS_12__value_typeINS_17basic_string_viewIcNS_11char_traitsIcEEEEN5memdb9OperationEEEPNS_11__tree_nodeIS8_PvEElEESF_, symObjAddr: 0xF6E98, symBinAddr: 0x1000F87A4, symSize: 0x114 }
  - { offsetInCU: 0x39205, offset: 0x39205, size: 0x8, addend: 0x0, symName: __ZNSt3__14nextB8ue170006INS_21__tree_const_iteratorINS_12__value_typeINS_17basic_string_viewIcNS_11char_traitsIcEEEEN5memdb9OperationEEEPNS_11__tree_nodeIS9_PvEElEEEENS_9enable_ifIXsr29__has_input_iterator_categoryIT_EE5valueESG_E4typeESG_NS_15iterator_traitsISG_E15difference_typeE, symObjAddr: 0xF8B28, symBinAddr: 0x1000FA434, symSize: 0x288 }
  - { offsetInCU: 0x3924D, offset: 0x3924D, size: 0x8, addend: 0x0, symName: __ZNSt3__17launderB8ue170006IKNS_4pairIKNS_17basic_string_viewIcNS_11char_traitsIcEEEEN5memdb9OperationEEEEEPT_SC_, symObjAddr: 0xF94E0, symBinAddr: 0x1000FADEC, symSize: 0x24 }
  - { offsetInCU: 0x39284, offset: 0x39284, size: 0x8, addend: 0x0, symName: __ZNSt3__19__launderB8ue170006IKNS_4pairIKNS_17basic_string_viewIcNS_11char_traitsIcEEEEN5memdb9OperationEEEEEPT_SC_, symObjAddr: 0xF9504, symBinAddr: 0x1000FAE10, symSize: 0x14 }
  - { offsetInCU: 0x392BB, offset: 0x392BB, size: 0x8, addend: 0x0, symName: __ZNSt3__19__advanceB8ue170006INS_21__tree_const_iteratorINS_12__value_typeINS_17basic_string_viewIcNS_11char_traitsIcEEEEN5memdb9OperationEEEPNS_11__tree_nodeIS9_PvEElEEEEvRT_NS_15iterator_traitsISF_E15difference_typeENS_26bidirectional_iterator_tagE, symObjAddr: 0xF97D0, symBinAddr: 0x1000FB0DC, symSize: 0x194 }
  - { offsetInCU: 0x39347, offset: 0x39347, size: 0x8, addend: 0x0, symName: __ZNSt3__112construct_atB8ue170006INS_4pairIKNS_17basic_string_viewIcNS_11char_traitsIcEEEEN5memdb9OperationEEEJRKS9_EPS9_EEPT_SE_DpOT0_, symObjAddr: 0xFAB48, symBinAddr: 0x1000FC454, symSize: 0xCC }
  - { offsetInCU: 0x393B7, offset: 0x393B7, size: 0x8, addend: 0x0, symName: __ZNSt3__17launderB8ue170006INS_4pairIKNS_17basic_string_viewIcNS_11char_traitsIcEEEEN5memdb9OperationEEEEEPT_SB_, symObjAddr: 0xFACC8, symBinAddr: 0x1000FC5D4, symSize: 0x24 }
  - { offsetInCU: 0x393EE, offset: 0x393EE, size: 0x8, addend: 0x0, symName: __ZNSt3__19__launderB8ue170006INS_4pairIKNS_17basic_string_viewIcNS_11char_traitsIcEEEEN5memdb9OperationEEEEEPT_SB_, symObjAddr: 0xFACEC, symBinAddr: 0x1000FC5F8, symSize: 0x14 }
  - { offsetInCU: 0x39425, offset: 0x39425, size: 0x8, addend: 0x0, symName: __ZNSt3__110destroy_atB8ue170006INS_4pairIKNS_17basic_string_viewIcNS_11char_traitsIcEEEEN5memdb9OperationEEELi0EEEvPT_, symObjAddr: 0xFBB00, symBinAddr: 0x1000FD40C, symSize: 0x24 }
  - { offsetInCU: 0x3945C, offset: 0x3945C, size: 0x8, addend: 0x0, symName: __ZNSt3__112__destroy_atB8ue170006INS_4pairIKNS_17basic_string_viewIcNS_11char_traitsIcEEEEN5memdb9OperationEEELi0EEEvPT_, symObjAddr: 0xFBB24, symBinAddr: 0x1000FD430, symSize: 0x10 }
  - { offsetInCU: 0x39493, offset: 0x39493, size: 0x8, addend: 0x0, symName: __ZNSt3__1eqB8ue170006ERKNS_21__tree_const_iteratorINS_12__value_typeINS_17basic_string_viewIcNS_11char_traitsIcEEEEN5memdb5lexer7BracketEEEPNS_11__tree_nodeIS9_PvEElEESG_, symObjAddr: 0x102B98, symBinAddr: 0x1001044A4, symSize: 0x114 }
  - { offsetInCU: 0x394D0, offset: 0x394D0, size: 0x8, addend: 0x0, symName: __ZNSt3__14nextB8ue170006INS_21__tree_const_iteratorINS_12__value_typeINS_17basic_string_viewIcNS_11char_traitsIcEEEEN5memdb5lexer7BracketEEEPNS_11__tree_nodeISA_PvEElEEEENS_9enable_ifIXsr29__has_input_iterator_categoryIT_EE5valueESH_E4typeESH_NS_15iterator_traitsISH_E15difference_typeE, symObjAddr: 0x104828, symBinAddr: 0x100106134, symSize: 0x288 }
  - { offsetInCU: 0x39518, offset: 0x39518, size: 0x8, addend: 0x0, symName: __ZNSt3__17launderB8ue170006IKNS_4pairIKNS_17basic_string_viewIcNS_11char_traitsIcEEEEN5memdb5lexer7BracketEEEEEPT_SD_, symObjAddr: 0x1051E0, symBinAddr: 0x100106AEC, symSize: 0x24 }
  - { offsetInCU: 0x3954F, offset: 0x3954F, size: 0x8, addend: 0x0, symName: __ZNSt3__19__launderB8ue170006IKNS_4pairIKNS_17basic_string_viewIcNS_11char_traitsIcEEEEN5memdb5lexer7BracketEEEEEPT_SD_, symObjAddr: 0x105204, symBinAddr: 0x100106B10, symSize: 0x14 }
  - { offsetInCU: 0x39586, offset: 0x39586, size: 0x8, addend: 0x0, symName: __ZNSt3__19__advanceB8ue170006INS_21__tree_const_iteratorINS_12__value_typeINS_17basic_string_viewIcNS_11char_traitsIcEEEEN5memdb5lexer7BracketEEEPNS_11__tree_nodeISA_PvEElEEEEvRT_NS_15iterator_traitsISG_E15difference_typeENS_26bidirectional_iterator_tagE, symObjAddr: 0x1054D0, symBinAddr: 0x100106DDC, symSize: 0x194 }
  - { offsetInCU: 0x39612, offset: 0x39612, size: 0x8, addend: 0x0, symName: __ZNSt3__112construct_atB8ue170006INS_4pairIKNS_17basic_string_viewIcNS_11char_traitsIcEEEEN5memdb5lexer7BracketEEEJRKSA_EPSA_EEPT_SF_DpOT0_, symObjAddr: 0x106848, symBinAddr: 0x100108154, symSize: 0xCC }
  - { offsetInCU: 0x39682, offset: 0x39682, size: 0x8, addend: 0x0, symName: __ZNSt3__17launderB8ue170006INS_4pairIKNS_17basic_string_viewIcNS_11char_traitsIcEEEEN5memdb5lexer7BracketEEEEEPT_SC_, symObjAddr: 0x1069C8, symBinAddr: 0x1001082D4, symSize: 0x24 }
  - { offsetInCU: 0x396B9, offset: 0x396B9, size: 0x8, addend: 0x0, symName: __ZNSt3__19__launderB8ue170006INS_4pairIKNS_17basic_string_viewIcNS_11char_traitsIcEEEEN5memdb5lexer7BracketEEEEEPT_SC_, symObjAddr: 0x1069EC, symBinAddr: 0x1001082F8, symSize: 0x14 }
  - { offsetInCU: 0x396F0, offset: 0x396F0, size: 0x8, addend: 0x0, symName: __ZNSt3__110destroy_atB8ue170006INS_4pairIKNS_17basic_string_viewIcNS_11char_traitsIcEEEEN5memdb5lexer7BracketEEELi0EEEvPT_, symObjAddr: 0x107800, symBinAddr: 0x10010910C, symSize: 0x24 }
  - { offsetInCU: 0x39727, offset: 0x39727, size: 0x8, addend: 0x0, symName: __ZNSt3__112__destroy_atB8ue170006INS_4pairIKNS_17basic_string_viewIcNS_11char_traitsIcEEEEN5memdb5lexer7BracketEEELi0EEEvPT_, symObjAddr: 0x107824, symBinAddr: 0x100109130, symSize: 0x10 }
  - { offsetInCU: 0x3975E, offset: 0x3975E, size: 0x8, addend: 0x0, symName: __ZNSt3__1eqB8ue170006ERKNS_21__tree_const_iteratorINS_12__value_typeINS_17basic_string_viewIcNS_11char_traitsIcEEEEN5memdb4TypeEEEPNS_11__tree_nodeIS8_PvEElEESF_, symObjAddr: 0x10E898, symBinAddr: 0x1001101A4, symSize: 0x114 }
  - { offsetInCU: 0x3979B, offset: 0x3979B, size: 0x8, addend: 0x0, symName: __ZNSt3__14nextB8ue170006INS_21__tree_const_iteratorINS_12__value_typeINS_17basic_string_viewIcNS_11char_traitsIcEEEEN5memdb4TypeEEEPNS_11__tree_nodeIS9_PvEElEEEENS_9enable_ifIXsr29__has_input_iterator_categoryIT_EE5valueESG_E4typeESG_NS_15iterator_traitsISG_E15difference_typeE, symObjAddr: 0x110528, symBinAddr: 0x100111E34, symSize: 0x288 }
  - { offsetInCU: 0x397E3, offset: 0x397E3, size: 0x8, addend: 0x0, symName: __ZNSt3__17launderB8ue170006IKNS_4pairIKNS_17basic_string_viewIcNS_11char_traitsIcEEEEN5memdb4TypeEEEEEPT_SC_, symObjAddr: 0x110EE0, symBinAddr: 0x1001127EC, symSize: 0x24 }
  - { offsetInCU: 0x3981A, offset: 0x3981A, size: 0x8, addend: 0x0, symName: __ZNSt3__19__launderB8ue170006IKNS_4pairIKNS_17basic_string_viewIcNS_11char_traitsIcEEEEN5memdb4TypeEEEEEPT_SC_, symObjAddr: 0x110F04, symBinAddr: 0x100112810, symSize: 0x14 }
  - { offsetInCU: 0x39851, offset: 0x39851, size: 0x8, addend: 0x0, symName: __ZNSt3__19__advanceB8ue170006INS_21__tree_const_iteratorINS_12__value_typeINS_17basic_string_viewIcNS_11char_traitsIcEEEEN5memdb4TypeEEEPNS_11__tree_nodeIS9_PvEElEEEEvRT_NS_15iterator_traitsISF_E15difference_typeENS_26bidirectional_iterator_tagE, symObjAddr: 0x1111D0, symBinAddr: 0x100112ADC, symSize: 0x194 }
  - { offsetInCU: 0x398DD, offset: 0x398DD, size: 0x8, addend: 0x0, symName: __ZNSt3__112construct_atB8ue170006INS_4pairIKNS_17basic_string_viewIcNS_11char_traitsIcEEEEN5memdb4TypeEEEJRKS9_EPS9_EEPT_SE_DpOT0_, symObjAddr: 0x112548, symBinAddr: 0x100113E54, symSize: 0xCC }
  - { offsetInCU: 0x3994D, offset: 0x3994D, size: 0x8, addend: 0x0, symName: __ZNSt3__17launderB8ue170006INS_4pairIKNS_17basic_string_viewIcNS_11char_traitsIcEEEEN5memdb4TypeEEEEEPT_SB_, symObjAddr: 0x1126C8, symBinAddr: 0x100113FD4, symSize: 0x24 }
  - { offsetInCU: 0x39984, offset: 0x39984, size: 0x8, addend: 0x0, symName: __ZNSt3__19__launderB8ue170006INS_4pairIKNS_17basic_string_viewIcNS_11char_traitsIcEEEEN5memdb4TypeEEEEEPT_SB_, symObjAddr: 0x1126EC, symBinAddr: 0x100113FF8, symSize: 0x14 }
  - { offsetInCU: 0x399BB, offset: 0x399BB, size: 0x8, addend: 0x0, symName: __ZNSt3__110destroy_atB8ue170006INS_4pairIKNS_17basic_string_viewIcNS_11char_traitsIcEEEEN5memdb4TypeEEELi0EEEvPT_, symObjAddr: 0x113500, symBinAddr: 0x100114E0C, symSize: 0x24 }
  - { offsetInCU: 0x399F2, offset: 0x399F2, size: 0x8, addend: 0x0, symName: __ZNSt3__112__destroy_atB8ue170006INS_4pairIKNS_17basic_string_viewIcNS_11char_traitsIcEEEEN5memdb4TypeEEELi0EEEvPT_, symObjAddr: 0x113524, symBinAddr: 0x100114E30, symSize: 0x10 }
  - { offsetInCU: 0x39A29, offset: 0x39A29, size: 0x8, addend: 0x0, symName: __ZNSt3__1eqB8ue170006ERKNS_21__tree_const_iteratorINS_12__value_typeINS_17basic_string_viewIcNS_11char_traitsIcEEEEN5memdb5lexer5OtherEEEPNS_11__tree_nodeIS9_PvEElEESG_, symObjAddr: 0x11A598, symBinAddr: 0x10011BEA4, symSize: 0x114 }
  - { offsetInCU: 0x39A66, offset: 0x39A66, size: 0x8, addend: 0x0, symName: __ZNSt3__14nextB8ue170006INS_21__tree_const_iteratorINS_12__value_typeINS_17basic_string_viewIcNS_11char_traitsIcEEEEN5memdb5lexer5OtherEEEPNS_11__tree_nodeISA_PvEElEEEENS_9enable_ifIXsr29__has_input_iterator_categoryIT_EE5valueESH_E4typeESH_NS_15iterator_traitsISH_E15difference_typeE, symObjAddr: 0x11C228, symBinAddr: 0x10011DB34, symSize: 0x288 }
  - { offsetInCU: 0x39AAE, offset: 0x39AAE, size: 0x8, addend: 0x0, symName: __ZNSt3__17launderB8ue170006IKNS_4pairIKNS_17basic_string_viewIcNS_11char_traitsIcEEEEN5memdb5lexer5OtherEEEEEPT_SD_, symObjAddr: 0x11CBE0, symBinAddr: 0x10011E4EC, symSize: 0x24 }
  - { offsetInCU: 0x39AE5, offset: 0x39AE5, size: 0x8, addend: 0x0, symName: __ZNSt3__19__launderB8ue170006IKNS_4pairIKNS_17basic_string_viewIcNS_11char_traitsIcEEEEN5memdb5lexer5OtherEEEEEPT_SD_, symObjAddr: 0x11CC04, symBinAddr: 0x10011E510, symSize: 0x14 }
  - { offsetInCU: 0x39B1C, offset: 0x39B1C, size: 0x8, addend: 0x0, symName: __ZNSt3__19__advanceB8ue170006INS_21__tree_const_iteratorINS_12__value_typeINS_17basic_string_viewIcNS_11char_traitsIcEEEEN5memdb5lexer5OtherEEEPNS_11__tree_nodeISA_PvEElEEEEvRT_NS_15iterator_traitsISG_E15difference_typeENS_26bidirectional_iterator_tagE, symObjAddr: 0x11CED0, symBinAddr: 0x10011E7DC, symSize: 0x194 }
  - { offsetInCU: 0x39BA8, offset: 0x39BA8, size: 0x8, addend: 0x0, symName: __ZNSt3__112construct_atB8ue170006INS_4pairIKNS_17basic_string_viewIcNS_11char_traitsIcEEEEN5memdb5lexer5OtherEEEJRKSA_EPSA_EEPT_SF_DpOT0_, symObjAddr: 0x11E248, symBinAddr: 0x10011FB54, symSize: 0xCC }
  - { offsetInCU: 0x39C18, offset: 0x39C18, size: 0x8, addend: 0x0, symName: __ZNSt3__17launderB8ue170006INS_4pairIKNS_17basic_string_viewIcNS_11char_traitsIcEEEEN5memdb5lexer5OtherEEEEEPT_SC_, symObjAddr: 0x11E3C8, symBinAddr: 0x10011FCD4, symSize: 0x24 }
  - { offsetInCU: 0x39C4F, offset: 0x39C4F, size: 0x8, addend: 0x0, symName: __ZNSt3__19__launderB8ue170006INS_4pairIKNS_17basic_string_viewIcNS_11char_traitsIcEEEEN5memdb5lexer5OtherEEEEEPT_SC_, symObjAddr: 0x11E3EC, symBinAddr: 0x10011FCF8, symSize: 0x14 }
  - { offsetInCU: 0x39C86, offset: 0x39C86, size: 0x8, addend: 0x0, symName: __ZNSt3__110destroy_atB8ue170006INS_4pairIKNS_17basic_string_viewIcNS_11char_traitsIcEEEEN5memdb5lexer5OtherEEELi0EEEvPT_, symObjAddr: 0x11F200, symBinAddr: 0x100120B0C, symSize: 0x24 }
  - { offsetInCU: 0x39CBD, offset: 0x39CBD, size: 0x8, addend: 0x0, symName: __ZNSt3__112__destroy_atB8ue170006INS_4pairIKNS_17basic_string_viewIcNS_11char_traitsIcEEEEN5memdb5lexer5OtherEEELi0EEEvPT_, symObjAddr: 0x11F224, symBinAddr: 0x100120B30, symSize: 0x10 }
  - { offsetInCU: 0x39CF4, offset: 0x39CF4, size: 0x8, addend: 0x0, symName: __ZNSt3__1neB8ue170006ERKNS_15__tree_iteratorINS_12__value_typeINS_17basic_string_viewIcNS_11char_traitsIcEEEEN5memdb5lexer7CommandEEEPNS_11__tree_nodeIS9_PvEElEESG_, symObjAddr: 0x120B48, symBinAddr: 0x100122454, symSize: 0xC4 }
  - { offsetInCU: 0x39D31, offset: 0x39D31, size: 0x8, addend: 0x0, symName: __ZNSt3__1eqB8ue170006ERKNS_15__tree_iteratorINS_12__value_typeINS_17basic_string_viewIcNS_11char_traitsIcEEEEN5memdb5lexer7CommandEEEPNS_11__tree_nodeIS9_PvEElEESG_, symObjAddr: 0x120D0C, symBinAddr: 0x100122618, symSize: 0x114 }
  - { offsetInCU: 0x39DBD, offset: 0x39DBD, size: 0x8, addend: 0x0, symName: __ZNSt3__116forward_as_tupleB8ue170006IJNS_17basic_string_viewIcNS_11char_traitsIcEEEEEEENS_5tupleIJDpOT_EEES8_, symObjAddr: 0x12167C, symBinAddr: 0x100122F88, symSize: 0x244 }
  - { offsetInCU: 0x39DF7, offset: 0x39DF7, size: 0x8, addend: 0x0, symName: __ZNSt3__116forward_as_tupleB8ue170006IJEEENS_5tupleIJDpOT_EEES4_, symObjAddr: 0x1218C0, symBinAddr: 0x1001231CC, symSize: 0x4 }
  - { offsetInCU: 0x39E1B, offset: 0x39E1B, size: 0x8, addend: 0x0, symName: __ZNSt3__112construct_atB8ue170006INS_4pairIKNS_17basic_string_viewIcNS_11char_traitsIcEEEEN5memdb5lexer7CommandEEEJRKNS_21piecewise_construct_tENS_5tupleIJOS5_EEENSE_IJEEEEPSA_EEPT_SK_DpOT0_, symObjAddr: 0x12219C, symBinAddr: 0x100123AA8, symSize: 0x2A8 }
  - { offsetInCU: 0x39EC1, offset: 0x39EC1, size: 0x8, addend: 0x0, symName: __ZNSt3__13getB8ue170006ILm0EJONS_17basic_string_viewIcNS_11char_traitsIcEEEEEEERNS_13tuple_elementIXT_ENS_5tupleIJDpT0_EEEE4typeERSA_, symObjAddr: 0x1228B8, symBinAddr: 0x1001241C4, symSize: 0xE0 }
  - { offsetInCU: 0x39F5B, offset: 0x39F5B, size: 0x8, addend: 0x0, symName: __ZNSt3__1neB8ue170006ERKNS_15__tree_iteratorINS_12__value_typeINS_17basic_string_viewIcNS_11char_traitsIcEEEEN5memdb5lexer10SubCommandEEEPNS_11__tree_nodeIS9_PvEElEESG_, symObjAddr: 0x123A0C, symBinAddr: 0x100125318, symSize: 0xC4 }
  - { offsetInCU: 0x39F98, offset: 0x39F98, size: 0x8, addend: 0x0, symName: __ZNSt3__1eqB8ue170006ERKNS_15__tree_iteratorINS_12__value_typeINS_17basic_string_viewIcNS_11char_traitsIcEEEEN5memdb5lexer10SubCommandEEEPNS_11__tree_nodeIS9_PvEElEESG_, symObjAddr: 0x123BD0, symBinAddr: 0x1001254DC, symSize: 0x114 }
  - { offsetInCU: 0x39FD5, offset: 0x39FD5, size: 0x8, addend: 0x0, symName: __ZNSt3__112construct_atB8ue170006INS_4pairIKNS_17basic_string_viewIcNS_11char_traitsIcEEEEN5memdb5lexer10SubCommandEEEJRKNS_21piecewise_construct_tENS_5tupleIJOS5_EEENSE_IJEEEEPSA_EEPT_SK_DpOT0_, symObjAddr: 0x124E18, symBinAddr: 0x100126724, symSize: 0x2A8 }
  - { offsetInCU: 0x3A0A3, offset: 0x3A0A3, size: 0x8, addend: 0x0, symName: __ZNSt3__1neB8ue170006ERKNS_15__tree_iteratorINS_12__value_typeINS_17basic_string_viewIcNS_11char_traitsIcEEEEN5memdb5lexer9AttributeEEEPNS_11__tree_nodeIS9_PvEElEESG_, symObjAddr: 0x1260D8, symBinAddr: 0x1001279E4, symSize: 0xC4 }
  - { offsetInCU: 0x3A0E0, offset: 0x3A0E0, size: 0x8, addend: 0x0, symName: __ZNSt3__1eqB8ue170006ERKNS_15__tree_iteratorINS_12__value_typeINS_17basic_string_viewIcNS_11char_traitsIcEEEEN5memdb5lexer9AttributeEEEPNS_11__tree_nodeIS9_PvEElEESG_, symObjAddr: 0x12629C, symBinAddr: 0x100127BA8, symSize: 0x114 }
  - { offsetInCU: 0x3A11D, offset: 0x3A11D, size: 0x8, addend: 0x0, symName: __ZNSt3__112construct_atB8ue170006INS_4pairIKNS_17basic_string_viewIcNS_11char_traitsIcEEEEN5memdb5lexer9AttributeEEEJRKNS_21piecewise_construct_tENS_5tupleIJOS5_EEENSE_IJEEEEPSA_EEPT_SK_DpOT0_, symObjAddr: 0x1274E4, symBinAddr: 0x100128DF0, symSize: 0x2A8 }
  - { offsetInCU: 0x3A1EB, offset: 0x3A1EB, size: 0x8, addend: 0x0, symName: __ZNSt3__1neB8ue170006ERKNS_15__tree_iteratorINS_12__value_typeINS_17basic_string_viewIcNS_11char_traitsIcEEEEN5memdb9OperationEEEPNS_11__tree_nodeIS8_PvEElEESF_, symObjAddr: 0x1287A4, symBinAddr: 0x10012A0B0, symSize: 0xC4 }
  - { offsetInCU: 0x3A228, offset: 0x3A228, size: 0x8, addend: 0x0, symName: __ZNSt3__1eqB8ue170006ERKNS_15__tree_iteratorINS_12__value_typeINS_17basic_string_viewIcNS_11char_traitsIcEEEEN5memdb9OperationEEEPNS_11__tree_nodeIS8_PvEElEESF_, symObjAddr: 0x128968, symBinAddr: 0x10012A274, symSize: 0x114 }
  - { offsetInCU: 0x3A265, offset: 0x3A265, size: 0x8, addend: 0x0, symName: __ZNSt3__112construct_atB8ue170006INS_4pairIKNS_17basic_string_viewIcNS_11char_traitsIcEEEEN5memdb9OperationEEEJRKNS_21piecewise_construct_tENS_5tupleIJOS5_EEENSD_IJEEEEPS9_EEPT_SJ_DpOT0_, symObjAddr: 0x129BB0, symBinAddr: 0x10012B4BC, symSize: 0x2A8 }
  - { offsetInCU: 0x3A333, offset: 0x3A333, size: 0x8, addend: 0x0, symName: __ZNSt3__1neB8ue170006ERKNS_15__tree_iteratorINS_12__value_typeINS_17basic_string_viewIcNS_11char_traitsIcEEEEN5memdb5lexer5OtherEEEPNS_11__tree_nodeIS9_PvEElEESG_, symObjAddr: 0x12AE70, symBinAddr: 0x10012C77C, symSize: 0xC4 }
  - { offsetInCU: 0x3A370, offset: 0x3A370, size: 0x8, addend: 0x0, symName: __ZNSt3__1eqB8ue170006ERKNS_15__tree_iteratorINS_12__value_typeINS_17basic_string_viewIcNS_11char_traitsIcEEEEN5memdb5lexer5OtherEEEPNS_11__tree_nodeIS9_PvEElEESG_, symObjAddr: 0x12B034, symBinAddr: 0x10012C940, symSize: 0x114 }
  - { offsetInCU: 0x3A3AD, offset: 0x3A3AD, size: 0x8, addend: 0x0, symName: __ZNSt3__112construct_atB8ue170006INS_4pairIKNS_17basic_string_viewIcNS_11char_traitsIcEEEEN5memdb5lexer5OtherEEEJRKNS_21piecewise_construct_tENS_5tupleIJOS5_EEENSE_IJEEEEPSA_EEPT_SK_DpOT0_, symObjAddr: 0x12C27C, symBinAddr: 0x10012DB88, symSize: 0x2A8 }
  - { offsetInCU: 0x3A47B, offset: 0x3A47B, size: 0x8, addend: 0x0, symName: __ZNSt3__1neB8ue170006ERKNS_15__tree_iteratorINS_12__value_typeINS_17basic_string_viewIcNS_11char_traitsIcEEEEN5memdb5lexer7BracketEEEPNS_11__tree_nodeIS9_PvEElEESG_, symObjAddr: 0x12D53C, symBinAddr: 0x10012EE48, symSize: 0xC4 }
  - { offsetInCU: 0x3A4B8, offset: 0x3A4B8, size: 0x8, addend: 0x0, symName: __ZNSt3__1eqB8ue170006ERKNS_15__tree_iteratorINS_12__value_typeINS_17basic_string_viewIcNS_11char_traitsIcEEEEN5memdb5lexer7BracketEEEPNS_11__tree_nodeIS9_PvEElEESG_, symObjAddr: 0x12D700, symBinAddr: 0x10012F00C, symSize: 0x114 }
  - { offsetInCU: 0x3A4F5, offset: 0x3A4F5, size: 0x8, addend: 0x0, symName: __ZNSt3__112construct_atB8ue170006INS_4pairIKNS_17basic_string_viewIcNS_11char_traitsIcEEEEN5memdb5lexer7BracketEEEJRKNS_21piecewise_construct_tENS_5tupleIJOS5_EEENSE_IJEEEEPSA_EEPT_SK_DpOT0_, symObjAddr: 0x12E948, symBinAddr: 0x100130254, symSize: 0x2A8 }
  - { offsetInCU: 0x3A5C3, offset: 0x3A5C3, size: 0x8, addend: 0x0, symName: __ZNSt3__1neB8ue170006ERKNS_15__tree_iteratorINS_12__value_typeINS_17basic_string_viewIcNS_11char_traitsIcEEEEN5memdb4TypeEEEPNS_11__tree_nodeIS8_PvEElEESF_, symObjAddr: 0x12FC08, symBinAddr: 0x100131514, symSize: 0xC4 }
  - { offsetInCU: 0x3A600, offset: 0x3A600, size: 0x8, addend: 0x0, symName: __ZNSt3__1eqB8ue170006ERKNS_15__tree_iteratorINS_12__value_typeINS_17basic_string_viewIcNS_11char_traitsIcEEEEN5memdb4TypeEEEPNS_11__tree_nodeIS8_PvEElEESF_, symObjAddr: 0x12FDCC, symBinAddr: 0x1001316D8, symSize: 0x114 }
  - { offsetInCU: 0x3A63D, offset: 0x3A63D, size: 0x8, addend: 0x0, symName: __ZNSt3__112construct_atB8ue170006INS_4pairIKNS_17basic_string_viewIcNS_11char_traitsIcEEEEN5memdb4TypeEEEJRKNS_21piecewise_construct_tENS_5tupleIJOS5_EEENSD_IJEEEEPS9_EEPT_SJ_DpOT0_, symObjAddr: 0x131014, symBinAddr: 0x100132920, symSize: 0x2A8 }
  - { offsetInCU: 0x3B5AB, offset: 0x3B5AB, size: 0x8, addend: 0x0, symName: __ZSt28__throw_bad_array_new_lengthB8ue170006v, symObjAddr: 0x1C338, symBinAddr: 0x10001DC44, symSize: 0x7C }
  - { offsetInCU: 0x3B76E, offset: 0x3B76E, size: 0x8, addend: 0x0, symName: _.str, symObjAddr: 0x16E6C0, symBinAddr: 0x100170D00, symSize: 0x0 }
  - { offsetInCU: 0x3B7A4, offset: 0x3B7A4, size: 0x8, addend: 0x0, symName: _.str.2, symObjAddr: 0x16E6E0, symBinAddr: 0x100170D20, symSize: 0x0 }
  - { offsetInCU: 0x3B7B6, offset: 0x3B7B6, size: 0x8, addend: 0x0, symName: _.str.3, symObjAddr: 0x16E700, symBinAddr: 0x100170D40, symSize: 0x0 }
  - { offsetInCU: 0x3B7C8, offset: 0x3B7C8, size: 0x8, addend: 0x0, symName: _.str.4, symObjAddr: 0x16E720, symBinAddr: 0x100170D60, symSize: 0x0 }
  - { offsetInCU: 0x3B7DA, offset: 0x3B7DA, size: 0x8, addend: 0x0, symName: _.str.5, symObjAddr: 0x16E740, symBinAddr: 0x100170D80, symSize: 0x0 }
  - { offsetInCU: 0x3B7EC, offset: 0x3B7EC, size: 0x8, addend: 0x0, symName: _.str.6, symObjAddr: 0x16E760, symBinAddr: 0x100170DA0, symSize: 0x0 }
  - { offsetInCU: 0x3BE38, offset: 0x3BE38, size: 0x8, addend: 0x0, symName: _.str.8, symObjAddr: 0x16E780, symBinAddr: 0x100170DC0, symSize: 0x0 }
  - { offsetInCU: 0x3BE58, offset: 0x3BE58, size: 0x8, addend: 0x0, symName: _.str.9, symObjAddr: 0x16E7A0, symBinAddr: 0x100170DE0, symSize: 0x0 }
  - { offsetInCU: 0x3BE78, offset: 0x3BE78, size: 0x8, addend: 0x0, symName: _.str.10, symObjAddr: 0x16E7C0, symBinAddr: 0x100170E00, symSize: 0x0 }
  - { offsetInCU: 0x3BE98, offset: 0x3BE98, size: 0x8, addend: 0x0, symName: _.str.11, symObjAddr: 0x16E7E0, symBinAddr: 0x100170E20, symSize: 0x0 }
  - { offsetInCU: 0x3BEAA, offset: 0x3BEAA, size: 0x8, addend: 0x0, symName: _.str.12, symObjAddr: 0x16E800, symBinAddr: 0x100170E40, symSize: 0x0 }
  - { offsetInCU: 0x3C3A2, offset: 0x3C3A2, size: 0x8, addend: 0x0, symName: _.str.14, symObjAddr: 0x16E820, symBinAddr: 0x100170E60, symSize: 0x0 }
  - { offsetInCU: 0x3C3B4, offset: 0x3C3B4, size: 0x8, addend: 0x0, symName: _.str.15, symObjAddr: 0x16E840, symBinAddr: 0x100170E80, symSize: 0x0 }
  - { offsetInCU: 0x3C3D4, offset: 0x3C3D4, size: 0x8, addend: 0x0, symName: _.str.16, symObjAddr: 0x16E860, symBinAddr: 0x100170EA0, symSize: 0x0 }
  - { offsetInCU: 0x3C3E6, offset: 0x3C3E6, size: 0x8, addend: 0x0, symName: _.str.17, symObjAddr: 0x16E880, symBinAddr: 0x100170EC0, symSize: 0x0 }
  - { offsetInCU: 0x3C406, offset: 0x3C406, size: 0x8, addend: 0x0, symName: _.str.18, symObjAddr: 0x16E8A0, symBinAddr: 0x100170EE0, symSize: 0x0 }
  - { offsetInCU: 0x3C90C, offset: 0x3C90C, size: 0x8, addend: 0x0, symName: _.str.20, symObjAddr: 0x16E8C0, symBinAddr: 0x100170F00, symSize: 0x0 }
  - { offsetInCU: 0x3C92C, offset: 0x3C92C, size: 0x8, addend: 0x0, symName: _.str.21, symObjAddr: 0x16E8E0, symBinAddr: 0x100170F20, symSize: 0x0 }
  - { offsetInCU: 0x3C93E, offset: 0x3C93E, size: 0x8, addend: 0x0, symName: _.str.22, symObjAddr: 0x16E900, symBinAddr: 0x100170F40, symSize: 0x0 }
  - { offsetInCU: 0x3C950, offset: 0x3C950, size: 0x8, addend: 0x0, symName: _.str.23, symObjAddr: 0x16E920, symBinAddr: 0x100170F60, symSize: 0x0 }
  - { offsetInCU: 0x3C962, offset: 0x3C962, size: 0x8, addend: 0x0, symName: _.str.24, symObjAddr: 0x16E940, symBinAddr: 0x100170F80, symSize: 0x0 }
  - { offsetInCU: 0x3C974, offset: 0x3C974, size: 0x8, addend: 0x0, symName: _.str.25, symObjAddr: 0x16E960, symBinAddr: 0x100170FA0, symSize: 0x0 }
  - { offsetInCU: 0x3C986, offset: 0x3C986, size: 0x8, addend: 0x0, symName: _.str.26, symObjAddr: 0x16E980, symBinAddr: 0x100170FC0, symSize: 0x0 }
  - { offsetInCU: 0x3C998, offset: 0x3C998, size: 0x8, addend: 0x0, symName: _.str.27, symObjAddr: 0x16E9A0, symBinAddr: 0x100170FE0, symSize: 0x0 }
  - { offsetInCU: 0x3C9AA, offset: 0x3C9AA, size: 0x8, addend: 0x0, symName: _.str.28, symObjAddr: 0x16E9C0, symBinAddr: 0x100171000, symSize: 0x0 }
  - { offsetInCU: 0x3C9BC, offset: 0x3C9BC, size: 0x8, addend: 0x0, symName: _.str.29, symObjAddr: 0x16E9E0, symBinAddr: 0x100171020, symSize: 0x0 }
  - { offsetInCU: 0x3C9CE, offset: 0x3C9CE, size: 0x8, addend: 0x0, symName: _.str.30, symObjAddr: 0x16EA00, symBinAddr: 0x100171040, symSize: 0x0 }
  - { offsetInCU: 0x3C9E0, offset: 0x3C9E0, size: 0x8, addend: 0x0, symName: _.str.31, symObjAddr: 0x16EA20, symBinAddr: 0x100171060, symSize: 0x0 }
  - { offsetInCU: 0x3C9F2, offset: 0x3C9F2, size: 0x8, addend: 0x0, symName: _.str.32, symObjAddr: 0x16EA40, symBinAddr: 0x100171080, symSize: 0x0 }
  - { offsetInCU: 0x3CA04, offset: 0x3CA04, size: 0x8, addend: 0x0, symName: _.str.33, symObjAddr: 0x16EA60, symBinAddr: 0x1001710A0, symSize: 0x0 }
  - { offsetInCU: 0x3CA16, offset: 0x3CA16, size: 0x8, addend: 0x0, symName: _.str.34, symObjAddr: 0x16EA80, symBinAddr: 0x1001710C0, symSize: 0x0 }
  - { offsetInCU: 0x3CA28, offset: 0x3CA28, size: 0x8, addend: 0x0, symName: _.str.35, symObjAddr: 0x16EAA0, symBinAddr: 0x1001710E0, symSize: 0x0 }
  - { offsetInCU: 0x3CF20, offset: 0x3CF20, size: 0x8, addend: 0x0, symName: _.str.37, symObjAddr: 0x16EAC0, symBinAddr: 0x100171100, symSize: 0x0 }
  - { offsetInCU: 0x3CF32, offset: 0x3CF32, size: 0x8, addend: 0x0, symName: _.str.38, symObjAddr: 0x16EAE0, symBinAddr: 0x100171120, symSize: 0x0 }
  - { offsetInCU: 0x3CF44, offset: 0x3CF44, size: 0x8, addend: 0x0, symName: _.str.39, symObjAddr: 0x16EB00, symBinAddr: 0x100171140, symSize: 0x0 }
  - { offsetInCU: 0x3CF56, offset: 0x3CF56, size: 0x8, addend: 0x0, symName: _.str.40, symObjAddr: 0x16EB20, symBinAddr: 0x100171160, symSize: 0x0 }
  - { offsetInCU: 0x3CF68, offset: 0x3CF68, size: 0x8, addend: 0x0, symName: _.str.41, symObjAddr: 0x16EB40, symBinAddr: 0x100171180, symSize: 0x0 }
  - { offsetInCU: 0x3CF7A, offset: 0x3CF7A, size: 0x8, addend: 0x0, symName: _.str.42, symObjAddr: 0x16EB60, symBinAddr: 0x1001711A0, symSize: 0x0 }
  - { offsetInCU: 0x3CF8C, offset: 0x3CF8C, size: 0x8, addend: 0x0, symName: _.str.43, symObjAddr: 0x16EB80, symBinAddr: 0x1001711C0, symSize: 0x0 }
  - { offsetInCU: 0x3CF9E, offset: 0x3CF9E, size: 0x8, addend: 0x0, symName: _.str.44, symObjAddr: 0x16EBA0, symBinAddr: 0x1001711E0, symSize: 0x0 }
  - { offsetInCU: 0x3D496, offset: 0x3D496, size: 0x8, addend: 0x0, symName: _.str.46, symObjAddr: 0x16EBC0, symBinAddr: 0x100171200, symSize: 0x0 }
  - { offsetInCU: 0x3D4A8, offset: 0x3D4A8, size: 0x8, addend: 0x0, symName: _.str.47, symObjAddr: 0x16EBE0, symBinAddr: 0x100171220, symSize: 0x0 }
  - { offsetInCU: 0x3D4BA, offset: 0x3D4BA, size: 0x8, addend: 0x0, symName: _.str.48, symObjAddr: 0x16EC00, symBinAddr: 0x100171240, symSize: 0x0 }
  - { offsetInCU: 0x3D4CC, offset: 0x3D4CC, size: 0x8, addend: 0x0, symName: _.str.49, symObjAddr: 0x16EC20, symBinAddr: 0x100171260, symSize: 0x0 }
  - { offsetInCU: 0x3D9C4, offset: 0x3D9C4, size: 0x8, addend: 0x0, symName: _.str.51, symObjAddr: 0x16EC40, symBinAddr: 0x100171280, symSize: 0x0 }
  - { offsetInCU: 0x3D9D6, offset: 0x3D9D6, size: 0x8, addend: 0x0, symName: _.str.52, symObjAddr: 0x16EC60, symBinAddr: 0x1001712A0, symSize: 0x0 }
  - { offsetInCU: 0x3DECE, offset: 0x3DECE, size: 0x8, addend: 0x0, symName: _.str.53, symObjAddr: 0x16EC80, symBinAddr: 0x1001712C0, symSize: 0x0 }
  - { offsetInCU: 0x3DEE0, offset: 0x3DEE0, size: 0x8, addend: 0x0, symName: _.str.54, symObjAddr: 0x16ECA0, symBinAddr: 0x1001712E0, symSize: 0x0 }
  - { offsetInCU: 0x3DEF3, offset: 0x3DEF3, size: 0x8, addend: 0x0, symName: _.str.55, symObjAddr: 0x139860, symBinAddr: 0x10013BE60, symSize: 0x0 }
  - { offsetInCU: 0x3DF11, offset: 0x3DF11, size: 0x8, addend: 0x0, symName: __ZN5memdb6parser9Condition7opPriorE, symObjAddr: 0x178CF0, symBinAddr: 0x1001A5AD0, symSize: 0x0 }
  - { offsetInCU: 0x3E8B0, offset: 0x3E8B0, size: 0x8, addend: 0x0, symName: _.str.58, symObjAddr: 0x16ECC0, symBinAddr: 0x100171300, symSize: 0x0 }
  - { offsetInCU: 0x3E8D1, offset: 0x3E8D1, size: 0x8, addend: 0x0, symName: _.str.67, symObjAddr: 0x16ED60, symBinAddr: 0x1001713A0, symSize: 0x0 }
  - { offsetInCU: 0x3E8E4, offset: 0x3E8E4, size: 0x8, addend: 0x0, symName: _.str.84, symObjAddr: 0x16ED80, symBinAddr: 0x1001713C0, symSize: 0x0 }
  - { offsetInCU: 0x3EED0, offset: 0x3EED0, size: 0x8, addend: 0x0, symName: __ZNSt3__16vectorINS_12basic_stringIcNS_11char_traitsIcEENS_9allocatorIcEEEENS4_IS6_EEE26__swap_out_circular_bufferERNS_14__split_bufferIS6_RS7_EE, symObjAddr: 0x4E074, symBinAddr: 0x10004F980, symSize: 0x85C }
  - { offsetInCU: 0x3EFED, offset: 0x3EFED, size: 0x8, addend: 0x0, symName: __ZNSt3__16vectorINS_10shared_ptrIN5memdb9Tokenizer5TokenEEENS_9allocatorIS5_EEE26__swap_out_circular_bufferERNS_14__split_bufferIS5_RS7_EE, symObjAddr: 0x98858, symBinAddr: 0x10009A164, symSize: 0x85C }
  - { offsetInCU: 0x3F4B2, offset: 0x3F4B2, size: 0x8, addend: 0x0, symName: __ZNSt3__16vectorIN5memdb21ColumnFullDescriptionENS_9allocatorIS2_EEE26__swap_out_circular_bufferERNS_14__split_bufferIS2_RS4_EE, symObjAddr: 0xB1220, symBinAddr: 0x1000B2B2C, symSize: 0x85C }
  - { offsetInCU: 0x3F587, offset: 0x3F587, size: 0x8, addend: 0x0, symName: __ZNSt3__16vectorIN5memdb11ColumnAttrsENS_9allocatorIS2_EEE26__swap_out_circular_bufferERNS_14__split_bufferIS2_RS4_EE, symObjAddr: 0xBE974, symBinAddr: 0x1000C0280, symSize: 0x85C }
  - { offsetInCU: 0x4050F, offset: 0x4050F, size: 0x8, addend: 0x0, symName: __Z7isalphai, symObjAddr: 0x6260, symBinAddr: 0x100007B6C, symSize: 0x28 }
  - { offsetInCU: 0x40565, offset: 0x40565, size: 0x8, addend: 0x0, symName: __Z7isdigiti, symObjAddr: 0x6238, symBinAddr: 0x100007B44, symSize: 0x28 }
  - { offsetInCU: 0x41AF3, offset: 0x41AF3, size: 0x8, addend: 0x0, symName: __ZNSt3__16vectorIN5memdb9OperationENS_9allocatorIS2_EEEC1B8ue170006ESt16initializer_listIS2_E, symObjAddr: 0x83C, symBinAddr: 0x100002148, symSize: 0x29C }
  - { offsetInCU: 0x41B33, offset: 0x41B33, size: 0x8, addend: 0x0, symName: __ZNSt3__16vectorIN5memdb9OperationENS_9allocatorIS2_EEED1B8ue170006Ev, symObjAddr: 0xAD8, symBinAddr: 0x1000023E4, symSize: 0x78 }
  - { offsetInCU: 0x41B5D, offset: 0x41B5D, size: 0x8, addend: 0x0, symName: __ZNSt3__16vectorIN5memdb9OperationENS_9allocatorIS2_EEE5beginB8ue170006Ev, symObjAddr: 0x110C, symBinAddr: 0x100002A18, symSize: 0x2B0 }
  - { offsetInCU: 0x41B86, offset: 0x41B86, size: 0x8, addend: 0x0, symName: __ZNSt3__16vectorIN5memdb9OperationENS_9allocatorIS2_EEE3endB8ue170006Ev, symObjAddr: 0x13BC, symBinAddr: 0x100002CC8, symSize: 0x2B4 }
  - { offsetInCU: 0x41BCF, offset: 0x41BCF, size: 0x8, addend: 0x0, symName: __ZNSt3__14pairIKNS_17basic_string_viewIcNS_11char_traitsIcEEEEN5memdb5lexer7CommandEEC1B8ue170006IRA7_KcS8_LPv0EEEOT_OT0_, symObjAddr: 0x2C28, symBinAddr: 0x100004534, symSize: 0x88 }
  - { offsetInCU: 0x41C47, offset: 0x41C47, size: 0x8, addend: 0x0, symName: __ZNSt3__14pairIKNS_17basic_string_viewIcNS_11char_traitsIcEEEEN5memdb5lexer7CommandEEC1B8ue170006IRA5_KcS8_LPv0EEEOT_OT0_, symObjAddr: 0x2CB0, symBinAddr: 0x1000045BC, symSize: 0x88 }
  - { offsetInCU: 0x41CA5, offset: 0x41CA5, size: 0x8, addend: 0x0, symName: __ZNSt3__13mapINS_17basic_string_viewIcNS_11char_traitsIcEEEEN5memdb5lexer7CommandENS_4lessIS4_EENS_9allocatorINS_4pairIKS4_S7_EEEEEC1B8ue170006ESt16initializer_listISD_ERKS9_, symObjAddr: 0x2D38, symBinAddr: 0x100004644, symSize: 0x2B4 }
  - { offsetInCU: 0x41CF3, offset: 0x41CF3, size: 0x8, addend: 0x0, symName: __ZNSt3__13mapINS_17basic_string_viewIcNS_11char_traitsIcEEEEN5memdb5lexer7CommandENS_4lessIS4_EENS_9allocatorINS_4pairIKS4_S7_EEEEED1B8ue170006Ev, symObjAddr: 0x2FEC, symBinAddr: 0x1000048F8, symSize: 0x78 }
  - { offsetInCU: 0x41D3D, offset: 0x41D3D, size: 0x8, addend: 0x0, symName: __ZNSt3__14pairIKNS_17basic_string_viewIcNS_11char_traitsIcEEEEN5memdb5lexer10SubCommandEEC1B8ue170006IRA6_KcS8_LPv0EEEOT_OT0_, symObjAddr: 0x3064, symBinAddr: 0x100004970, symSize: 0x88 }
  - { offsetInCU: 0x41DB5, offset: 0x41DB5, size: 0x8, addend: 0x0, symName: __ZNSt3__14pairIKNS_17basic_string_viewIcNS_11char_traitsIcEEEEN5memdb5lexer10SubCommandEEC1B8ue170006IRA3_KcS8_LPv0EEEOT_OT0_, symObjAddr: 0x30EC, symBinAddr: 0x1000049F8, symSize: 0x88 }
  - { offsetInCU: 0x41E2D, offset: 0x41E2D, size: 0x8, addend: 0x0, symName: __ZNSt3__14pairIKNS_17basic_string_viewIcNS_11char_traitsIcEEEEN5memdb5lexer10SubCommandEEC1B8ue170006IRA4_KcS8_LPv0EEEOT_OT0_, symObjAddr: 0x3174, symBinAddr: 0x100004A80, symSize: 0x88 }
  - { offsetInCU: 0x41E8B, offset: 0x41E8B, size: 0x8, addend: 0x0, symName: __ZNSt3__14pairIKNS_17basic_string_viewIcNS_11char_traitsIcEEEEN5memdb5lexer10SubCommandEEC1B8ue170006IRA5_KcS8_LPv0EEEOT_OT0_, symObjAddr: 0x31FC, symBinAddr: 0x100004B08, symSize: 0x88 }
  - { offsetInCU: 0x41EE9, offset: 0x41EE9, size: 0x8, addend: 0x0, symName: __ZNSt3__13mapINS_17basic_string_viewIcNS_11char_traitsIcEEEEN5memdb5lexer10SubCommandENS_4lessIS4_EENS_9allocatorINS_4pairIKS4_S7_EEEEEC1B8ue170006ESt16initializer_listISD_ERKS9_, symObjAddr: 0x3284, symBinAddr: 0x100004B90, symSize: 0x2B4 }
  - { offsetInCU: 0x41F37, offset: 0x41F37, size: 0x8, addend: 0x0, symName: __ZNSt3__13mapINS_17basic_string_viewIcNS_11char_traitsIcEEEEN5memdb5lexer10SubCommandENS_4lessIS4_EENS_9allocatorINS_4pairIKS4_S7_EEEEED1B8ue170006Ev, symObjAddr: 0x3538, symBinAddr: 0x100004E44, symSize: 0x78 }
  - { offsetInCU: 0x41F67, offset: 0x41F67, size: 0x8, addend: 0x0, symName: __ZNSt3__14pairIKNS_17basic_string_viewIcNS_11char_traitsIcEEEEN5memdb5lexer9AttributeEEC1B8ue170006IRA7_KcS8_LPv0EEEOT_OT0_, symObjAddr: 0x35B0, symBinAddr: 0x100004EBC, symSize: 0x88 }
  - { offsetInCU: 0x41FDF, offset: 0x41FDF, size: 0x8, addend: 0x0, symName: __ZNSt3__14pairIKNS_17basic_string_viewIcNS_11char_traitsIcEEEEN5memdb5lexer9AttributeEEC1B8ue170006IRA14_KcS8_LPv0EEEOT_OT0_, symObjAddr: 0x3638, symBinAddr: 0x100004F44, symSize: 0x88 }
  - { offsetInCU: 0x4203D, offset: 0x4203D, size: 0x8, addend: 0x0, symName: __ZNSt3__14pairIKNS_17basic_string_viewIcNS_11char_traitsIcEEEEN5memdb5lexer9AttributeEEC1B8ue170006IRA4_KcS8_LPv0EEEOT_OT0_, symObjAddr: 0x36C0, symBinAddr: 0x100004FCC, symSize: 0x88 }
  - { offsetInCU: 0x420B5, offset: 0x420B5, size: 0x8, addend: 0x0, symName: __ZNSt3__14pairIKNS_17basic_string_viewIcNS_11char_traitsIcEEEEN5memdb5lexer9AttributeEEC1B8ue170006IRA8_KcS8_LPv0EEEOT_OT0_, symObjAddr: 0x3748, symBinAddr: 0x100005054, symSize: 0x88 }
  - { offsetInCU: 0x4212D, offset: 0x4212D, size: 0x8, addend: 0x0, symName: __ZNSt3__14pairIKNS_17basic_string_viewIcNS_11char_traitsIcEEEEN5memdb5lexer9AttributeEEC1B8ue170006IRA10_KcS8_LPv0EEEOT_OT0_, symObjAddr: 0x37D0, symBinAddr: 0x1000050DC, symSize: 0x88 }
  - { offsetInCU: 0x4218B, offset: 0x4218B, size: 0x8, addend: 0x0, symName: __ZNSt3__13mapINS_17basic_string_viewIcNS_11char_traitsIcEEEEN5memdb5lexer9AttributeENS_4lessIS4_EENS_9allocatorINS_4pairIKS4_S7_EEEEEC1B8ue170006ESt16initializer_listISD_ERKS9_, symObjAddr: 0x3858, symBinAddr: 0x100005164, symSize: 0x2B4 }
  - { offsetInCU: 0x421D9, offset: 0x421D9, size: 0x8, addend: 0x0, symName: __ZNSt3__13mapINS_17basic_string_viewIcNS_11char_traitsIcEEEEN5memdb5lexer9AttributeENS_4lessIS4_EENS_9allocatorINS_4pairIKS4_S7_EEEEED1B8ue170006Ev, symObjAddr: 0x3B0C, symBinAddr: 0x100005418, symSize: 0x78 }
  - { offsetInCU: 0x42223, offset: 0x42223, size: 0x8, addend: 0x0, symName: __ZNSt3__14pairIKNS_17basic_string_viewIcNS_11char_traitsIcEEEEN5memdb9OperationEEC1B8ue170006IRA2_KcS7_LPv0EEEOT_OT0_, symObjAddr: 0x3B84, symBinAddr: 0x100005490, symSize: 0x88 }
  - { offsetInCU: 0x42281, offset: 0x42281, size: 0x8, addend: 0x0, symName: __ZNSt3__14pairIKNS_17basic_string_viewIcNS_11char_traitsIcEEEEN5memdb9OperationEEC1B8ue170006IRA3_KcS7_LPv0EEEOT_OT0_, symObjAddr: 0x3C0C, symBinAddr: 0x100005518, symSize: 0x88 }
  - { offsetInCU: 0x422DF, offset: 0x422DF, size: 0x8, addend: 0x0, symName: __ZNSt3__13mapINS_17basic_string_viewIcNS_11char_traitsIcEEEEN5memdb9OperationENS_4lessIS4_EENS_9allocatorINS_4pairIKS4_S6_EEEEEC1B8ue170006ESt16initializer_listISC_ERKS8_, symObjAddr: 0x3C94, symBinAddr: 0x1000055A0, symSize: 0x2B4 }
  - { offsetInCU: 0x4232D, offset: 0x4232D, size: 0x8, addend: 0x0, symName: __ZNSt3__13mapINS_17basic_string_viewIcNS_11char_traitsIcEEEEN5memdb9OperationENS_4lessIS4_EENS_9allocatorINS_4pairIKS4_S6_EEEEED1B8ue170006Ev, symObjAddr: 0x3F48, symBinAddr: 0x100005854, symSize: 0x78 }
  - { offsetInCU: 0x4235D, offset: 0x4235D, size: 0x8, addend: 0x0, symName: __ZNSt3__14pairIKNS_17basic_string_viewIcNS_11char_traitsIcEEEEN5memdb5lexer7BracketEEC1B8ue170006IRA2_KcS8_LPv0EEEOT_OT0_, symObjAddr: 0x3FC0, symBinAddr: 0x1000058CC, symSize: 0x88 }
  - { offsetInCU: 0x423BB, offset: 0x423BB, size: 0x8, addend: 0x0, symName: __ZNSt3__14pairIKNS_17basic_string_viewIcNS_11char_traitsIcEEEEN5memdb5lexer7BracketEEC1B8ue170006IRA3_KcS8_LPv0EEEOT_OT0_, symObjAddr: 0x4048, symBinAddr: 0x100005954, symSize: 0x88 }
  - { offsetInCU: 0x42419, offset: 0x42419, size: 0x8, addend: 0x0, symName: __ZNSt3__13mapINS_17basic_string_viewIcNS_11char_traitsIcEEEEN5memdb5lexer7BracketENS_4lessIS4_EENS_9allocatorINS_4pairIKS4_S7_EEEEEC1B8ue170006ESt16initializer_listISD_ERKS9_, symObjAddr: 0x40D0, symBinAddr: 0x1000059DC, symSize: 0x2B4 }
  - { offsetInCU: 0x42467, offset: 0x42467, size: 0x8, addend: 0x0, symName: __ZNSt3__13mapINS_17basic_string_viewIcNS_11char_traitsIcEEEEN5memdb5lexer7BracketENS_4lessIS4_EENS_9allocatorINS_4pairIKS4_S7_EEEEED1B8ue170006Ev, symObjAddr: 0x4384, symBinAddr: 0x100005C90, symSize: 0x78 }
  - { offsetInCU: 0x42497, offset: 0x42497, size: 0x8, addend: 0x0, symName: __ZNSt3__14pairIKNS_17basic_string_viewIcNS_11char_traitsIcEEEEN5memdb4TypeEEC1B8ue170006IRA6_KcS7_LPv0EEEOT_OT0_, symObjAddr: 0x43FC, symBinAddr: 0x100005D08, symSize: 0x88 }
  - { offsetInCU: 0x424F5, offset: 0x424F5, size: 0x8, addend: 0x0, symName: __ZNSt3__14pairIKNS_17basic_string_viewIcNS_11char_traitsIcEEEEN5memdb4TypeEEC1B8ue170006IRA5_KcS7_LPv0EEEOT_OT0_, symObjAddr: 0x4484, symBinAddr: 0x100005D90, symSize: 0x88 }
  - { offsetInCU: 0x42553, offset: 0x42553, size: 0x8, addend: 0x0, symName: __ZNSt3__14pairIKNS_17basic_string_viewIcNS_11char_traitsIcEEEEN5memdb4TypeEEC1B8ue170006IRA7_KcS7_LPv0EEEOT_OT0_, symObjAddr: 0x450C, symBinAddr: 0x100005E18, symSize: 0x88 }
  - { offsetInCU: 0x425B1, offset: 0x425B1, size: 0x8, addend: 0x0, symName: __ZNSt3__13mapINS_17basic_string_viewIcNS_11char_traitsIcEEEEN5memdb4TypeENS_4lessIS4_EENS_9allocatorINS_4pairIKS4_S6_EEEEEC1B8ue170006ESt16initializer_listISC_ERKS8_, symObjAddr: 0x4594, symBinAddr: 0x100005EA0, symSize: 0x2B4 }
  - { offsetInCU: 0x425FF, offset: 0x425FF, size: 0x8, addend: 0x0, symName: __ZNSt3__13mapINS_17basic_string_viewIcNS_11char_traitsIcEEEEN5memdb4TypeENS_4lessIS4_EENS_9allocatorINS_4pairIKS4_S6_EEEEED1B8ue170006Ev, symObjAddr: 0x4848, symBinAddr: 0x100006154, symSize: 0x78 }
  - { offsetInCU: 0x4262F, offset: 0x4262F, size: 0x8, addend: 0x0, symName: __ZNSt3__14pairIKNS_17basic_string_viewIcNS_11char_traitsIcEEEEN5memdb5lexer5OtherEEC1B8ue170006IRA2_KcS8_LPv0EEEOT_OT0_, symObjAddr: 0x48C0, symBinAddr: 0x1000061CC, symSize: 0x88 }
  - { offsetInCU: 0x4268D, offset: 0x4268D, size: 0x8, addend: 0x0, symName: __ZNSt3__13mapINS_17basic_string_viewIcNS_11char_traitsIcEEEEN5memdb5lexer5OtherENS_4lessIS4_EENS_9allocatorINS_4pairIKS4_S7_EEEEEC1B8ue170006ESt16initializer_listISD_ERKS9_, symObjAddr: 0x4948, symBinAddr: 0x100006254, symSize: 0x2B4 }
  - { offsetInCU: 0x426DB, offset: 0x426DB, size: 0x8, addend: 0x0, symName: __ZNSt3__13mapINS_17basic_string_viewIcNS_11char_traitsIcEEEEN5memdb5lexer5OtherENS_4lessIS4_EENS_9allocatorINS_4pairIKS4_S7_EEEEED1B8ue170006Ev, symObjAddr: 0x4BFC, symBinAddr: 0x100006508, symSize: 0x78 }
  - { offsetInCU: 0x42705, offset: 0x42705, size: 0x8, addend: 0x0, symName: __ZNKSt3__117basic_string_viewIcNS_11char_traitsIcEEEixB8ue170006Em, symObjAddr: 0x6010, symBinAddr: 0x10000791C, symSize: 0x1B0 }
  - { offsetInCU: 0x4273A, offset: 0x4273A, size: 0x8, addend: 0x0, symName: __ZNSt3__112basic_stringIcNS_11char_traitsIcEENS_9allocatorIcEEEC1B8ue170006Ev, symObjAddr: 0x61C0, symBinAddr: 0x100007ACC, symSize: 0x78 }
  - { offsetInCU: 0x42764, offset: 0x42764, size: 0x8, addend: 0x0, symName: __ZNKSt3__117basic_string_viewIcNS_11char_traitsIcEEE4sizeB8ue170006Ev, symObjAddr: 0x6288, symBinAddr: 0x100007B94, symSize: 0xB0 }
  - { offsetInCU: 0x4278A, offset: 0x4278A, size: 0x8, addend: 0x0, symName: __ZNSt3__112basic_stringIcNS_11char_traitsIcEENS_9allocatorIcEEEpLB8ue170006EPKc, symObjAddr: 0x6338, symBinAddr: 0x100007C44, symSize: 0xBC }
  - { offsetInCU: 0x427BF, offset: 0x427BF, size: 0x8, addend: 0x0, symName: __ZNSt3__13mapINS_17basic_string_viewIcNS_11char_traitsIcEEEEN5memdb5lexer7CommandENS_4lessIS4_EENS_9allocatorINS_4pairIKS4_S7_EEEEE4findB8ue170006ERSC_, symObjAddr: 0x6CA4, symBinAddr: 0x1000085B0, symSize: 0x390 }
  - { offsetInCU: 0x427F6, offset: 0x427F6, size: 0x8, addend: 0x0, symName: __ZNSt3__16vectorINS_12basic_stringIcNS_11char_traitsIcEENS_9allocatorIcEEEENS4_IS6_EEEixB8ue170006Em, symObjAddr: 0x7034, symBinAddr: 0x100008940, symSize: 0x1D4 }
  - { offsetInCU: 0x4282D, offset: 0x4282D, size: 0x8, addend: 0x0, symName: __ZNKSt3__112basic_stringIcNS_11char_traitsIcEENS_9allocatorIcEEEcvNS_17basic_string_viewIcS2_EEB8ue170006Ev, symObjAddr: 0x7208, symBinAddr: 0x100008B14, symSize: 0x26C }
  - { offsetInCU: 0x42854, offset: 0x42854, size: 0x8, addend: 0x0, symName: __ZNSt3__13mapINS_17basic_string_viewIcNS_11char_traitsIcEEEEN5memdb5lexer7CommandENS_4lessIS4_EENS_9allocatorINS_4pairIKS4_S7_EEEEE3endB8ue170006Ev, symObjAddr: 0x7474, symBinAddr: 0x100008D80, symSize: 0x340 }
  - { offsetInCU: 0x428A5, offset: 0x428A5, size: 0x8, addend: 0x0, symName: __ZNSt3__14pairIbN5memdb5lexer7CommandEEC1B8ue170006IbS3_LPv0EEEOT_OT0_, symObjAddr: 0x77B4, symBinAddr: 0x1000090C0, symSize: 0x88 }
  - { offsetInCU: 0x42903, offset: 0x42903, size: 0x8, addend: 0x0, symName: __ZNSt3__13mapINS_17basic_string_viewIcNS_11char_traitsIcEEEEN5memdb5lexer7CommandENS_4lessIS4_EENS_9allocatorINS_4pairIKS4_S7_EEEEEixEOS4_, symObjAddr: 0x783C, symBinAddr: 0x100009148, symSize: 0x4F8 }
  - { offsetInCU: 0x42942, offset: 0x42942, size: 0x8, addend: 0x0, symName: __ZNSt3__14pairIbN5memdb5lexer7CommandEEC1B8ue170006IbRS3_LPv0EEEOT_OT0_, symObjAddr: 0x7D34, symBinAddr: 0x100009640, symSize: 0x88 }
  - { offsetInCU: 0x429A0, offset: 0x429A0, size: 0x8, addend: 0x0, symName: __ZNSt3__13mapINS_17basic_string_viewIcNS_11char_traitsIcEEEEN5memdb5lexer10SubCommandENS_4lessIS4_EENS_9allocatorINS_4pairIKS4_S7_EEEEE4findB8ue170006ERSC_, symObjAddr: 0x866C, symBinAddr: 0x100009F78, symSize: 0x390 }
  - { offsetInCU: 0x429D7, offset: 0x429D7, size: 0x8, addend: 0x0, symName: __ZNSt3__13mapINS_17basic_string_viewIcNS_11char_traitsIcEEEEN5memdb5lexer10SubCommandENS_4lessIS4_EENS_9allocatorINS_4pairIKS4_S7_EEEEE3endB8ue170006Ev, symObjAddr: 0x89FC, symBinAddr: 0x10000A308, symSize: 0x340 }
  - { offsetInCU: 0x42A22, offset: 0x42A22, size: 0x8, addend: 0x0, symName: __ZNSt3__14pairIbN5memdb5lexer10SubCommandEEC1B8ue170006IbS3_LPv0EEEOT_OT0_, symObjAddr: 0x8D3C, symBinAddr: 0x10000A648, symSize: 0x88 }
  - { offsetInCU: 0x42A80, offset: 0x42A80, size: 0x8, addend: 0x0, symName: __ZNSt3__13mapINS_17basic_string_viewIcNS_11char_traitsIcEEEEN5memdb5lexer10SubCommandENS_4lessIS4_EENS_9allocatorINS_4pairIKS4_S7_EEEEEixEOS4_, symObjAddr: 0x8DC4, symBinAddr: 0x10000A6D0, symSize: 0x4F8 }
  - { offsetInCU: 0x42ABF, offset: 0x42ABF, size: 0x8, addend: 0x0, symName: __ZNSt3__14pairIbN5memdb5lexer10SubCommandEEC1B8ue170006IbRS3_LPv0EEEOT_OT0_, symObjAddr: 0x92BC, symBinAddr: 0x10000ABC8, symSize: 0x88 }
  - { offsetInCU: 0x42B1D, offset: 0x42B1D, size: 0x8, addend: 0x0, symName: __ZNSt3__13mapINS_17basic_string_viewIcNS_11char_traitsIcEEEEN5memdb5lexer9AttributeENS_4lessIS4_EENS_9allocatorINS_4pairIKS4_S7_EEEEE4findB8ue170006ERSC_, symObjAddr: 0x9BF4, symBinAddr: 0x10000B500, symSize: 0x390 }
  - { offsetInCU: 0x42B54, offset: 0x42B54, size: 0x8, addend: 0x0, symName: __ZNSt3__13mapINS_17basic_string_viewIcNS_11char_traitsIcEEEEN5memdb5lexer9AttributeENS_4lessIS4_EENS_9allocatorINS_4pairIKS4_S7_EEEEE3endB8ue170006Ev, symObjAddr: 0x9F84, symBinAddr: 0x10000B890, symSize: 0x340 }
  - { offsetInCU: 0x42B9F, offset: 0x42B9F, size: 0x8, addend: 0x0, symName: __ZNSt3__14pairIbN5memdb5lexer9AttributeEEC1B8ue170006IbS3_LPv0EEEOT_OT0_, symObjAddr: 0xA2C4, symBinAddr: 0x10000BBD0, symSize: 0x88 }
  - { offsetInCU: 0x42BFD, offset: 0x42BFD, size: 0x8, addend: 0x0, symName: __ZNSt3__13mapINS_17basic_string_viewIcNS_11char_traitsIcEEEEN5memdb5lexer9AttributeENS_4lessIS4_EENS_9allocatorINS_4pairIKS4_S7_EEEEEixEOS4_, symObjAddr: 0xA34C, symBinAddr: 0x10000BC58, symSize: 0x4F8 }
  - { offsetInCU: 0x42C3C, offset: 0x42C3C, size: 0x8, addend: 0x0, symName: __ZNSt3__14pairIbN5memdb5lexer9AttributeEEC1B8ue170006IbRS3_LPv0EEEOT_OT0_, symObjAddr: 0xA844, symBinAddr: 0x10000C150, symSize: 0x88 }
  - { offsetInCU: 0x42C9A, offset: 0x42C9A, size: 0x8, addend: 0x0, symName: __ZNSt3__13mapINS_17basic_string_viewIcNS_11char_traitsIcEEEEN5memdb9OperationENS_4lessIS4_EENS_9allocatorINS_4pairIKS4_S6_EEEEE4findB8ue170006ERSB_, symObjAddr: 0xB17C, symBinAddr: 0x10000CA88, symSize: 0x390 }
  - { offsetInCU: 0x42CD1, offset: 0x42CD1, size: 0x8, addend: 0x0, symName: __ZNSt3__13mapINS_17basic_string_viewIcNS_11char_traitsIcEEEEN5memdb9OperationENS_4lessIS4_EENS_9allocatorINS_4pairIKS4_S6_EEEEE3endB8ue170006Ev, symObjAddr: 0xB50C, symBinAddr: 0x10000CE18, symSize: 0x340 }
  - { offsetInCU: 0x42D1C, offset: 0x42D1C, size: 0x8, addend: 0x0, symName: __ZNSt3__14pairIbN5memdb9OperationEEC1B8ue170006IbS2_LPv0EEEOT_OT0_, symObjAddr: 0xB84C, symBinAddr: 0x10000D158, symSize: 0x88 }
  - { offsetInCU: 0x42D7A, offset: 0x42D7A, size: 0x8, addend: 0x0, symName: __ZNSt3__13mapINS_17basic_string_viewIcNS_11char_traitsIcEEEEN5memdb9OperationENS_4lessIS4_EENS_9allocatorINS_4pairIKS4_S6_EEEEEixEOS4_, symObjAddr: 0xB8D4, symBinAddr: 0x10000D1E0, symSize: 0x4F8 }
  - { offsetInCU: 0x42DB3, offset: 0x42DB3, size: 0x8, addend: 0x0, symName: __ZNSt3__14pairIbN5memdb9OperationEEC1B8ue170006IbRS2_LPv0EEEOT_OT0_, symObjAddr: 0xBDCC, symBinAddr: 0x10000D6D8, symSize: 0x88 }
  - { offsetInCU: 0x42E11, offset: 0x42E11, size: 0x8, addend: 0x0, symName: __ZNSt3__13mapINS_17basic_string_viewIcNS_11char_traitsIcEEEEN5memdb5lexer5OtherENS_4lessIS4_EENS_9allocatorINS_4pairIKS4_S7_EEEEE4findB8ue170006ERSC_, symObjAddr: 0xC704, symBinAddr: 0x10000E010, symSize: 0x390 }
  - { offsetInCU: 0x42E48, offset: 0x42E48, size: 0x8, addend: 0x0, symName: __ZNSt3__13mapINS_17basic_string_viewIcNS_11char_traitsIcEEEEN5memdb5lexer5OtherENS_4lessIS4_EENS_9allocatorINS_4pairIKS4_S7_EEEEE3endB8ue170006Ev, symObjAddr: 0xCA94, symBinAddr: 0x10000E3A0, symSize: 0x340 }
  - { offsetInCU: 0x42E93, offset: 0x42E93, size: 0x8, addend: 0x0, symName: __ZNSt3__14pairIbN5memdb5lexer5OtherEEC1B8ue170006IbS3_LPv0EEEOT_OT0_, symObjAddr: 0xCDD4, symBinAddr: 0x10000E6E0, symSize: 0x88 }
  - { offsetInCU: 0x42EF1, offset: 0x42EF1, size: 0x8, addend: 0x0, symName: __ZNSt3__13mapINS_17basic_string_viewIcNS_11char_traitsIcEEEEN5memdb5lexer5OtherENS_4lessIS4_EENS_9allocatorINS_4pairIKS4_S7_EEEEEixEOS4_, symObjAddr: 0xCE5C, symBinAddr: 0x10000E768, symSize: 0x4F8 }
  - { offsetInCU: 0x42F30, offset: 0x42F30, size: 0x8, addend: 0x0, symName: __ZNSt3__14pairIbN5memdb5lexer5OtherEEC1B8ue170006IbRS3_LPv0EEEOT_OT0_, symObjAddr: 0xD354, symBinAddr: 0x10000EC60, symSize: 0x88 }
  - { offsetInCU: 0x42F8E, offset: 0x42F8E, size: 0x8, addend: 0x0, symName: __ZNKSt3__16vectorINS_12basic_stringIcNS_11char_traitsIcEENS_9allocatorIcEEEENS4_IS6_EEE4sizeB8ue170006Ev, symObjAddr: 0xE5B8, symBinAddr: 0x10000FEC4, symSize: 0xF8 }
  - { offsetInCU: 0x42FB4, offset: 0x42FB4, size: 0x8, addend: 0x0, symName: __ZNSt3__13mapINS_17basic_string_viewIcNS_11char_traitsIcEEEEN5memdb5lexer7BracketENS_4lessIS4_EENS_9allocatorINS_4pairIKS4_S7_EEEEE4findB8ue170006ERSC_, symObjAddr: 0xE770, symBinAddr: 0x10001007C, symSize: 0x390 }
  - { offsetInCU: 0x42FEB, offset: 0x42FEB, size: 0x8, addend: 0x0, symName: __ZNSt3__13mapINS_17basic_string_viewIcNS_11char_traitsIcEEEEN5memdb5lexer7BracketENS_4lessIS4_EENS_9allocatorINS_4pairIKS4_S7_EEEEE3endB8ue170006Ev, symObjAddr: 0xF1A0, symBinAddr: 0x100010AAC, symSize: 0x340 }
  - { offsetInCU: 0x43012, offset: 0x43012, size: 0x8, addend: 0x0, symName: __ZNSt3__13mapINS_17basic_string_viewIcNS_11char_traitsIcEEEEN5memdb5lexer7BracketENS_4lessIS4_EENS_9allocatorINS_4pairIKS4_S7_EEEEEixEOS4_, symObjAddr: 0xF4E0, symBinAddr: 0x100010DEC, symSize: 0x4F8 }
  - { offsetInCU: 0x43075, offset: 0x43075, size: 0x8, addend: 0x0, symName: __ZNSt3__14pairIbN5memdb5lexer7BracketEEC1B8ue170006IbRS3_LPv0EEEOT_OT0_, symObjAddr: 0xF9D8, symBinAddr: 0x1000112E4, symSize: 0x88 }
  - { offsetInCU: 0x430D3, offset: 0x430D3, size: 0x8, addend: 0x0, symName: __ZNSt3__14pairIbN5memdb5lexer7BracketEEC1B8ue170006IbS3_LPv0EEEOT_OT0_, symObjAddr: 0xFB20, symBinAddr: 0x10001142C, symSize: 0x88 }
  - { offsetInCU: 0x43131, offset: 0x43131, size: 0x8, addend: 0x0, symName: __ZNSt3__112basic_stringIcNS_11char_traitsIcEENS_9allocatorIcEEE5beginB8ue170006Ev, symObjAddr: 0x10758, symBinAddr: 0x100012064, symSize: 0x29C }
  - { offsetInCU: 0x43158, offset: 0x43158, size: 0x8, addend: 0x0, symName: __ZNSt3__112basic_stringIcNS_11char_traitsIcEENS_9allocatorIcEEE3endB8ue170006Ev, symObjAddr: 0x109F4, symBinAddr: 0x100012300, symSize: 0x370 }
  - { offsetInCU: 0x431A9, offset: 0x431A9, size: 0x8, addend: 0x0, symName: __ZNSt3__14pairIbiEC1B8ue170006IbiLPv0EEEOT_OT0_, symObjAddr: 0x10D64, symBinAddr: 0x100012670, symSize: 0x88 }
  - { offsetInCU: 0x43207, offset: 0x43207, size: 0x8, addend: 0x0, symName: __ZNSt3__13mapINS_17basic_string_viewIcNS_11char_traitsIcEEEEN5memdb4TypeENS_4lessIS4_EENS_9allocatorINS_4pairIKS4_S6_EEEEE4findB8ue170006ERSB_, symObjAddr: 0x125E8, symBinAddr: 0x100013EF4, symSize: 0x390 }
  - { offsetInCU: 0x4323E, offset: 0x4323E, size: 0x8, addend: 0x0, symName: __ZNSt3__13mapINS_17basic_string_viewIcNS_11char_traitsIcEEEEN5memdb4TypeENS_4lessIS4_EENS_9allocatorINS_4pairIKS4_S6_EEEEE3endB8ue170006Ev, symObjAddr: 0x12978, symBinAddr: 0x100014284, symSize: 0x340 }
  - { offsetInCU: 0x43265, offset: 0x43265, size: 0x8, addend: 0x0, symName: __ZN5memdb10ColumnTypeC1ENS_4TypeE, symObjAddr: 0x12CB8, symBinAddr: 0x1000145C4, symSize: 0x80 }
  - { offsetInCU: 0x432C7, offset: 0x432C7, size: 0x8, addend: 0x0, symName: __ZNSt3__14pairIbN5memdb10ColumnTypeEEC1B8ue170006IbS2_LPv0EEEOT_OT0_, symObjAddr: 0x12D38, symBinAddr: 0x100014644, symSize: 0x88 }
  - { offsetInCU: 0x43325, offset: 0x43325, size: 0x8, addend: 0x0, symName: __ZNSt3__13mapINS_17basic_string_viewIcNS_11char_traitsIcEEEEN5memdb4TypeENS_4lessIS4_EENS_9allocatorINS_4pairIKS4_S6_EEEEEixEOS4_, symObjAddr: 0x12DC0, symBinAddr: 0x1000146CC, symSize: 0x4F8 }
  - { offsetInCU: 0x4335E, offset: 0x4335E, size: 0x8, addend: 0x0, symName: __ZN5memdb10ColumnTypeC1ENS_4TypeEi, symObjAddr: 0x132B8, symBinAddr: 0x100014BC4, symSize: 0x88 }
  - { offsetInCU: 0x433A4, offset: 0x433A4, size: 0x8, addend: 0x0, symName: __ZNSt3__112basic_stringIcNS_11char_traitsIcEENS_9allocatorIcEEE5frontB8ue170006Ev, symObjAddr: 0x13B7C, symBinAddr: 0x100015488, symSize: 0x98 }
  - { offsetInCU: 0x433CA, offset: 0x433CA, size: 0x8, addend: 0x0, symName: __ZNSt3__112basic_stringIcNS_11char_traitsIcEENS_9allocatorIcEEE4backB8ue170006Ev, symObjAddr: 0x13C14, symBinAddr: 0x100015520, symSize: 0x218 }
  - { offsetInCU: 0x433F0, offset: 0x433F0, size: 0x8, addend: 0x0, symName: __ZNKRSt3__112basic_stringIcNS_11char_traitsIcEENS_9allocatorIcEEE6substrB8ue170006Emm, symObjAddr: 0x13E2C, symBinAddr: 0x100015738, symSize: 0x2E0 }
  - { offsetInCU: 0x43437, offset: 0x43437, size: 0x8, addend: 0x0, symName: __ZNKSt3__112basic_stringIcNS_11char_traitsIcEENS_9allocatorIcEEE4sizeB8ue170006Ev, symObjAddr: 0x1410C, symBinAddr: 0x100015A18, symSize: 0x98 }
  - { offsetInCU: 0x43487, offset: 0x43487, size: 0x8, addend: 0x0, symName: __ZNSt3__14pairIbNS_12basic_stringIcNS_11char_traitsIcEENS_9allocatorIcEEEEEC1B8ue170006IbS6_LPv0EEEOT_OT0_, symObjAddr: 0x141A4, symBinAddr: 0x100015AB0, symSize: 0x88 }
  - { offsetInCU: 0x434E5, offset: 0x434E5, size: 0x8, addend: 0x0, symName: __ZNSt3__112basic_stringIcNS_11char_traitsIcEENS_9allocatorIcEEEixB8ue170006Em, symObjAddr: 0x1553C, symBinAddr: 0x100016E48, symSize: 0x170 }
  - { offsetInCU: 0x4351A, offset: 0x4351A, size: 0x8, addend: 0x0, symName: __ZNSt3__16vectorIcNS_9allocatorIcEEEC1Em, symObjAddr: 0x156AC, symBinAddr: 0x100016FB8, symSize: 0x80 }
  - { offsetInCU: 0x43555, offset: 0x43555, size: 0x8, addend: 0x0, symName: __ZNSt3__16vectorIcNS_9allocatorIcEEEixB8ue170006Em, symObjAddr: 0x1572C, symBinAddr: 0x100017038, symSize: 0x1B0 }
  - { offsetInCU: 0x4358C, offset: 0x4358C, size: 0x8, addend: 0x0, symName: __ZNSt3__16vectorIcNS_9allocatorIcEEEC1B8ue170006Ev, symObjAddr: 0x158DC, symBinAddr: 0x1000171E8, symSize: 0x78 }
  - { offsetInCU: 0x435DA, offset: 0x435DA, size: 0x8, addend: 0x0, symName: __ZNSt3__14pairIbNS_6vectorIcNS_9allocatorIcEEEEEC1B8ue170006IbS4_LPv0EEEOT_OT0_, symObjAddr: 0x15954, symBinAddr: 0x100017260, symSize: 0x88 }
  - { offsetInCU: 0x43638, offset: 0x43638, size: 0x8, addend: 0x0, symName: __ZNSt3__16vectorIcNS_9allocatorIcEEED1B8ue170006Ev, symObjAddr: 0x159DC, symBinAddr: 0x1000172E8, symSize: 0x78 }
  - { offsetInCU: 0x43662, offset: 0x43662, size: 0x8, addend: 0x0, symName: __ZNSt3__14pairIbNS_6vectorIcNS_9allocatorIcEEEEEC1B8ue170006IbRS4_LPv0EEEOT_OT0_, symObjAddr: 0x15A54, symBinAddr: 0x100017360, symSize: 0x88 }
  - { offsetInCU: 0x436E4, offset: 0x436E4, size: 0x8, addend: 0x0, symName: __ZNSt3__14pairIbbEC1B8ue170006IbbLPv0EEEOT_OT0_, symObjAddr: 0x164D8, symBinAddr: 0x100017DE4, symSize: 0x6C }
  - { offsetInCU: 0x43742, offset: 0x43742, size: 0x8, addend: 0x0, symName: __ZNKSt3__112basic_stringIcNS_11char_traitsIcEENS_9allocatorIcEEE13find_first_ofB8ue170006Ecm, symObjAddr: 0x16C08, symBinAddr: 0x100018514, symSize: 0x7C }
  - { offsetInCU: 0x43788, offset: 0x43788, size: 0x8, addend: 0x0, symName: __ZNKSt3__112basic_stringIcNS_11char_traitsIcEENS_9allocatorIcEEE12find_last_ofB8ue170006Ecm, symObjAddr: 0x16C84, symBinAddr: 0x100018590, symSize: 0x7C }
  - { offsetInCU: 0x437CE, offset: 0x437CE, size: 0x8, addend: 0x0, symName: __ZNSt3__14pairINS_12basic_stringIcNS_11char_traitsIcEENS_9allocatorIcEEEES6_EC1B8ue170006IS6_S6_LPv0EEEOT_OT0_, symObjAddr: 0x16D00, symBinAddr: 0x10001860C, symSize: 0x88 }
  - { offsetInCU: 0x43846, offset: 0x43846, size: 0x8, addend: 0x0, symName: __ZNSt3__14pairINS_12basic_stringIcNS_11char_traitsIcEENS_9allocatorIcEEEES6_EC1B8ue170006IRA1_KcRKS6_LPv0EEEOT_OT0_, symObjAddr: 0x16D88, symBinAddr: 0x100018694, symSize: 0x88 }
  - { offsetInCU: 0x438A4, offset: 0x438A4, size: 0x8, addend: 0x0, symName: __ZNSt3__16vectorINS0_IN5memdb9OperationENS_9allocatorIS2_EEEENS3_IS5_EEEC1B8ue170006ESt16initializer_listIS5_E, symObjAddr: 0x16E10, symBinAddr: 0x10001871C, symSize: 0x29C }
  - { offsetInCU: 0x438E4, offset: 0x438E4, size: 0x8, addend: 0x0, symName: __ZNSt3__16vectorINS0_IN5memdb9OperationENS_9allocatorIS2_EEEENS3_IS5_EEED1B8ue170006Ev, symObjAddr: 0x170AC, symBinAddr: 0x1000189B8, symSize: 0x78 }
  - { offsetInCU: 0x4390E, offset: 0x4390E, size: 0x8, addend: 0x0, symName: _main, symObjAddr: 0x17124, symBinAddr: 0x100018A30, symSize: 0x244 }
  - { offsetInCU: 0x4393B, offset: 0x4393B, size: 0x8, addend: 0x0, symName: __ZNSt3__117basic_string_viewIcNS_11char_traitsIcEEEC1B8ue170006EPKc, symObjAddr: 0x17368, symBinAddr: 0x100018C74, symSize: 0x80 }
  - { offsetInCU: 0x43980, offset: 0x43980, size: 0x8, addend: 0x0, symName: __ZN5memdb6Parser5ParseERKNSt3__117basic_string_viewIcNS1_11char_traitsIcEEEEii, symObjAddr: 0x173E8, symBinAddr: 0x100018CF4, symSize: 0x11D4 }
  - { offsetInCU: 0x43A77, offset: 0x43A77, size: 0x8, addend: 0x0, symName: __ZNSt3__16vectorIN5memdb9OperationENS_9allocatorIS2_EEEC2B8ue170006ESt16initializer_listIS2_E, symObjAddr: 0x185BC, symBinAddr: 0x100019EC8, symSize: 0x5B0 }
  - { offsetInCU: 0x43ADC, offset: 0x43ADC, size: 0x8, addend: 0x0, symName: __ZNSt3__117__compressed_pairIPN5memdb9OperationENS_9allocatorIS2_EEEC1B8ue170006IDnNS_18__default_init_tagEEEOT_OT0_, symObjAddr: 0x18B6C, symBinAddr: 0x10001A478, symSize: 0x88 }
  - { offsetInCU: 0x43B34, offset: 0x43B34, size: 0x8, addend: 0x0, symName: __ZNSt3__16vectorIN5memdb9OperationENS_9allocatorIS2_EEE16__destroy_vectorC1B8ue170006ERS5_, symObjAddr: 0x18EB0, symBinAddr: 0x10001A7BC, symSize: 0x80 }
  - { offsetInCU: 0x43B6D, offset: 0x43B6D, size: 0x8, addend: 0x0, symName: __ZNKSt16initializer_listIN5memdb9OperationEE4sizeB8ue170006Ev, symObjAddr: 0x18F30, symBinAddr: 0x10001A83C, symSize: 0xB0 }
  - { offsetInCU: 0x43B93, offset: 0x43B93, size: 0x8, addend: 0x0, symName: __ZNSt3__16vectorIN5memdb9OperationENS_9allocatorIS2_EEE11__vallocateB8ue170006Em, symObjAddr: 0x18FE0, symBinAddr: 0x10001A8EC, symSize: 0x5E8 }
  - { offsetInCU: 0x43BDD, offset: 0x43BDD, size: 0x8, addend: 0x0, symName: __ZNSt3__16vectorIN5memdb9OperationENS_9allocatorIS2_EEE18__construct_at_endIPKS2_S8_EEvT_T0_m, symObjAddr: 0x195C8, symBinAddr: 0x10001AED4, symSize: 0x494 }
  - { offsetInCU: 0x43C5B, offset: 0x43C5B, size: 0x8, addend: 0x0, symName: __ZNKSt16initializer_listIN5memdb9OperationEE5beginB8ue170006Ev, symObjAddr: 0x19A5C, symBinAddr: 0x10001B368, symSize: 0xAC }
  - { offsetInCU: 0x43C81, offset: 0x43C81, size: 0x8, addend: 0x0, symName: __ZNKSt16initializer_listIN5memdb9OperationEE3endB8ue170006Ev, symObjAddr: 0x19B08, symBinAddr: 0x10001B414, symSize: 0x1C0 }
  - { offsetInCU: 0x43CA7, offset: 0x43CA7, size: 0x8, addend: 0x0, symName: __ZNSt3__128__exception_guard_exceptionsINS_6vectorIN5memdb9OperationENS_9allocatorIS3_EEE16__destroy_vectorEE10__completeB8ue170006Ev, symObjAddr: 0x19CC8, symBinAddr: 0x10001B5D4, symSize: 0xD8 }
  - { offsetInCU: 0x43CCD, offset: 0x43CCD, size: 0x8, addend: 0x0, symName: __ZNSt3__128__exception_guard_exceptionsINS_6vectorIN5memdb9OperationENS_9allocatorIS3_EEE16__destroy_vectorEED1B8ue170006Ev, symObjAddr: 0x19DA0, symBinAddr: 0x10001B6AC, symSize: 0x78 }
  - { offsetInCU: 0x43CF7, offset: 0x43CF7, size: 0x8, addend: 0x0, symName: __ZNSt3__117__compressed_pairIPN5memdb9OperationENS_9allocatorIS2_EEEC2B8ue170006IDnNS_18__default_init_tagEEEOT_OT0_, symObjAddr: 0x19E18, symBinAddr: 0x10001B724, symSize: 0x140 }
  - { offsetInCU: 0x43D4F, offset: 0x43D4F, size: 0x8, addend: 0x0, symName: __ZNSt3__122__compressed_pair_elemIPN5memdb9OperationELi0ELb0EEC2B8ue170006IDnvEEOT_, symObjAddr: 0x19F58, symBinAddr: 0x10001B864, symSize: 0xBC }
  - { offsetInCU: 0x43D91, offset: 0x43D91, size: 0x8, addend: 0x0, symName: __ZNSt3__122__compressed_pair_elemINS_9allocatorIN5memdb9OperationEEELi1ELb1EEC2B8ue170006ENS_18__default_init_tagE, symObjAddr: 0x1A014, symBinAddr: 0x10001B920, symSize: 0x84 }
  - { offsetInCU: 0x43DC5, offset: 0x43DC5, size: 0x8, addend: 0x0, symName: __ZNSt3__19allocatorIN5memdb9OperationEEC2B8ue170006Ev, symObjAddr: 0x1A098, symBinAddr: 0x10001B9A4, symSize: 0x84 }
  - { offsetInCU: 0x43DEF, offset: 0x43DEF, size: 0x8, addend: 0x0, symName: __ZNSt3__116__non_trivial_ifILb1ENS_9allocatorIN5memdb9OperationEEEEC2B8ue170006Ev, symObjAddr: 0x1A11C, symBinAddr: 0x10001BA28, symSize: 0x54 }
  - { offsetInCU: 0x43E19, offset: 0x43E19, size: 0x8, addend: 0x0, symName: __ZNSt3__128__exception_guard_exceptionsINS_6vectorIN5memdb9OperationENS_9allocatorIS3_EEE16__destroy_vectorEEC1B8ue170006ES7_, symObjAddr: 0x1A170, symBinAddr: 0x10001BA7C, symSize: 0x28C }
  - { offsetInCU: 0x43E56, offset: 0x43E56, size: 0x8, addend: 0x0, symName: __ZNSt3__128__exception_guard_exceptionsINS_6vectorIN5memdb9OperationENS_9allocatorIS3_EEE16__destroy_vectorEEC2B8ue170006ES7_, symObjAddr: 0x1A3FC, symBinAddr: 0x10001BD08, symSize: 0x2BC }
  - { offsetInCU: 0x43E93, offset: 0x43E93, size: 0x8, addend: 0x0, symName: __ZNSt3__16vectorIN5memdb9OperationENS_9allocatorIS2_EEE16__destroy_vectorC2B8ue170006ERS5_, symObjAddr: 0x1A6B8, symBinAddr: 0x10001BFC4, symSize: 0x108 }
  - { offsetInCU: 0x43ECC, offset: 0x43ECC, size: 0x8, addend: 0x0, symName: __ZNKSt3__16vectorIN5memdb9OperationENS_9allocatorIS2_EEE8max_sizeEv, symObjAddr: 0x1A7C0, symBinAddr: 0x10001C0CC, symSize: 0x3B8 }
  - { offsetInCU: 0x43EF5, offset: 0x43EF5, size: 0x8, addend: 0x0, symName: __ZNKSt3__16vectorIN5memdb9OperationENS_9allocatorIS2_EEE20__throw_length_errorB8ue170006Ev, symObjAddr: 0x1AB78, symBinAddr: 0x10001C484, symSize: 0x80 }
  - { offsetInCU: 0x43F1B, offset: 0x43F1B, size: 0x8, addend: 0x0, symName: __ZNSt3__16vectorIN5memdb9OperationENS_9allocatorIS2_EEE7__allocB8ue170006Ev, symObjAddr: 0x1AE48, symBinAddr: 0x10001C754, symSize: 0xE4 }
  - { offsetInCU: 0x43F41, offset: 0x43F41, size: 0x8, addend: 0x0, symName: __ZNSt3__16vectorIN5memdb9OperationENS_9allocatorIS2_EEE9__end_capB8ue170006Ev, symObjAddr: 0x1AF2C, symBinAddr: 0x10001C838, symSize: 0x100 }
  - { offsetInCU: 0x43F67, offset: 0x43F67, size: 0x8, addend: 0x0, symName: __ZNKSt3__16vectorIN5memdb9OperationENS_9allocatorIS2_EEE14__annotate_newB8ue170006Em, symObjAddr: 0x1B02C, symBinAddr: 0x10001C938, symSize: 0x360 }
  - { offsetInCU: 0x43FA8, offset: 0x43FA8, size: 0x8, addend: 0x0, symName: __ZNSt3__116allocator_traitsINS_9allocatorIN5memdb9OperationEEEE8max_sizeB8ue170006IS4_vvEEmRKS4_, symObjAddr: 0x1B490, symBinAddr: 0x10001CD9C, symSize: 0x54 }
  - { offsetInCU: 0x43FD3, offset: 0x43FD3, size: 0x8, addend: 0x0, symName: __ZNKSt3__16vectorIN5memdb9OperationENS_9allocatorIS2_EEE7__allocB8ue170006Ev, symObjAddr: 0x1B4E4, symBinAddr: 0x10001CDF0, symSize: 0xE4 }
  - { offsetInCU: 0x43FF9, offset: 0x43FF9, size: 0x8, addend: 0x0, symName: __ZNSt3__114numeric_limitsIlE3maxB8ue170006Ev, symObjAddr: 0x1B5C8, symBinAddr: 0x10001CED4, symSize: 0x14 }
  - { offsetInCU: 0x44019, offset: 0x44019, size: 0x8, addend: 0x0, symName: __ZNKSt3__16__lessIvvEclB8ue170006ImmEEbRKT_RKT0_, symObjAddr: 0x1B8A8, symBinAddr: 0x10001D1B4, symSize: 0xEC }
  - { offsetInCU: 0x4406D, offset: 0x4406D, size: 0x8, addend: 0x0, symName: __ZNSt3__114numeric_limitsImE3maxB8ue170006Ev, symObjAddr: 0x1B994, symBinAddr: 0x10001D2A0, symSize: 0x14 }
  - { offsetInCU: 0x44081, offset: 0x44081, size: 0x8, addend: 0x0, symName: __ZNSt3__123__libcpp_numeric_limitsImLb1EE3maxB8ue170006Ev, symObjAddr: 0x1B9A8, symBinAddr: 0x10001D2B4, symSize: 0x8 }
  - { offsetInCU: 0x44095, offset: 0x44095, size: 0x8, addend: 0x0, symName: __ZNKSt3__117__compressed_pairIPN5memdb9OperationENS_9allocatorIS2_EEE6secondB8ue170006Ev, symObjAddr: 0x1B9B0, symBinAddr: 0x10001D2BC, symSize: 0x108 }
  - { offsetInCU: 0x440BB, offset: 0x440BB, size: 0x8, addend: 0x0, symName: __ZNKSt3__122__compressed_pair_elemINS_9allocatorIN5memdb9OperationEEELi1ELb1EE5__getB8ue170006Ev, symObjAddr: 0x1BAB8, symBinAddr: 0x10001D3C4, symSize: 0x74 }
  - { offsetInCU: 0x440E1, offset: 0x440E1, size: 0x8, addend: 0x0, symName: __ZNSt3__123__libcpp_numeric_limitsIlLb1EE3maxB8ue170006Ev, symObjAddr: 0x1BB2C, symBinAddr: 0x10001D438, symSize: 0x8 }
  - { offsetInCU: 0x440F5, offset: 0x440F5, size: 0x8, addend: 0x0, symName: __ZNSt12length_errorC1B8ue170006EPKc, symObjAddr: 0x1BBE8, symBinAddr: 0x10001D4F4, symSize: 0x80 }
  - { offsetInCU: 0x4412D, offset: 0x4412D, size: 0x8, addend: 0x0, symName: __ZNSt12length_errorC2B8ue170006EPKc, symObjAddr: 0x1BC68, symBinAddr: 0x10001D574, symSize: 0x128 }
  - { offsetInCU: 0x44165, offset: 0x44165, size: 0x8, addend: 0x0, symName: __ZNSt3__19allocatorIN5memdb9OperationEE17allocate_at_leastB8ue170006Em, symObjAddr: 0x1BFB4, symBinAddr: 0x10001D8C0, symSize: 0x2B8 }
  - { offsetInCU: 0x4419B, offset: 0x4419B, size: 0x8, addend: 0x0, symName: __ZNSt3__19allocatorIN5memdb9OperationEE8allocateB8ue170006Em, symObjAddr: 0x1C26C, symBinAddr: 0x10001DB78, symSize: 0xCC }
  - { offsetInCU: 0x441CF, offset: 0x441CF, size: 0x8, addend: 0x0, symName: __ZNSt3__117__compressed_pairIPN5memdb9OperationENS_9allocatorIS2_EEE6secondB8ue170006Ev, symObjAddr: 0x1C4C4, symBinAddr: 0x10001DDD0, symSize: 0x108 }
  - { offsetInCU: 0x441F5, offset: 0x441F5, size: 0x8, addend: 0x0, symName: __ZNSt3__122__compressed_pair_elemINS_9allocatorIN5memdb9OperationEEELi1ELb1EE5__getB8ue170006Ev, symObjAddr: 0x1C5CC, symBinAddr: 0x10001DED8, symSize: 0x74 }
  - { offsetInCU: 0x4421B, offset: 0x4421B, size: 0x8, addend: 0x0, symName: __ZNSt3__117__compressed_pairIPN5memdb9OperationENS_9allocatorIS2_EEE5firstB8ue170006Ev, symObjAddr: 0x1C640, symBinAddr: 0x10001DF4C, symSize: 0x124 }
  - { offsetInCU: 0x44241, offset: 0x44241, size: 0x8, addend: 0x0, symName: __ZNSt3__122__compressed_pair_elemIPN5memdb9OperationELi0ELb0EE5__getB8ue170006Ev, symObjAddr: 0x1C764, symBinAddr: 0x10001E070, symSize: 0xAC }
  - { offsetInCU: 0x44267, offset: 0x44267, size: 0x8, addend: 0x0, symName: __ZNKSt3__16vectorIN5memdb9OperationENS_9allocatorIS2_EEE31__annotate_contiguous_containerEPKvS7_S7_S7_, symObjAddr: 0x1C810, symBinAddr: 0x10001E11C, symSize: 0x9C }
  - { offsetInCU: 0x442C9, offset: 0x442C9, size: 0x8, addend: 0x0, symName: __ZNKSt3__16vectorIN5memdb9OperationENS_9allocatorIS2_EEE4dataB8ue170006Ev, symObjAddr: 0x1C8AC, symBinAddr: 0x10001E1B8, symSize: 0xB0 }
  - { offsetInCU: 0x442EF, offset: 0x442EF, size: 0x8, addend: 0x0, symName: __ZNKSt3__16vectorIN5memdb9OperationENS_9allocatorIS2_EEE8capacityB8ue170006Ev, symObjAddr: 0x1C95C, symBinAddr: 0x10001E268, symSize: 0x144 }
  - { offsetInCU: 0x44315, offset: 0x44315, size: 0x8, addend: 0x0, symName: __ZNKSt3__16vectorIN5memdb9OperationENS_9allocatorIS2_EEE9__end_capB8ue170006Ev, symObjAddr: 0x1CAB4, symBinAddr: 0x10001E3C0, symSize: 0x100 }
  - { offsetInCU: 0x4433B, offset: 0x4433B, size: 0x8, addend: 0x0, symName: __ZNKSt3__117__compressed_pairIPN5memdb9OperationENS_9allocatorIS2_EEE5firstB8ue170006Ev, symObjAddr: 0x1CBB4, symBinAddr: 0x10001E4C0, symSize: 0x124 }
  - { offsetInCU: 0x44361, offset: 0x44361, size: 0x8, addend: 0x0, symName: __ZNKSt3__122__compressed_pair_elemIPN5memdb9OperationELi0ELb0EE5__getB8ue170006Ev, symObjAddr: 0x1CCD8, symBinAddr: 0x10001E5E4, symSize: 0xAC }
  - { offsetInCU: 0x443A5, offset: 0x443A5, size: 0x8, addend: 0x0, symName: __ZNSt3__16vectorIN5memdb9OperationENS_9allocatorIS2_EEE21_ConstructTransactionC1B8ue170006ERS5_m, symObjAddr: 0x1CD84, symBinAddr: 0x10001E690, symSize: 0x88 }
  - { offsetInCU: 0x443ED, offset: 0x443ED, size: 0x8, addend: 0x0, symName: __ZNSt3__16vectorIN5memdb9OperationENS_9allocatorIS2_EEE21_ConstructTransactionD1B8ue170006Ev, symObjAddr: 0x1D140, symBinAddr: 0x10001EA4C, symSize: 0x78 }
  - { offsetInCU: 0x44417, offset: 0x44417, size: 0x8, addend: 0x0, symName: __ZNSt3__16vectorIN5memdb9OperationENS_9allocatorIS2_EEE21_ConstructTransactionC2B8ue170006ERS5_m, symObjAddr: 0x1D1B8, symBinAddr: 0x10001EAC4, symSize: 0x3D8 }
  - { offsetInCU: 0x4445F, offset: 0x4445F, size: 0x8, addend: 0x0, symName: __ZNKSt3__16vectorIN5memdb9OperationENS_9allocatorIS2_EEE19__annotate_increaseB8ue170006Em, symObjAddr: 0x1D590, symBinAddr: 0x10001EE9C, symSize: 0x44C }
  - { offsetInCU: 0x44494, offset: 0x44494, size: 0x8, addend: 0x0, symName: __ZNKSt3__16vectorIN5memdb9OperationENS_9allocatorIS2_EEE4sizeB8ue170006Ev, symObjAddr: 0x1D9DC, symBinAddr: 0x10001F2E8, symSize: 0xF8 }
  - { offsetInCU: 0x444DE, offset: 0x444DE, size: 0x8, addend: 0x0, symName: __ZNSt3__119__unwrap_range_implIPKN5memdb9OperationES4_E8__unwrapB8ue170006ES4_S4_, symObjAddr: 0x1DD9C, symBinAddr: 0x10001F6A8, symSize: 0x30C }
  - { offsetInCU: 0x44517, offset: 0x44517, size: 0x8, addend: 0x0, symName: __ZNSt3__14pairIPKN5memdb9OperationES4_EC1B8ue170006IS4_S4_LPv0EEEOT_OT0_, symObjAddr: 0x1E0CC, symBinAddr: 0x10001F9D8, symSize: 0x88 }
  - { offsetInCU: 0x44575, offset: 0x44575, size: 0x8, addend: 0x0, symName: __ZNSt3__118__unwrap_iter_implIPKN5memdb9OperationELb1EE8__unwrapB8ue170006ES4_, symObjAddr: 0x1E154, symBinAddr: 0x10001FA60, symSize: 0x24 }
  - { offsetInCU: 0x44598, offset: 0x44598, size: 0x8, addend: 0x0, symName: __ZNSt3__14pairIPKN5memdb9OperationES4_EC2B8ue170006IS4_S4_LPv0EEEOT_OT0_, symObjAddr: 0x1E18C, symBinAddr: 0x10001FA98, symSize: 0x210 }
  - { offsetInCU: 0x44626, offset: 0x44626, size: 0x8, addend: 0x0, symName: __ZNKSt3__114__copy_trivialclB8ue170006IKN5memdb9OperationES3_Li0EEENS_4pairIPT_PT0_EES7_S7_S9_, symObjAddr: 0x1F0DC, symBinAddr: 0x1000209E8, symSize: 0x25C }
  - { offsetInCU: 0x4469E, offset: 0x4469E, size: 0x8, addend: 0x0, symName: __ZNSt3__14pairIPKN5memdb9OperationEPS2_EC1B8ue170006IRS4_S5_LPv0EEEOT_OT0_, symObjAddr: 0x1FD88, symBinAddr: 0x100021694, symSize: 0x88 }
  - { offsetInCU: 0x446FC, offset: 0x446FC, size: 0x8, addend: 0x0, symName: __ZNSt3__14pairIPKN5memdb9OperationEPS2_EC2B8ue170006IRS4_S5_LPv0EEEOT_OT0_, symObjAddr: 0x1FE10, symBinAddr: 0x10002171C, symSize: 0x210 }
  - { offsetInCU: 0x4475A, offset: 0x4475A, size: 0x8, addend: 0x0, symName: __ZNSt3__14pairIPKN5memdb9OperationEPS2_EC1B8ue170006IS4_S5_LPv0EEEOT_OT0_, symObjAddr: 0x20020, symBinAddr: 0x10002192C, symSize: 0x88 }
  - { offsetInCU: 0x447B8, offset: 0x447B8, size: 0x8, addend: 0x0, symName: __ZNSt3__14pairIPKN5memdb9OperationEPS2_EC2B8ue170006IS4_S5_LPv0EEEOT_OT0_, symObjAddr: 0x200A8, symBinAddr: 0x1000219B4, symSize: 0x210 }
  - { offsetInCU: 0x44816, offset: 0x44816, size: 0x8, addend: 0x0, symName: __ZNSt3__119__unwrap_range_implIPKN5memdb9OperationES4_E8__rewrapB8ue170006ES4_S4_, symObjAddr: 0x202B8, symBinAddr: 0x100021BC4, symSize: 0x2C }
  - { offsetInCU: 0x44847, offset: 0x44847, size: 0x8, addend: 0x0, symName: __ZNSt3__118__unwrap_iter_implIPKN5memdb9OperationELb1EE8__rewrapB8ue170006ES4_S4_, symObjAddr: 0x2032C, symBinAddr: 0x100021C38, symSize: 0x13C }
  - { offsetInCU: 0x44878, offset: 0x44878, size: 0x8, addend: 0x0, symName: __ZNSt3__118__unwrap_iter_implIPN5memdb9OperationELb1EE8__unwrapB8ue170006ES3_, symObjAddr: 0x20468, symBinAddr: 0x100021D74, symSize: 0x24 }
  - { offsetInCU: 0x4489B, offset: 0x4489B, size: 0x8, addend: 0x0, symName: __ZNSt3__118__unwrap_iter_implIPN5memdb9OperationELb1EE8__rewrapB8ue170006ES3_S3_, symObjAddr: 0x2048C, symBinAddr: 0x100021D98, symSize: 0x13C }
  - { offsetInCU: 0x448CC, offset: 0x448CC, size: 0x8, addend: 0x0, symName: __ZNSt3__16vectorIN5memdb9OperationENS_9allocatorIS2_EEE21_ConstructTransactionD2B8ue170006Ev, symObjAddr: 0x205C8, symBinAddr: 0x100021ED4, symSize: 0x390 }
  - { offsetInCU: 0x448F6, offset: 0x448F6, size: 0x8, addend: 0x0, symName: __ZNKSt3__16vectorIN5memdb9OperationENS_9allocatorIS2_EEE17__annotate_shrinkB8ue170006Em, symObjAddr: 0x20958, symBinAddr: 0x100022264, symSize: 0x360 }
  - { offsetInCU: 0x4492B, offset: 0x4492B, size: 0x8, addend: 0x0, symName: __ZNSt3__128__exception_guard_exceptionsINS_6vectorIN5memdb9OperationENS_9allocatorIS3_EEE16__destroy_vectorEED2B8ue170006Ev, symObjAddr: 0x20CB8, symBinAddr: 0x1000225C4, symSize: 0x17C }
  - { offsetInCU: 0x44955, offset: 0x44955, size: 0x8, addend: 0x0, symName: __ZNSt3__16vectorIN5memdb9OperationENS_9allocatorIS2_EEE16__destroy_vectorclB8ue170006Ev, symObjAddr: 0x20E34, symBinAddr: 0x100022740, symSize: 0x43C }
  - { offsetInCU: 0x4497B, offset: 0x4497B, size: 0x8, addend: 0x0, symName: __ZNSt3__16vectorIN5memdb9OperationENS_9allocatorIS2_EEE7__clearB8ue170006Ev, symObjAddr: 0x21270, symBinAddr: 0x100022B7C, symSize: 0xB0 }
  - { offsetInCU: 0x449A1, offset: 0x449A1, size: 0x8, addend: 0x0, symName: __ZNKSt3__16vectorIN5memdb9OperationENS_9allocatorIS2_EEE17__annotate_deleteB8ue170006Ev, symObjAddr: 0x21320, symBinAddr: 0x100022C2C, symSize: 0x370 }
  - { offsetInCU: 0x449C7, offset: 0x449C7, size: 0x8, addend: 0x0, symName: __ZNSt3__116allocator_traitsINS_9allocatorIN5memdb9OperationEEEE10deallocateB8ue170006ERS4_PS3_m, symObjAddr: 0x21690, symBinAddr: 0x100022F9C, symSize: 0x34 }
  - { offsetInCU: 0x44A09, offset: 0x44A09, size: 0x8, addend: 0x0, symName: __ZNSt3__16vectorIN5memdb9OperationENS_9allocatorIS2_EEE22__base_destruct_at_endB8ue170006EPS2_, symObjAddr: 0x216C4, symBinAddr: 0x100022FD0, symSize: 0x1FC }
  - { offsetInCU: 0x44A4D, offset: 0x44A4D, size: 0x8, addend: 0x0, symName: __ZNSt3__116allocator_traitsINS_9allocatorIN5memdb9OperationEEEE7destroyB8ue170006IS3_vvEEvRS4_PT_, symObjAddr: 0x218C0, symBinAddr: 0x1000231CC, symSize: 0x28 }
  - { offsetInCU: 0x44A87, offset: 0x44A87, size: 0x8, addend: 0x0, symName: __ZNSt3__19allocatorIN5memdb9OperationEE10deallocateB8ue170006EPS2_m, symObjAddr: 0x2191C, symBinAddr: 0x100023228, symSize: 0x78 }
  - { offsetInCU: 0x44AC9, offset: 0x44AC9, size: 0x8, addend: 0x0, symName: __ZNSt3__16vectorIN5memdb9OperationENS_9allocatorIS2_EEED2B8ue170006Ev, symObjAddr: 0x21A9C, symBinAddr: 0x1000233A8, symSize: 0x294 }
  - { offsetInCU: 0x44AF4, offset: 0x44AF4, size: 0x8, addend: 0x0, symName: __ZNKSt3__111__wrap_iterIPN5memdb9OperationEE4baseB8ue170006Ev, symObjAddr: 0x21DCC, symBinAddr: 0x1000236D8, symSize: 0xAC }
  - { offsetInCU: 0x44B1A, offset: 0x44B1A, size: 0x8, addend: 0x0, symName: __ZNSt3__118__unwrap_iter_implINS_11__wrap_iterIPN5memdb9OperationEEELb1EE8__rewrapB8ue170006ES5_S4_, symObjAddr: 0x226B0, symBinAddr: 0x100023FBC, symSize: 0x2D4 }
  - { offsetInCU: 0x44B50, offset: 0x44B50, size: 0x8, addend: 0x0, symName: __ZNKSt3__111__wrap_iterIPN5memdb9OperationEEplB8ue170006El, symObjAddr: 0x22984, symBinAddr: 0x100024290, symSize: 0x258 }
  - { offsetInCU: 0x44B98, offset: 0x44B98, size: 0x8, addend: 0x0, symName: __ZNSt3__111__wrap_iterIPN5memdb9OperationEEpLB8ue170006El, symObjAddr: 0x22C48, symBinAddr: 0x100024554, symSize: 0x228 }
  - { offsetInCU: 0x44BD8, offset: 0x44BD8, size: 0x8, addend: 0x0, symName: __ZNSt3__119__to_address_helperINS_11__wrap_iterIPN5memdb9OperationEEEvE6__callB8ue170006ERKS5_, symObjAddr: 0x22E70, symBinAddr: 0x10002477C, symSize: 0x200 }
  - { offsetInCU: 0x44BFC, offset: 0x44BFC, size: 0x8, addend: 0x0, symName: __ZNSt3__114pointer_traitsINS_11__wrap_iterIPN5memdb9OperationEEEE10to_addressB8ue170006ES5_, symObjAddr: 0x23070, symBinAddr: 0x10002497C, symSize: 0x1F4 }
  - { offsetInCU: 0x44C2F, offset: 0x44C2F, size: 0x8, addend: 0x0, symName: __ZNKSt3__110__identityclB8ue170006IRN5memdb9OperationEEEOT_S6_, symObjAddr: 0x2334C, symBinAddr: 0x100024C58, symSize: 0x98 }
  - { offsetInCU: 0x44C6C, offset: 0x44C6C, size: 0x8, addend: 0x0, symName: __ZNSt3__118__unwrap_iter_implINS_11__wrap_iterIPN5memdb9OperationEEELb1EE8__unwrapB8ue170006ES5_, symObjAddr: 0x233E4, symBinAddr: 0x100024CF0, symSize: 0x1F0 }
  - { offsetInCU: 0x44C93, offset: 0x44C93, size: 0x8, addend: 0x0, symName: __ZNSt3__16vectorIN5memdb9OperationENS_9allocatorIS2_EEE11__make_iterB8ue170006EPS2_, symObjAddr: 0x235D4, symBinAddr: 0x100024EE0, symSize: 0x244 }
  - { offsetInCU: 0x44CCA, offset: 0x44CCA, size: 0x8, addend: 0x0, symName: __ZNSt3__111__wrap_iterIPN5memdb9OperationEEC1B8ue170006ES3_, symObjAddr: 0x23818, symBinAddr: 0x100025124, symSize: 0x80 }
  - { offsetInCU: 0x44D02, offset: 0x44D02, size: 0x8, addend: 0x0, symName: __ZNSt3__111__wrap_iterIPN5memdb9OperationEEC2B8ue170006ES3_, symObjAddr: 0x23898, symBinAddr: 0x1000251A4, symSize: 0xC8 }
  - { offsetInCU: 0x44D3A, offset: 0x44D3A, size: 0x8, addend: 0x0, symName: __ZNSt3__14pairIKNS_17basic_string_viewIcNS_11char_traitsIcEEEEN5memdb5lexer7CommandEEC2B8ue170006IRA7_KcS8_LPv0EEEOT_OT0_, symObjAddr: 0x23960, symBinAddr: 0x10002526C, symSize: 0x1B0 }
  - { offsetInCU: 0x44D98, offset: 0x44D98, size: 0x8, addend: 0x0, symName: __ZNSt3__14pairIKNS_17basic_string_viewIcNS_11char_traitsIcEEEEN5memdb5lexer7CommandEEC2B8ue170006IRA5_KcS8_LPv0EEEOT_OT0_, symObjAddr: 0x23B10, symBinAddr: 0x10002541C, symSize: 0x1B0 }
  - { offsetInCU: 0x44DF6, offset: 0x44DF6, size: 0x8, addend: 0x0, symName: __ZNSt3__14pairIKNS_17basic_string_viewIcNS_11char_traitsIcEEEEN5memdb5lexer10SubCommandEEC2B8ue170006IRA6_KcS8_LPv0EEEOT_OT0_, symObjAddr: 0x23CC0, symBinAddr: 0x1000255CC, symSize: 0x1B0 }
  - { offsetInCU: 0x44E54, offset: 0x44E54, size: 0x8, addend: 0x0, symName: __ZNSt3__14pairIKNS_17basic_string_viewIcNS_11char_traitsIcEEEEN5memdb5lexer10SubCommandEEC2B8ue170006IRA3_KcS8_LPv0EEEOT_OT0_, symObjAddr: 0x23E70, symBinAddr: 0x10002577C, symSize: 0x1B0 }
  - { offsetInCU: 0x44EB2, offset: 0x44EB2, size: 0x8, addend: 0x0, symName: __ZNSt3__14pairIKNS_17basic_string_viewIcNS_11char_traitsIcEEEEN5memdb5lexer10SubCommandEEC2B8ue170006IRA4_KcS8_LPv0EEEOT_OT0_, symObjAddr: 0x24020, symBinAddr: 0x10002592C, symSize: 0x1B0 }
  - { offsetInCU: 0x44F10, offset: 0x44F10, size: 0x8, addend: 0x0, symName: __ZNSt3__14pairIKNS_17basic_string_viewIcNS_11char_traitsIcEEEEN5memdb5lexer10SubCommandEEC2B8ue170006IRA5_KcS8_LPv0EEEOT_OT0_, symObjAddr: 0x241D0, symBinAddr: 0x100025ADC, symSize: 0x1B0 }
  - { offsetInCU: 0x44F6E, offset: 0x44F6E, size: 0x8, addend: 0x0, symName: __ZNSt3__14pairIKNS_17basic_string_viewIcNS_11char_traitsIcEEEEN5memdb5lexer9AttributeEEC2B8ue170006IRA7_KcS8_LPv0EEEOT_OT0_, symObjAddr: 0x24380, symBinAddr: 0x100025C8C, symSize: 0x1B0 }
  - { offsetInCU: 0x44FCC, offset: 0x44FCC, size: 0x8, addend: 0x0, symName: __ZNSt3__14pairIKNS_17basic_string_viewIcNS_11char_traitsIcEEEEN5memdb5lexer9AttributeEEC2B8ue170006IRA14_KcS8_LPv0EEEOT_OT0_, symObjAddr: 0x24530, symBinAddr: 0x100025E3C, symSize: 0x1B0 }
  - { offsetInCU: 0x4502A, offset: 0x4502A, size: 0x8, addend: 0x0, symName: __ZNSt3__14pairIKNS_17basic_string_viewIcNS_11char_traitsIcEEEEN5memdb5lexer9AttributeEEC2B8ue170006IRA4_KcS8_LPv0EEEOT_OT0_, symObjAddr: 0x246E0, symBinAddr: 0x100025FEC, symSize: 0x1B0 }
  - { offsetInCU: 0x45088, offset: 0x45088, size: 0x8, addend: 0x0, symName: __ZNSt3__14pairIKNS_17basic_string_viewIcNS_11char_traitsIcEEEEN5memdb5lexer9AttributeEEC2B8ue170006IRA8_KcS8_LPv0EEEOT_OT0_, symObjAddr: 0x24890, symBinAddr: 0x10002619C, symSize: 0x1B0 }
  - { offsetInCU: 0x450E6, offset: 0x450E6, size: 0x8, addend: 0x0, symName: __ZNSt3__14pairIKNS_17basic_string_viewIcNS_11char_traitsIcEEEEN5memdb5lexer9AttributeEEC2B8ue170006IRA10_KcS8_LPv0EEEOT_OT0_, symObjAddr: 0x24A40, symBinAddr: 0x10002634C, symSize: 0x1B0 }
  - { offsetInCU: 0x45144, offset: 0x45144, size: 0x8, addend: 0x0, symName: __ZNSt3__14pairIKNS_17basic_string_viewIcNS_11char_traitsIcEEEEN5memdb9OperationEEC2B8ue170006IRA2_KcS7_LPv0EEEOT_OT0_, symObjAddr: 0x24BF0, symBinAddr: 0x1000264FC, symSize: 0x1B0 }
  - { offsetInCU: 0x451A2, offset: 0x451A2, size: 0x8, addend: 0x0, symName: __ZNSt3__14pairIKNS_17basic_string_viewIcNS_11char_traitsIcEEEEN5memdb9OperationEEC2B8ue170006IRA3_KcS7_LPv0EEEOT_OT0_, symObjAddr: 0x24DA0, symBinAddr: 0x1000266AC, symSize: 0x1B0 }
  - { offsetInCU: 0x45200, offset: 0x45200, size: 0x8, addend: 0x0, symName: __ZNSt3__14pairIKNS_17basic_string_viewIcNS_11char_traitsIcEEEEN5memdb5lexer7BracketEEC2B8ue170006IRA2_KcS8_LPv0EEEOT_OT0_, symObjAddr: 0x24F50, symBinAddr: 0x10002685C, symSize: 0x1B0 }
  - { offsetInCU: 0x4525E, offset: 0x4525E, size: 0x8, addend: 0x0, symName: __ZNSt3__14pairIKNS_17basic_string_viewIcNS_11char_traitsIcEEEEN5memdb5lexer7BracketEEC2B8ue170006IRA3_KcS8_LPv0EEEOT_OT0_, symObjAddr: 0x25100, symBinAddr: 0x100026A0C, symSize: 0x1B0 }
  - { offsetInCU: 0x452BC, offset: 0x452BC, size: 0x8, addend: 0x0, symName: __ZNSt3__14pairIKNS_17basic_string_viewIcNS_11char_traitsIcEEEEN5memdb4TypeEEC2B8ue170006IRA6_KcS7_LPv0EEEOT_OT0_, symObjAddr: 0x252B0, symBinAddr: 0x100026BBC, symSize: 0x1B0 }
  - { offsetInCU: 0x4531A, offset: 0x4531A, size: 0x8, addend: 0x0, symName: __ZNSt3__14pairIKNS_17basic_string_viewIcNS_11char_traitsIcEEEEN5memdb4TypeEEC2B8ue170006IRA5_KcS7_LPv0EEEOT_OT0_, symObjAddr: 0x25460, symBinAddr: 0x100026D6C, symSize: 0x1B0 }
  - { offsetInCU: 0x45378, offset: 0x45378, size: 0x8, addend: 0x0, symName: __ZNSt3__14pairIKNS_17basic_string_viewIcNS_11char_traitsIcEEEEN5memdb4TypeEEC2B8ue170006IRA7_KcS7_LPv0EEEOT_OT0_, symObjAddr: 0x25610, symBinAddr: 0x100026F1C, symSize: 0x1B0 }
  - { offsetInCU: 0x453D6, offset: 0x453D6, size: 0x8, addend: 0x0, symName: __ZNSt3__14pairIKNS_17basic_string_viewIcNS_11char_traitsIcEEEEN5memdb5lexer5OtherEEC2B8ue170006IRA2_KcS8_LPv0EEEOT_OT0_, symObjAddr: 0x257C0, symBinAddr: 0x1000270CC, symSize: 0x1B0 }
  - { offsetInCU: 0x45434, offset: 0x45434, size: 0x8, addend: 0x0, symName: __ZNSt3__112basic_stringIcNS_11char_traitsIcEENS_9allocatorIcEEEC2B8ue170006Ev, symObjAddr: 0x25970, symBinAddr: 0x10002727C, symSize: 0x274 }
  - { offsetInCU: 0x4545F, offset: 0x4545F, size: 0x8, addend: 0x0, symName: __ZNSt3__117__compressed_pairINS_12basic_stringIcNS_11char_traitsIcEENS_9allocatorIcEEE5__repES5_EC1B8ue170006INS_18__default_init_tagESA_EEOT_OT0_, symObjAddr: 0x25BE4, symBinAddr: 0x1000274F0, symSize: 0x88 }
  - { offsetInCU: 0x454B7, offset: 0x454B7, size: 0x8, addend: 0x0, symName: __ZNSt3__112basic_stringIcNS_11char_traitsIcEENS_9allocatorIcEEE14__default_initB8ue170006Ev, symObjAddr: 0x25C6C, symBinAddr: 0x100027578, symSize: 0x2B4 }
  - { offsetInCU: 0x454DE, offset: 0x454DE, size: 0x8, addend: 0x0, symName: __ZNSt3__117__compressed_pairINS_12basic_stringIcNS_11char_traitsIcEENS_9allocatorIcEEE5__repES5_EC2B8ue170006INS_18__default_init_tagESA_EEOT_OT0_, symObjAddr: 0x25F20, symBinAddr: 0x10002782C, symSize: 0xF4 }
  - { offsetInCU: 0x45536, offset: 0x45536, size: 0x8, addend: 0x0, symName: __ZNSt3__122__compressed_pair_elemINS_12basic_stringIcNS_11char_traitsIcEENS_9allocatorIcEEE5__repELi0ELb0EEC2B8ue170006ENS_18__default_init_tagE, symObjAddr: 0x26014, symBinAddr: 0x100027920, symSize: 0x6C }
  - { offsetInCU: 0x4556A, offset: 0x4556A, size: 0x8, addend: 0x0, symName: __ZNSt3__122__compressed_pair_elemINS_9allocatorIcEELi1ELb1EEC2B8ue170006ENS_18__default_init_tagE, symObjAddr: 0x26080, symBinAddr: 0x10002798C, symSize: 0x84 }
  - { offsetInCU: 0x4559E, offset: 0x4559E, size: 0x8, addend: 0x0, symName: __ZNSt3__19allocatorIcEC2B8ue170006Ev, symObjAddr: 0x26104, symBinAddr: 0x100027A10, symSize: 0x84 }
  - { offsetInCU: 0x455C8, offset: 0x455C8, size: 0x8, addend: 0x0, symName: __ZNSt3__116__non_trivial_ifILb1ENS_9allocatorIcEEEC2B8ue170006Ev, symObjAddr: 0x26188, symBinAddr: 0x100027A94, symSize: 0x54 }
  - { offsetInCU: 0x455F2, offset: 0x455F2, size: 0x8, addend: 0x0, symName: __ZNSt3__117__compressed_pairINS_12basic_stringIcNS_11char_traitsIcEENS_9allocatorIcEEE5__repES5_E5firstB8ue170006Ev, symObjAddr: 0x261DC, symBinAddr: 0x100027AE8, symSize: 0x124 }
  - { offsetInCU: 0x45618, offset: 0x45618, size: 0x8, addend: 0x0, symName: __ZNSt3__122__compressed_pair_elemINS_12basic_stringIcNS_11char_traitsIcEENS_9allocatorIcEEE5__repELi0ELb0EE5__getB8ue170006Ev, symObjAddr: 0x26300, symBinAddr: 0x100027C0C, symSize: 0xAC }
  - { offsetInCU: 0x4563D, offset: 0x4563D, size: 0x8, addend: 0x0, symName: __Z9__isctypeim, symObjAddr: 0x263AC, symBinAddr: 0x100027CB8, symSize: 0x27C }
  - { offsetInCU: 0x45677, offset: 0x45677, size: 0x8, addend: 0x0, symName: __Z8__istypeim, symObjAddr: 0x26628, symBinAddr: 0x100027F34, symSize: 0x250 }
  - { offsetInCU: 0x456B1, offset: 0x456B1, size: 0x8, addend: 0x0, symName: __Z7isasciii, symObjAddr: 0x26878, symBinAddr: 0x100028184, symSize: 0x24 }
  - { offsetInCU: 0x456DE, offset: 0x456DE, size: 0x8, addend: 0x0, symName: __ZNKSt3__112basic_stringIcNS_11char_traitsIcEENS_9allocatorIcEEE4dataB8ue170006Ev, symObjAddr: 0x2689C, symBinAddr: 0x1000281A8, symSize: 0x70 }
  - { offsetInCU: 0x45704, offset: 0x45704, size: 0x8, addend: 0x0, symName: __ZNSt3__117basic_string_viewIcNS_11char_traitsIcEEEC1B8ue170006EPKcm, symObjAddr: 0x2690C, symBinAddr: 0x100028218, symSize: 0x88 }
  - { offsetInCU: 0x4574C, offset: 0x4574C, size: 0x8, addend: 0x0, symName: __ZNKSt3__112basic_stringIcNS_11char_traitsIcEENS_9allocatorIcEEE13__get_pointerB8ue170006Ev, symObjAddr: 0x269A8, symBinAddr: 0x1000282B4, symSize: 0x98 }
  - { offsetInCU: 0x45772, offset: 0x45772, size: 0x8, addend: 0x0, symName: __ZNKSt3__112basic_stringIcNS_11char_traitsIcEENS_9allocatorIcEEE9__is_longB8ue170006Ev, symObjAddr: 0x26A40, symBinAddr: 0x10002834C, symSize: 0x1FC }
  - { offsetInCU: 0x45798, offset: 0x45798, size: 0x8, addend: 0x0, symName: __ZNKSt3__112basic_stringIcNS_11char_traitsIcEENS_9allocatorIcEEE18__get_long_pointerB8ue170006Ev, symObjAddr: 0x26C3C, symBinAddr: 0x100028548, symSize: 0x208 }
  - { offsetInCU: 0x457BE, offset: 0x457BE, size: 0x8, addend: 0x0, symName: __ZNKSt3__112basic_stringIcNS_11char_traitsIcEENS_9allocatorIcEEE19__get_short_pointerB8ue170006Ev, symObjAddr: 0x26E44, symBinAddr: 0x100028750, symSize: 0x1CC }
  - { offsetInCU: 0x457E4, offset: 0x457E4, size: 0x8, addend: 0x0, symName: __ZNKSt3__117__compressed_pairINS_12basic_stringIcNS_11char_traitsIcEENS_9allocatorIcEEE5__repES5_E5firstB8ue170006Ev, symObjAddr: 0x27010, symBinAddr: 0x10002891C, symSize: 0x124 }
  - { offsetInCU: 0x4580A, offset: 0x4580A, size: 0x8, addend: 0x0, symName: __ZNKSt3__122__compressed_pair_elemINS_12basic_stringIcNS_11char_traitsIcEENS_9allocatorIcEEE5__repELi0ELb0EE5__getB8ue170006Ev, symObjAddr: 0x27134, symBinAddr: 0x100028A40, symSize: 0xAC }
  - { offsetInCU: 0x45830, offset: 0x45830, size: 0x8, addend: 0x0, symName: __ZNSt3__114pointer_traitsIPKcE10pointer_toB8ue170006ERS1_, symObjAddr: 0x271E0, symBinAddr: 0x100028AEC, symSize: 0x14 }
  - { offsetInCU: 0x45853, offset: 0x45853, size: 0x8, addend: 0x0, symName: __ZNSt3__117basic_string_viewIcNS_11char_traitsIcEEEC2B8ue170006EPKcm, symObjAddr: 0x271F4, symBinAddr: 0x100028B00, symSize: 0x110 }
  - { offsetInCU: 0x4589B, offset: 0x4589B, size: 0x8, addend: 0x0, symName: __ZNSt3__14pairIbN5memdb5lexer7CommandEEC2B8ue170006IbS3_LPv0EEEOT_OT0_, symObjAddr: 0x27304, symBinAddr: 0x100028C10, symSize: 0x2C4 }
  - { offsetInCU: 0x458F9, offset: 0x458F9, size: 0x8, addend: 0x0, symName: __ZNSt3__14pairIbN5memdb5lexer7CommandEEC2B8ue170006IbRS3_LPv0EEEOT_OT0_, symObjAddr: 0x275C8, symBinAddr: 0x100028ED4, symSize: 0x2C4 }
  - { offsetInCU: 0x45957, offset: 0x45957, size: 0x8, addend: 0x0, symName: __ZNSt3__14pairIbN5memdb5lexer10SubCommandEEC2B8ue170006IbS3_LPv0EEEOT_OT0_, symObjAddr: 0x2788C, symBinAddr: 0x100029198, symSize: 0x2C4 }
  - { offsetInCU: 0x459B5, offset: 0x459B5, size: 0x8, addend: 0x0, symName: __ZNSt3__14pairIbN5memdb5lexer10SubCommandEEC2B8ue170006IbRS3_LPv0EEEOT_OT0_, symObjAddr: 0x27B50, symBinAddr: 0x10002945C, symSize: 0x2C4 }
  - { offsetInCU: 0x45A13, offset: 0x45A13, size: 0x8, addend: 0x0, symName: __ZNSt3__14pairIbN5memdb5lexer9AttributeEEC2B8ue170006IbS3_LPv0EEEOT_OT0_, symObjAddr: 0x27E14, symBinAddr: 0x100029720, symSize: 0x2C4 }
  - { offsetInCU: 0x45A71, offset: 0x45A71, size: 0x8, addend: 0x0, symName: __ZNSt3__14pairIbN5memdb5lexer9AttributeEEC2B8ue170006IbRS3_LPv0EEEOT_OT0_, symObjAddr: 0x280D8, symBinAddr: 0x1000299E4, symSize: 0x2C4 }
  - { offsetInCU: 0x45ACF, offset: 0x45ACF, size: 0x8, addend: 0x0, symName: __ZNSt3__14pairIbN5memdb9OperationEEC2B8ue170006IbS2_LPv0EEEOT_OT0_, symObjAddr: 0x2839C, symBinAddr: 0x100029CA8, symSize: 0x2C4 }
  - { offsetInCU: 0x45B2D, offset: 0x45B2D, size: 0x8, addend: 0x0, symName: __ZNSt3__14pairIbN5memdb9OperationEEC2B8ue170006IbRS2_LPv0EEEOT_OT0_, symObjAddr: 0x28660, symBinAddr: 0x100029F6C, symSize: 0x2C4 }
  - { offsetInCU: 0x45B8B, offset: 0x45B8B, size: 0x8, addend: 0x0, symName: __ZNSt3__14pairIbN5memdb5lexer5OtherEEC2B8ue170006IbS3_LPv0EEEOT_OT0_, symObjAddr: 0x28924, symBinAddr: 0x10002A230, symSize: 0x2C4 }
  - { offsetInCU: 0x45BE9, offset: 0x45BE9, size: 0x8, addend: 0x0, symName: __ZNSt3__14pairIbN5memdb5lexer5OtherEEC2B8ue170006IbRS3_LPv0EEEOT_OT0_, symObjAddr: 0x28BE8, symBinAddr: 0x10002A4F4, symSize: 0x2C4 }
  - { offsetInCU: 0x45C53, offset: 0x45C53, size: 0x8, addend: 0x0, symName: __ZNSt3__116allocator_traitsINS_9allocatorIcEEE37select_on_container_copy_constructionB8ue170006IS2_vvEES2_RKS2_, symObjAddr: 0x28EAC, symBinAddr: 0x10002A7B8, symSize: 0x10 }
  - { offsetInCU: 0x45C82, offset: 0x45C82, size: 0x8, addend: 0x0, symName: __ZNKSt3__112basic_stringIcNS_11char_traitsIcEENS_9allocatorIcEEE13get_allocatorB8ue170006Ev, symObjAddr: 0x28EBC, symBinAddr: 0x10002A7C8, symSize: 0x6C }
  - { offsetInCU: 0x45CA8, offset: 0x45CA8, size: 0x8, addend: 0x0, symName: __ZNSt3__112basic_stringIcNS_11char_traitsIcEENS_9allocatorIcEEEC1B8ue170006ENS_24__uninitialized_size_tagEmRKS4_, symObjAddr: 0x28F28, symBinAddr: 0x10002A834, symSize: 0x88 }
  - { offsetInCU: 0x45CFB, offset: 0x45CFB, size: 0x8, addend: 0x0, symName: __ZNSt3__112basic_stringIcNS_11char_traitsIcEENS_9allocatorIcEEE13__get_pointerB8ue170006Ev, symObjAddr: 0x28FC4, symBinAddr: 0x10002A8D0, symSize: 0x98 }
  - { offsetInCU: 0x45D21, offset: 0x45D21, size: 0x8, addend: 0x0, symName: __ZNSt3__111char_traitsIcE4copyB8ue170006EPcPKcm, symObjAddr: 0x2905C, symBinAddr: 0x10002A968, symSize: 0x4C }
  - { offsetInCU: 0x45D60, offset: 0x45D60, size: 0x8, addend: 0x0, symName: __ZNSt3__111char_traitsIcE6assignB8ue170006EPcmc, symObjAddr: 0x290A8, symBinAddr: 0x10002A9B4, symSize: 0x23C }
  - { offsetInCU: 0x45DA5, offset: 0x45DA5, size: 0x8, addend: 0x0, symName: __ZNKSt3__112basic_stringIcNS_11char_traitsIcEENS_9allocatorIcEEE7__allocB8ue170006Ev, symObjAddr: 0x292E4, symBinAddr: 0x10002ABF0, symSize: 0xDC }
  - { offsetInCU: 0x45DCB, offset: 0x45DCB, size: 0x8, addend: 0x0, symName: __ZNKSt3__117__compressed_pairINS_12basic_stringIcNS_11char_traitsIcEENS_9allocatorIcEEE5__repES5_E6secondB8ue170006Ev, symObjAddr: 0x293C0, symBinAddr: 0x10002ACCC, symSize: 0x108 }
  - { offsetInCU: 0x45DF1, offset: 0x45DF1, size: 0x8, addend: 0x0, symName: __ZNKSt3__122__compressed_pair_elemINS_9allocatorIcEELi1ELb1EE5__getB8ue170006Ev, symObjAddr: 0x294C8, symBinAddr: 0x10002ADD4, symSize: 0x74 }
  - { offsetInCU: 0x45E17, offset: 0x45E17, size: 0x8, addend: 0x0, symName: __ZNSt3__112basic_stringIcNS_11char_traitsIcEENS_9allocatorIcEEEC2B8ue170006ENS_24__uninitialized_size_tagEmRKS4_, symObjAddr: 0x2953C, symBinAddr: 0x10002AE48, symSize: 0x42C }
  - { offsetInCU: 0x45E9C, offset: 0x45E9C, size: 0x8, addend: 0x0, symName: __ZNSt3__117__compressed_pairINS_12basic_stringIcNS_11char_traitsIcEENS_9allocatorIcEEE5__repES5_EC1B8ue170006INS_18__default_init_tagERKS5_EEOT_OT0_, symObjAddr: 0x29968, symBinAddr: 0x10002B274, symSize: 0x88 }
  - { offsetInCU: 0x45EF4, offset: 0x45EF4, size: 0x8, addend: 0x0, symName: __ZNKSt3__112basic_stringIcNS_11char_traitsIcEENS_9allocatorIcEEE8max_sizeB8ue170006Ev, symObjAddr: 0x299F0, symBinAddr: 0x10002B2FC, symSize: 0x1B8 }
  - { offsetInCU: 0x45F46, offset: 0x45F46, size: 0x8, addend: 0x0, symName: __ZNKSt3__112basic_stringIcNS_11char_traitsIcEENS_9allocatorIcEEE20__throw_length_errorB8ue170006Ev, symObjAddr: 0x29BA8, symBinAddr: 0x10002B4B4, symSize: 0x80 }
  - { offsetInCU: 0x45F6C, offset: 0x45F6C, size: 0x8, addend: 0x0, symName: __ZNSt3__112basic_stringIcNS_11char_traitsIcEENS_9allocatorIcEEE13__fits_in_ssoB8ue170006Em, symObjAddr: 0x29C28, symBinAddr: 0x10002B534, symSize: 0x20 }
  - { offsetInCU: 0x45F90, offset: 0x45F90, size: 0x8, addend: 0x0, symName: __ZNSt3__112basic_stringIcNS_11char_traitsIcEENS_9allocatorIcEEE16__set_short_sizeB8ue170006Em, symObjAddr: 0x29C48, symBinAddr: 0x10002B554, symSize: 0x394 }
  - { offsetInCU: 0x45FC5, offset: 0x45FC5, size: 0x8, addend: 0x0, symName: __ZNSt3__112basic_stringIcNS_11char_traitsIcEENS_9allocatorIcEEE11__recommendB8ue170006Em, symObjAddr: 0x29FDC, symBinAddr: 0x10002B8E8, symSize: 0x84 }
  - { offsetInCU: 0x45FF8, offset: 0x45FF8, size: 0x8, addend: 0x0, symName: __ZNSt3__116allocator_traitsINS_9allocatorIcEEE8allocateB8ue170006ERS2_m, symObjAddr: 0x2A060, symBinAddr: 0x10002B96C, symSize: 0x2C }
  - { offsetInCU: 0x4602B, offset: 0x4602B, size: 0x8, addend: 0x0, symName: __ZNSt3__112basic_stringIcNS_11char_traitsIcEENS_9allocatorIcEEE7__allocB8ue170006Ev, symObjAddr: 0x2A08C, symBinAddr: 0x10002B998, symSize: 0xDC }
  - { offsetInCU: 0x46051, offset: 0x46051, size: 0x8, addend: 0x0, symName: __ZNSt3__112basic_stringIcNS_11char_traitsIcEENS_9allocatorIcEEE16__begin_lifetimeB8ue170006EPcm, symObjAddr: 0x2A168, symBinAddr: 0x10002BA74, symSize: 0x14 }
  - { offsetInCU: 0x46084, offset: 0x46084, size: 0x8, addend: 0x0, symName: __ZNSt3__112basic_stringIcNS_11char_traitsIcEENS_9allocatorIcEEE14__set_long_capB8ue170006Em, symObjAddr: 0x2A17C, symBinAddr: 0x10002BA88, symSize: 0x37C }
  - { offsetInCU: 0x460B9, offset: 0x460B9, size: 0x8, addend: 0x0, symName: __ZNSt3__112basic_stringIcNS_11char_traitsIcEENS_9allocatorIcEEE18__set_long_pointerB8ue170006EPc, symObjAddr: 0x2A4F8, symBinAddr: 0x10002BE04, symSize: 0x218 }
  - { offsetInCU: 0x460EE, offset: 0x460EE, size: 0x8, addend: 0x0, symName: __ZNSt3__112basic_stringIcNS_11char_traitsIcEENS_9allocatorIcEEE15__set_long_sizeB8ue170006Em, symObjAddr: 0x2A710, symBinAddr: 0x10002C01C, symSize: 0x220 }
  - { offsetInCU: 0x46123, offset: 0x46123, size: 0x8, addend: 0x0, symName: __ZNSt3__117__compressed_pairINS_12basic_stringIcNS_11char_traitsIcEENS_9allocatorIcEEE5__repES5_EC2B8ue170006INS_18__default_init_tagERKS5_EEOT_OT0_, symObjAddr: 0x2A930, symBinAddr: 0x10002C23C, symSize: 0x124 }
  - { offsetInCU: 0x4617B, offset: 0x4617B, size: 0x8, addend: 0x0, symName: __ZNSt3__122__compressed_pair_elemINS_9allocatorIcEELi1ELb1EEC2B8ue170006IRKS2_vEEOT_, symObjAddr: 0x2AA54, symBinAddr: 0x10002C360, symSize: 0x58 }
  - { offsetInCU: 0x461BD, offset: 0x461BD, size: 0x8, addend: 0x0, symName: __ZNSt3__116allocator_traitsINS_9allocatorIcEEE8max_sizeB8ue170006IS2_vvEEmRKS2_, symObjAddr: 0x2AAAC, symBinAddr: 0x10002C3B8, symSize: 0x54 }
  - { offsetInCU: 0x461E8, offset: 0x461E8, size: 0x8, addend: 0x0, symName: __ZNSt3__112basic_stringIcNS_11char_traitsIcEENS_9allocatorIcEEE10__align_itB8ue170006ILm16EEEmm, symObjAddr: 0x2AB00, symBinAddr: 0x10002C40C, symSize: 0x1C }
  - { offsetInCU: 0x46216, offset: 0x46216, size: 0x8, addend: 0x0, symName: __ZNSt3__19allocatorIcE8allocateB8ue170006Em, symObjAddr: 0x2AB1C, symBinAddr: 0x10002C428, symSize: 0xCC }
  - { offsetInCU: 0x4624A, offset: 0x4624A, size: 0x8, addend: 0x0, symName: __ZNSt3__117__compressed_pairINS_12basic_stringIcNS_11char_traitsIcEENS_9allocatorIcEEE5__repES5_E6secondB8ue170006Ev, symObjAddr: 0x2ABE8, symBinAddr: 0x10002C4F4, symSize: 0x108 }
  - { offsetInCU: 0x46270, offset: 0x46270, size: 0x8, addend: 0x0, symName: __ZNSt3__122__compressed_pair_elemINS_9allocatorIcEELi1ELb1EE5__getB8ue170006Ev, symObjAddr: 0x2ACF0, symBinAddr: 0x10002C5FC, symSize: 0x74 }
  - { offsetInCU: 0x46296, offset: 0x46296, size: 0x8, addend: 0x0, symName: __ZNSt3__112basic_stringIcNS_11char_traitsIcEENS_9allocatorIcEEE18__get_long_pointerB8ue170006Ev, symObjAddr: 0x2AD64, symBinAddr: 0x10002C670, symSize: 0x208 }
  - { offsetInCU: 0x462BC, offset: 0x462BC, size: 0x8, addend: 0x0, symName: __ZNSt3__112basic_stringIcNS_11char_traitsIcEENS_9allocatorIcEEE19__get_short_pointerB8ue170006Ev, symObjAddr: 0x2AF6C, symBinAddr: 0x10002C878, symSize: 0x1CC }
  - { offsetInCU: 0x462E2, offset: 0x462E2, size: 0x8, addend: 0x0, symName: __ZNSt3__114pointer_traitsIPcE10pointer_toB8ue170006ERc, symObjAddr: 0x2B138, symBinAddr: 0x10002CA44, symSize: 0x14 }
  - { offsetInCU: 0x46329, offset: 0x46329, size: 0x8, addend: 0x0, symName: __ZNKSt3__114__copy_trivialclB8ue170006IKccLi0EEENS_4pairIPT_PT0_EES5_S5_S7_, symObjAddr: 0x2C1EC, symBinAddr: 0x10002DAF8, symSize: 0x25C }
  - { offsetInCU: 0x463B9, offset: 0x463B9, size: 0x8, addend: 0x0, symName: __ZNSt3__119__unwrap_range_implIPKcS2_E8__unwrapB8ue170006ES2_S2_, symObjAddr: 0x2C780, symBinAddr: 0x10002E08C, symSize: 0x30C }
  - { offsetInCU: 0x463F2, offset: 0x463F2, size: 0x8, addend: 0x0, symName: __ZNSt3__14pairIPKcS2_EC1B8ue170006IS2_S2_LPv0EEEOT_OT0_, symObjAddr: 0x2CAB0, symBinAddr: 0x10002E3BC, symSize: 0x88 }
  - { offsetInCU: 0x46450, offset: 0x46450, size: 0x8, addend: 0x0, symName: __ZNSt3__118__unwrap_iter_implIPKcLb1EE8__unwrapB8ue170006ES2_, symObjAddr: 0x2CB38, symBinAddr: 0x10002E444, symSize: 0x24 }
  - { offsetInCU: 0x46473, offset: 0x46473, size: 0x8, addend: 0x0, symName: __ZNSt3__14pairIPKcS2_EC2B8ue170006IS2_S2_LPv0EEEOT_OT0_, symObjAddr: 0x2CB5C, symBinAddr: 0x10002E468, symSize: 0x210 }
  - { offsetInCU: 0x464DD, offset: 0x464DD, size: 0x8, addend: 0x0, symName: __ZNSt3__14pairIPKcPcEC1B8ue170006IRS2_S3_LPv0EEEOT_OT0_, symObjAddr: 0x2D4E4, symBinAddr: 0x10002EDF0, symSize: 0x88 }
  - { offsetInCU: 0x4653B, offset: 0x4653B, size: 0x8, addend: 0x0, symName: __ZNSt3__14pairIPKcPcEC2B8ue170006IRS2_S3_LPv0EEEOT_OT0_, symObjAddr: 0x2D56C, symBinAddr: 0x10002EE78, symSize: 0x210 }
  - { offsetInCU: 0x46599, offset: 0x46599, size: 0x8, addend: 0x0, symName: __ZNSt3__118__unwrap_iter_implIPcLb1EE8__unwrapB8ue170006ES1_, symObjAddr: 0x2D77C, symBinAddr: 0x10002F088, symSize: 0x24 }
  - { offsetInCU: 0x465BC, offset: 0x465BC, size: 0x8, addend: 0x0, symName: __ZNSt3__14pairIPKcPcEC1B8ue170006IS2_S3_LPv0EEEOT_OT0_, symObjAddr: 0x2D7A0, symBinAddr: 0x10002F0AC, symSize: 0x88 }
  - { offsetInCU: 0x4661A, offset: 0x4661A, size: 0x8, addend: 0x0, symName: __ZNSt3__14pairIPKcPcEC2B8ue170006IS2_S3_LPv0EEEOT_OT0_, symObjAddr: 0x2D828, symBinAddr: 0x10002F134, symSize: 0x210 }
  - { offsetInCU: 0x46678, offset: 0x46678, size: 0x8, addend: 0x0, symName: __ZNSt3__119__unwrap_range_implIPKcS2_E8__rewrapB8ue170006ES2_S2_, symObjAddr: 0x2DA38, symBinAddr: 0x10002F344, symSize: 0x2C }
  - { offsetInCU: 0x466A9, offset: 0x466A9, size: 0x8, addend: 0x0, symName: __ZNSt3__118__unwrap_iter_implIPKcLb1EE8__rewrapB8ue170006ES2_S2_, symObjAddr: 0x2DAAC, symBinAddr: 0x10002F3B8, symSize: 0x134 }
  - { offsetInCU: 0x466DA, offset: 0x466DA, size: 0x8, addend: 0x0, symName: __ZNSt3__118__unwrap_iter_implIPcLb1EE8__rewrapB8ue170006ES1_S1_, symObjAddr: 0x2DBE0, symBinAddr: 0x10002F4EC, symSize: 0x134 }
  - { offsetInCU: 0x4670B, offset: 0x4670B, size: 0x8, addend: 0x0, symName: __ZNSt3__14pairIbN5memdb5lexer7BracketEEC2B8ue170006IbRS3_LPv0EEEOT_OT0_, symObjAddr: 0x2DF78, symBinAddr: 0x10002F884, symSize: 0x2C4 }
  - { offsetInCU: 0x46769, offset: 0x46769, size: 0x8, addend: 0x0, symName: __ZNSt3__14pairIbN5memdb5lexer7BracketEEC2B8ue170006IbS3_LPv0EEEOT_OT0_, symObjAddr: 0x2E23C, symBinAddr: 0x10002FB48, symSize: 0x2C4 }
  - { offsetInCU: 0x467D3, offset: 0x467D3, size: 0x8, addend: 0x0, symName: '__ZZN5memdb5lexer5IsIntERNSt3__16vectorINS1_12basic_stringIcNS1_11char_traitsIcEENS1_9allocatorIcEEEENS6_IS8_EEEEiENK3$_0clEc', symObjAddr: 0x2E5C4, symBinAddr: 0x10002FED0, symSize: 0x50 }
  - { offsetInCU: 0x4680B, offset: 0x4680B, size: 0x8, addend: 0x0, symName: __ZNKSt3__111__wrap_iterIPcEdeB8ue170006Ev, symObjAddr: 0x2E614, symBinAddr: 0x10002FF20, symSize: 0xD8 }
  - { offsetInCU: 0x46831, offset: 0x46831, size: 0x8, addend: 0x0, symName: __ZNSt3__111__wrap_iterIPcEppB8ue170006Ev, symObjAddr: 0x2E6EC, symBinAddr: 0x10002FFF8, symSize: 0x1A8 }
  - { offsetInCU: 0x46857, offset: 0x46857, size: 0x8, addend: 0x0, symName: __ZNKSt3__111__wrap_iterIPcE4baseB8ue170006Ev, symObjAddr: 0x2E930, symBinAddr: 0x10003023C, symSize: 0xAC }
  - { offsetInCU: 0x4687D, offset: 0x4687D, size: 0x8, addend: 0x0, symName: __ZNSt3__112basic_stringIcNS_11char_traitsIcEENS_9allocatorIcEEE15__make_iteratorB8ue170006EPc, symObjAddr: 0x2E9DC, symBinAddr: 0x1000302E8, symSize: 0x244 }
  - { offsetInCU: 0x468B4, offset: 0x468B4, size: 0x8, addend: 0x0, symName: __ZNSt3__111__wrap_iterIPcEC1B8ue170006ES1_, symObjAddr: 0x2EC20, symBinAddr: 0x10003052C, symSize: 0x80 }
  - { offsetInCU: 0x468EC, offset: 0x468EC, size: 0x8, addend: 0x0, symName: __ZNSt3__111__wrap_iterIPcEC2B8ue170006ES1_, symObjAddr: 0x2ECA0, symBinAddr: 0x1000305AC, symSize: 0xC8 }
  - { offsetInCU: 0x46924, offset: 0x46924, size: 0x8, addend: 0x0, symName: __ZNSt3__14pairIbiEC2B8ue170006IbiLPv0EEEOT_OT0_, symObjAddr: 0x2ED68, symBinAddr: 0x100030674, symSize: 0x2C4 }
  - { offsetInCU: 0x46982, offset: 0x46982, size: 0x8, addend: 0x0, symName: __ZN5memdb10ColumnTypeC2ENS_4TypeE, symObjAddr: 0x2F02C, symBinAddr: 0x100030938, symSize: 0xF0 }
  - { offsetInCU: 0x469BA, offset: 0x469BA, size: 0x8, addend: 0x0, symName: __ZNSt3__14pairIbN5memdb10ColumnTypeEEC2B8ue170006IbS2_LPv0EEEOT_OT0_, symObjAddr: 0x2F11C, symBinAddr: 0x100030A28, symSize: 0x1BC }
  - { offsetInCU: 0x46A18, offset: 0x46A18, size: 0x8, addend: 0x0, symName: __ZN5memdb10ColumnTypeC2ENS_4TypeEi, symObjAddr: 0x2F2D8, symBinAddr: 0x100030BE4, symSize: 0x160 }
  - { offsetInCU: 0x46A5E, offset: 0x46A5E, size: 0x8, addend: 0x0, symName: __ZNSt3__19allocatorIcEC1B8ue170006Ev, symObjAddr: 0x2F438, symBinAddr: 0x100030D44, symSize: 0x5C }
  - { offsetInCU: 0x46A88, offset: 0x46A88, size: 0x8, addend: 0x0, symName: __ZNKSt3__112basic_stringIcNS_11char_traitsIcEENS_9allocatorIcEEE15__get_long_sizeB8ue170006Ev, symObjAddr: 0x2F494, symBinAddr: 0x100030DA0, symSize: 0x210 }
  - { offsetInCU: 0x46AAE, offset: 0x46AAE, size: 0x8, addend: 0x0, symName: __ZNKSt3__112basic_stringIcNS_11char_traitsIcEENS_9allocatorIcEEE16__get_short_sizeB8ue170006Ev, symObjAddr: 0x2F6A4, symBinAddr: 0x100030FB0, symSize: 0x1F8 }
  - { offsetInCU: 0x46AD4, offset: 0x46AD4, size: 0x8, addend: 0x0, symName: __ZNSt3__14pairIbNS_12basic_stringIcNS_11char_traitsIcEENS_9allocatorIcEEEEEC2B8ue170006IbS6_LPv0EEEOT_OT0_, symObjAddr: 0x2F89C, symBinAddr: 0x1000311A8, symSize: 0x208 }
  - { offsetInCU: 0x46B32, offset: 0x46B32, size: 0x8, addend: 0x0, symName: __ZNSt3__112basic_stringIcNS_11char_traitsIcEENS_9allocatorIcEEEC1B8ue170006EOS5_, symObjAddr: 0x2FAA4, symBinAddr: 0x1000313B0, symSize: 0x80 }
  - { offsetInCU: 0x46B6B, offset: 0x46B6B, size: 0x8, addend: 0x0, symName: __ZNSt3__112basic_stringIcNS_11char_traitsIcEENS_9allocatorIcEEEC2B8ue170006EOS5_, symObjAddr: 0x2FB24, symBinAddr: 0x100031430, symSize: 0xB8 }
  - { offsetInCU: 0x46BA4, offset: 0x46BA4, size: 0x8, addend: 0x0, symName: __ZNSt3__16vectorIcNS_9allocatorIcEEEC2Em, symObjAddr: 0x2FBDC, symBinAddr: 0x1000314E8, symSize: 0x51C }
  - { offsetInCU: 0x46BFA, offset: 0x46BFA, size: 0x8, addend: 0x0, symName: __ZNSt3__117__compressed_pairIPcNS_9allocatorIcEEEC1B8ue170006IDnNS_18__default_init_tagEEEOT_OT0_, symObjAddr: 0x300F8, symBinAddr: 0x100031A04, symSize: 0x88 }
  - { offsetInCU: 0x46C52, offset: 0x46C52, size: 0x8, addend: 0x0, symName: __ZNSt3__16vectorIcNS_9allocatorIcEEE16__destroy_vectorC1B8ue170006ERS3_, symObjAddr: 0x3043C, symBinAddr: 0x100031D48, symSize: 0x80 }
  - { offsetInCU: 0x46C8B, offset: 0x46C8B, size: 0x8, addend: 0x0, symName: __ZNSt3__16vectorIcNS_9allocatorIcEEE11__vallocateB8ue170006Em, symObjAddr: 0x304BC, symBinAddr: 0x100031DC8, symSize: 0x5E8 }
  - { offsetInCU: 0x46CD5, offset: 0x46CD5, size: 0x8, addend: 0x0, symName: __ZNSt3__16vectorIcNS_9allocatorIcEEE18__construct_at_endEm, symObjAddr: 0x30AA4, symBinAddr: 0x1000323B0, symSize: 0x5A0 }
  - { offsetInCU: 0x46D4F, offset: 0x46D4F, size: 0x8, addend: 0x0, symName: __ZNSt3__128__exception_guard_exceptionsINS_6vectorIcNS_9allocatorIcEEE16__destroy_vectorEE10__completeB8ue170006Ev, symObjAddr: 0x31044, symBinAddr: 0x100032950, symSize: 0xD8 }
  - { offsetInCU: 0x46D75, offset: 0x46D75, size: 0x8, addend: 0x0, symName: __ZNSt3__128__exception_guard_exceptionsINS_6vectorIcNS_9allocatorIcEEE16__destroy_vectorEED1B8ue170006Ev, symObjAddr: 0x3111C, symBinAddr: 0x100032A28, symSize: 0x78 }
  - { offsetInCU: 0x46D9F, offset: 0x46D9F, size: 0x8, addend: 0x0, symName: __ZNSt3__117__compressed_pairIPcNS_9allocatorIcEEEC2B8ue170006IDnNS_18__default_init_tagEEEOT_OT0_, symObjAddr: 0x31194, symBinAddr: 0x100032AA0, symSize: 0x140 }
  - { offsetInCU: 0x46DF7, offset: 0x46DF7, size: 0x8, addend: 0x0, symName: __ZNSt3__122__compressed_pair_elemIPcLi0ELb0EEC2B8ue170006IDnvEEOT_, symObjAddr: 0x312D4, symBinAddr: 0x100032BE0, symSize: 0xBC }
  - { offsetInCU: 0x46E39, offset: 0x46E39, size: 0x8, addend: 0x0, symName: __ZNSt3__128__exception_guard_exceptionsINS_6vectorIcNS_9allocatorIcEEE16__destroy_vectorEEC1B8ue170006ES5_, symObjAddr: 0x31390, symBinAddr: 0x100032C9C, symSize: 0x28C }
  - { offsetInCU: 0x46E76, offset: 0x46E76, size: 0x8, addend: 0x0, symName: __ZNSt3__128__exception_guard_exceptionsINS_6vectorIcNS_9allocatorIcEEE16__destroy_vectorEEC2B8ue170006ES5_, symObjAddr: 0x3161C, symBinAddr: 0x100032F28, symSize: 0x2BC }
  - { offsetInCU: 0x46EB3, offset: 0x46EB3, size: 0x8, addend: 0x0, symName: __ZNSt3__16vectorIcNS_9allocatorIcEEE16__destroy_vectorC2B8ue170006ERS3_, symObjAddr: 0x318D8, symBinAddr: 0x1000331E4, symSize: 0x108 }
  - { offsetInCU: 0x46EEC, offset: 0x46EEC, size: 0x8, addend: 0x0, symName: __ZNKSt3__16vectorIcNS_9allocatorIcEEE8max_sizeEv, symObjAddr: 0x319E0, symBinAddr: 0x1000332EC, symSize: 0x3B8 }
  - { offsetInCU: 0x46F15, offset: 0x46F15, size: 0x8, addend: 0x0, symName: __ZNKSt3__16vectorIcNS_9allocatorIcEEE20__throw_length_errorB8ue170006Ev, symObjAddr: 0x31D98, symBinAddr: 0x1000336A4, symSize: 0x80 }
  - { offsetInCU: 0x46F3B, offset: 0x46F3B, size: 0x8, addend: 0x0, symName: __ZNSt3__16vectorIcNS_9allocatorIcEEE7__allocB8ue170006Ev, symObjAddr: 0x32068, symBinAddr: 0x100033974, symSize: 0xE4 }
  - { offsetInCU: 0x46F61, offset: 0x46F61, size: 0x8, addend: 0x0, symName: __ZNSt3__16vectorIcNS_9allocatorIcEEE9__end_capB8ue170006Ev, symObjAddr: 0x3214C, symBinAddr: 0x100033A58, symSize: 0x100 }
  - { offsetInCU: 0x46F87, offset: 0x46F87, size: 0x8, addend: 0x0, symName: __ZNKSt3__16vectorIcNS_9allocatorIcEEE14__annotate_newB8ue170006Em, symObjAddr: 0x3224C, symBinAddr: 0x100033B58, symSize: 0x360 }
  - { offsetInCU: 0x46FBC, offset: 0x46FBC, size: 0x8, addend: 0x0, symName: __ZNKSt3__16vectorIcNS_9allocatorIcEEE7__allocB8ue170006Ev, symObjAddr: 0x325AC, symBinAddr: 0x100033EB8, symSize: 0xE4 }
  - { offsetInCU: 0x46FE2, offset: 0x46FE2, size: 0x8, addend: 0x0, symName: __ZNKSt3__117__compressed_pairIPcNS_9allocatorIcEEE6secondB8ue170006Ev, symObjAddr: 0x32690, symBinAddr: 0x100033F9C, symSize: 0x108 }
  - { offsetInCU: 0x47008, offset: 0x47008, size: 0x8, addend: 0x0, symName: __ZNSt3__19allocatorIcE17allocate_at_leastB8ue170006Em, symObjAddr: 0x329BC, symBinAddr: 0x1000342C8, symSize: 0x2B8 }
  - { offsetInCU: 0x4703E, offset: 0x4703E, size: 0x8, addend: 0x0, symName: __ZNSt3__117__compressed_pairIPcNS_9allocatorIcEEE6secondB8ue170006Ev, symObjAddr: 0x32C74, symBinAddr: 0x100034580, symSize: 0x108 }
  - { offsetInCU: 0x47064, offset: 0x47064, size: 0x8, addend: 0x0, symName: __ZNSt3__117__compressed_pairIPcNS_9allocatorIcEEE5firstB8ue170006Ev, symObjAddr: 0x32D7C, symBinAddr: 0x100034688, symSize: 0x124 }
  - { offsetInCU: 0x4708A, offset: 0x4708A, size: 0x8, addend: 0x0, symName: __ZNSt3__122__compressed_pair_elemIPcLi0ELb0EE5__getB8ue170006Ev, symObjAddr: 0x32EA0, symBinAddr: 0x1000347AC, symSize: 0xAC }
  - { offsetInCU: 0x470B0, offset: 0x470B0, size: 0x8, addend: 0x0, symName: __ZNKSt3__16vectorIcNS_9allocatorIcEEE31__annotate_contiguous_containerEPKvS5_S5_S5_, symObjAddr: 0x32F4C, symBinAddr: 0x100034858, symSize: 0x9C }
  - { offsetInCU: 0x47112, offset: 0x47112, size: 0x8, addend: 0x0, symName: __ZNKSt3__16vectorIcNS_9allocatorIcEEE4dataB8ue170006Ev, symObjAddr: 0x32FE8, symBinAddr: 0x1000348F4, symSize: 0xB0 }
  - { offsetInCU: 0x47138, offset: 0x47138, size: 0x8, addend: 0x0, symName: __ZNKSt3__16vectorIcNS_9allocatorIcEEE8capacityB8ue170006Ev, symObjAddr: 0x33098, symBinAddr: 0x1000349A4, symSize: 0x13C }
  - { offsetInCU: 0x4715E, offset: 0x4715E, size: 0x8, addend: 0x0, symName: __ZNKSt3__16vectorIcNS_9allocatorIcEEE9__end_capB8ue170006Ev, symObjAddr: 0x331D4, symBinAddr: 0x100034AE0, symSize: 0x100 }
  - { offsetInCU: 0x47184, offset: 0x47184, size: 0x8, addend: 0x0, symName: __ZNKSt3__117__compressed_pairIPcNS_9allocatorIcEEE5firstB8ue170006Ev, symObjAddr: 0x332D4, symBinAddr: 0x100034BE0, symSize: 0x124 }
  - { offsetInCU: 0x471AA, offset: 0x471AA, size: 0x8, addend: 0x0, symName: __ZNKSt3__122__compressed_pair_elemIPcLi0ELb0EE5__getB8ue170006Ev, symObjAddr: 0x333F8, symBinAddr: 0x100034D04, symSize: 0xAC }
  - { offsetInCU: 0x471EE, offset: 0x471EE, size: 0x8, addend: 0x0, symName: __ZNSt3__16vectorIcNS_9allocatorIcEEE21_ConstructTransactionC1B8ue170006ERS3_m, symObjAddr: 0x334A4, symBinAddr: 0x100034DB0, symSize: 0x88 }
  - { offsetInCU: 0x47236, offset: 0x47236, size: 0x8, addend: 0x0, symName: __ZNSt3__116allocator_traitsINS_9allocatorIcEEE9constructB8ue170006IcJEvvEEvRS2_PT_DpOT0_, symObjAddr: 0x3352C, symBinAddr: 0x100034E38, symSize: 0x28 }
  - { offsetInCU: 0x47275, offset: 0x47275, size: 0x8, addend: 0x0, symName: __ZNSt3__16vectorIcNS_9allocatorIcEEE21_ConstructTransactionD1B8ue170006Ev, symObjAddr: 0x33554, symBinAddr: 0x100034E60, symSize: 0x78 }
  - { offsetInCU: 0x4729F, offset: 0x4729F, size: 0x8, addend: 0x0, symName: __ZNSt3__16vectorIcNS_9allocatorIcEEE21_ConstructTransactionC2B8ue170006ERS3_m, symObjAddr: 0x335CC, symBinAddr: 0x100034ED8, symSize: 0x3D8 }
  - { offsetInCU: 0x472E7, offset: 0x472E7, size: 0x8, addend: 0x0, symName: __ZNKSt3__16vectorIcNS_9allocatorIcEEE19__annotate_increaseB8ue170006Em, symObjAddr: 0x339A4, symBinAddr: 0x1000352B0, symSize: 0x44C }
  - { offsetInCU: 0x4731C, offset: 0x4731C, size: 0x8, addend: 0x0, symName: __ZNKSt3__16vectorIcNS_9allocatorIcEEE4sizeB8ue170006Ev, symObjAddr: 0x33DF0, symBinAddr: 0x1000356FC, symSize: 0xF0 }
  - { offsetInCU: 0x47342, offset: 0x47342, size: 0x8, addend: 0x0, symName: __ZNSt3__16vectorIcNS_9allocatorIcEEE21_ConstructTransactionD2B8ue170006Ev, symObjAddr: 0x33FC8, symBinAddr: 0x1000358D4, symSize: 0x388 }
  - { offsetInCU: 0x4736C, offset: 0x4736C, size: 0x8, addend: 0x0, symName: __ZNKSt3__16vectorIcNS_9allocatorIcEEE17__annotate_shrinkB8ue170006Em, symObjAddr: 0x34350, symBinAddr: 0x100035C5C, symSize: 0x360 }
  - { offsetInCU: 0x473A1, offset: 0x473A1, size: 0x8, addend: 0x0, symName: __ZNSt3__128__exception_guard_exceptionsINS_6vectorIcNS_9allocatorIcEEE16__destroy_vectorEED2B8ue170006Ev, symObjAddr: 0x346B0, symBinAddr: 0x100035FBC, symSize: 0x17C }
  - { offsetInCU: 0x473CB, offset: 0x473CB, size: 0x8, addend: 0x0, symName: __ZNSt3__16vectorIcNS_9allocatorIcEEE16__destroy_vectorclB8ue170006Ev, symObjAddr: 0x3482C, symBinAddr: 0x100036138, symSize: 0x43C }
  - { offsetInCU: 0x473F1, offset: 0x473F1, size: 0x8, addend: 0x0, symName: __ZNSt3__16vectorIcNS_9allocatorIcEEE7__clearB8ue170006Ev, symObjAddr: 0x34C68, symBinAddr: 0x100036574, symSize: 0xB0 }
  - { offsetInCU: 0x47417, offset: 0x47417, size: 0x8, addend: 0x0, symName: __ZNKSt3__16vectorIcNS_9allocatorIcEEE17__annotate_deleteB8ue170006Ev, symObjAddr: 0x34D18, symBinAddr: 0x100036624, symSize: 0x370 }
  - { offsetInCU: 0x4743D, offset: 0x4743D, size: 0x8, addend: 0x0, symName: __ZNSt3__116allocator_traitsINS_9allocatorIcEEE10deallocateB8ue170006ERS2_Pcm, symObjAddr: 0x35088, symBinAddr: 0x100036994, symSize: 0x34 }
  - { offsetInCU: 0x4747F, offset: 0x4747F, size: 0x8, addend: 0x0, symName: __ZNSt3__16vectorIcNS_9allocatorIcEEE22__base_destruct_at_endB8ue170006EPc, symObjAddr: 0x350BC, symBinAddr: 0x1000369C8, symSize: 0x1FC }
  - { offsetInCU: 0x474C3, offset: 0x474C3, size: 0x8, addend: 0x0, symName: __ZNSt3__116allocator_traitsINS_9allocatorIcEEE7destroyB8ue170006IcvvEEvRS2_PT_, symObjAddr: 0x352B8, symBinAddr: 0x100036BC4, symSize: 0x28 }
  - { offsetInCU: 0x474FD, offset: 0x474FD, size: 0x8, addend: 0x0, symName: __ZNSt3__19allocatorIcE10deallocateB8ue170006EPcm, symObjAddr: 0x35314, symBinAddr: 0x100036C20, symSize: 0x78 }
  - { offsetInCU: 0x4753F, offset: 0x4753F, size: 0x8, addend: 0x0, symName: __ZNSt3__16vectorIcNS_9allocatorIcEEEC2B8ue170006Ev, symObjAddr: 0x3538C, symBinAddr: 0x100036C98, symSize: 0x340 }
  - { offsetInCU: 0x4756A, offset: 0x4756A, size: 0x8, addend: 0x0, symName: __ZNSt3__14pairIbNS_6vectorIcNS_9allocatorIcEEEEEC2B8ue170006IbS4_LPv0EEEOT_OT0_, symObjAddr: 0x356CC, symBinAddr: 0x100036FD8, symSize: 0x208 }
  - { offsetInCU: 0x475C8, offset: 0x475C8, size: 0x8, addend: 0x0, symName: __ZNSt3__16vectorIcNS_9allocatorIcEEEC1B8ue170006EOS3_, symObjAddr: 0x358D4, symBinAddr: 0x1000371E0, symSize: 0x80 }
  - { offsetInCU: 0x47603, offset: 0x47603, size: 0x8, addend: 0x0, symName: __ZNSt3__16vectorIcNS_9allocatorIcEEEC2B8ue170006EOS3_, symObjAddr: 0x35954, symBinAddr: 0x100037260, symSize: 0x77C }
  - { offsetInCU: 0x47646, offset: 0x47646, size: 0x8, addend: 0x0, symName: __ZNSt3__117__compressed_pairIPcNS_9allocatorIcEEEC1B8ue170006IDnS3_EEOT_OT0_, symObjAddr: 0x360D0, symBinAddr: 0x1000379DC, symSize: 0x88 }
  - { offsetInCU: 0x4769E, offset: 0x4769E, size: 0x8, addend: 0x0, symName: __ZNSt3__117__compressed_pairIPcNS_9allocatorIcEEEC2B8ue170006IDnS3_EEOT_OT0_, symObjAddr: 0x36158, symBinAddr: 0x100037A64, symSize: 0x170 }
  - { offsetInCU: 0x476F6, offset: 0x476F6, size: 0x8, addend: 0x0, symName: __ZNSt3__122__compressed_pair_elemINS_9allocatorIcEELi1ELb1EEC2B8ue170006IS2_vEEOT_, symObjAddr: 0x362C8, symBinAddr: 0x100037BD4, symSize: 0x58 }
  - { offsetInCU: 0x47738, offset: 0x47738, size: 0x8, addend: 0x0, symName: __ZNSt3__16vectorIcNS_9allocatorIcEEED2B8ue170006Ev, symObjAddr: 0x36320, symBinAddr: 0x100037C2C, symSize: 0x294 }
  - { offsetInCU: 0x47763, offset: 0x47763, size: 0x8, addend: 0x0, symName: __ZNSt3__14pairIbNS_6vectorIcNS_9allocatorIcEEEEEC2B8ue170006IbRS4_LPv0EEEOT_OT0_, symObjAddr: 0x365B4, symBinAddr: 0x100037EC0, symSize: 0x208 }
  - { offsetInCU: 0x477C1, offset: 0x477C1, size: 0x8, addend: 0x0, symName: __ZNSt3__16vectorIcNS_9allocatorIcEEEC1ERKS3_, symObjAddr: 0x367BC, symBinAddr: 0x1000380C8, symSize: 0x80 }
  - { offsetInCU: 0x477FC, offset: 0x477FC, size: 0x8, addend: 0x0, symName: __ZNSt3__16vectorIcNS_9allocatorIcEEEC2ERKS3_, symObjAddr: 0x3683C, symBinAddr: 0x100038148, symSize: 0x4C0 }
  - { offsetInCU: 0x47839, offset: 0x47839, size: 0x8, addend: 0x0, symName: __ZNSt3__16vectorIcNS_9allocatorIcEEE16__init_with_sizeB8ue170006IPcS5_EEvT_T0_m, symObjAddr: 0x36CFC, symBinAddr: 0x100038608, symSize: 0x3EC }
  - { offsetInCU: 0x478B5, offset: 0x478B5, size: 0x8, addend: 0x0, symName: __ZNSt3__16vectorIcNS_9allocatorIcEEE18__construct_at_endIPcS5_EEvT_T0_m, symObjAddr: 0x370E8, symBinAddr: 0x1000389F4, symSize: 0x494 }
  - { offsetInCU: 0x47957, offset: 0x47957, size: 0x8, addend: 0x0, symName: __ZNSt3__119__unwrap_range_implIPcS1_E8__unwrapB8ue170006ES1_S1_, symObjAddr: 0x37B0C, symBinAddr: 0x100039418, symSize: 0x30C }
  - { offsetInCU: 0x4798A, offset: 0x4798A, size: 0x8, addend: 0x0, symName: __ZNSt3__14pairIPcS1_EC1B8ue170006IS1_S1_LPv0EEEOT_OT0_, symObjAddr: 0x37E18, symBinAddr: 0x100039724, symSize: 0x88 }
  - { offsetInCU: 0x479E8, offset: 0x479E8, size: 0x8, addend: 0x0, symName: __ZNSt3__14pairIPcS1_EC2B8ue170006IS1_S1_LPv0EEEOT_OT0_, symObjAddr: 0x37EA0, symBinAddr: 0x1000397AC, symSize: 0x210 }
  - { offsetInCU: 0x47A46, offset: 0x47A46, size: 0x8, addend: 0x0, symName: __ZNKSt3__114__copy_trivialclB8ue170006IccLi0EEENS_4pairIPT_PT0_EES4_S4_S6_, symObjAddr: 0x38DF0, symBinAddr: 0x10003A6FC, symSize: 0x25C }
  - { offsetInCU: 0x47AB2, offset: 0x47AB2, size: 0x8, addend: 0x0, symName: __ZNSt3__14pairIPcS1_EC1B8ue170006IRS1_S1_LPv0EEEOT_OT0_, symObjAddr: 0x39A90, symBinAddr: 0x10003B39C, symSize: 0x88 }
  - { offsetInCU: 0x47B10, offset: 0x47B10, size: 0x8, addend: 0x0, symName: __ZNSt3__14pairIPcS1_EC2B8ue170006IRS1_S1_LPv0EEEOT_OT0_, symObjAddr: 0x39B18, symBinAddr: 0x10003B424, symSize: 0x210 }
  - { offsetInCU: 0x47B6E, offset: 0x47B6E, size: 0x8, addend: 0x0, symName: __ZNSt3__119__unwrap_range_implIPcS1_E8__rewrapB8ue170006ES1_S1_, symObjAddr: 0x39D28, symBinAddr: 0x10003B634, symSize: 0x2C }
  - { offsetInCU: 0x47B9F, offset: 0x47B9F, size: 0x8, addend: 0x0, symName: __ZNKSt3__117basic_string_viewIcNS_11char_traitsIcEEE7compareES3_, symObjAddr: 0x3A09C, symBinAddr: 0x10003B9A8, symSize: 0x4BC }
  - { offsetInCU: 0x47BF9, offset: 0x47BF9, size: 0x8, addend: 0x0, symName: __ZNSt3__111char_traitsIcE7compareB8ue170006EPKcS3_m, symObjAddr: 0x3A558, symBinAddr: 0x10003BE64, symSize: 0x34 }
  - { offsetInCU: 0x47C38, offset: 0x47C38, size: 0x8, addend: 0x0, symName: __ZNKSt3__117basic_string_viewIcNS_11char_traitsIcEEE4dataB8ue170006Ev, symObjAddr: 0x3A58C, symBinAddr: 0x10003BE98, symSize: 0xAC }
  - { offsetInCU: 0x47C5E, offset: 0x47C5E, size: 0x8, addend: 0x0, symName: __ZNSt3__14pairIbbEC2B8ue170006IbbLPv0EEEOT_OT0_, symObjAddr: 0x3A638, symBinAddr: 0x10003BF44, symSize: 0x2BC }
  - { offsetInCU: 0x47CBC, offset: 0x47CBC, size: 0x8, addend: 0x0, symName: __ZNSt3__14pairINS_12basic_stringIcNS_11char_traitsIcEENS_9allocatorIcEEEES6_EC2B8ue170006IS6_S6_LPv0EEEOT_OT0_, symObjAddr: 0x3A8F4, symBinAddr: 0x10003C200, symSize: 0x12C }
  - { offsetInCU: 0x47D1A, offset: 0x47D1A, size: 0x8, addend: 0x0, symName: __ZNSt3__14pairINS_12basic_stringIcNS_11char_traitsIcEENS_9allocatorIcEEEES6_EC2B8ue170006IRA1_KcRKS6_LPv0EEEOT_OT0_, symObjAddr: 0x3AA20, symBinAddr: 0x10003C32C, symSize: 0x10C }
  - { offsetInCU: 0x47D7E, offset: 0x47D7E, size: 0x8, addend: 0x0, symName: __ZNSt3__112basic_stringIcNS_11char_traitsIcEENS_9allocatorIcEEEC1B8ue170006ILi0EEEPKc, symObjAddr: 0x3AB2C, symBinAddr: 0x10003C438, symSize: 0x80 }
  - { offsetInCU: 0x47DBD, offset: 0x47DBD, size: 0x8, addend: 0x0, symName: __ZNSt3__112basic_stringIcNS_11char_traitsIcEENS_9allocatorIcEEEC2B8ue170006ILi0EEEPKc, symObjAddr: 0x3ABAC, symBinAddr: 0x10003C4B8, symSize: 0x278 }
  - { offsetInCU: 0x47DFE, offset: 0x47DFE, size: 0x8, addend: 0x0, symName: __ZNSt3__111char_traitsIcE6lengthB8ue170006EPKc, symObjAddr: 0x3AE24, symBinAddr: 0x10003C730, symSize: 0x40 }
  - { offsetInCU: 0x47E21, offset: 0x47E21, size: 0x8, addend: 0x0, symName: __ZNSt3__16vectorINS0_IN5memdb9OperationENS_9allocatorIS2_EEEENS3_IS5_EEEC2B8ue170006ESt16initializer_listIS5_E, symObjAddr: 0x3AE88, symBinAddr: 0x10003C794, symSize: 0x5B0 }
  - { offsetInCU: 0x47E7A, offset: 0x47E7A, size: 0x8, addend: 0x0, symName: __ZNSt3__117__compressed_pairIPNS_6vectorIN5memdb9OperationENS_9allocatorIS3_EEEENS4_IS6_EEEC1B8ue170006IDnNS_18__default_init_tagEEEOT_OT0_, symObjAddr: 0x3B438, symBinAddr: 0x10003CD44, symSize: 0x88 }
  - { offsetInCU: 0x47ED2, offset: 0x47ED2, size: 0x8, addend: 0x0, symName: __ZNSt3__16vectorINS0_IN5memdb9OperationENS_9allocatorIS2_EEEENS3_IS5_EEE16__destroy_vectorC1B8ue170006ERS7_, symObjAddr: 0x3B77C, symBinAddr: 0x10003D088, symSize: 0x80 }
  - { offsetInCU: 0x47F0B, offset: 0x47F0B, size: 0x8, addend: 0x0, symName: __ZNKSt16initializer_listINSt3__16vectorIN5memdb9OperationENS0_9allocatorIS3_EEEEE4sizeB8ue170006Ev, symObjAddr: 0x3B7FC, symBinAddr: 0x10003D108, symSize: 0xB0 }
  - { offsetInCU: 0x47F31, offset: 0x47F31, size: 0x8, addend: 0x0, symName: __ZNSt3__16vectorINS0_IN5memdb9OperationENS_9allocatorIS2_EEEENS3_IS5_EEE11__vallocateB8ue170006Em, symObjAddr: 0x3B8AC, symBinAddr: 0x10003D1B8, symSize: 0x5F0 }
  - { offsetInCU: 0x47F7B, offset: 0x47F7B, size: 0x8, addend: 0x0, symName: __ZNSt3__16vectorINS0_IN5memdb9OperationENS_9allocatorIS2_EEEENS3_IS5_EEE18__construct_at_endIPKS5_SA_EEvT_T0_m, symObjAddr: 0x3BE9C, symBinAddr: 0x10003D7A8, symSize: 0x494 }
  - { offsetInCU: 0x47FF9, offset: 0x47FF9, size: 0x8, addend: 0x0, symName: __ZNKSt16initializer_listINSt3__16vectorIN5memdb9OperationENS0_9allocatorIS3_EEEEE5beginB8ue170006Ev, symObjAddr: 0x3C330, symBinAddr: 0x10003DC3C, symSize: 0xAC }
  - { offsetInCU: 0x4801F, offset: 0x4801F, size: 0x8, addend: 0x0, symName: __ZNKSt16initializer_listINSt3__16vectorIN5memdb9OperationENS0_9allocatorIS3_EEEEE3endB8ue170006Ev, symObjAddr: 0x3C3DC, symBinAddr: 0x10003DCE8, symSize: 0x1C8 }
  - { offsetInCU: 0x48045, offset: 0x48045, size: 0x8, addend: 0x0, symName: __ZNSt3__128__exception_guard_exceptionsINS_6vectorINS1_IN5memdb9OperationENS_9allocatorIS3_EEEENS4_IS6_EEE16__destroy_vectorEE10__completeB8ue170006Ev, symObjAddr: 0x3C5A4, symBinAddr: 0x10003DEB0, symSize: 0xD8 }
  - { offsetInCU: 0x4806B, offset: 0x4806B, size: 0x8, addend: 0x0, symName: __ZNSt3__128__exception_guard_exceptionsINS_6vectorINS1_IN5memdb9OperationENS_9allocatorIS3_EEEENS4_IS6_EEE16__destroy_vectorEED1B8ue170006Ev, symObjAddr: 0x3C67C, symBinAddr: 0x10003DF88, symSize: 0x78 }
  - { offsetInCU: 0x48095, offset: 0x48095, size: 0x8, addend: 0x0, symName: __ZNSt3__117__compressed_pairIPNS_6vectorIN5memdb9OperationENS_9allocatorIS3_EEEENS4_IS6_EEEC2B8ue170006IDnNS_18__default_init_tagEEEOT_OT0_, symObjAddr: 0x3C6F4, symBinAddr: 0x10003E000, symSize: 0x140 }
  - { offsetInCU: 0x480ED, offset: 0x480ED, size: 0x8, addend: 0x0, symName: __ZNSt3__122__compressed_pair_elemIPNS_6vectorIN5memdb9OperationENS_9allocatorIS3_EEEELi0ELb0EEC2B8ue170006IDnvEEOT_, symObjAddr: 0x3C834, symBinAddr: 0x10003E140, symSize: 0xBC }
  - { offsetInCU: 0x4812F, offset: 0x4812F, size: 0x8, addend: 0x0, symName: __ZNSt3__122__compressed_pair_elemINS_9allocatorINS_6vectorIN5memdb9OperationENS1_IS4_EEEEEELi1ELb1EEC2B8ue170006ENS_18__default_init_tagE, symObjAddr: 0x3C8F0, symBinAddr: 0x10003E1FC, symSize: 0x84 }
  - { offsetInCU: 0x48163, offset: 0x48163, size: 0x8, addend: 0x0, symName: __ZNSt3__19allocatorINS_6vectorIN5memdb9OperationENS0_IS3_EEEEEC2B8ue170006Ev, symObjAddr: 0x3C974, symBinAddr: 0x10003E280, symSize: 0x84 }
  - { offsetInCU: 0x4818D, offset: 0x4818D, size: 0x8, addend: 0x0, symName: __ZNSt3__116__non_trivial_ifILb1ENS_9allocatorINS_6vectorIN5memdb9OperationENS1_IS4_EEEEEEEC2B8ue170006Ev, symObjAddr: 0x3C9F8, symBinAddr: 0x10003E304, symSize: 0x54 }
  - { offsetInCU: 0x481B7, offset: 0x481B7, size: 0x8, addend: 0x0, symName: __ZNSt3__128__exception_guard_exceptionsINS_6vectorINS1_IN5memdb9OperationENS_9allocatorIS3_EEEENS4_IS6_EEE16__destroy_vectorEEC1B8ue170006ES9_, symObjAddr: 0x3CA4C, symBinAddr: 0x10003E358, symSize: 0x28C }
  - { offsetInCU: 0x481F4, offset: 0x481F4, size: 0x8, addend: 0x0, symName: __ZNSt3__128__exception_guard_exceptionsINS_6vectorINS1_IN5memdb9OperationENS_9allocatorIS3_EEEENS4_IS6_EEE16__destroy_vectorEEC2B8ue170006ES9_, symObjAddr: 0x3CCD8, symBinAddr: 0x10003E5E4, symSize: 0x2BC }
  - { offsetInCU: 0x48231, offset: 0x48231, size: 0x8, addend: 0x0, symName: __ZNSt3__16vectorINS0_IN5memdb9OperationENS_9allocatorIS2_EEEENS3_IS5_EEE16__destroy_vectorC2B8ue170006ERS7_, symObjAddr: 0x3CF94, symBinAddr: 0x10003E8A0, symSize: 0x108 }
  - { offsetInCU: 0x4826A, offset: 0x4826A, size: 0x8, addend: 0x0, symName: __ZNKSt3__16vectorINS0_IN5memdb9OperationENS_9allocatorIS2_EEEENS3_IS5_EEE8max_sizeEv, symObjAddr: 0x3D09C, symBinAddr: 0x10003E9A8, symSize: 0x3B8 }
  - { offsetInCU: 0x48293, offset: 0x48293, size: 0x8, addend: 0x0, symName: __ZNKSt3__16vectorINS0_IN5memdb9OperationENS_9allocatorIS2_EEEENS3_IS5_EEE20__throw_length_errorB8ue170006Ev, symObjAddr: 0x3D454, symBinAddr: 0x10003ED60, symSize: 0x80 }
  - { offsetInCU: 0x482B9, offset: 0x482B9, size: 0x8, addend: 0x0, symName: __ZNSt3__16vectorINS0_IN5memdb9OperationENS_9allocatorIS2_EEEENS3_IS5_EEE7__allocB8ue170006Ev, symObjAddr: 0x3D724, symBinAddr: 0x10003F030, symSize: 0xE4 }
  - { offsetInCU: 0x482DF, offset: 0x482DF, size: 0x8, addend: 0x0, symName: __ZNSt3__16vectorINS0_IN5memdb9OperationENS_9allocatorIS2_EEEENS3_IS5_EEE9__end_capB8ue170006Ev, symObjAddr: 0x3D808, symBinAddr: 0x10003F114, symSize: 0x100 }
  - { offsetInCU: 0x48305, offset: 0x48305, size: 0x8, addend: 0x0, symName: __ZNKSt3__16vectorINS0_IN5memdb9OperationENS_9allocatorIS2_EEEENS3_IS5_EEE14__annotate_newB8ue170006Em, symObjAddr: 0x3D908, symBinAddr: 0x10003F214, symSize: 0x378 }
  - { offsetInCU: 0x48346, offset: 0x48346, size: 0x8, addend: 0x0, symName: __ZNSt3__116allocator_traitsINS_9allocatorINS_6vectorIN5memdb9OperationENS1_IS4_EEEEEEE8max_sizeB8ue170006IS7_vvEEmRKS7_, symObjAddr: 0x3DC80, symBinAddr: 0x10003F58C, symSize: 0x54 }
  - { offsetInCU: 0x48371, offset: 0x48371, size: 0x8, addend: 0x0, symName: __ZNKSt3__16vectorINS0_IN5memdb9OperationENS_9allocatorIS2_EEEENS3_IS5_EEE7__allocB8ue170006Ev, symObjAddr: 0x3DCD4, symBinAddr: 0x10003F5E0, symSize: 0xE4 }
  - { offsetInCU: 0x48397, offset: 0x48397, size: 0x8, addend: 0x0, symName: __ZNKSt3__117__compressed_pairIPNS_6vectorIN5memdb9OperationENS_9allocatorIS3_EEEENS4_IS6_EEE6secondB8ue170006Ev, symObjAddr: 0x3DDB8, symBinAddr: 0x10003F6C4, symSize: 0x108 }
  - { offsetInCU: 0x483BD, offset: 0x483BD, size: 0x8, addend: 0x0, symName: __ZNKSt3__122__compressed_pair_elemINS_9allocatorINS_6vectorIN5memdb9OperationENS1_IS4_EEEEEELi1ELb1EE5__getB8ue170006Ev, symObjAddr: 0x3DEC0, symBinAddr: 0x10003F7CC, symSize: 0x74 }
  - { offsetInCU: 0x483E3, offset: 0x483E3, size: 0x8, addend: 0x0, symName: __ZNSt3__19allocatorINS_6vectorIN5memdb9OperationENS0_IS3_EEEEE17allocate_at_leastB8ue170006Em, symObjAddr: 0x3E158, symBinAddr: 0x10003FA64, symSize: 0x2B8 }
  - { offsetInCU: 0x48419, offset: 0x48419, size: 0x8, addend: 0x0, symName: __ZNSt3__19allocatorINS_6vectorIN5memdb9OperationENS0_IS3_EEEEE8allocateB8ue170006Em, symObjAddr: 0x3E410, symBinAddr: 0x10003FD1C, symSize: 0xD0 }
  - { offsetInCU: 0x4844D, offset: 0x4844D, size: 0x8, addend: 0x0, symName: __ZNSt3__117__compressed_pairIPNS_6vectorIN5memdb9OperationENS_9allocatorIS3_EEEENS4_IS6_EEE6secondB8ue170006Ev, symObjAddr: 0x3E4E0, symBinAddr: 0x10003FDEC, symSize: 0x108 }
  - { offsetInCU: 0x48473, offset: 0x48473, size: 0x8, addend: 0x0, symName: __ZNSt3__122__compressed_pair_elemINS_9allocatorINS_6vectorIN5memdb9OperationENS1_IS4_EEEEEELi1ELb1EE5__getB8ue170006Ev, symObjAddr: 0x3E5E8, symBinAddr: 0x10003FEF4, symSize: 0x74 }
  - { offsetInCU: 0x48499, offset: 0x48499, size: 0x8, addend: 0x0, symName: __ZNSt3__117__compressed_pairIPNS_6vectorIN5memdb9OperationENS_9allocatorIS3_EEEENS4_IS6_EEE5firstB8ue170006Ev, symObjAddr: 0x3E65C, symBinAddr: 0x10003FF68, symSize: 0x124 }
  - { offsetInCU: 0x484BF, offset: 0x484BF, size: 0x8, addend: 0x0, symName: __ZNSt3__122__compressed_pair_elemIPNS_6vectorIN5memdb9OperationENS_9allocatorIS3_EEEELi0ELb0EE5__getB8ue170006Ev, symObjAddr: 0x3E780, symBinAddr: 0x10004008C, symSize: 0xAC }
  - { offsetInCU: 0x484E5, offset: 0x484E5, size: 0x8, addend: 0x0, symName: __ZNKSt3__16vectorINS0_IN5memdb9OperationENS_9allocatorIS2_EEEENS3_IS5_EEE31__annotate_contiguous_containerEPKvS9_S9_S9_, symObjAddr: 0x3E82C, symBinAddr: 0x100040138, symSize: 0x9C }
  - { offsetInCU: 0x48547, offset: 0x48547, size: 0x8, addend: 0x0, symName: __ZNKSt3__16vectorINS0_IN5memdb9OperationENS_9allocatorIS2_EEEENS3_IS5_EEE4dataB8ue170006Ev, symObjAddr: 0x3E8C8, symBinAddr: 0x1000401D4, symSize: 0xB0 }
  - { offsetInCU: 0x4856D, offset: 0x4856D, size: 0x8, addend: 0x0, symName: __ZNKSt3__16vectorINS0_IN5memdb9OperationENS_9allocatorIS2_EEEENS3_IS5_EEE8capacityB8ue170006Ev, symObjAddr: 0x3E978, symBinAddr: 0x100040284, symSize: 0x144 }
  - { offsetInCU: 0x48593, offset: 0x48593, size: 0x8, addend: 0x0, symName: __ZNKSt3__16vectorINS0_IN5memdb9OperationENS_9allocatorIS2_EEEENS3_IS5_EEE9__end_capB8ue170006Ev, symObjAddr: 0x3EAD0, symBinAddr: 0x1000403DC, symSize: 0x100 }
  - { offsetInCU: 0x485B9, offset: 0x485B9, size: 0x8, addend: 0x0, symName: __ZNKSt3__117__compressed_pairIPNS_6vectorIN5memdb9OperationENS_9allocatorIS3_EEEENS4_IS6_EEE5firstB8ue170006Ev, symObjAddr: 0x3EBD0, symBinAddr: 0x1000404DC, symSize: 0x124 }
  - { offsetInCU: 0x485DF, offset: 0x485DF, size: 0x8, addend: 0x0, symName: __ZNKSt3__122__compressed_pair_elemIPNS_6vectorIN5memdb9OperationENS_9allocatorIS3_EEEELi0ELb0EE5__getB8ue170006Ev, symObjAddr: 0x3ECF4, symBinAddr: 0x100040600, symSize: 0xAC }
  - { offsetInCU: 0x48623, offset: 0x48623, size: 0x8, addend: 0x0, symName: __ZNSt3__16vectorINS0_IN5memdb9OperationENS_9allocatorIS2_EEEENS3_IS5_EEE21_ConstructTransactionC1B8ue170006ERS7_m, symObjAddr: 0x3EDA0, symBinAddr: 0x1000406AC, symSize: 0x88 }
  - { offsetInCU: 0x4866B, offset: 0x4866B, size: 0x8, addend: 0x0, symName: __ZNSt3__16vectorINS0_IN5memdb9OperationENS_9allocatorIS2_EEEENS3_IS5_EEE21_ConstructTransactionD1B8ue170006Ev, symObjAddr: 0x3F15C, symBinAddr: 0x100040A68, symSize: 0x78 }
  - { offsetInCU: 0x48695, offset: 0x48695, size: 0x8, addend: 0x0, symName: __ZNSt3__16vectorINS0_IN5memdb9OperationENS_9allocatorIS2_EEEENS3_IS5_EEE21_ConstructTransactionC2B8ue170006ERS7_m, symObjAddr: 0x3F1D4, symBinAddr: 0x100040AE0, symSize: 0x3E0 }
  - { offsetInCU: 0x486DD, offset: 0x486DD, size: 0x8, addend: 0x0, symName: __ZNKSt3__16vectorINS0_IN5memdb9OperationENS_9allocatorIS2_EEEENS3_IS5_EEE19__annotate_increaseB8ue170006Em, symObjAddr: 0x3F5B4, symBinAddr: 0x100040EC0, symSize: 0x46C }
  - { offsetInCU: 0x48712, offset: 0x48712, size: 0x8, addend: 0x0, symName: __ZNKSt3__16vectorINS0_IN5memdb9OperationENS_9allocatorIS2_EEEENS3_IS5_EEE4sizeB8ue170006Ev, symObjAddr: 0x3FA20, symBinAddr: 0x10004132C, symSize: 0xF8 }
  - { offsetInCU: 0x4875C, offset: 0x4875C, size: 0x8, addend: 0x0, symName: __ZNSt3__119__unwrap_range_implIPKNS_6vectorIN5memdb9OperationENS_9allocatorIS3_EEEES8_E8__unwrapB8ue170006ES8_S8_, symObjAddr: 0x40494, symBinAddr: 0x100041DA0, symSize: 0x30C }
  - { offsetInCU: 0x48795, offset: 0x48795, size: 0x8, addend: 0x0, symName: __ZNSt3__14pairIPKNS_6vectorIN5memdb9OperationENS_9allocatorIS3_EEEES8_EC1B8ue170006IS8_S8_LPv0EEEOT_OT0_, symObjAddr: 0x407C4, symBinAddr: 0x1000420D0, symSize: 0x88 }
  - { offsetInCU: 0x487F3, offset: 0x487F3, size: 0x8, addend: 0x0, symName: __ZNSt3__118__unwrap_iter_implIPKNS_6vectorIN5memdb9OperationENS_9allocatorIS3_EEEELb1EE8__unwrapB8ue170006ES8_, symObjAddr: 0x4084C, symBinAddr: 0x100042158, symSize: 0x24 }
  - { offsetInCU: 0x48816, offset: 0x48816, size: 0x8, addend: 0x0, symName: __ZNSt3__14pairIPKNS_6vectorIN5memdb9OperationENS_9allocatorIS3_EEEES8_EC2B8ue170006IS8_S8_LPv0EEEOT_OT0_, symObjAddr: 0x40884, symBinAddr: 0x100042190, symSize: 0x210 }
  - { offsetInCU: 0x48874, offset: 0x48874, size: 0x8, addend: 0x0, symName: __ZNSt3__129_AllocatorDestroyRangeReverseINS_9allocatorINS_6vectorIN5memdb9OperationENS1_IS4_EEEEEEPS6_EC1B8ue170006ERS7_RS8_SB_, symObjAddr: 0x40CD0, symBinAddr: 0x1000425DC, symSize: 0x90 }
  - { offsetInCU: 0x488CB, offset: 0x488CB, size: 0x8, addend: 0x0, symName: __ZNSt3__116allocator_traitsINS_9allocatorINS_6vectorIN5memdb9OperationENS1_IS4_EEEEEEE9constructB8ue170006IS6_JRKS6_EvvEEvRS7_PT_DpOT0_, symObjAddr: 0x40D60, symBinAddr: 0x10004266C, symSize: 0x80 }
  - { offsetInCU: 0x4891F, offset: 0x4891F, size: 0x8, addend: 0x0, symName: __ZNSt3__128__exception_guard_exceptionsINS_29_AllocatorDestroyRangeReverseINS_9allocatorINS_6vectorIN5memdb9OperationENS2_IS5_EEEEEEPS7_EEE10__completeB8ue170006Ev, symObjAddr: 0x40DE0, symBinAddr: 0x1000426EC, symSize: 0xD8 }
  - { offsetInCU: 0x48945, offset: 0x48945, size: 0x8, addend: 0x0, symName: __ZNSt3__128__exception_guard_exceptionsINS_29_AllocatorDestroyRangeReverseINS_9allocatorINS_6vectorIN5memdb9OperationENS2_IS5_EEEEEEPS7_EEED1B8ue170006Ev, symObjAddr: 0x40EB8, symBinAddr: 0x1000427C4, symSize: 0x78 }
  - { offsetInCU: 0x4896F, offset: 0x4896F, size: 0x8, addend: 0x0, symName: __ZNSt3__128__exception_guard_exceptionsINS_29_AllocatorDestroyRangeReverseINS_9allocatorINS_6vectorIN5memdb9OperationENS2_IS5_EEEEEEPS7_EEEC1B8ue170006ESA_, symObjAddr: 0x40F30, symBinAddr: 0x10004283C, symSize: 0x84 }
  - { offsetInCU: 0x489A8, offset: 0x489A8, size: 0x8, addend: 0x0, symName: __ZNSt3__128__exception_guard_exceptionsINS_29_AllocatorDestroyRangeReverseINS_9allocatorINS_6vectorIN5memdb9OperationENS2_IS5_EEEEEEPS7_EEEC2B8ue170006ESA_, symObjAddr: 0x40FB4, symBinAddr: 0x1000428C0, symSize: 0xF8 }
  - { offsetInCU: 0x489E1, offset: 0x489E1, size: 0x8, addend: 0x0, symName: __ZNSt3__129_AllocatorDestroyRangeReverseINS_9allocatorINS_6vectorIN5memdb9OperationENS1_IS4_EEEEEEPS6_EC2B8ue170006ERS7_RS8_SB_, symObjAddr: 0x410AC, symBinAddr: 0x1000429B8, symSize: 0x20C }
  - { offsetInCU: 0x48A38, offset: 0x48A38, size: 0x8, addend: 0x0, symName: __ZNSt3__16vectorIN5memdb9OperationENS_9allocatorIS2_EEEC1ERKS5_, symObjAddr: 0x413C8, symBinAddr: 0x100042CD4, symSize: 0x80 }
  - { offsetInCU: 0x48A73, offset: 0x48A73, size: 0x8, addend: 0x0, symName: __ZNSt3__16vectorIN5memdb9OperationENS_9allocatorIS2_EEEC2ERKS5_, symObjAddr: 0x41448, symBinAddr: 0x100042D54, symSize: 0x4C0 }
  - { offsetInCU: 0x48AB0, offset: 0x48AB0, size: 0x8, addend: 0x0, symName: __ZNSt3__116allocator_traitsINS_9allocatorIN5memdb9OperationEEEE37select_on_container_copy_constructionB8ue170006IS4_vvEES4_RKS4_, symObjAddr: 0x41908, symBinAddr: 0x100043214, symSize: 0x10 }
  - { offsetInCU: 0x48AE5, offset: 0x48AE5, size: 0x8, addend: 0x0, symName: __ZNSt3__117__compressed_pairIPN5memdb9OperationENS_9allocatorIS2_EEEC1B8ue170006IDnS5_EEOT_OT0_, symObjAddr: 0x41918, symBinAddr: 0x100043224, symSize: 0x88 }
  - { offsetInCU: 0x48B3D, offset: 0x48B3D, size: 0x8, addend: 0x0, symName: __ZNSt3__16vectorIN5memdb9OperationENS_9allocatorIS2_EEE16__init_with_sizeB8ue170006IPS2_S7_EEvT_T0_m, symObjAddr: 0x419A0, symBinAddr: 0x1000432AC, symSize: 0x3EC }
  - { offsetInCU: 0x48BB9, offset: 0x48BB9, size: 0x8, addend: 0x0, symName: __ZNSt3__117__compressed_pairIPN5memdb9OperationENS_9allocatorIS2_EEEC2B8ue170006IDnS5_EEOT_OT0_, symObjAddr: 0x41D8C, symBinAddr: 0x100043698, symSize: 0x170 }
  - { offsetInCU: 0x48C11, offset: 0x48C11, size: 0x8, addend: 0x0, symName: __ZNSt3__122__compressed_pair_elemINS_9allocatorIN5memdb9OperationEEELi1ELb1EEC2B8ue170006IS4_vEEOT_, symObjAddr: 0x41EFC, symBinAddr: 0x100043808, symSize: 0x58 }
  - { offsetInCU: 0x48C53, offset: 0x48C53, size: 0x8, addend: 0x0, symName: __ZNSt3__16vectorIN5memdb9OperationENS_9allocatorIS2_EEE18__construct_at_endIPS2_S7_EEvT_T0_m, symObjAddr: 0x41F54, symBinAddr: 0x100043860, symSize: 0x494 }
  - { offsetInCU: 0x48CF5, offset: 0x48CF5, size: 0x8, addend: 0x0, symName: __ZNSt3__119__unwrap_range_implIPN5memdb9OperationES3_E8__unwrapB8ue170006ES3_S3_, symObjAddr: 0x42978, symBinAddr: 0x100044284, symSize: 0x30C }
  - { offsetInCU: 0x48D28, offset: 0x48D28, size: 0x8, addend: 0x0, symName: __ZNSt3__14pairIPN5memdb9OperationES3_EC1B8ue170006IS3_S3_LPv0EEEOT_OT0_, symObjAddr: 0x42C84, symBinAddr: 0x100044590, symSize: 0x88 }
  - { offsetInCU: 0x48D86, offset: 0x48D86, size: 0x8, addend: 0x0, symName: __ZNSt3__14pairIPN5memdb9OperationES3_EC2B8ue170006IS3_S3_LPv0EEEOT_OT0_, symObjAddr: 0x42D0C, symBinAddr: 0x100044618, symSize: 0x210 }
  - { offsetInCU: 0x48DE4, offset: 0x48DE4, size: 0x8, addend: 0x0, symName: __ZNKSt3__114__copy_trivialclB8ue170006IN5memdb9OperationES3_Li0EEENS_4pairIPT_PT0_EES6_S6_S8_, symObjAddr: 0x43C5C, symBinAddr: 0x100045568, symSize: 0x25C }
  - { offsetInCU: 0x48E50, offset: 0x48E50, size: 0x8, addend: 0x0, symName: __ZNSt3__14pairIPN5memdb9OperationES3_EC1B8ue170006IRS3_S3_LPv0EEEOT_OT0_, symObjAddr: 0x44908, symBinAddr: 0x100046214, symSize: 0x88 }
  - { offsetInCU: 0x48EAE, offset: 0x48EAE, size: 0x8, addend: 0x0, symName: __ZNSt3__14pairIPN5memdb9OperationES3_EC2B8ue170006IRS3_S3_LPv0EEEOT_OT0_, symObjAddr: 0x44990, symBinAddr: 0x10004629C, symSize: 0x210 }
  - { offsetInCU: 0x48F0C, offset: 0x48F0C, size: 0x8, addend: 0x0, symName: __ZNSt3__119__unwrap_range_implIPN5memdb9OperationES3_E8__rewrapB8ue170006ES3_S3_, symObjAddr: 0x44BA0, symBinAddr: 0x1000464AC, symSize: 0x2C }
  - { offsetInCU: 0x48F3D, offset: 0x48F3D, size: 0x8, addend: 0x0, symName: __ZNSt3__128__exception_guard_exceptionsINS_29_AllocatorDestroyRangeReverseINS_9allocatorINS_6vectorIN5memdb9OperationENS2_IS5_EEEEEEPS7_EEED2B8ue170006Ev, symObjAddr: 0x44BCC, symBinAddr: 0x1000464D8, symSize: 0x17C }
  - { offsetInCU: 0x48F67, offset: 0x48F67, size: 0x8, addend: 0x0, symName: __ZNKSt3__129_AllocatorDestroyRangeReverseINS_9allocatorINS_6vectorIN5memdb9OperationENS1_IS4_EEEEEEPS6_EclB8ue170006Ev, symObjAddr: 0x44D48, symBinAddr: 0x100046654, symSize: 0x40C }
  - { offsetInCU: 0x48F8E, offset: 0x48F8E, size: 0x8, addend: 0x0, symName: __ZNSt3__116reverse_iteratorIPNS_6vectorIN5memdb9OperationENS_9allocatorIS3_EEEEEC1B8ue170006ES7_, symObjAddr: 0x45430, symBinAddr: 0x100046D3C, symSize: 0x80 }
  - { offsetInCU: 0x48FC6, offset: 0x48FC6, size: 0x8, addend: 0x0, symName: __ZNSt3__116allocator_traitsINS_9allocatorINS_6vectorIN5memdb9OperationENS1_IS4_EEEEEEE7destroyB8ue170006IS6_vvEEvRS7_PT_, symObjAddr: 0x4554C, symBinAddr: 0x100046E58, symSize: 0x28 }
  - { offsetInCU: 0x49000, offset: 0x49000, size: 0x8, addend: 0x0, symName: __ZNSt3__116reverse_iteratorIPNS_6vectorIN5memdb9OperationENS_9allocatorIS3_EEEEEppB8ue170006Ev, symObjAddr: 0x455E0, symBinAddr: 0x100046EEC, symSize: 0x1B0 }
  - { offsetInCU: 0x49026, offset: 0x49026, size: 0x8, addend: 0x0, symName: __ZNKSt3__116reverse_iteratorIPNS_6vectorIN5memdb9OperationENS_9allocatorIS3_EEEEE4baseB8ue170006Ev, symObjAddr: 0x45790, symBinAddr: 0x10004709C, symSize: 0xB0 }
  - { offsetInCU: 0x49052, offset: 0x49052, size: 0x8, addend: 0x0, symName: __ZNSt3__119__to_address_helperINS_16reverse_iteratorIPNS_6vectorIN5memdb9OperationENS_9allocatorIS4_EEEEEEvE6__callB8ue170006ERKS9_, symObjAddr: 0x458D0, symBinAddr: 0x1000471DC, symSize: 0x70 }
  - { offsetInCU: 0x49075, offset: 0x49075, size: 0x8, addend: 0x0, symName: __ZNKSt3__116reverse_iteratorIPNS_6vectorIN5memdb9OperationENS_9allocatorIS3_EEEEEptB8ue170006Ev, symObjAddr: 0x45940, symBinAddr: 0x10004724C, symSize: 0xB8 }
  - { offsetInCU: 0x4909B, offset: 0x4909B, size: 0x8, addend: 0x0, symName: __ZNSt3__116reverse_iteratorIPNS_6vectorIN5memdb9OperationENS_9allocatorIS3_EEEEEC2B8ue170006ES7_, symObjAddr: 0x45EA0, symBinAddr: 0x1000477AC, symSize: 0x10C }
  - { offsetInCU: 0x490D3, offset: 0x490D3, size: 0x8, addend: 0x0, symName: __ZNSt3__118__unwrap_iter_implIPNS_6vectorIN5memdb9OperationENS_9allocatorIS3_EEEELb1EE8__unwrapB8ue170006ES7_, symObjAddr: 0x45FAC, symBinAddr: 0x1000478B8, symSize: 0x24 }
  - { offsetInCU: 0x490F6, offset: 0x490F6, size: 0x8, addend: 0x0, symName: __ZNSt3__118__unwrap_iter_implIPNS_6vectorIN5memdb9OperationENS_9allocatorIS3_EEEELb1EE8__rewrapB8ue170006ES7_S7_, symObjAddr: 0x45FD0, symBinAddr: 0x1000478DC, symSize: 0x140 }
  - { offsetInCU: 0x49127, offset: 0x49127, size: 0x8, addend: 0x0, symName: __ZNSt3__16vectorINS0_IN5memdb9OperationENS_9allocatorIS2_EEEENS3_IS5_EEE21_ConstructTransactionD2B8ue170006Ev, symObjAddr: 0x46110, symBinAddr: 0x100047A1C, symSize: 0x390 }
  - { offsetInCU: 0x49151, offset: 0x49151, size: 0x8, addend: 0x0, symName: __ZNKSt3__16vectorINS0_IN5memdb9OperationENS_9allocatorIS2_EEEENS3_IS5_EEE17__annotate_shrinkB8ue170006Em, symObjAddr: 0x464A0, symBinAddr: 0x100047DAC, symSize: 0x378 }
  - { offsetInCU: 0x49186, offset: 0x49186, size: 0x8, addend: 0x0, symName: __ZNSt3__128__exception_guard_exceptionsINS_6vectorINS1_IN5memdb9OperationENS_9allocatorIS3_EEEENS4_IS6_EEE16__destroy_vectorEED2B8ue170006Ev, symObjAddr: 0x46818, symBinAddr: 0x100048124, symSize: 0x17C }
  - { offsetInCU: 0x491B0, offset: 0x491B0, size: 0x8, addend: 0x0, symName: __ZNSt3__16vectorINS0_IN5memdb9OperationENS_9allocatorIS2_EEEENS3_IS5_EEE16__destroy_vectorclB8ue170006Ev, symObjAddr: 0x46994, symBinAddr: 0x1000482A0, symSize: 0x43C }
  - { offsetInCU: 0x491D6, offset: 0x491D6, size: 0x8, addend: 0x0, symName: __ZNSt3__16vectorINS0_IN5memdb9OperationENS_9allocatorIS2_EEEENS3_IS5_EEE7__clearB8ue170006Ev, symObjAddr: 0x46DD0, symBinAddr: 0x1000486DC, symSize: 0xB0 }
  - { offsetInCU: 0x491FC, offset: 0x491FC, size: 0x8, addend: 0x0, symName: __ZNKSt3__16vectorINS0_IN5memdb9OperationENS_9allocatorIS2_EEEENS3_IS5_EEE17__annotate_deleteB8ue170006Ev, symObjAddr: 0x46E80, symBinAddr: 0x10004878C, symSize: 0x388 }
  - { offsetInCU: 0x49222, offset: 0x49222, size: 0x8, addend: 0x0, symName: __ZNSt3__116allocator_traitsINS_9allocatorINS_6vectorIN5memdb9OperationENS1_IS4_EEEEEEE10deallocateB8ue170006ERS7_PS6_m, symObjAddr: 0x47208, symBinAddr: 0x100048B14, symSize: 0x34 }
  - { offsetInCU: 0x49264, offset: 0x49264, size: 0x8, addend: 0x0, symName: __ZNSt3__16vectorINS0_IN5memdb9OperationENS_9allocatorIS2_EEEENS3_IS5_EEE22__base_destruct_at_endB8ue170006EPS5_, symObjAddr: 0x4723C, symBinAddr: 0x100048B48, symSize: 0x1FC }
  - { offsetInCU: 0x492A8, offset: 0x492A8, size: 0x8, addend: 0x0, symName: __ZNSt3__19allocatorINS_6vectorIN5memdb9OperationENS0_IS3_EEEEE10deallocateB8ue170006EPS5_m, symObjAddr: 0x47438, symBinAddr: 0x100048D44, symSize: 0x7C }
  - { offsetInCU: 0x492EA, offset: 0x492EA, size: 0x8, addend: 0x0, symName: __ZNSt3__16vectorINS0_IN5memdb9OperationENS_9allocatorIS2_EEEENS3_IS5_EEED2B8ue170006Ev, symObjAddr: 0x474B4, symBinAddr: 0x100048DC0, symSize: 0x294 }
  - { offsetInCU: 0x49315, offset: 0x49315, size: 0x8, addend: 0x0, symName: __ZNSt3__117basic_string_viewIcNS_11char_traitsIcEEEC2B8ue170006EPKc, symObjAddr: 0x47748, symBinAddr: 0x100049054, symSize: 0x118 }
  - { offsetInCU: 0x4934E, offset: 0x4934E, size: 0x8, addend: 0x0, symName: __ZNSt3__112basic_stringIcNS_11char_traitsIcEENS_9allocatorIcEEEpLB8ue170006ERKS5_, symObjAddr: 0x47884, symBinAddr: 0x100049190, symSize: 0x104 }
  - { offsetInCU: 0x49383, offset: 0x49383, size: 0x8, addend: 0x0, symName: __ZNSt3__16vectorINS_12basic_stringIcNS_11char_traitsIcEENS_9allocatorIcEEEENS4_IS6_EEEC1B8ue170006Ev, symObjAddr: 0x47988, symBinAddr: 0x100049294, symSize: 0x78 }
  - { offsetInCU: 0x493AD, offset: 0x493AD, size: 0x8, addend: 0x0, symName: __ZNSt3__16vectorINS_12basic_stringIcNS_11char_traitsIcEENS_9allocatorIcEEEENS4_IS6_EEE12emplace_backIJS6_EEERS6_DpOT_, symObjAddr: 0x47A00, symBinAddr: 0x10004930C, symSize: 0x24C }
  - { offsetInCU: 0x493EF, offset: 0x493EF, size: 0x8, addend: 0x0, symName: __ZN5memdb6Parser9parseWordERKNSt3__117basic_string_viewIcNS1_11char_traitsIcEEEERi, symObjAddr: 0x47C4C, symBinAddr: 0x100049558, symSize: 0x65C }
  - { offsetInCU: 0x49452, offset: 0x49452, size: 0x8, addend: 0x0, symName: __ZN5memdb9Tokenizer14getSharedTokenINS0_8CommandTEEENSt3__110shared_ptrINS0_5TokenEEEv, symObjAddr: 0x482A8, symBinAddr: 0x100049BB4, symSize: 0x180 }
  - { offsetInCU: 0x49492, offset: 0x49492, size: 0x8, addend: 0x0, symName: __ZN5memdb9Tokenizer14getSharedTokenINS0_11SubCommandTEEENSt3__110shared_ptrINS0_5TokenEEEv, symObjAddr: 0x48428, symBinAddr: 0x100049D34, symSize: 0x180 }
  - { offsetInCU: 0x494C0, offset: 0x494C0, size: 0x8, addend: 0x0, symName: __ZN5memdb9Tokenizer14getSharedTokenINS0_10AttributeTEEENSt3__110shared_ptrINS0_5TokenEEEv, symObjAddr: 0x485A8, symBinAddr: 0x100049EB4, symSize: 0x180 }
  - { offsetInCU: 0x494EE, offset: 0x494EE, size: 0x8, addend: 0x0, symName: __ZN5memdb9Tokenizer14getSharedTokenINS0_10OperationTEEENSt3__110shared_ptrINS0_5TokenEEEv, symObjAddr: 0x48728, symBinAddr: 0x10004A034, symSize: 0x180 }
  - { offsetInCU: 0x4951C, offset: 0x4951C, size: 0x8, addend: 0x0, symName: __ZN5memdb9Tokenizer14getSharedTokenINS0_8BracketTEEENSt3__110shared_ptrINS0_5TokenEEEv, symObjAddr: 0x488A8, symBinAddr: 0x10004A1B4, symSize: 0x180 }
  - { offsetInCU: 0x4954A, offset: 0x4954A, size: 0x8, addend: 0x0, symName: __ZN5memdb9Tokenizer14getSharedTokenINS0_11ColumnTypeTEEENSt3__110shared_ptrINS0_5TokenEEEv, symObjAddr: 0x48A28, symBinAddr: 0x10004A334, symSize: 0x180 }
  - { offsetInCU: 0x49578, offset: 0x49578, size: 0x8, addend: 0x0, symName: __ZN5memdb9Tokenizer14getSharedTokenINS0_7DBTypeTEEENSt3__110shared_ptrINS0_5TokenEEEv, symObjAddr: 0x48BA8, symBinAddr: 0x10004A4B4, symSize: 0x180 }
  - { offsetInCU: 0x495A6, offset: 0x495A6, size: 0x8, addend: 0x0, symName: __ZN5memdb9Tokenizer14getSharedTokenINS0_6OtherTEEENSt3__110shared_ptrINS0_5TokenEEEv, symObjAddr: 0x48D28, symBinAddr: 0x10004A634, symSize: 0x180 }
  - { offsetInCU: 0x495D4, offset: 0x495D4, size: 0x8, addend: 0x0, symName: __ZN5memdb9Tokenizer14getSharedTokenINS0_7StringTEEENSt3__110shared_ptrINS0_5TokenEEEv, symObjAddr: 0x48EA8, symBinAddr: 0x10004A7B4, symSize: 0x180 }
  - { offsetInCU: 0x49602, offset: 0x49602, size: 0x8, addend: 0x0, symName: __ZNSt3__110shared_ptrIN5memdb9Tokenizer5TokenEED1B8ue170006Ev, symObjAddr: 0x49028, symBinAddr: 0x10004A934, symSize: 0x78 }
  - { offsetInCU: 0x4962C, offset: 0x4962C, size: 0x8, addend: 0x0, symName: __ZNSt3__16vectorINS_10shared_ptrIN5memdb9Tokenizer5TokenEEENS_9allocatorIS5_EEEC1B8ue170006ESt16initializer_listIS5_E, symObjAddr: 0x490A0, symBinAddr: 0x10004A9AC, symSize: 0x29C }
  - { offsetInCU: 0x4966C, offset: 0x4966C, size: 0x8, addend: 0x0, symName: __ZN5memdb9Tokenizer8TokenizeENSt3__16vectorINS1_12basic_stringIcNS1_11char_traitsIcEENS1_9allocatorIcEEEENS6_IS8_EEEEi, symObjAddr: 0x4933C, symBinAddr: 0x10004AC48, symSize: 0xB20 }
  - { offsetInCU: 0x4971F, offset: 0x4971F, size: 0x8, addend: 0x0, symName: __ZNSt3__16vectorINS_12basic_stringIcNS_11char_traitsIcEENS_9allocatorIcEEEENS4_IS6_EEEC1ERKS8_, symObjAddr: 0x49E5C, symBinAddr: 0x10004B768, symSize: 0x80 }
  - { offsetInCU: 0x4975A, offset: 0x4975A, size: 0x8, addend: 0x0, symName: __ZNSt3__16vectorINS_12basic_stringIcNS_11char_traitsIcEENS_9allocatorIcEEEENS4_IS6_EEED1B8ue170006Ev, symObjAddr: 0x49EDC, symBinAddr: 0x10004B7E8, symSize: 0x78 }
  - { offsetInCU: 0x49784, offset: 0x49784, size: 0x8, addend: 0x0, symName: __ZN5memdb9TokenizerD1Ev, symObjAddr: 0x49F54, symBinAddr: 0x10004B860, symSize: 0x78 }
  - { offsetInCU: 0x497B0, offset: 0x497B0, size: 0x8, addend: 0x0, symName: __ZNKSt3__16vectorINS_10shared_ptrIN5memdb9Tokenizer5TokenEEENS_9allocatorIS5_EEE5emptyB8ue170006Ev, symObjAddr: 0x49FCC, symBinAddr: 0x10004B8D8, symSize: 0xF8 }
  - { offsetInCU: 0x49864, offset: 0x49864, size: 0x8, addend: 0x0, symName: __ZN5memdb6parser12ColumnParser5ParseERKNSt3__16vectorINS2_10shared_ptrINS_9Tokenizer5TokenEEENS2_9allocatorIS7_EEEEll, symObjAddr: 0x4A0C4, symBinAddr: 0x10004B9D0, symSize: 0x77C }
  - { offsetInCU: 0x498CB, offset: 0x498CB, size: 0x8, addend: 0x0, symName: __ZNKSt3__16vectorINS_10shared_ptrIN5memdb9Tokenizer5TokenEEENS_9allocatorIS5_EEE4sizeB8ue170006Ev, symObjAddr: 0x4A840, symBinAddr: 0x10004C14C, symSize: 0xF8 }
  - { offsetInCU: 0x498F7, offset: 0x498F7, size: 0x8, addend: 0x0, symName: __ZN5memdb6parser18ColumnDescriptionsD1Ev, symObjAddr: 0x4A938, symBinAddr: 0x10004C244, symSize: 0x78 }
  - { offsetInCU: 0x49923, offset: 0x49923, size: 0x8, addend: 0x0, symName: __ZNSt3__16vectorINS_10shared_ptrIN5memdb9Tokenizer5TokenEEENS_9allocatorIS5_EEED1B8ue170006Ev, symObjAddr: 0x4A9B0, symBinAddr: 0x10004C2BC, symSize: 0x78 }
  - { offsetInCU: 0x4994D, offset: 0x4994D, size: 0x8, addend: 0x0, symName: __ZNSt3__112basic_stringIcNS_11char_traitsIcEENS_9allocatorIcEEE6appendB8ue170006ERKS5_, symObjAddr: 0x4AA28, symBinAddr: 0x10004C334, symSize: 0x12C }
  - { offsetInCU: 0x49982, offset: 0x49982, size: 0x8, addend: 0x0, symName: __ZNSt3__16vectorINS_12basic_stringIcNS_11char_traitsIcEENS_9allocatorIcEEEENS4_IS6_EEEC2B8ue170006Ev, symObjAddr: 0x4AB54, symBinAddr: 0x10004C460, symSize: 0x340 }
  - { offsetInCU: 0x499AD, offset: 0x499AD, size: 0x8, addend: 0x0, symName: __ZNSt3__117__compressed_pairIPNS_12basic_stringIcNS_11char_traitsIcEENS_9allocatorIcEEEENS4_IS6_EEEC1B8ue170006IDnNS_18__default_init_tagEEEOT_OT0_, symObjAddr: 0x4AE94, symBinAddr: 0x10004C7A0, symSize: 0x88 }
  - { offsetInCU: 0x49A05, offset: 0x49A05, size: 0x8, addend: 0x0, symName: __ZNSt3__117__compressed_pairIPNS_12basic_stringIcNS_11char_traitsIcEENS_9allocatorIcEEEENS4_IS6_EEEC2B8ue170006IDnNS_18__default_init_tagEEEOT_OT0_, symObjAddr: 0x4AF1C, symBinAddr: 0x10004C828, symSize: 0x140 }
  - { offsetInCU: 0x49A5D, offset: 0x49A5D, size: 0x8, addend: 0x0, symName: __ZNSt3__122__compressed_pair_elemIPNS_12basic_stringIcNS_11char_traitsIcEENS_9allocatorIcEEEELi0ELb0EEC2B8ue170006IDnvEEOT_, symObjAddr: 0x4B05C, symBinAddr: 0x10004C968, symSize: 0xBC }
  - { offsetInCU: 0x49A9F, offset: 0x49A9F, size: 0x8, addend: 0x0, symName: __ZNSt3__122__compressed_pair_elemINS_9allocatorINS_12basic_stringIcNS_11char_traitsIcEENS1_IcEEEEEELi1ELb1EEC2B8ue170006ENS_18__default_init_tagE, symObjAddr: 0x4B118, symBinAddr: 0x10004CA24, symSize: 0x84 }
  - { offsetInCU: 0x49AD3, offset: 0x49AD3, size: 0x8, addend: 0x0, symName: __ZNSt3__19allocatorINS_12basic_stringIcNS_11char_traitsIcEENS0_IcEEEEEC2B8ue170006Ev, symObjAddr: 0x4B19C, symBinAddr: 0x10004CAA8, symSize: 0x84 }
  - { offsetInCU: 0x49AFD, offset: 0x49AFD, size: 0x8, addend: 0x0, symName: __ZNSt3__116__non_trivial_ifILb1ENS_9allocatorINS_12basic_stringIcNS_11char_traitsIcEENS1_IcEEEEEEEC2B8ue170006Ev, symObjAddr: 0x4B220, symBinAddr: 0x10004CB2C, symSize: 0x54 }
  - { offsetInCU: 0x49B27, offset: 0x49B27, size: 0x8, addend: 0x0, symName: __ZNSt3__16vectorINS_12basic_stringIcNS_11char_traitsIcEENS_9allocatorIcEEEENS4_IS6_EEE9__end_capB8ue170006Ev, symObjAddr: 0x4B274, symBinAddr: 0x10004CB80, symSize: 0x100 }
  - { offsetInCU: 0x49B4D, offset: 0x49B4D, size: 0x8, addend: 0x0, symName: __ZNSt3__16vectorINS_12basic_stringIcNS_11char_traitsIcEENS_9allocatorIcEEEENS4_IS6_EEE22__construct_one_at_endB8ue170006IJS6_EEEvDpOT_, symObjAddr: 0x4B374, symBinAddr: 0x10004CC80, symSize: 0x550 }
  - { offsetInCU: 0x49BA2, offset: 0x49BA2, size: 0x8, addend: 0x0, symName: __ZNSt3__16vectorINS_12basic_stringIcNS_11char_traitsIcEENS_9allocatorIcEEEENS4_IS6_EEE24__emplace_back_slow_pathIJS6_EEEvDpOT_, symObjAddr: 0x4B8C4, symBinAddr: 0x10004D1D0, symSize: 0x5B0 }
  - { offsetInCU: 0x49C09, offset: 0x49C09, size: 0x8, addend: 0x0, symName: __ZNSt3__16vectorINS_12basic_stringIcNS_11char_traitsIcEENS_9allocatorIcEEEENS4_IS6_EEE4backB8ue170006Ev, symObjAddr: 0x4BE74, symBinAddr: 0x10004D780, symSize: 0x18C }
  - { offsetInCU: 0x49C2F, offset: 0x49C2F, size: 0x8, addend: 0x0, symName: __ZNSt3__117__compressed_pairIPNS_12basic_stringIcNS_11char_traitsIcEENS_9allocatorIcEEEENS4_IS6_EEE5firstB8ue170006Ev, symObjAddr: 0x4C000, symBinAddr: 0x10004D90C, symSize: 0x124 }
  - { offsetInCU: 0x49C55, offset: 0x49C55, size: 0x8, addend: 0x0, symName: __ZNSt3__122__compressed_pair_elemIPNS_12basic_stringIcNS_11char_traitsIcEENS_9allocatorIcEEEELi0ELb0EE5__getB8ue170006Ev, symObjAddr: 0x4C124, symBinAddr: 0x10004DA30, symSize: 0xAC }
  - { offsetInCU: 0x49C99, offset: 0x49C99, size: 0x8, addend: 0x0, symName: __ZNSt3__16vectorINS_12basic_stringIcNS_11char_traitsIcEENS_9allocatorIcEEEENS4_IS6_EEE21_ConstructTransactionC1B8ue170006ERS8_m, symObjAddr: 0x4C1D0, symBinAddr: 0x10004DADC, symSize: 0x88 }
  - { offsetInCU: 0x49CE1, offset: 0x49CE1, size: 0x8, addend: 0x0, symName: __ZNSt3__116allocator_traitsINS_9allocatorINS_12basic_stringIcNS_11char_traitsIcEENS1_IcEEEEEEE9constructB8ue170006IS6_JS6_EvvEEvRS7_PT_DpOT0_, symObjAddr: 0x4C258, symBinAddr: 0x10004DB64, symSize: 0x80 }
  - { offsetInCU: 0x49D35, offset: 0x49D35, size: 0x8, addend: 0x0, symName: __ZNSt3__16vectorINS_12basic_stringIcNS_11char_traitsIcEENS_9allocatorIcEEEENS4_IS6_EEE7__allocB8ue170006Ev, symObjAddr: 0x4C2D8, symBinAddr: 0x10004DBE4, symSize: 0xE4 }
  - { offsetInCU: 0x49D5B, offset: 0x49D5B, size: 0x8, addend: 0x0, symName: __ZNSt3__16vectorINS_12basic_stringIcNS_11char_traitsIcEENS_9allocatorIcEEEENS4_IS6_EEE21_ConstructTransactionD1B8ue170006Ev, symObjAddr: 0x4C3D0, symBinAddr: 0x10004DCDC, symSize: 0x78 }
  - { offsetInCU: 0x49D85, offset: 0x49D85, size: 0x8, addend: 0x0, symName: __ZNSt3__16vectorINS_12basic_stringIcNS_11char_traitsIcEENS_9allocatorIcEEEENS4_IS6_EEE21_ConstructTransactionC2B8ue170006ERS8_m, symObjAddr: 0x4C448, symBinAddr: 0x10004DD54, symSize: 0x3E0 }
  - { offsetInCU: 0x49DCD, offset: 0x49DCD, size: 0x8, addend: 0x0, symName: __ZNKSt3__16vectorINS_12basic_stringIcNS_11char_traitsIcEENS_9allocatorIcEEEENS4_IS6_EEE19__annotate_increaseB8ue170006Em, symObjAddr: 0x4C828, symBinAddr: 0x10004E134, symSize: 0x46C }
  - { offsetInCU: 0x49E02, offset: 0x49E02, size: 0x8, addend: 0x0, symName: __ZNKSt3__16vectorINS_12basic_stringIcNS_11char_traitsIcEENS_9allocatorIcEEEENS4_IS6_EEE31__annotate_contiguous_containerEPKvSA_SA_SA_, symObjAddr: 0x4CC94, symBinAddr: 0x10004E5A0, symSize: 0x9C }
  - { offsetInCU: 0x49E64, offset: 0x49E64, size: 0x8, addend: 0x0, symName: __ZNKSt3__16vectorINS_12basic_stringIcNS_11char_traitsIcEENS_9allocatorIcEEEENS4_IS6_EEE4dataB8ue170006Ev, symObjAddr: 0x4CD30, symBinAddr: 0x10004E63C, symSize: 0xB0 }
  - { offsetInCU: 0x49E8A, offset: 0x49E8A, size: 0x8, addend: 0x0, symName: __ZNKSt3__16vectorINS_12basic_stringIcNS_11char_traitsIcEENS_9allocatorIcEEEENS4_IS6_EEE8capacityB8ue170006Ev, symObjAddr: 0x4CDE0, symBinAddr: 0x10004E6EC, symSize: 0x144 }
  - { offsetInCU: 0x49EB0, offset: 0x49EB0, size: 0x8, addend: 0x0, symName: __ZNKSt3__16vectorINS_12basic_stringIcNS_11char_traitsIcEENS_9allocatorIcEEEENS4_IS6_EEE9__end_capB8ue170006Ev, symObjAddr: 0x4CF24, symBinAddr: 0x10004E830, symSize: 0x100 }
  - { offsetInCU: 0x49ED6, offset: 0x49ED6, size: 0x8, addend: 0x0, symName: __ZNKSt3__117__compressed_pairIPNS_12basic_stringIcNS_11char_traitsIcEENS_9allocatorIcEEEENS4_IS6_EEE5firstB8ue170006Ev, symObjAddr: 0x4D024, symBinAddr: 0x10004E930, symSize: 0x124 }
  - { offsetInCU: 0x49EFC, offset: 0x49EFC, size: 0x8, addend: 0x0, symName: __ZNKSt3__122__compressed_pair_elemIPNS_12basic_stringIcNS_11char_traitsIcEENS_9allocatorIcEEEELi0ELb0EE5__getB8ue170006Ev, symObjAddr: 0x4D148, symBinAddr: 0x10004EA54, symSize: 0xAC }
  - { offsetInCU: 0x49F22, offset: 0x49F22, size: 0x8, addend: 0x0, symName: __ZNSt3__117__compressed_pairIPNS_12basic_stringIcNS_11char_traitsIcEENS_9allocatorIcEEEENS4_IS6_EEE6secondB8ue170006Ev, symObjAddr: 0x4D304, symBinAddr: 0x10004EC10, symSize: 0x108 }
  - { offsetInCU: 0x49F48, offset: 0x49F48, size: 0x8, addend: 0x0, symName: __ZNSt3__122__compressed_pair_elemINS_9allocatorINS_12basic_stringIcNS_11char_traitsIcEENS1_IcEEEEEELi1ELb1EE5__getB8ue170006Ev, symObjAddr: 0x4D40C, symBinAddr: 0x10004ED18, symSize: 0x74 }
  - { offsetInCU: 0x49F6E, offset: 0x49F6E, size: 0x8, addend: 0x0, symName: __ZNSt3__16vectorINS_12basic_stringIcNS_11char_traitsIcEENS_9allocatorIcEEEENS4_IS6_EEE21_ConstructTransactionD2B8ue170006Ev, symObjAddr: 0x4D480, symBinAddr: 0x10004ED8C, symSize: 0x390 }
  - { offsetInCU: 0x49F98, offset: 0x49F98, size: 0x8, addend: 0x0, symName: __ZNKSt3__16vectorINS_12basic_stringIcNS_11char_traitsIcEENS_9allocatorIcEEEENS4_IS6_EEE17__annotate_shrinkB8ue170006Em, symObjAddr: 0x4D810, symBinAddr: 0x10004F11C, symSize: 0x378 }
  - { offsetInCU: 0x49FCD, offset: 0x49FCD, size: 0x8, addend: 0x0, symName: __ZNKSt3__16vectorINS_12basic_stringIcNS_11char_traitsIcEENS_9allocatorIcEEEENS4_IS6_EEE11__recommendB8ue170006Em, symObjAddr: 0x4DB88, symBinAddr: 0x10004F494, symSize: 0x45C }
  - { offsetInCU: 0x4A029, offset: 0x4A029, size: 0x8, addend: 0x0, symName: __ZNSt3__114__split_bufferINS_12basic_stringIcNS_11char_traitsIcEENS_9allocatorIcEEEERNS4_IS6_EEEC1EmmS8_, symObjAddr: 0x4DFE4, symBinAddr: 0x10004F8F0, symSize: 0x90 }
  - { offsetInCU: 0x4A07F, offset: 0x4A07F, size: 0x8, addend: 0x0, symName: __ZNSt3__114__split_bufferINS_12basic_stringIcNS_11char_traitsIcEENS_9allocatorIcEEEERNS4_IS6_EEED1Ev, symObjAddr: 0x4E8D0, symBinAddr: 0x1000501DC, symSize: 0x78 }
  - { offsetInCU: 0x4A0AB, offset: 0x4A0AB, size: 0x8, addend: 0x0, symName: __ZNKSt3__16vectorINS_12basic_stringIcNS_11char_traitsIcEENS_9allocatorIcEEEENS4_IS6_EEE8max_sizeEv, symObjAddr: 0x4E948, symBinAddr: 0x100050254, symSize: 0x3B8 }
  - { offsetInCU: 0x4A0D4, offset: 0x4A0D4, size: 0x8, addend: 0x0, symName: __ZNKSt3__16vectorINS_12basic_stringIcNS_11char_traitsIcEENS_9allocatorIcEEEENS4_IS6_EEE20__throw_length_errorB8ue170006Ev, symObjAddr: 0x4ED00, symBinAddr: 0x10005060C, symSize: 0x80 }
  - { offsetInCU: 0x4A106, offset: 0x4A106, size: 0x8, addend: 0x0, symName: __ZNSt3__116allocator_traitsINS_9allocatorINS_12basic_stringIcNS_11char_traitsIcEENS1_IcEEEEEEE8max_sizeB8ue170006IS7_vvEEmRKS7_, symObjAddr: 0x4EE84, symBinAddr: 0x100050790, symSize: 0x54 }
  - { offsetInCU: 0x4A131, offset: 0x4A131, size: 0x8, addend: 0x0, symName: __ZNKSt3__16vectorINS_12basic_stringIcNS_11char_traitsIcEENS_9allocatorIcEEEENS4_IS6_EEE7__allocB8ue170006Ev, symObjAddr: 0x4EED8, symBinAddr: 0x1000507E4, symSize: 0xE4 }
  - { offsetInCU: 0x4A157, offset: 0x4A157, size: 0x8, addend: 0x0, symName: __ZNKSt3__117__compressed_pairIPNS_12basic_stringIcNS_11char_traitsIcEENS_9allocatorIcEEEENS4_IS6_EEE6secondB8ue170006Ev, symObjAddr: 0x4EFBC, symBinAddr: 0x1000508C8, symSize: 0x108 }
  - { offsetInCU: 0x4A17D, offset: 0x4A17D, size: 0x8, addend: 0x0, symName: __ZNKSt3__122__compressed_pair_elemINS_9allocatorINS_12basic_stringIcNS_11char_traitsIcEENS1_IcEEEEEELi1ELb1EE5__getB8ue170006Ev, symObjAddr: 0x4F0C4, symBinAddr: 0x1000509D0, symSize: 0x74 }
  - { offsetInCU: 0x4A1A3, offset: 0x4A1A3, size: 0x8, addend: 0x0, symName: __ZNSt3__114__split_bufferINS_12basic_stringIcNS_11char_traitsIcEENS_9allocatorIcEEEERNS4_IS6_EEEC2EmmS8_, symObjAddr: 0x4F3F8, symBinAddr: 0x100050D04, symSize: 0x7E8 }
  - { offsetInCU: 0x4A21E, offset: 0x4A21E, size: 0x8, addend: 0x0, symName: __ZNSt3__117__compressed_pairIPNS_12basic_stringIcNS_11char_traitsIcEENS_9allocatorIcEEEERNS4_IS6_EEEC1B8ue170006IDnS9_EEOT_OT0_, symObjAddr: 0x4FBE0, symBinAddr: 0x1000514EC, symSize: 0x88 }
  - { offsetInCU: 0x4A276, offset: 0x4A276, size: 0x8, addend: 0x0, symName: __ZNSt3__114__split_bufferINS_12basic_stringIcNS_11char_traitsIcEENS_9allocatorIcEEEERNS4_IS6_EEE7__allocB8ue170006Ev, symObjAddr: 0x4FEB8, symBinAddr: 0x1000517C4, symSize: 0xE4 }
  - { offsetInCU: 0x4A29C, offset: 0x4A29C, size: 0x8, addend: 0x0, symName: __ZNSt3__114__split_bufferINS_12basic_stringIcNS_11char_traitsIcEENS_9allocatorIcEEEERNS4_IS6_EEE9__end_capB8ue170006Ev, symObjAddr: 0x4FF9C, symBinAddr: 0x1000518A8, symSize: 0x100 }
  - { offsetInCU: 0x4A2C2, offset: 0x4A2C2, size: 0x8, addend: 0x0, symName: __ZNSt3__117__compressed_pairIPNS_12basic_stringIcNS_11char_traitsIcEENS_9allocatorIcEEEERNS4_IS6_EEEC2B8ue170006IDnS9_EEOT_OT0_, symObjAddr: 0x5009C, symBinAddr: 0x1000519A8, symSize: 0x198 }
  - { offsetInCU: 0x4A31A, offset: 0x4A31A, size: 0x8, addend: 0x0, symName: __ZNSt3__122__compressed_pair_elemIRNS_9allocatorINS_12basic_stringIcNS_11char_traitsIcEENS1_IcEEEEEELi1ELb0EEC2B8ue170006IS8_vEEOT_, symObjAddr: 0x50234, symBinAddr: 0x100051B40, symSize: 0xEC }
  - { offsetInCU: 0x4A35C, offset: 0x4A35C, size: 0x8, addend: 0x0, symName: __ZNSt3__19allocatorINS_12basic_stringIcNS_11char_traitsIcEENS0_IcEEEEE17allocate_at_leastB8ue170006Em, symObjAddr: 0x50544, symBinAddr: 0x100051E50, symSize: 0x2B8 }
  - { offsetInCU: 0x4A392, offset: 0x4A392, size: 0x8, addend: 0x0, symName: __ZNSt3__19allocatorINS_12basic_stringIcNS_11char_traitsIcEENS0_IcEEEEE8allocateB8ue170006Em, symObjAddr: 0x507FC, symBinAddr: 0x100052108, symSize: 0xD0 }
  - { offsetInCU: 0x4A3C6, offset: 0x4A3C6, size: 0x8, addend: 0x0, symName: __ZNSt3__117__compressed_pairIPNS_12basic_stringIcNS_11char_traitsIcEENS_9allocatorIcEEEERNS4_IS6_EEE6secondB8ue170006Ev, symObjAddr: 0x508CC, symBinAddr: 0x1000521D8, symSize: 0x110 }
  - { offsetInCU: 0x4A3EC, offset: 0x4A3EC, size: 0x8, addend: 0x0, symName: __ZNSt3__122__compressed_pair_elemIRNS_9allocatorINS_12basic_stringIcNS_11char_traitsIcEENS1_IcEEEEEELi1ELb0EE5__getB8ue170006Ev, symObjAddr: 0x509DC, symBinAddr: 0x1000522E8, symSize: 0xD8 }
  - { offsetInCU: 0x4A412, offset: 0x4A412, size: 0x8, addend: 0x0, symName: __ZNSt3__117__compressed_pairIPNS_12basic_stringIcNS_11char_traitsIcEENS_9allocatorIcEEEERNS4_IS6_EEE5firstB8ue170006Ev, symObjAddr: 0x50AB4, symBinAddr: 0x1000523C0, symSize: 0x124 }
  - { offsetInCU: 0x4A438, offset: 0x4A438, size: 0x8, addend: 0x0, symName: __ZNKSt3__16vectorINS_12basic_stringIcNS_11char_traitsIcEENS_9allocatorIcEEEENS4_IS6_EEE17__annotate_deleteB8ue170006Ev, symObjAddr: 0x50BD8, symBinAddr: 0x1000524E4, symSize: 0x388 }
  - { offsetInCU: 0x4A45E, offset: 0x4A45E, size: 0x8, addend: 0x0, symName: __ZNSt3__116reverse_iteratorIPNS_12basic_stringIcNS_11char_traitsIcEENS_9allocatorIcEEEEEC1B8ue170006ES7_, symObjAddr: 0x51538, symBinAddr: 0x100052E44, symSize: 0x80 }
  - { offsetInCU: 0x4A496, offset: 0x4A496, size: 0x8, addend: 0x0, symName: __ZNKSt3__116reverse_iteratorIPNS_12basic_stringIcNS_11char_traitsIcEENS_9allocatorIcEEEEE4baseB8ue170006Ev, symObjAddr: 0x515B8, symBinAddr: 0x100052EC4, symSize: 0xB0 }
  - { offsetInCU: 0x4A4BC, offset: 0x4A4BC, size: 0x8, addend: 0x0, symName: __ZNKSt3__16vectorINS_12basic_stringIcNS_11char_traitsIcEENS_9allocatorIcEEEENS4_IS6_EEE14__annotate_newB8ue170006Em, symObjAddr: 0x51828, symBinAddr: 0x100053134, symSize: 0x378 }
  - { offsetInCU: 0x4A4F1, offset: 0x4A4F1, size: 0x8, addend: 0x0, symName: __ZNSt3__129_AllocatorDestroyRangeReverseINS_9allocatorINS_12basic_stringIcNS_11char_traitsIcEENS1_IcEEEEEENS_16reverse_iteratorIPS6_EEEC1B8ue170006ERS7_RSA_SD_, symObjAddr: 0x51DDC, symBinAddr: 0x1000536E8, symSize: 0x90 }
  - { offsetInCU: 0x4A548, offset: 0x4A548, size: 0x8, addend: 0x0, symName: __ZNKSt3__116reverse_iteratorIPNS_12basic_stringIcNS_11char_traitsIcEENS_9allocatorIcEEEEEdeB8ue170006Ev, symObjAddr: 0x51F74, symBinAddr: 0x100053880, symSize: 0x184 }
  - { offsetInCU: 0x4A57C, offset: 0x4A57C, size: 0x8, addend: 0x0, symName: __ZNSt3__116reverse_iteratorIPNS_12basic_stringIcNS_11char_traitsIcEENS_9allocatorIcEEEEEppB8ue170006Ev, symObjAddr: 0x520F8, symBinAddr: 0x100053A04, symSize: 0x1B0 }
  - { offsetInCU: 0x4A5A2, offset: 0x4A5A2, size: 0x8, addend: 0x0, symName: __ZNSt3__128__exception_guard_exceptionsINS_29_AllocatorDestroyRangeReverseINS_9allocatorINS_12basic_stringIcNS_11char_traitsIcEENS2_IcEEEEEENS_16reverse_iteratorIPS7_EEEEE10__completeB8ue170006Ev, symObjAddr: 0x522A8, symBinAddr: 0x100053BB4, symSize: 0xD8 }
  - { offsetInCU: 0x4A5C8, offset: 0x4A5C8, size: 0x8, addend: 0x0, symName: __ZNSt3__128__exception_guard_exceptionsINS_29_AllocatorDestroyRangeReverseINS_9allocatorINS_12basic_stringIcNS_11char_traitsIcEENS2_IcEEEEEENS_16reverse_iteratorIPS7_EEEEED1B8ue170006Ev, symObjAddr: 0x52380, symBinAddr: 0x100053C8C, symSize: 0x78 }
  - { offsetInCU: 0x4A5F2, offset: 0x4A5F2, size: 0x8, addend: 0x0, symName: __ZNSt3__128__exception_guard_exceptionsINS_29_AllocatorDestroyRangeReverseINS_9allocatorINS_12basic_stringIcNS_11char_traitsIcEENS2_IcEEEEEENS_16reverse_iteratorIPS7_EEEEEC1B8ue170006ESC_, symObjAddr: 0x523F8, symBinAddr: 0x100053D04, symSize: 0x84 }
  - { offsetInCU: 0x4A62B, offset: 0x4A62B, size: 0x8, addend: 0x0, symName: __ZNSt3__128__exception_guard_exceptionsINS_29_AllocatorDestroyRangeReverseINS_9allocatorINS_12basic_stringIcNS_11char_traitsIcEENS2_IcEEEEEENS_16reverse_iteratorIPS7_EEEEEC2B8ue170006ESC_, symObjAddr: 0x5247C, symBinAddr: 0x100053D88, symSize: 0xF8 }
  - { offsetInCU: 0x4A664, offset: 0x4A664, size: 0x8, addend: 0x0, symName: __ZNSt3__129_AllocatorDestroyRangeReverseINS_9allocatorINS_12basic_stringIcNS_11char_traitsIcEENS1_IcEEEEEENS_16reverse_iteratorIPS6_EEEC2B8ue170006ERS7_RSA_SD_, symObjAddr: 0x52574, symBinAddr: 0x100053E80, symSize: 0x20C }
  - { offsetInCU: 0x4A6C1, offset: 0x4A6C1, size: 0x8, addend: 0x0, symName: __ZNSt3__119__to_address_helperINS_16reverse_iteratorIPNS_12basic_stringIcNS_11char_traitsIcEENS_9allocatorIcEEEEEEvE6__callB8ue170006ERKS9_, symObjAddr: 0x52780, symBinAddr: 0x10005408C, symSize: 0x70 }
  - { offsetInCU: 0x4A6E4, offset: 0x4A6E4, size: 0x8, addend: 0x0, symName: __ZNKSt3__116reverse_iteratorIPNS_12basic_stringIcNS_11char_traitsIcEENS_9allocatorIcEEEEEptB8ue170006Ev, symObjAddr: 0x527F0, symBinAddr: 0x1000540FC, symSize: 0xB8 }
  - { offsetInCU: 0x4A70A, offset: 0x4A70A, size: 0x8, addend: 0x0, symName: __ZNSt3__128__exception_guard_exceptionsINS_29_AllocatorDestroyRangeReverseINS_9allocatorINS_12basic_stringIcNS_11char_traitsIcEENS2_IcEEEEEENS_16reverse_iteratorIPS7_EEEEED2B8ue170006Ev, symObjAddr: 0x52D3C, symBinAddr: 0x100054648, symSize: 0x17C }
  - { offsetInCU: 0x4A734, offset: 0x4A734, size: 0x8, addend: 0x0, symName: __ZNKSt3__129_AllocatorDestroyRangeReverseINS_9allocatorINS_12basic_stringIcNS_11char_traitsIcEENS1_IcEEEEEENS_16reverse_iteratorIPS6_EEEclB8ue170006Ev, symObjAddr: 0x52EB8, symBinAddr: 0x1000547C4, symSize: 0x418 }
  - { offsetInCU: 0x4A75B, offset: 0x4A75B, size: 0x8, addend: 0x0, symName: __ZNSt3__116reverse_iteratorINS0_IPNS_12basic_stringIcNS_11char_traitsIcEENS_9allocatorIcEEEEEEEC1B8ue170006ES8_, symObjAddr: 0x53474, symBinAddr: 0x100054D80, symSize: 0x29C }
  - { offsetInCU: 0x4A798, offset: 0x4A798, size: 0x8, addend: 0x0, symName: __ZNSt3__116allocator_traitsINS_9allocatorINS_12basic_stringIcNS_11char_traitsIcEENS1_IcEEEEEEE7destroyB8ue170006IS6_vvEEvRS7_PT_, symObjAddr: 0x53A34, symBinAddr: 0x100055340, symSize: 0x28 }
  - { offsetInCU: 0x4A7D2, offset: 0x4A7D2, size: 0x8, addend: 0x0, symName: __ZNSt3__116reverse_iteratorINS0_IPNS_12basic_stringIcNS_11char_traitsIcEENS_9allocatorIcEEEEEEEppB8ue170006Ev, symObjAddr: 0x53AC8, symBinAddr: 0x1000553D4, symSize: 0x100 }
  - { offsetInCU: 0x4A7F8, offset: 0x4A7F8, size: 0x8, addend: 0x0, symName: __ZNKSt3__116reverse_iteratorINS0_IPNS_12basic_stringIcNS_11char_traitsIcEENS_9allocatorIcEEEEEEE4baseB8ue170006Ev, symObjAddr: 0x53BC8, symBinAddr: 0x1000554D4, symSize: 0x258 }
  - { offsetInCU: 0x4A825, offset: 0x4A825, size: 0x8, addend: 0x0, symName: __ZNSt3__119__to_address_helperINS_16reverse_iteratorINS1_IPNS_12basic_stringIcNS_11char_traitsIcEENS_9allocatorIcEEEEEEEEvE6__callB8ue170006ERKSA_, symObjAddr: 0x53EB0, symBinAddr: 0x1000557BC, symSize: 0x70 }
  - { offsetInCU: 0x4A848, offset: 0x4A848, size: 0x8, addend: 0x0, symName: __ZNKSt3__116reverse_iteratorINS0_IPNS_12basic_stringIcNS_11char_traitsIcEENS_9allocatorIcEEEEEEEptB8ue170006Ev, symObjAddr: 0x53F20, symBinAddr: 0x10005582C, symSize: 0x2F0 }
  - { offsetInCU: 0x4A86F, offset: 0x4A86F, size: 0x8, addend: 0x0, symName: __ZNSt3__116reverse_iteratorIPNS_12basic_stringIcNS_11char_traitsIcEENS_9allocatorIcEEEEEpLB8ue170006El, symObjAddr: 0x545D0, symBinAddr: 0x100055EDC, symSize: 0x240 }
  - { offsetInCU: 0x4A8A3, offset: 0x4A8A3, size: 0x8, addend: 0x0, symName: __ZNSt3__116reverse_iteratorIPNS_12basic_stringIcNS_11char_traitsIcEENS_9allocatorIcEEEEEmmB8ue170006Ev, symObjAddr: 0x54810, symBinAddr: 0x10005611C, symSize: 0x1B0 }
  - { offsetInCU: 0x4A8C9, offset: 0x4A8C9, size: 0x8, addend: 0x0, symName: __ZNSt3__116reverse_iteratorINS0_IPNS_12basic_stringIcNS_11char_traitsIcEENS_9allocatorIcEEEEEEEC2B8ue170006ES8_, symObjAddr: 0x549C0, symBinAddr: 0x1000562CC, symSize: 0x284 }
  - { offsetInCU: 0x4A906, offset: 0x4A906, size: 0x8, addend: 0x0, symName: __ZNSt3__116reverse_iteratorIPNS_12basic_stringIcNS_11char_traitsIcEENS_9allocatorIcEEEEEC2B8ue170006ES7_, symObjAddr: 0x54C44, symBinAddr: 0x100056550, symSize: 0x10C }
  - { offsetInCU: 0x4A93E, offset: 0x4A93E, size: 0x8, addend: 0x0, symName: __ZNSt3__114__split_bufferINS_12basic_stringIcNS_11char_traitsIcEENS_9allocatorIcEEEERNS4_IS6_EEED2Ev, symObjAddr: 0x54D50, symBinAddr: 0x10005665C, symSize: 0x16C }
  - { offsetInCU: 0x4A96A, offset: 0x4A96A, size: 0x8, addend: 0x0, symName: __ZNSt3__114__split_bufferINS_12basic_stringIcNS_11char_traitsIcEENS_9allocatorIcEEEERNS4_IS6_EEE5clearB8ue170006Ev, symObjAddr: 0x54EBC, symBinAddr: 0x1000567C8, symSize: 0xB4 }
  - { offsetInCU: 0x4A990, offset: 0x4A990, size: 0x8, addend: 0x0, symName: __ZNSt3__116allocator_traitsINS_9allocatorINS_12basic_stringIcNS_11char_traitsIcEENS1_IcEEEEEEE10deallocateB8ue170006ERS7_PS6_m, symObjAddr: 0x54F70, symBinAddr: 0x10005687C, symSize: 0x34 }
  - { offsetInCU: 0x4A9D2, offset: 0x4A9D2, size: 0x8, addend: 0x0, symName: __ZNKSt3__114__split_bufferINS_12basic_stringIcNS_11char_traitsIcEENS_9allocatorIcEEEERNS4_IS6_EEE8capacityB8ue170006Ev, symObjAddr: 0x54FA4, symBinAddr: 0x1000568B0, symSize: 0x144 }
  - { offsetInCU: 0x4A9F8, offset: 0x4A9F8, size: 0x8, addend: 0x0, symName: __ZNSt3__114__split_bufferINS_12basic_stringIcNS_11char_traitsIcEENS_9allocatorIcEEEERNS4_IS6_EEE17__destruct_at_endB8ue170006EPS6_, symObjAddr: 0x550E8, symBinAddr: 0x1000569F4, symSize: 0x74 }
  - { offsetInCU: 0x4AA2C, offset: 0x4AA2C, size: 0x8, addend: 0x0, symName: __ZNSt3__114__split_bufferINS_12basic_stringIcNS_11char_traitsIcEENS_9allocatorIcEEEERNS4_IS6_EEE17__destruct_at_endB8ue170006EPS6_NS_17integral_constantIbLb0EEE, symObjAddr: 0x5515C, symBinAddr: 0x100056A68, symSize: 0x224 }
  - { offsetInCU: 0x4AA6C, offset: 0x4AA6C, size: 0x8, addend: 0x0, symName: __ZNSt3__19allocatorINS_12basic_stringIcNS_11char_traitsIcEENS0_IcEEEEE10deallocateB8ue170006EPS5_m, symObjAddr: 0x55380, symBinAddr: 0x100056C8C, symSize: 0x7C }
  - { offsetInCU: 0x4AAAE, offset: 0x4AAAE, size: 0x8, addend: 0x0, symName: __ZNKSt3__114__split_bufferINS_12basic_stringIcNS_11char_traitsIcEENS_9allocatorIcEEEERNS4_IS6_EEE9__end_capB8ue170006Ev, symObjAddr: 0x553FC, symBinAddr: 0x100056D08, symSize: 0x100 }
  - { offsetInCU: 0x4AAD4, offset: 0x4AAD4, size: 0x8, addend: 0x0, symName: __ZNKSt3__117__compressed_pairIPNS_12basic_stringIcNS_11char_traitsIcEENS_9allocatorIcEEEERNS4_IS6_EEE5firstB8ue170006Ev, symObjAddr: 0x554FC, symBinAddr: 0x100056E08, symSize: 0x124 }
  - { offsetInCU: 0x4AAFA, offset: 0x4AAFA, size: 0x8, addend: 0x0, symName: __ZN5memdb6Parser11parseSpacesERKNSt3__117basic_string_viewIcNS1_11char_traitsIcEEEERi, symObjAddr: 0x55620, symBinAddr: 0x100056F2C, symSize: 0x36C }
  - { offsetInCU: 0x4AB3C, offset: 0x4AB3C, size: 0x8, addend: 0x0, symName: __ZNSt3__112basic_stringIcNS_11char_traitsIcEENS_9allocatorIcEEEpLB8ue170006Ec, symObjAddr: 0x5598C, symBinAddr: 0x100057298, symSize: 0xBC }
  - { offsetInCU: 0x4AB71, offset: 0x4AB71, size: 0x8, addend: 0x0, symName: __ZNSt3__110shared_ptrIN5memdb9Tokenizer5TokenEEC1B8ue170006Ev, symObjAddr: 0x55A48, symBinAddr: 0x100057354, symSize: 0x78 }
  - { offsetInCU: 0x4ABA1, offset: 0x4ABA1, size: 0x8, addend: 0x0, symName: __ZNSt3__110shared_ptrIN5memdb9Tokenizer5TokenEE5resetB8ue170006INS2_8CommandTEvEEvPT_, symObjAddr: 0x55AC0, symBinAddr: 0x1000573CC, symSize: 0x27C }
  - { offsetInCU: 0x4ABE2, offset: 0x4ABE2, size: 0x8, addend: 0x0, symName: __ZN5memdb9Tokenizer8CommandTC1Ev, symObjAddr: 0x55D3C, symBinAddr: 0x100057648, symSize: 0x78 }
  - { offsetInCU: 0x4AC0C, offset: 0x4AC0C, size: 0x8, addend: 0x0, symName: __ZNSt3__110shared_ptrIN5memdb9Tokenizer5TokenEEC2B8ue170006Ev, symObjAddr: 0x55DB4, symBinAddr: 0x1000576C0, symSize: 0xF0 }
  - { offsetInCU: 0x4AC36, offset: 0x4AC36, size: 0x8, addend: 0x0, symName: __ZNSt3__110shared_ptrIN5memdb9Tokenizer5TokenEEC1B8ue170006INS2_8CommandTEvEEPT_, symObjAddr: 0x55EA4, symBinAddr: 0x1000577B0, symSize: 0x80 }
  - { offsetInCU: 0x4AC79, offset: 0x4AC79, size: 0x8, addend: 0x0, symName: __ZNSt3__110shared_ptrIN5memdb9Tokenizer5TokenEE4swapB8ue170006ERS4_, symObjAddr: 0x55F24, symBinAddr: 0x100057830, symSize: 0x1A4 }
  - { offsetInCU: 0x4ACAE, offset: 0x4ACAE, size: 0x8, addend: 0x0, symName: __ZNSt3__110shared_ptrIN5memdb9Tokenizer5TokenEEC2B8ue170006INS2_8CommandTEvEEPT_, symObjAddr: 0x560C8, symBinAddr: 0x1000579D4, symSize: 0x4D8 }
  - { offsetInCU: 0x4ADC0, offset: 0x4ADC0, size: 0x8, addend: 0x0, symName: __ZNSt3__110unique_ptrIN5memdb9Tokenizer8CommandTENS_14default_deleteIS3_EEEC1B8ue170006ILb1EvEEPS3_, symObjAddr: 0x565A0, symBinAddr: 0x100057EAC, symSize: 0x80 }
  - { offsetInCU: 0x4AE0F, offset: 0x4AE0F, size: 0x8, addend: 0x0, symName: __ZNSt3__19allocatorIN5memdb9Tokenizer8CommandTEEC1B8ue170006Ev, symObjAddr: 0x56620, symBinAddr: 0x100057F2C, symSize: 0x5C }
  - { offsetInCU: 0x4AEF9, offset: 0x4AEF9, size: 0x8, addend: 0x0, symName: __ZNSt3__120__shared_ptr_pointerIPN5memdb9Tokenizer8CommandTENS_10shared_ptrINS2_5TokenEE27__shared_ptr_default_deleteIS6_S3_EENS_9allocatorIS3_EEEC1B8ue170006ES4_S9_SB_, symObjAddr: 0x5667C, symBinAddr: 0x100057F88, symSize: 0x80 }
  - { offsetInCU: 0x4AF4D, offset: 0x4AF4D, size: 0x8, addend: 0x0, symName: __ZNSt3__110unique_ptrIN5memdb9Tokenizer8CommandTENS_14default_deleteIS3_EEE7releaseB8ue170006Ev, symObjAddr: 0x566FC, symBinAddr: 0x100058008, symSize: 0x20C }
  - { offsetInCU: 0x4AF82, offset: 0x4AF82, size: 0x8, addend: 0x0, symName: __ZNSt3__110shared_ptrIN5memdb9Tokenizer5TokenEE18__enable_weak_thisB8ue170006Ez, symObjAddr: 0x56908, symBinAddr: 0x100058214, symSize: 0x60 }
  - { offsetInCU: 0x4AFA9, offset: 0x4AFA9, size: 0x8, addend: 0x0, symName: __ZNSt3__110unique_ptrIN5memdb9Tokenizer8CommandTENS_14default_deleteIS3_EEED1B8ue170006Ev, symObjAddr: 0x56968, symBinAddr: 0x100058274, symSize: 0x78 }
  - { offsetInCU: 0x4AFD3, offset: 0x4AFD3, size: 0x8, addend: 0x0, symName: __ZNSt3__110unique_ptrIN5memdb9Tokenizer8CommandTENS_14default_deleteIS3_EEEC2B8ue170006ILb1EvEEPS3_, symObjAddr: 0x569E0, symBinAddr: 0x1000582EC, symSize: 0x2B8 }
  - { offsetInCU: 0x4B021, offset: 0x4B021, size: 0x8, addend: 0x0, symName: __ZNSt3__117__compressed_pairIPN5memdb9Tokenizer8CommandTENS_14default_deleteIS3_EEEC1B8ue170006IRS4_NS_16__value_init_tagEEEOT_OT0_, symObjAddr: 0x56C98, symBinAddr: 0x1000585A4, symSize: 0x88 }
  - { offsetInCU: 0x4B079, offset: 0x4B079, size: 0x8, addend: 0x0, symName: __ZNSt3__117__compressed_pairIPN5memdb9Tokenizer8CommandTENS_14default_deleteIS3_EEEC2B8ue170006IRS4_NS_16__value_init_tagEEEOT_OT0_, symObjAddr: 0x56D20, symBinAddr: 0x10005862C, symSize: 0x140 }
  - { offsetInCU: 0x4B0D1, offset: 0x4B0D1, size: 0x8, addend: 0x0, symName: __ZNSt3__122__compressed_pair_elemIPN5memdb9Tokenizer8CommandTELi0ELb0EEC2B8ue170006IRS4_vEEOT_, symObjAddr: 0x56E60, symBinAddr: 0x10005876C, symSize: 0x144 }
  - { offsetInCU: 0x4B113, offset: 0x4B113, size: 0x8, addend: 0x0, symName: __ZNSt3__122__compressed_pair_elemINS_14default_deleteIN5memdb9Tokenizer8CommandTEEELi1ELb1EEC2B8ue170006ENS_16__value_init_tagE, symObjAddr: 0x56FA4, symBinAddr: 0x1000588B0, symSize: 0x54 }
  - { offsetInCU: 0x4B147, offset: 0x4B147, size: 0x8, addend: 0x0, symName: __ZNSt3__19allocatorIN5memdb9Tokenizer8CommandTEEC2B8ue170006Ev, symObjAddr: 0x56FF8, symBinAddr: 0x100058904, symSize: 0x84 }
  - { offsetInCU: 0x4B171, offset: 0x4B171, size: 0x8, addend: 0x0, symName: __ZNSt3__116__non_trivial_ifILb1ENS_9allocatorIN5memdb9Tokenizer8CommandTEEEEC2B8ue170006Ev, symObjAddr: 0x5707C, symBinAddr: 0x100058988, symSize: 0x54 }
  - { offsetInCU: 0x4B19B, offset: 0x4B19B, size: 0x8, addend: 0x0, symName: __ZNSt3__120__shared_ptr_pointerIPN5memdb9Tokenizer8CommandTENS_10shared_ptrINS2_5TokenEE27__shared_ptr_default_deleteIS6_S3_EENS_9allocatorIS3_EEEC2B8ue170006ES4_S9_SB_, symObjAddr: 0x570D0, symBinAddr: 0x1000589DC, symSize: 0x44C }
  - { offsetInCU: 0x4B1FC, offset: 0x4B1FC, size: 0x8, addend: 0x0, symName: __ZNSt3__119__shared_weak_countC2B8ue170006El, symObjAddr: 0x5751C, symBinAddr: 0x100058E28, symSize: 0x16C }
  - { offsetInCU: 0x4B23A, offset: 0x4B23A, size: 0x8, addend: 0x0, symName: __ZNSt3__117__compressed_pairIPN5memdb9Tokenizer8CommandTENS_10shared_ptrINS2_5TokenEE27__shared_ptr_default_deleteIS6_S3_EEEC1B8ue170006IRS4_S9_EEOT_OT0_, symObjAddr: 0x57688, symBinAddr: 0x100058F94, symSize: 0x88 }
  - { offsetInCU: 0x4B29E, offset: 0x4B29E, size: 0x8, addend: 0x0, symName: __ZNSt3__117__compressed_pairINS0_IPN5memdb9Tokenizer8CommandTENS_10shared_ptrINS2_5TokenEE27__shared_ptr_default_deleteIS6_S3_EEEENS_9allocatorIS3_EEEC1B8ue170006ISA_SC_EEOT_OT0_, symObjAddr: 0x57710, symBinAddr: 0x10005901C, symSize: 0x88 }
  - { offsetInCU: 0x4B2F6, offset: 0x4B2F6, size: 0x8, addend: 0x0, symName: __ZNSt3__120__shared_ptr_pointerIPN5memdb9Tokenizer8CommandTENS_10shared_ptrINS2_5TokenEE27__shared_ptr_default_deleteIS6_S3_EENS_9allocatorIS3_EEED1Ev, symObjAddr: 0x57798, symBinAddr: 0x1000590A4, symSize: 0x78 }
  - { offsetInCU: 0x4B322, offset: 0x4B322, size: 0x8, addend: 0x0, symName: __ZNSt3__120__shared_ptr_pointerIPN5memdb9Tokenizer8CommandTENS_10shared_ptrINS2_5TokenEE27__shared_ptr_default_deleteIS6_S3_EENS_9allocatorIS3_EEED0Ev, symObjAddr: 0x57810, symBinAddr: 0x10005911C, symSize: 0x74 }
  - { offsetInCU: 0x4B34E, offset: 0x4B34E, size: 0x8, addend: 0x0, symName: __ZNSt3__120__shared_ptr_pointerIPN5memdb9Tokenizer8CommandTENS_10shared_ptrINS2_5TokenEE27__shared_ptr_default_deleteIS6_S3_EENS_9allocatorIS3_EEE16__on_zero_sharedEv, symObjAddr: 0x57884, symBinAddr: 0x100059190, symSize: 0x460 }
  - { offsetInCU: 0x4B376, offset: 0x4B376, size: 0x8, addend: 0x0, symName: __ZNKSt3__120__shared_ptr_pointerIPN5memdb9Tokenizer8CommandTENS_10shared_ptrINS2_5TokenEE27__shared_ptr_default_deleteIS6_S3_EENS_9allocatorIS3_EEE13__get_deleterERKSt9type_info, symObjAddr: 0x57CE4, symBinAddr: 0x1000595F0, symSize: 0x298 }
  - { offsetInCU: 0x4B3AB, offset: 0x4B3AB, size: 0x8, addend: 0x0, symName: __ZNSt3__120__shared_ptr_pointerIPN5memdb9Tokenizer8CommandTENS_10shared_ptrINS2_5TokenEE27__shared_ptr_default_deleteIS6_S3_EENS_9allocatorIS3_EEE21__on_zero_shared_weakEv, symObjAddr: 0x57F7C, symBinAddr: 0x100059888, symSize: 0x448 }
  - { offsetInCU: 0x4B3F3, offset: 0x4B3F3, size: 0x8, addend: 0x0, symName: __ZNSt3__114__shared_countC2B8ue170006El, symObjAddr: 0x583C4, symBinAddr: 0x100059CD0, symSize: 0x114 }
  - { offsetInCU: 0x4B42B, offset: 0x4B42B, size: 0x8, addend: 0x0, symName: __ZNSt3__117__compressed_pairIPN5memdb9Tokenizer8CommandTENS_10shared_ptrINS2_5TokenEE27__shared_ptr_default_deleteIS6_S3_EEEC2B8ue170006IRS4_S9_EEOT_OT0_, symObjAddr: 0x584D8, symBinAddr: 0x100059DE4, symSize: 0x170 }
  - { offsetInCU: 0x4B483, offset: 0x4B483, size: 0x8, addend: 0x0, symName: __ZNSt3__122__compressed_pair_elemINS_10shared_ptrIN5memdb9Tokenizer5TokenEE27__shared_ptr_default_deleteIS4_NS3_8CommandTEEELi1ELb1EEC2B8ue170006IS8_vEEOT_, symObjAddr: 0x58648, symBinAddr: 0x100059F54, symSize: 0x58 }
  - { offsetInCU: 0x4B4C5, offset: 0x4B4C5, size: 0x8, addend: 0x0, symName: __ZNSt3__117__compressed_pairINS0_IPN5memdb9Tokenizer8CommandTENS_10shared_ptrINS2_5TokenEE27__shared_ptr_default_deleteIS6_S3_EEEENS_9allocatorIS3_EEEC2B8ue170006ISA_SC_EEOT_OT0_, symObjAddr: 0x586A0, symBinAddr: 0x100059FAC, symSize: 0x170 }
  - { offsetInCU: 0x4B51D, offset: 0x4B51D, size: 0x8, addend: 0x0, symName: __ZNSt3__122__compressed_pair_elemINS_17__compressed_pairIPN5memdb9Tokenizer8CommandTENS_10shared_ptrINS3_5TokenEE27__shared_ptr_default_deleteIS7_S4_EEEELi0ELb0EEC2B8ue170006ISB_vEEOT_, symObjAddr: 0x58810, symBinAddr: 0x10005A11C, symSize: 0x84 }
  - { offsetInCU: 0x4B55F, offset: 0x4B55F, size: 0x8, addend: 0x0, symName: __ZNSt3__122__compressed_pair_elemINS_9allocatorIN5memdb9Tokenizer8CommandTEEELi1ELb1EEC2B8ue170006IS5_vEEOT_, symObjAddr: 0x58894, symBinAddr: 0x10005A1A0, symSize: 0x58 }
  - { offsetInCU: 0x4B5A1, offset: 0x4B5A1, size: 0x8, addend: 0x0, symName: __ZNSt3__120__shared_ptr_pointerIPN5memdb9Tokenizer8CommandTENS_10shared_ptrINS2_5TokenEE27__shared_ptr_default_deleteIS6_S3_EENS_9allocatorIS3_EEED2Ev, symObjAddr: 0x588EC, symBinAddr: 0x10005A1F8, symSize: 0x78 }
  - { offsetInCU: 0x4B5CD, offset: 0x4B5CD, size: 0x8, addend: 0x0, symName: __ZNSt3__117__compressed_pairINS0_IPN5memdb9Tokenizer8CommandTENS_10shared_ptrINS2_5TokenEE27__shared_ptr_default_deleteIS6_S3_EEEENS_9allocatorIS3_EEE5firstB8ue170006Ev, symObjAddr: 0x58964, symBinAddr: 0x10005A270, symSize: 0x124 }
  - { offsetInCU: 0x4B5F3, offset: 0x4B5F3, size: 0x8, addend: 0x0, symName: __ZNSt3__117__compressed_pairIPN5memdb9Tokenizer8CommandTENS_10shared_ptrINS2_5TokenEE27__shared_ptr_default_deleteIS6_S3_EEE6secondB8ue170006Ev, symObjAddr: 0x58A88, symBinAddr: 0x10005A394, symSize: 0x108 }
  - { offsetInCU: 0x4B619, offset: 0x4B619, size: 0x8, addend: 0x0, symName: __ZNKSt3__114default_deleteIN5memdb9Tokenizer8CommandTEEclB8ue170006EPS3_, symObjAddr: 0x58B90, symBinAddr: 0x10005A49C, symSize: 0x158 }
  - { offsetInCU: 0x4B64D, offset: 0x4B64D, size: 0x8, addend: 0x0, symName: __ZNSt3__117__compressed_pairIPN5memdb9Tokenizer8CommandTENS_10shared_ptrINS2_5TokenEE27__shared_ptr_default_deleteIS6_S3_EEE5firstB8ue170006Ev, symObjAddr: 0x58CE8, symBinAddr: 0x10005A5F4, symSize: 0x124 }
  - { offsetInCU: 0x4B673, offset: 0x4B673, size: 0x8, addend: 0x0, symName: __ZNSt3__122__compressed_pair_elemINS_17__compressed_pairIPN5memdb9Tokenizer8CommandTENS_10shared_ptrINS3_5TokenEE27__shared_ptr_default_deleteIS7_S4_EEEELi0ELb0EE5__getB8ue170006Ev, symObjAddr: 0x58E0C, symBinAddr: 0x10005A718, symSize: 0xAC }
  - { offsetInCU: 0x4B699, offset: 0x4B699, size: 0x8, addend: 0x0, symName: __ZNSt3__122__compressed_pair_elemINS_10shared_ptrIN5memdb9Tokenizer5TokenEE27__shared_ptr_default_deleteIS4_NS3_8CommandTEEELi1ELb1EE5__getB8ue170006Ev, symObjAddr: 0x58EB8, symBinAddr: 0x10005A7C4, symSize: 0x74 }
  - { offsetInCU: 0x4B6BF, offset: 0x4B6BF, size: 0x8, addend: 0x0, symName: __ZNSt3__122__compressed_pair_elemIPN5memdb9Tokenizer8CommandTELi0ELb0EE5__getB8ue170006Ev, symObjAddr: 0x58F2C, symBinAddr: 0x10005A838, symSize: 0xAC }
  - { offsetInCU: 0x4B71A, offset: 0x4B71A, size: 0x8, addend: 0x0, symName: __ZNKSt9type_infoeqB8ue170006ERKS_, symObjAddr: 0x58FD8, symBinAddr: 0x10005A8E4, symSize: 0x260 }
  - { offsetInCU: 0x4B7B4, offset: 0x4B7B4, size: 0x8, addend: 0x0, symName: __ZNKSt3__117__compressed_pairINS0_IPN5memdb9Tokenizer8CommandTENS_10shared_ptrINS2_5TokenEE27__shared_ptr_default_deleteIS6_S3_EEEENS_9allocatorIS3_EEE5firstB8ue170006Ev, symObjAddr: 0x59238, symBinAddr: 0x10005AB44, symSize: 0x124 }
  - { offsetInCU: 0x4B7DA, offset: 0x4B7DA, size: 0x8, addend: 0x0, symName: __ZNKSt3__117__compressed_pairIPN5memdb9Tokenizer8CommandTENS_10shared_ptrINS2_5TokenEE27__shared_ptr_default_deleteIS6_S3_EEE6secondB8ue170006Ev, symObjAddr: 0x5935C, symBinAddr: 0x10005AC68, symSize: 0x108 }
  - { offsetInCU: 0x4B800, offset: 0x4B800, size: 0x8, addend: 0x0, symName: __ZNSt27__type_info_implementations30__non_unique_arm_rtti_bit_impl21__is_type_name_uniqueB8ue170006Em, symObjAddr: 0x59464, symBinAddr: 0x10005AD70, symSize: 0x20 }
  - { offsetInCU: 0x4B824, offset: 0x4B824, size: 0x8, addend: 0x0, symName: __ZNKSt3__122__compressed_pair_elemINS_17__compressed_pairIPN5memdb9Tokenizer8CommandTENS_10shared_ptrINS3_5TokenEE27__shared_ptr_default_deleteIS7_S4_EEEELi0ELb0EE5__getB8ue170006Ev, symObjAddr: 0x59484, symBinAddr: 0x10005AD90, symSize: 0xAC }
  - { offsetInCU: 0x4B84A, offset: 0x4B84A, size: 0x8, addend: 0x0, symName: __ZNKSt3__122__compressed_pair_elemINS_10shared_ptrIN5memdb9Tokenizer5TokenEE27__shared_ptr_default_deleteIS4_NS3_8CommandTEEELi1ELb1EE5__getB8ue170006Ev, symObjAddr: 0x59530, symBinAddr: 0x10005AE3C, symSize: 0x74 }
  - { offsetInCU: 0x4B870, offset: 0x4B870, size: 0x8, addend: 0x0, symName: __ZNSt3__117__compressed_pairINS0_IPN5memdb9Tokenizer8CommandTENS_10shared_ptrINS2_5TokenEE27__shared_ptr_default_deleteIS6_S3_EEEENS_9allocatorIS3_EEE6secondB8ue170006Ev, symObjAddr: 0x595A4, symBinAddr: 0x10005AEB0, symSize: 0x108 }
  - { offsetInCU: 0x4B8A8, offset: 0x4B8A8, size: 0x8, addend: 0x0, symName: __ZNSt3__19allocatorINS_20__shared_ptr_pointerIPN5memdb9Tokenizer8CommandTENS_10shared_ptrINS3_5TokenEE27__shared_ptr_default_deleteIS7_S4_EENS0_IS4_EEEEEC1B8ue170006IS4_EERKNS0_IT_EE, symObjAddr: 0x596AC, symBinAddr: 0x10005AFB8, symSize: 0x64 }
  - { offsetInCU: 0x4B8E5, offset: 0x4B8E5, size: 0x8, addend: 0x0, symName: __ZNSt3__19allocatorINS_20__shared_ptr_pointerIPN5memdb9Tokenizer8CommandTENS_10shared_ptrINS3_5TokenEE27__shared_ptr_default_deleteIS7_S4_EENS0_IS4_EEEEE10deallocateB8ue170006EPSC_m, symObjAddr: 0x59710, symBinAddr: 0x10005B01C, symSize: 0x78 }
  - { offsetInCU: 0x4B92D, offset: 0x4B92D, size: 0x8, addend: 0x0, symName: __ZNSt3__114pointer_traitsIPNS_20__shared_ptr_pointerIPN5memdb9Tokenizer8CommandTENS_10shared_ptrINS3_5TokenEE27__shared_ptr_default_deleteIS7_S4_EENS_9allocatorIS4_EEEEE10pointer_toB8ue170006ERSD_, symObjAddr: 0x59788, symBinAddr: 0x10005B094, symSize: 0x14 }
  - { offsetInCU: 0x4B950, offset: 0x4B950, size: 0x8, addend: 0x0, symName: __ZNSt3__122__compressed_pair_elemINS_9allocatorIN5memdb9Tokenizer8CommandTEEELi1ELb1EE5__getB8ue170006Ev, symObjAddr: 0x5979C, symBinAddr: 0x10005B0A8, symSize: 0x74 }
  - { offsetInCU: 0x4B976, offset: 0x4B976, size: 0x8, addend: 0x0, symName: __ZNSt3__19allocatorINS_20__shared_ptr_pointerIPN5memdb9Tokenizer8CommandTENS_10shared_ptrINS3_5TokenEE27__shared_ptr_default_deleteIS7_S4_EENS0_IS4_EEEEEC2B8ue170006IS4_EERKNS0_IT_EE, symObjAddr: 0x59810, symBinAddr: 0x10005B11C, symSize: 0x88 }
  - { offsetInCU: 0x4B9B3, offset: 0x4B9B3, size: 0x8, addend: 0x0, symName: __ZNSt3__116__non_trivial_ifILb1ENS_9allocatorINS_20__shared_ptr_pointerIPN5memdb9Tokenizer8CommandTENS_10shared_ptrINS4_5TokenEE27__shared_ptr_default_deleteIS8_S5_EENS1_IS5_EEEEEEEC2B8ue170006Ev, symObjAddr: 0x59898, symBinAddr: 0x10005B1A4, symSize: 0x54 }
  - { offsetInCU: 0x4B9DD, offset: 0x4B9DD, size: 0x8, addend: 0x0, symName: __ZNSt3__117__compressed_pairIPN5memdb9Tokenizer8CommandTENS_14default_deleteIS3_EEE5firstB8ue170006Ev, symObjAddr: 0x598EC, symBinAddr: 0x10005B1F8, symSize: 0x124 }
  - { offsetInCU: 0x4BA03, offset: 0x4BA03, size: 0x8, addend: 0x0, symName: __ZNSt3__110unique_ptrIN5memdb9Tokenizer8CommandTENS_14default_deleteIS3_EEED2B8ue170006Ev, symObjAddr: 0x59A10, symBinAddr: 0x10005B31C, symSize: 0x7C }
  - { offsetInCU: 0x4BA2D, offset: 0x4BA2D, size: 0x8, addend: 0x0, symName: __ZNSt3__110unique_ptrIN5memdb9Tokenizer8CommandTENS_14default_deleteIS3_EEE5resetB8ue170006EPS3_, symObjAddr: 0x59A8C, symBinAddr: 0x10005B398, symSize: 0x2B0 }
  - { offsetInCU: 0x4BA71, offset: 0x4BA71, size: 0x8, addend: 0x0, symName: __ZNSt3__117__compressed_pairIPN5memdb9Tokenizer8CommandTENS_14default_deleteIS3_EEE6secondB8ue170006Ev, symObjAddr: 0x59D3C, symBinAddr: 0x10005B648, symSize: 0x108 }
  - { offsetInCU: 0x4BA97, offset: 0x4BA97, size: 0x8, addend: 0x0, symName: __ZNSt3__122__compressed_pair_elemINS_14default_deleteIN5memdb9Tokenizer8CommandTEEELi1ELb1EE5__getB8ue170006Ev, symObjAddr: 0x59E44, symBinAddr: 0x10005B750, symSize: 0x74 }
  - { offsetInCU: 0x4BABD, offset: 0x4BABD, size: 0x8, addend: 0x0, symName: __ZN5memdb9Tokenizer8CommandTC2Ev, symObjAddr: 0x5A238, symBinAddr: 0x10005BB44, symSize: 0x118 }
  - { offsetInCU: 0x4BAE7, offset: 0x4BAE7, size: 0x8, addend: 0x0, symName: __ZN5memdb9Tokenizer5TokenC2Ev, symObjAddr: 0x5A350, symBinAddr: 0x10005BC5C, symSize: 0xCC }
  - { offsetInCU: 0x4BB13, offset: 0x4BB13, size: 0x8, addend: 0x0, symName: __ZNK5memdb9Tokenizer8CommandT7GetTypeEv, symObjAddr: 0x5A41C, symBinAddr: 0x10005BD28, symSize: 0x64 }
  - { offsetInCU: 0x4BB39, offset: 0x4BB39, size: 0x8, addend: 0x0, symName: __ZN5memdb9Tokenizer8CommandT4CopyEv, symObjAddr: 0x5A480, symBinAddr: 0x10005BD8C, symSize: 0x30C }
  - { offsetInCU: 0x4BB6F, offset: 0x4BB6F, size: 0x8, addend: 0x0, symName: __ZN5memdb9Tokenizer8CommandT5ParseERNSt3__16vectorINS2_12basic_stringIcNS2_11char_traitsIcEENS2_9allocatorIcEEEENS7_IS9_EEEERi, symObjAddr: 0x5A78C, symBinAddr: 0x10005C098, symSize: 0x738 }
  - { offsetInCU: 0x4BBC9, offset: 0x4BBC9, size: 0x8, addend: 0x0, symName: __ZNSt3__110shared_ptrIN5memdb9Tokenizer5TokenEE5resetB8ue170006IS3_vEEvPT_, symObjAddr: 0x5AEC4, symBinAddr: 0x10005C7D0, symSize: 0x27C }
  - { offsetInCU: 0x4BC0A, offset: 0x4BC0A, size: 0x8, addend: 0x0, symName: __ZN5memdb9Tokenizer8CommandTC1ENS_5lexer7CommandE, symObjAddr: 0x5B140, symBinAddr: 0x10005CA4C, symSize: 0x80 }
  - { offsetInCU: 0x4BC43, offset: 0x4BC43, size: 0x8, addend: 0x0, symName: __ZNSt3__110shared_ptrIN5memdb9Tokenizer5TokenEEC1B8ue170006IS3_vEEPT_, symObjAddr: 0x5B1C0, symBinAddr: 0x10005CACC, symSize: 0x80 }
  - { offsetInCU: 0x4BC86, offset: 0x4BC86, size: 0x8, addend: 0x0, symName: __ZNSt3__110shared_ptrIN5memdb9Tokenizer5TokenEEC2B8ue170006IS3_vEEPT_, symObjAddr: 0x5B240, symBinAddr: 0x10005CB4C, symSize: 0x498 }
  - { offsetInCU: 0x4BD92, offset: 0x4BD92, size: 0x8, addend: 0x0, symName: __ZNSt3__110unique_ptrIN5memdb9Tokenizer5TokenENS_14default_deleteIS3_EEEC1B8ue170006ILb1EvEEPS3_, symObjAddr: 0x5B6D8, symBinAddr: 0x10005CFE4, symSize: 0x80 }
  - { offsetInCU: 0x4BDE1, offset: 0x4BDE1, size: 0x8, addend: 0x0, symName: __ZNSt3__19allocatorIN5memdb9Tokenizer5TokenEEC1B8ue170006Ev, symObjAddr: 0x5B758, symBinAddr: 0x10005D064, symSize: 0x5C }
  - { offsetInCU: 0x4BECB, offset: 0x4BECB, size: 0x8, addend: 0x0, symName: __ZNSt3__120__shared_ptr_pointerIPN5memdb9Tokenizer5TokenENS_10shared_ptrIS3_E27__shared_ptr_default_deleteIS3_S3_EENS_9allocatorIS3_EEEC1B8ue170006ES4_S8_SA_, symObjAddr: 0x5B7B4, symBinAddr: 0x10005D0C0, symSize: 0x80 }
  - { offsetInCU: 0x4BF1F, offset: 0x4BF1F, size: 0x8, addend: 0x0, symName: __ZNSt3__110unique_ptrIN5memdb9Tokenizer5TokenENS_14default_deleteIS3_EEE7releaseB8ue170006Ev, symObjAddr: 0x5B834, symBinAddr: 0x10005D140, symSize: 0x20C }
  - { offsetInCU: 0x4BF54, offset: 0x4BF54, size: 0x8, addend: 0x0, symName: __ZNSt3__110unique_ptrIN5memdb9Tokenizer5TokenENS_14default_deleteIS3_EEED1B8ue170006Ev, symObjAddr: 0x5BA40, symBinAddr: 0x10005D34C, symSize: 0x78 }
  - { offsetInCU: 0x4BF7E, offset: 0x4BF7E, size: 0x8, addend: 0x0, symName: __ZNSt3__110unique_ptrIN5memdb9Tokenizer5TokenENS_14default_deleteIS3_EEEC2B8ue170006ILb1EvEEPS3_, symObjAddr: 0x5BAB8, symBinAddr: 0x10005D3C4, symSize: 0x2B8 }
  - { offsetInCU: 0x4BFC6, offset: 0x4BFC6, size: 0x8, addend: 0x0, symName: __ZNSt3__117__compressed_pairIPN5memdb9Tokenizer5TokenENS_14default_deleteIS3_EEEC1B8ue170006IRS4_NS_16__value_init_tagEEEOT_OT0_, symObjAddr: 0x5BD70, symBinAddr: 0x10005D67C, symSize: 0x88 }
  - { offsetInCU: 0x4C01E, offset: 0x4C01E, size: 0x8, addend: 0x0, symName: __ZNSt3__117__compressed_pairIPN5memdb9Tokenizer5TokenENS_14default_deleteIS3_EEEC2B8ue170006IRS4_NS_16__value_init_tagEEEOT_OT0_, symObjAddr: 0x5BDF8, symBinAddr: 0x10005D704, symSize: 0x140 }
  - { offsetInCU: 0x4C076, offset: 0x4C076, size: 0x8, addend: 0x0, symName: __ZNSt3__122__compressed_pair_elemIPN5memdb9Tokenizer5TokenELi0ELb0EEC2B8ue170006IRS4_vEEOT_, symObjAddr: 0x5BF38, symBinAddr: 0x10005D844, symSize: 0x144 }
  - { offsetInCU: 0x4C0B8, offset: 0x4C0B8, size: 0x8, addend: 0x0, symName: __ZNSt3__122__compressed_pair_elemINS_14default_deleteIN5memdb9Tokenizer5TokenEEELi1ELb1EEC2B8ue170006ENS_16__value_init_tagE, symObjAddr: 0x5C07C, symBinAddr: 0x10005D988, symSize: 0x54 }
  - { offsetInCU: 0x4C0EC, offset: 0x4C0EC, size: 0x8, addend: 0x0, symName: __ZNSt3__19allocatorIN5memdb9Tokenizer5TokenEEC2B8ue170006Ev, symObjAddr: 0x5C0D0, symBinAddr: 0x10005D9DC, symSize: 0x84 }
  - { offsetInCU: 0x4C116, offset: 0x4C116, size: 0x8, addend: 0x0, symName: __ZNSt3__116__non_trivial_ifILb1ENS_9allocatorIN5memdb9Tokenizer5TokenEEEEC2B8ue170006Ev, symObjAddr: 0x5C154, symBinAddr: 0x10005DA60, symSize: 0x54 }
  - { offsetInCU: 0x4C140, offset: 0x4C140, size: 0x8, addend: 0x0, symName: __ZNSt3__120__shared_ptr_pointerIPN5memdb9Tokenizer5TokenENS_10shared_ptrIS3_E27__shared_ptr_default_deleteIS3_S3_EENS_9allocatorIS3_EEEC2B8ue170006ES4_S8_SA_, symObjAddr: 0x5C1A8, symBinAddr: 0x10005DAB4, symSize: 0x44C }
  - { offsetInCU: 0x4C1A7, offset: 0x4C1A7, size: 0x8, addend: 0x0, symName: __ZNSt3__117__compressed_pairIPN5memdb9Tokenizer5TokenENS_10shared_ptrIS3_E27__shared_ptr_default_deleteIS3_S3_EEEC1B8ue170006IRS4_S8_EEOT_OT0_, symObjAddr: 0x5C5F4, symBinAddr: 0x10005DF00, symSize: 0x88 }
  - { offsetInCU: 0x4C20B, offset: 0x4C20B, size: 0x8, addend: 0x0, symName: __ZNSt3__117__compressed_pairINS0_IPN5memdb9Tokenizer5TokenENS_10shared_ptrIS3_E27__shared_ptr_default_deleteIS3_S3_EEEENS_9allocatorIS3_EEEC1B8ue170006IS9_SB_EEOT_OT0_, symObjAddr: 0x5C67C, symBinAddr: 0x10005DF88, symSize: 0x88 }
  - { offsetInCU: 0x4C263, offset: 0x4C263, size: 0x8, addend: 0x0, symName: __ZNSt3__120__shared_ptr_pointerIPN5memdb9Tokenizer5TokenENS_10shared_ptrIS3_E27__shared_ptr_default_deleteIS3_S3_EENS_9allocatorIS3_EEED1Ev, symObjAddr: 0x5C704, symBinAddr: 0x10005E010, symSize: 0x78 }
  - { offsetInCU: 0x4C28F, offset: 0x4C28F, size: 0x8, addend: 0x0, symName: __ZNSt3__120__shared_ptr_pointerIPN5memdb9Tokenizer5TokenENS_10shared_ptrIS3_E27__shared_ptr_default_deleteIS3_S3_EENS_9allocatorIS3_EEED0Ev, symObjAddr: 0x5C77C, symBinAddr: 0x10005E088, symSize: 0x74 }
  - { offsetInCU: 0x4C2BB, offset: 0x4C2BB, size: 0x8, addend: 0x0, symName: __ZNSt3__120__shared_ptr_pointerIPN5memdb9Tokenizer5TokenENS_10shared_ptrIS3_E27__shared_ptr_default_deleteIS3_S3_EENS_9allocatorIS3_EEE16__on_zero_sharedEv, symObjAddr: 0x5C7F0, symBinAddr: 0x10005E0FC, symSize: 0x460 }
  - { offsetInCU: 0x4C2E3, offset: 0x4C2E3, size: 0x8, addend: 0x0, symName: __ZNKSt3__120__shared_ptr_pointerIPN5memdb9Tokenizer5TokenENS_10shared_ptrIS3_E27__shared_ptr_default_deleteIS3_S3_EENS_9allocatorIS3_EEE13__get_deleterERKSt9type_info, symObjAddr: 0x5CC50, symBinAddr: 0x10005E55C, symSize: 0x298 }
  - { offsetInCU: 0x4C318, offset: 0x4C318, size: 0x8, addend: 0x0, symName: __ZNSt3__120__shared_ptr_pointerIPN5memdb9Tokenizer5TokenENS_10shared_ptrIS3_E27__shared_ptr_default_deleteIS3_S3_EENS_9allocatorIS3_EEE21__on_zero_shared_weakEv, symObjAddr: 0x5CEE8, symBinAddr: 0x10005E7F4, symSize: 0x448 }
  - { offsetInCU: 0x4C360, offset: 0x4C360, size: 0x8, addend: 0x0, symName: __ZNSt3__117__compressed_pairIPN5memdb9Tokenizer5TokenENS_10shared_ptrIS3_E27__shared_ptr_default_deleteIS3_S3_EEEC2B8ue170006IRS4_S8_EEOT_OT0_, symObjAddr: 0x5D330, symBinAddr: 0x10005EC3C, symSize: 0x170 }
  - { offsetInCU: 0x4C3B8, offset: 0x4C3B8, size: 0x8, addend: 0x0, symName: __ZNSt3__122__compressed_pair_elemINS_10shared_ptrIN5memdb9Tokenizer5TokenEE27__shared_ptr_default_deleteIS4_S4_EELi1ELb1EEC2B8ue170006IS7_vEEOT_, symObjAddr: 0x5D4A0, symBinAddr: 0x10005EDAC, symSize: 0x58 }
  - { offsetInCU: 0x4C3FA, offset: 0x4C3FA, size: 0x8, addend: 0x0, symName: __ZNSt3__117__compressed_pairINS0_IPN5memdb9Tokenizer5TokenENS_10shared_ptrIS3_E27__shared_ptr_default_deleteIS3_S3_EEEENS_9allocatorIS3_EEEC2B8ue170006IS9_SB_EEOT_OT0_, symObjAddr: 0x5D4F8, symBinAddr: 0x10005EE04, symSize: 0x170 }
  - { offsetInCU: 0x4C452, offset: 0x4C452, size: 0x8, addend: 0x0, symName: __ZNSt3__122__compressed_pair_elemINS_17__compressed_pairIPN5memdb9Tokenizer5TokenENS_10shared_ptrIS4_E27__shared_ptr_default_deleteIS4_S4_EEEELi0ELb0EEC2B8ue170006ISA_vEEOT_, symObjAddr: 0x5D668, symBinAddr: 0x10005EF74, symSize: 0x84 }
  - { offsetInCU: 0x4C494, offset: 0x4C494, size: 0x8, addend: 0x0, symName: __ZNSt3__122__compressed_pair_elemINS_9allocatorIN5memdb9Tokenizer5TokenEEELi1ELb1EEC2B8ue170006IS5_vEEOT_, symObjAddr: 0x5D6EC, symBinAddr: 0x10005EFF8, symSize: 0x58 }
  - { offsetInCU: 0x4C4D6, offset: 0x4C4D6, size: 0x8, addend: 0x0, symName: __ZNSt3__120__shared_ptr_pointerIPN5memdb9Tokenizer5TokenENS_10shared_ptrIS3_E27__shared_ptr_default_deleteIS3_S3_EENS_9allocatorIS3_EEED2Ev, symObjAddr: 0x5D744, symBinAddr: 0x10005F050, symSize: 0x78 }
  - { offsetInCU: 0x4C502, offset: 0x4C502, size: 0x8, addend: 0x0, symName: __ZNSt3__117__compressed_pairINS0_IPN5memdb9Tokenizer5TokenENS_10shared_ptrIS3_E27__shared_ptr_default_deleteIS3_S3_EEEENS_9allocatorIS3_EEE5firstB8ue170006Ev, symObjAddr: 0x5D7BC, symBinAddr: 0x10005F0C8, symSize: 0x124 }
  - { offsetInCU: 0x4C528, offset: 0x4C528, size: 0x8, addend: 0x0, symName: __ZNSt3__117__compressed_pairIPN5memdb9Tokenizer5TokenENS_10shared_ptrIS3_E27__shared_ptr_default_deleteIS3_S3_EEE6secondB8ue170006Ev, symObjAddr: 0x5D8E0, symBinAddr: 0x10005F1EC, symSize: 0x108 }
  - { offsetInCU: 0x4C54E, offset: 0x4C54E, size: 0x8, addend: 0x0, symName: __ZNKSt3__114default_deleteIN5memdb9Tokenizer5TokenEEclB8ue170006EPS3_, symObjAddr: 0x5D9E8, symBinAddr: 0x10005F2F4, symSize: 0x158 }
  - { offsetInCU: 0x4C582, offset: 0x4C582, size: 0x8, addend: 0x0, symName: __ZNSt3__117__compressed_pairIPN5memdb9Tokenizer5TokenENS_10shared_ptrIS3_E27__shared_ptr_default_deleteIS3_S3_EEE5firstB8ue170006Ev, symObjAddr: 0x5DB40, symBinAddr: 0x10005F44C, symSize: 0x124 }
  - { offsetInCU: 0x4C5A8, offset: 0x4C5A8, size: 0x8, addend: 0x0, symName: __ZNSt3__122__compressed_pair_elemINS_17__compressed_pairIPN5memdb9Tokenizer5TokenENS_10shared_ptrIS4_E27__shared_ptr_default_deleteIS4_S4_EEEELi0ELb0EE5__getB8ue170006Ev, symObjAddr: 0x5DC64, symBinAddr: 0x10005F570, symSize: 0xAC }
  - { offsetInCU: 0x4C5CE, offset: 0x4C5CE, size: 0x8, addend: 0x0, symName: __ZNSt3__122__compressed_pair_elemINS_10shared_ptrIN5memdb9Tokenizer5TokenEE27__shared_ptr_default_deleteIS4_S4_EELi1ELb1EE5__getB8ue170006Ev, symObjAddr: 0x5DD10, symBinAddr: 0x10005F61C, symSize: 0x74 }
  - { offsetInCU: 0x4C5F4, offset: 0x4C5F4, size: 0x8, addend: 0x0, symName: __ZNSt3__122__compressed_pair_elemIPN5memdb9Tokenizer5TokenELi0ELb0EE5__getB8ue170006Ev, symObjAddr: 0x5DD84, symBinAddr: 0x10005F690, symSize: 0xAC }
  - { offsetInCU: 0x4C61A, offset: 0x4C61A, size: 0x8, addend: 0x0, symName: __ZNKSt3__117__compressed_pairINS0_IPN5memdb9Tokenizer5TokenENS_10shared_ptrIS3_E27__shared_ptr_default_deleteIS3_S3_EEEENS_9allocatorIS3_EEE5firstB8ue170006Ev, symObjAddr: 0x5DE30, symBinAddr: 0x10005F73C, symSize: 0x124 }
  - { offsetInCU: 0x4C640, offset: 0x4C640, size: 0x8, addend: 0x0, symName: __ZNKSt3__117__compressed_pairIPN5memdb9Tokenizer5TokenENS_10shared_ptrIS3_E27__shared_ptr_default_deleteIS3_S3_EEE6secondB8ue170006Ev, symObjAddr: 0x5DF54, symBinAddr: 0x10005F860, symSize: 0x108 }
  - { offsetInCU: 0x4C666, offset: 0x4C666, size: 0x8, addend: 0x0, symName: __ZNKSt3__122__compressed_pair_elemINS_17__compressed_pairIPN5memdb9Tokenizer5TokenENS_10shared_ptrIS4_E27__shared_ptr_default_deleteIS4_S4_EEEELi0ELb0EE5__getB8ue170006Ev, symObjAddr: 0x5E05C, symBinAddr: 0x10005F968, symSize: 0xAC }
  - { offsetInCU: 0x4C68C, offset: 0x4C68C, size: 0x8, addend: 0x0, symName: __ZNKSt3__122__compressed_pair_elemINS_10shared_ptrIN5memdb9Tokenizer5TokenEE27__shared_ptr_default_deleteIS4_S4_EELi1ELb1EE5__getB8ue170006Ev, symObjAddr: 0x5E108, symBinAddr: 0x10005FA14, symSize: 0x74 }
  - { offsetInCU: 0x4C6B2, offset: 0x4C6B2, size: 0x8, addend: 0x0, symName: __ZNSt3__117__compressed_pairINS0_IPN5memdb9Tokenizer5TokenENS_10shared_ptrIS3_E27__shared_ptr_default_deleteIS3_S3_EEEENS_9allocatorIS3_EEE6secondB8ue170006Ev, symObjAddr: 0x5E17C, symBinAddr: 0x10005FA88, symSize: 0x108 }
  - { offsetInCU: 0x4C6EA, offset: 0x4C6EA, size: 0x8, addend: 0x0, symName: __ZNSt3__19allocatorINS_20__shared_ptr_pointerIPN5memdb9Tokenizer5TokenENS_10shared_ptrIS4_E27__shared_ptr_default_deleteIS4_S4_EENS0_IS4_EEEEEC1B8ue170006IS4_EERKNS0_IT_EE, symObjAddr: 0x5E284, symBinAddr: 0x10005FB90, symSize: 0x64 }
  - { offsetInCU: 0x4C727, offset: 0x4C727, size: 0x8, addend: 0x0, symName: __ZNSt3__19allocatorINS_20__shared_ptr_pointerIPN5memdb9Tokenizer5TokenENS_10shared_ptrIS4_E27__shared_ptr_default_deleteIS4_S4_EENS0_IS4_EEEEE10deallocateB8ue170006EPSB_m, symObjAddr: 0x5E2E8, symBinAddr: 0x10005FBF4, symSize: 0x78 }
  - { offsetInCU: 0x4C76F, offset: 0x4C76F, size: 0x8, addend: 0x0, symName: __ZNSt3__114pointer_traitsIPNS_20__shared_ptr_pointerIPN5memdb9Tokenizer5TokenENS_10shared_ptrIS4_E27__shared_ptr_default_deleteIS4_S4_EENS_9allocatorIS4_EEEEE10pointer_toB8ue170006ERSC_, symObjAddr: 0x5E360, symBinAddr: 0x10005FC6C, symSize: 0x14 }
  - { offsetInCU: 0x4C792, offset: 0x4C792, size: 0x8, addend: 0x0, symName: __ZNSt3__122__compressed_pair_elemINS_9allocatorIN5memdb9Tokenizer5TokenEEELi1ELb1EE5__getB8ue170006Ev, symObjAddr: 0x5E374, symBinAddr: 0x10005FC80, symSize: 0x74 }
  - { offsetInCU: 0x4C7B8, offset: 0x4C7B8, size: 0x8, addend: 0x0, symName: __ZNSt3__19allocatorINS_20__shared_ptr_pointerIPN5memdb9Tokenizer5TokenENS_10shared_ptrIS4_E27__shared_ptr_default_deleteIS4_S4_EENS0_IS4_EEEEEC2B8ue170006IS4_EERKNS0_IT_EE, symObjAddr: 0x5E3E8, symBinAddr: 0x10005FCF4, symSize: 0x88 }
  - { offsetInCU: 0x4C7F5, offset: 0x4C7F5, size: 0x8, addend: 0x0, symName: __ZNSt3__116__non_trivial_ifILb1ENS_9allocatorINS_20__shared_ptr_pointerIPN5memdb9Tokenizer5TokenENS_10shared_ptrIS5_E27__shared_ptr_default_deleteIS5_S5_EENS1_IS5_EEEEEEEC2B8ue170006Ev, symObjAddr: 0x5E470, symBinAddr: 0x10005FD7C, symSize: 0x54 }
  - { offsetInCU: 0x4C81F, offset: 0x4C81F, size: 0x8, addend: 0x0, symName: __ZNSt3__117__compressed_pairIPN5memdb9Tokenizer5TokenENS_14default_deleteIS3_EEE5firstB8ue170006Ev, symObjAddr: 0x5E4C4, symBinAddr: 0x10005FDD0, symSize: 0x124 }
  - { offsetInCU: 0x4C845, offset: 0x4C845, size: 0x8, addend: 0x0, symName: __ZNSt3__110unique_ptrIN5memdb9Tokenizer5TokenENS_14default_deleteIS3_EEED2B8ue170006Ev, symObjAddr: 0x5E5E8, symBinAddr: 0x10005FEF4, symSize: 0x7C }
  - { offsetInCU: 0x4C86F, offset: 0x4C86F, size: 0x8, addend: 0x0, symName: __ZNSt3__110unique_ptrIN5memdb9Tokenizer5TokenENS_14default_deleteIS3_EEE5resetB8ue170006EPS3_, symObjAddr: 0x5E664, symBinAddr: 0x10005FF70, symSize: 0x2B0 }
  - { offsetInCU: 0x4C8B3, offset: 0x4C8B3, size: 0x8, addend: 0x0, symName: __ZNSt3__117__compressed_pairIPN5memdb9Tokenizer5TokenENS_14default_deleteIS3_EEE6secondB8ue170006Ev, symObjAddr: 0x5E914, symBinAddr: 0x100060220, symSize: 0x108 }
  - { offsetInCU: 0x4C8D9, offset: 0x4C8D9, size: 0x8, addend: 0x0, symName: __ZNSt3__122__compressed_pair_elemINS_14default_deleteIN5memdb9Tokenizer5TokenEEELi1ELb1EE5__getB8ue170006Ev, symObjAddr: 0x5EA1C, symBinAddr: 0x100060328, symSize: 0x74 }
  - { offsetInCU: 0x4C8FF, offset: 0x4C8FF, size: 0x8, addend: 0x0, symName: __ZN5memdb9Tokenizer8CommandTC2ENS_5lexer7CommandE, symObjAddr: 0x5EA90, symBinAddr: 0x10006039C, symSize: 0x188 }
  - { offsetInCU: 0x4C93E, offset: 0x4C93E, size: 0x8, addend: 0x0, symName: __ZNSt3__110shared_ptrIN5memdb9Tokenizer5TokenEE5resetB8ue170006INS2_11SubCommandTEvEEvPT_, symObjAddr: 0x5EC18, symBinAddr: 0x100060524, symSize: 0x27C }
  - { offsetInCU: 0x4C97F, offset: 0x4C97F, size: 0x8, addend: 0x0, symName: __ZN5memdb9Tokenizer11SubCommandTC1Ev, symObjAddr: 0x5EE94, symBinAddr: 0x1000607A0, symSize: 0x78 }
  - { offsetInCU: 0x4C9A9, offset: 0x4C9A9, size: 0x8, addend: 0x0, symName: __ZNSt3__110shared_ptrIN5memdb9Tokenizer5TokenEEC1B8ue170006INS2_11SubCommandTEvEEPT_, symObjAddr: 0x5EF0C, symBinAddr: 0x100060818, symSize: 0x80 }
  - { offsetInCU: 0x4C9EC, offset: 0x4C9EC, size: 0x8, addend: 0x0, symName: __ZNSt3__110shared_ptrIN5memdb9Tokenizer5TokenEEC2B8ue170006INS2_11SubCommandTEvEEPT_, symObjAddr: 0x5EF8C, symBinAddr: 0x100060898, symSize: 0x4D8 }
  - { offsetInCU: 0x4CAFE, offset: 0x4CAFE, size: 0x8, addend: 0x0, symName: __ZNSt3__110unique_ptrIN5memdb9Tokenizer11SubCommandTENS_14default_deleteIS3_EEEC1B8ue170006ILb1EvEEPS3_, symObjAddr: 0x5F464, symBinAddr: 0x100060D70, symSize: 0x80 }
  - { offsetInCU: 0x4CB4D, offset: 0x4CB4D, size: 0x8, addend: 0x0, symName: __ZNSt3__19allocatorIN5memdb9Tokenizer11SubCommandTEEC1B8ue170006Ev, symObjAddr: 0x5F4E4, symBinAddr: 0x100060DF0, symSize: 0x5C }
  - { offsetInCU: 0x4CC37, offset: 0x4CC37, size: 0x8, addend: 0x0, symName: __ZNSt3__120__shared_ptr_pointerIPN5memdb9Tokenizer11SubCommandTENS_10shared_ptrINS2_5TokenEE27__shared_ptr_default_deleteIS6_S3_EENS_9allocatorIS3_EEEC1B8ue170006ES4_S9_SB_, symObjAddr: 0x5F540, symBinAddr: 0x100060E4C, symSize: 0x80 }
  - { offsetInCU: 0x4CC8B, offset: 0x4CC8B, size: 0x8, addend: 0x0, symName: __ZNSt3__110unique_ptrIN5memdb9Tokenizer11SubCommandTENS_14default_deleteIS3_EEE7releaseB8ue170006Ev, symObjAddr: 0x5F5C0, symBinAddr: 0x100060ECC, symSize: 0x20C }
  - { offsetInCU: 0x4CCC0, offset: 0x4CCC0, size: 0x8, addend: 0x0, symName: __ZNSt3__110unique_ptrIN5memdb9Tokenizer11SubCommandTENS_14default_deleteIS3_EEED1B8ue170006Ev, symObjAddr: 0x5F7CC, symBinAddr: 0x1000610D8, symSize: 0x78 }
  - { offsetInCU: 0x4CCEA, offset: 0x4CCEA, size: 0x8, addend: 0x0, symName: __ZNSt3__110unique_ptrIN5memdb9Tokenizer11SubCommandTENS_14default_deleteIS3_EEEC2B8ue170006ILb1EvEEPS3_, symObjAddr: 0x5F844, symBinAddr: 0x100061150, symSize: 0x2B8 }
  - { offsetInCU: 0x4CD32, offset: 0x4CD32, size: 0x8, addend: 0x0, symName: __ZNSt3__117__compressed_pairIPN5memdb9Tokenizer11SubCommandTENS_14default_deleteIS3_EEEC1B8ue170006IRS4_NS_16__value_init_tagEEEOT_OT0_, symObjAddr: 0x5FAFC, symBinAddr: 0x100061408, symSize: 0x88 }
  - { offsetInCU: 0x4CD8A, offset: 0x4CD8A, size: 0x8, addend: 0x0, symName: __ZNSt3__117__compressed_pairIPN5memdb9Tokenizer11SubCommandTENS_14default_deleteIS3_EEEC2B8ue170006IRS4_NS_16__value_init_tagEEEOT_OT0_, symObjAddr: 0x5FB84, symBinAddr: 0x100061490, symSize: 0x140 }
  - { offsetInCU: 0x4CDE2, offset: 0x4CDE2, size: 0x8, addend: 0x0, symName: __ZNSt3__122__compressed_pair_elemIPN5memdb9Tokenizer11SubCommandTELi0ELb0EEC2B8ue170006IRS4_vEEOT_, symObjAddr: 0x5FCC4, symBinAddr: 0x1000615D0, symSize: 0x144 }
  - { offsetInCU: 0x4CE24, offset: 0x4CE24, size: 0x8, addend: 0x0, symName: __ZNSt3__122__compressed_pair_elemINS_14default_deleteIN5memdb9Tokenizer11SubCommandTEEELi1ELb1EEC2B8ue170006ENS_16__value_init_tagE, symObjAddr: 0x5FE08, symBinAddr: 0x100061714, symSize: 0x54 }
  - { offsetInCU: 0x4CE58, offset: 0x4CE58, size: 0x8, addend: 0x0, symName: __ZNSt3__19allocatorIN5memdb9Tokenizer11SubCommandTEEC2B8ue170006Ev, symObjAddr: 0x5FE5C, symBinAddr: 0x100061768, symSize: 0x84 }
  - { offsetInCU: 0x4CE82, offset: 0x4CE82, size: 0x8, addend: 0x0, symName: __ZNSt3__116__non_trivial_ifILb1ENS_9allocatorIN5memdb9Tokenizer11SubCommandTEEEEC2B8ue170006Ev, symObjAddr: 0x5FEE0, symBinAddr: 0x1000617EC, symSize: 0x54 }
  - { offsetInCU: 0x4CEAC, offset: 0x4CEAC, size: 0x8, addend: 0x0, symName: __ZNSt3__120__shared_ptr_pointerIPN5memdb9Tokenizer11SubCommandTENS_10shared_ptrINS2_5TokenEE27__shared_ptr_default_deleteIS6_S3_EENS_9allocatorIS3_EEEC2B8ue170006ES4_S9_SB_, symObjAddr: 0x5FF34, symBinAddr: 0x100061840, symSize: 0x44C }
  - { offsetInCU: 0x4CF13, offset: 0x4CF13, size: 0x8, addend: 0x0, symName: __ZNSt3__117__compressed_pairIPN5memdb9Tokenizer11SubCommandTENS_10shared_ptrINS2_5TokenEE27__shared_ptr_default_deleteIS6_S3_EEEC1B8ue170006IRS4_S9_EEOT_OT0_, symObjAddr: 0x60380, symBinAddr: 0x100061C8C, symSize: 0x88 }
  - { offsetInCU: 0x4CF77, offset: 0x4CF77, size: 0x8, addend: 0x0, symName: __ZNSt3__117__compressed_pairINS0_IPN5memdb9Tokenizer11SubCommandTENS_10shared_ptrINS2_5TokenEE27__shared_ptr_default_deleteIS6_S3_EEEENS_9allocatorIS3_EEEC1B8ue170006ISA_SC_EEOT_OT0_, symObjAddr: 0x60408, symBinAddr: 0x100061D14, symSize: 0x88 }
  - { offsetInCU: 0x4CFCF, offset: 0x4CFCF, size: 0x8, addend: 0x0, symName: __ZNSt3__120__shared_ptr_pointerIPN5memdb9Tokenizer11SubCommandTENS_10shared_ptrINS2_5TokenEE27__shared_ptr_default_deleteIS6_S3_EENS_9allocatorIS3_EEED1Ev, symObjAddr: 0x60490, symBinAddr: 0x100061D9C, symSize: 0x78 }
  - { offsetInCU: 0x4CFFB, offset: 0x4CFFB, size: 0x8, addend: 0x0, symName: __ZNSt3__120__shared_ptr_pointerIPN5memdb9Tokenizer11SubCommandTENS_10shared_ptrINS2_5TokenEE27__shared_ptr_default_deleteIS6_S3_EENS_9allocatorIS3_EEED0Ev, symObjAddr: 0x60508, symBinAddr: 0x100061E14, symSize: 0x74 }
  - { offsetInCU: 0x4D027, offset: 0x4D027, size: 0x8, addend: 0x0, symName: __ZNSt3__120__shared_ptr_pointerIPN5memdb9Tokenizer11SubCommandTENS_10shared_ptrINS2_5TokenEE27__shared_ptr_default_deleteIS6_S3_EENS_9allocatorIS3_EEE16__on_zero_sharedEv, symObjAddr: 0x6057C, symBinAddr: 0x100061E88, symSize: 0x460 }
  - { offsetInCU: 0x4D04F, offset: 0x4D04F, size: 0x8, addend: 0x0, symName: __ZNKSt3__120__shared_ptr_pointerIPN5memdb9Tokenizer11SubCommandTENS_10shared_ptrINS2_5TokenEE27__shared_ptr_default_deleteIS6_S3_EENS_9allocatorIS3_EEE13__get_deleterERKSt9type_info, symObjAddr: 0x609DC, symBinAddr: 0x1000622E8, symSize: 0x298 }
  - { offsetInCU: 0x4D084, offset: 0x4D084, size: 0x8, addend: 0x0, symName: __ZNSt3__120__shared_ptr_pointerIPN5memdb9Tokenizer11SubCommandTENS_10shared_ptrINS2_5TokenEE27__shared_ptr_default_deleteIS6_S3_EENS_9allocatorIS3_EEE21__on_zero_shared_weakEv, symObjAddr: 0x60C74, symBinAddr: 0x100062580, symSize: 0x448 }
  - { offsetInCU: 0x4D0CC, offset: 0x4D0CC, size: 0x8, addend: 0x0, symName: __ZNSt3__117__compressed_pairIPN5memdb9Tokenizer11SubCommandTENS_10shared_ptrINS2_5TokenEE27__shared_ptr_default_deleteIS6_S3_EEEC2B8ue170006IRS4_S9_EEOT_OT0_, symObjAddr: 0x610BC, symBinAddr: 0x1000629C8, symSize: 0x170 }
  - { offsetInCU: 0x4D124, offset: 0x4D124, size: 0x8, addend: 0x0, symName: __ZNSt3__122__compressed_pair_elemINS_10shared_ptrIN5memdb9Tokenizer5TokenEE27__shared_ptr_default_deleteIS4_NS3_11SubCommandTEEELi1ELb1EEC2B8ue170006IS8_vEEOT_, symObjAddr: 0x6122C, symBinAddr: 0x100062B38, symSize: 0x58 }
  - { offsetInCU: 0x4D166, offset: 0x4D166, size: 0x8, addend: 0x0, symName: __ZNSt3__117__compressed_pairINS0_IPN5memdb9Tokenizer11SubCommandTENS_10shared_ptrINS2_5TokenEE27__shared_ptr_default_deleteIS6_S3_EEEENS_9allocatorIS3_EEEC2B8ue170006ISA_SC_EEOT_OT0_, symObjAddr: 0x61284, symBinAddr: 0x100062B90, symSize: 0x170 }
  - { offsetInCU: 0x4D1BE, offset: 0x4D1BE, size: 0x8, addend: 0x0, symName: __ZNSt3__122__compressed_pair_elemINS_17__compressed_pairIPN5memdb9Tokenizer11SubCommandTENS_10shared_ptrINS3_5TokenEE27__shared_ptr_default_deleteIS7_S4_EEEELi0ELb0EEC2B8ue170006ISB_vEEOT_, symObjAddr: 0x613F4, symBinAddr: 0x100062D00, symSize: 0x84 }
  - { offsetInCU: 0x4D200, offset: 0x4D200, size: 0x8, addend: 0x0, symName: __ZNSt3__122__compressed_pair_elemINS_9allocatorIN5memdb9Tokenizer11SubCommandTEEELi1ELb1EEC2B8ue170006IS5_vEEOT_, symObjAddr: 0x61478, symBinAddr: 0x100062D84, symSize: 0x58 }
  - { offsetInCU: 0x4D242, offset: 0x4D242, size: 0x8, addend: 0x0, symName: __ZNSt3__120__shared_ptr_pointerIPN5memdb9Tokenizer11SubCommandTENS_10shared_ptrINS2_5TokenEE27__shared_ptr_default_deleteIS6_S3_EENS_9allocatorIS3_EEED2Ev, symObjAddr: 0x614D0, symBinAddr: 0x100062DDC, symSize: 0x78 }
  - { offsetInCU: 0x4D26E, offset: 0x4D26E, size: 0x8, addend: 0x0, symName: __ZNSt3__117__compressed_pairINS0_IPN5memdb9Tokenizer11SubCommandTENS_10shared_ptrINS2_5TokenEE27__shared_ptr_default_deleteIS6_S3_EEEENS_9allocatorIS3_EEE5firstB8ue170006Ev, symObjAddr: 0x61548, symBinAddr: 0x100062E54, symSize: 0x124 }
  - { offsetInCU: 0x4D294, offset: 0x4D294, size: 0x8, addend: 0x0, symName: __ZNSt3__117__compressed_pairIPN5memdb9Tokenizer11SubCommandTENS_10shared_ptrINS2_5TokenEE27__shared_ptr_default_deleteIS6_S3_EEE6secondB8ue170006Ev, symObjAddr: 0x6166C, symBinAddr: 0x100062F78, symSize: 0x108 }
  - { offsetInCU: 0x4D2BA, offset: 0x4D2BA, size: 0x8, addend: 0x0, symName: __ZNKSt3__114default_deleteIN5memdb9Tokenizer11SubCommandTEEclB8ue170006EPS3_, symObjAddr: 0x61774, symBinAddr: 0x100063080, symSize: 0x158 }
  - { offsetInCU: 0x4D2EE, offset: 0x4D2EE, size: 0x8, addend: 0x0, symName: __ZNSt3__117__compressed_pairIPN5memdb9Tokenizer11SubCommandTENS_10shared_ptrINS2_5TokenEE27__shared_ptr_default_deleteIS6_S3_EEE5firstB8ue170006Ev, symObjAddr: 0x618CC, symBinAddr: 0x1000631D8, symSize: 0x124 }
  - { offsetInCU: 0x4D314, offset: 0x4D314, size: 0x8, addend: 0x0, symName: __ZNSt3__122__compressed_pair_elemINS_17__compressed_pairIPN5memdb9Tokenizer11SubCommandTENS_10shared_ptrINS3_5TokenEE27__shared_ptr_default_deleteIS7_S4_EEEELi0ELb0EE5__getB8ue170006Ev, symObjAddr: 0x619F0, symBinAddr: 0x1000632FC, symSize: 0xAC }
  - { offsetInCU: 0x4D33A, offset: 0x4D33A, size: 0x8, addend: 0x0, symName: __ZNSt3__122__compressed_pair_elemINS_10shared_ptrIN5memdb9Tokenizer5TokenEE27__shared_ptr_default_deleteIS4_NS3_11SubCommandTEEELi1ELb1EE5__getB8ue170006Ev, symObjAddr: 0x61A9C, symBinAddr: 0x1000633A8, symSize: 0x74 }
  - { offsetInCU: 0x4D360, offset: 0x4D360, size: 0x8, addend: 0x0, symName: __ZNSt3__122__compressed_pair_elemIPN5memdb9Tokenizer11SubCommandTELi0ELb0EE5__getB8ue170006Ev, symObjAddr: 0x61B10, symBinAddr: 0x10006341C, symSize: 0xAC }
  - { offsetInCU: 0x4D386, offset: 0x4D386, size: 0x8, addend: 0x0, symName: __ZNKSt3__117__compressed_pairINS0_IPN5memdb9Tokenizer11SubCommandTENS_10shared_ptrINS2_5TokenEE27__shared_ptr_default_deleteIS6_S3_EEEENS_9allocatorIS3_EEE5firstB8ue170006Ev, symObjAddr: 0x61BBC, symBinAddr: 0x1000634C8, symSize: 0x124 }
  - { offsetInCU: 0x4D3AC, offset: 0x4D3AC, size: 0x8, addend: 0x0, symName: __ZNKSt3__117__compressed_pairIPN5memdb9Tokenizer11SubCommandTENS_10shared_ptrINS2_5TokenEE27__shared_ptr_default_deleteIS6_S3_EEE6secondB8ue170006Ev, symObjAddr: 0x61CE0, symBinAddr: 0x1000635EC, symSize: 0x108 }
  - { offsetInCU: 0x4D3D2, offset: 0x4D3D2, size: 0x8, addend: 0x0, symName: __ZNKSt3__122__compressed_pair_elemINS_17__compressed_pairIPN5memdb9Tokenizer11SubCommandTENS_10shared_ptrINS3_5TokenEE27__shared_ptr_default_deleteIS7_S4_EEEELi0ELb0EE5__getB8ue170006Ev, symObjAddr: 0x61DE8, symBinAddr: 0x1000636F4, symSize: 0xAC }
  - { offsetInCU: 0x4D3F8, offset: 0x4D3F8, size: 0x8, addend: 0x0, symName: __ZNKSt3__122__compressed_pair_elemINS_10shared_ptrIN5memdb9Tokenizer5TokenEE27__shared_ptr_default_deleteIS4_NS3_11SubCommandTEEELi1ELb1EE5__getB8ue170006Ev, symObjAddr: 0x61E94, symBinAddr: 0x1000637A0, symSize: 0x74 }
  - { offsetInCU: 0x4D41E, offset: 0x4D41E, size: 0x8, addend: 0x0, symName: __ZNSt3__117__compressed_pairINS0_IPN5memdb9Tokenizer11SubCommandTENS_10shared_ptrINS2_5TokenEE27__shared_ptr_default_deleteIS6_S3_EEEENS_9allocatorIS3_EEE6secondB8ue170006Ev, symObjAddr: 0x61F08, symBinAddr: 0x100063814, symSize: 0x108 }
  - { offsetInCU: 0x4D456, offset: 0x4D456, size: 0x8, addend: 0x0, symName: __ZNSt3__19allocatorINS_20__shared_ptr_pointerIPN5memdb9Tokenizer11SubCommandTENS_10shared_ptrINS3_5TokenEE27__shared_ptr_default_deleteIS7_S4_EENS0_IS4_EEEEEC1B8ue170006IS4_EERKNS0_IT_EE, symObjAddr: 0x62010, symBinAddr: 0x10006391C, symSize: 0x64 }
  - { offsetInCU: 0x4D493, offset: 0x4D493, size: 0x8, addend: 0x0, symName: __ZNSt3__19allocatorINS_20__shared_ptr_pointerIPN5memdb9Tokenizer11SubCommandTENS_10shared_ptrINS3_5TokenEE27__shared_ptr_default_deleteIS7_S4_EENS0_IS4_EEEEE10deallocateB8ue170006EPSC_m, symObjAddr: 0x62074, symBinAddr: 0x100063980, symSize: 0x78 }
  - { offsetInCU: 0x4D4DB, offset: 0x4D4DB, size: 0x8, addend: 0x0, symName: __ZNSt3__114pointer_traitsIPNS_20__shared_ptr_pointerIPN5memdb9Tokenizer11SubCommandTENS_10shared_ptrINS3_5TokenEE27__shared_ptr_default_deleteIS7_S4_EENS_9allocatorIS4_EEEEE10pointer_toB8ue170006ERSD_, symObjAddr: 0x620EC, symBinAddr: 0x1000639F8, symSize: 0x14 }
  - { offsetInCU: 0x4D4FE, offset: 0x4D4FE, size: 0x8, addend: 0x0, symName: __ZNSt3__122__compressed_pair_elemINS_9allocatorIN5memdb9Tokenizer11SubCommandTEEELi1ELb1EE5__getB8ue170006Ev, symObjAddr: 0x62100, symBinAddr: 0x100063A0C, symSize: 0x74 }
  - { offsetInCU: 0x4D524, offset: 0x4D524, size: 0x8, addend: 0x0, symName: __ZNSt3__19allocatorINS_20__shared_ptr_pointerIPN5memdb9Tokenizer11SubCommandTENS_10shared_ptrINS3_5TokenEE27__shared_ptr_default_deleteIS7_S4_EENS0_IS4_EEEEEC2B8ue170006IS4_EERKNS0_IT_EE, symObjAddr: 0x62174, symBinAddr: 0x100063A80, symSize: 0x88 }
  - { offsetInCU: 0x4D561, offset: 0x4D561, size: 0x8, addend: 0x0, symName: __ZNSt3__116__non_trivial_ifILb1ENS_9allocatorINS_20__shared_ptr_pointerIPN5memdb9Tokenizer11SubCommandTENS_10shared_ptrINS4_5TokenEE27__shared_ptr_default_deleteIS8_S5_EENS1_IS5_EEEEEEEC2B8ue170006Ev, symObjAddr: 0x621FC, symBinAddr: 0x100063B08, symSize: 0x54 }
  - { offsetInCU: 0x4D58B, offset: 0x4D58B, size: 0x8, addend: 0x0, symName: __ZNSt3__117__compressed_pairIPN5memdb9Tokenizer11SubCommandTENS_14default_deleteIS3_EEE5firstB8ue170006Ev, symObjAddr: 0x62250, symBinAddr: 0x100063B5C, symSize: 0x124 }
  - { offsetInCU: 0x4D5B1, offset: 0x4D5B1, size: 0x8, addend: 0x0, symName: __ZNSt3__110unique_ptrIN5memdb9Tokenizer11SubCommandTENS_14default_deleteIS3_EEED2B8ue170006Ev, symObjAddr: 0x62374, symBinAddr: 0x100063C80, symSize: 0x7C }
  - { offsetInCU: 0x4D5DB, offset: 0x4D5DB, size: 0x8, addend: 0x0, symName: __ZNSt3__110unique_ptrIN5memdb9Tokenizer11SubCommandTENS_14default_deleteIS3_EEE5resetB8ue170006EPS3_, symObjAddr: 0x623F0, symBinAddr: 0x100063CFC, symSize: 0x2B0 }
  - { offsetInCU: 0x4D61F, offset: 0x4D61F, size: 0x8, addend: 0x0, symName: __ZNSt3__117__compressed_pairIPN5memdb9Tokenizer11SubCommandTENS_14default_deleteIS3_EEE6secondB8ue170006Ev, symObjAddr: 0x626A0, symBinAddr: 0x100063FAC, symSize: 0x108 }
  - { offsetInCU: 0x4D645, offset: 0x4D645, size: 0x8, addend: 0x0, symName: __ZNSt3__122__compressed_pair_elemINS_14default_deleteIN5memdb9Tokenizer11SubCommandTEEELi1ELb1EE5__getB8ue170006Ev, symObjAddr: 0x627A8, symBinAddr: 0x1000640B4, symSize: 0x74 }
  - { offsetInCU: 0x4D66B, offset: 0x4D66B, size: 0x8, addend: 0x0, symName: __ZN5memdb9Tokenizer11SubCommandTC2Ev, symObjAddr: 0x6281C, symBinAddr: 0x100064128, symSize: 0x118 }
  - { offsetInCU: 0x4D695, offset: 0x4D695, size: 0x8, addend: 0x0, symName: __ZNK5memdb9Tokenizer11SubCommandT7GetTypeEv, symObjAddr: 0x62934, symBinAddr: 0x100064240, symSize: 0x64 }
  - { offsetInCU: 0x4D6BB, offset: 0x4D6BB, size: 0x8, addend: 0x0, symName: __ZN5memdb9Tokenizer11SubCommandT4CopyEv, symObjAddr: 0x62998, symBinAddr: 0x1000642A4, symSize: 0x30C }
  - { offsetInCU: 0x4D6F1, offset: 0x4D6F1, size: 0x8, addend: 0x0, symName: __ZN5memdb9Tokenizer11SubCommandT5ParseERNSt3__16vectorINS2_12basic_stringIcNS2_11char_traitsIcEENS2_9allocatorIcEEEENS7_IS9_EEEERi, symObjAddr: 0x62CA4, symBinAddr: 0x1000645B0, symSize: 0x738 }
  - { offsetInCU: 0x4D74B, offset: 0x4D74B, size: 0x8, addend: 0x0, symName: __ZN5memdb9Tokenizer11SubCommandTC1ENS_5lexer10SubCommandE, symObjAddr: 0x633DC, symBinAddr: 0x100064CE8, symSize: 0x80 }
  - { offsetInCU: 0x4D784, offset: 0x4D784, size: 0x8, addend: 0x0, symName: __ZN5memdb9Tokenizer11SubCommandTC2ENS_5lexer10SubCommandE, symObjAddr: 0x6345C, symBinAddr: 0x100064D68, symSize: 0x188 }
  - { offsetInCU: 0x4D7BD, offset: 0x4D7BD, size: 0x8, addend: 0x0, symName: __ZNSt3__110shared_ptrIN5memdb9Tokenizer5TokenEE5resetB8ue170006INS2_10AttributeTEvEEvPT_, symObjAddr: 0x635E4, symBinAddr: 0x100064EF0, symSize: 0x27C }
  - { offsetInCU: 0x4D7FE, offset: 0x4D7FE, size: 0x8, addend: 0x0, symName: __ZN5memdb9Tokenizer10AttributeTC1Ev, symObjAddr: 0x63860, symBinAddr: 0x10006516C, symSize: 0x78 }
  - { offsetInCU: 0x4D828, offset: 0x4D828, size: 0x8, addend: 0x0, symName: __ZNSt3__110shared_ptrIN5memdb9Tokenizer5TokenEEC1B8ue170006INS2_10AttributeTEvEEPT_, symObjAddr: 0x638D8, symBinAddr: 0x1000651E4, symSize: 0x80 }
  - { offsetInCU: 0x4D86B, offset: 0x4D86B, size: 0x8, addend: 0x0, symName: __ZNSt3__110shared_ptrIN5memdb9Tokenizer5TokenEEC2B8ue170006INS2_10AttributeTEvEEPT_, symObjAddr: 0x63958, symBinAddr: 0x100065264, symSize: 0x4D8 }
  - { offsetInCU: 0x4D97D, offset: 0x4D97D, size: 0x8, addend: 0x0, symName: __ZNSt3__110unique_ptrIN5memdb9Tokenizer10AttributeTENS_14default_deleteIS3_EEEC1B8ue170006ILb1EvEEPS3_, symObjAddr: 0x63E30, symBinAddr: 0x10006573C, symSize: 0x80 }
  - { offsetInCU: 0x4D9CC, offset: 0x4D9CC, size: 0x8, addend: 0x0, symName: __ZNSt3__19allocatorIN5memdb9Tokenizer10AttributeTEEC1B8ue170006Ev, symObjAddr: 0x63EB0, symBinAddr: 0x1000657BC, symSize: 0x5C }
  - { offsetInCU: 0x4DAB6, offset: 0x4DAB6, size: 0x8, addend: 0x0, symName: __ZNSt3__120__shared_ptr_pointerIPN5memdb9Tokenizer10AttributeTENS_10shared_ptrINS2_5TokenEE27__shared_ptr_default_deleteIS6_S3_EENS_9allocatorIS3_EEEC1B8ue170006ES4_S9_SB_, symObjAddr: 0x63F0C, symBinAddr: 0x100065818, symSize: 0x80 }
  - { offsetInCU: 0x4DB0A, offset: 0x4DB0A, size: 0x8, addend: 0x0, symName: __ZNSt3__110unique_ptrIN5memdb9Tokenizer10AttributeTENS_14default_deleteIS3_EEE7releaseB8ue170006Ev, symObjAddr: 0x63F8C, symBinAddr: 0x100065898, symSize: 0x20C }
  - { offsetInCU: 0x4DB3F, offset: 0x4DB3F, size: 0x8, addend: 0x0, symName: __ZNSt3__110unique_ptrIN5memdb9Tokenizer10AttributeTENS_14default_deleteIS3_EEED1B8ue170006Ev, symObjAddr: 0x64198, symBinAddr: 0x100065AA4, symSize: 0x78 }
  - { offsetInCU: 0x4DB69, offset: 0x4DB69, size: 0x8, addend: 0x0, symName: __ZNSt3__110unique_ptrIN5memdb9Tokenizer10AttributeTENS_14default_deleteIS3_EEEC2B8ue170006ILb1EvEEPS3_, symObjAddr: 0x64210, symBinAddr: 0x100065B1C, symSize: 0x2B8 }
  - { offsetInCU: 0x4DBB1, offset: 0x4DBB1, size: 0x8, addend: 0x0, symName: __ZNSt3__117__compressed_pairIPN5memdb9Tokenizer10AttributeTENS_14default_deleteIS3_EEEC1B8ue170006IRS4_NS_16__value_init_tagEEEOT_OT0_, symObjAddr: 0x644C8, symBinAddr: 0x100065DD4, symSize: 0x88 }
  - { offsetInCU: 0x4DC09, offset: 0x4DC09, size: 0x8, addend: 0x0, symName: __ZNSt3__117__compressed_pairIPN5memdb9Tokenizer10AttributeTENS_14default_deleteIS3_EEEC2B8ue170006IRS4_NS_16__value_init_tagEEEOT_OT0_, symObjAddr: 0x64550, symBinAddr: 0x100065E5C, symSize: 0x140 }
  - { offsetInCU: 0x4DC61, offset: 0x4DC61, size: 0x8, addend: 0x0, symName: __ZNSt3__122__compressed_pair_elemIPN5memdb9Tokenizer10AttributeTELi0ELb0EEC2B8ue170006IRS4_vEEOT_, symObjAddr: 0x64690, symBinAddr: 0x100065F9C, symSize: 0x144 }
  - { offsetInCU: 0x4DCA3, offset: 0x4DCA3, size: 0x8, addend: 0x0, symName: __ZNSt3__122__compressed_pair_elemINS_14default_deleteIN5memdb9Tokenizer10AttributeTEEELi1ELb1EEC2B8ue170006ENS_16__value_init_tagE, symObjAddr: 0x647D4, symBinAddr: 0x1000660E0, symSize: 0x54 }
  - { offsetInCU: 0x4DCD7, offset: 0x4DCD7, size: 0x8, addend: 0x0, symName: __ZNSt3__19allocatorIN5memdb9Tokenizer10AttributeTEEC2B8ue170006Ev, symObjAddr: 0x64828, symBinAddr: 0x100066134, symSize: 0x84 }
  - { offsetInCU: 0x4DD01, offset: 0x4DD01, size: 0x8, addend: 0x0, symName: __ZNSt3__116__non_trivial_ifILb1ENS_9allocatorIN5memdb9Tokenizer10AttributeTEEEEC2B8ue170006Ev, symObjAddr: 0x648AC, symBinAddr: 0x1000661B8, symSize: 0x54 }
  - { offsetInCU: 0x4DD2B, offset: 0x4DD2B, size: 0x8, addend: 0x0, symName: __ZNSt3__120__shared_ptr_pointerIPN5memdb9Tokenizer10AttributeTENS_10shared_ptrINS2_5TokenEE27__shared_ptr_default_deleteIS6_S3_EENS_9allocatorIS3_EEEC2B8ue170006ES4_S9_SB_, symObjAddr: 0x64900, symBinAddr: 0x10006620C, symSize: 0x44C }
  - { offsetInCU: 0x4DD92, offset: 0x4DD92, size: 0x8, addend: 0x0, symName: __ZNSt3__117__compressed_pairIPN5memdb9Tokenizer10AttributeTENS_10shared_ptrINS2_5TokenEE27__shared_ptr_default_deleteIS6_S3_EEEC1B8ue170006IRS4_S9_EEOT_OT0_, symObjAddr: 0x64D4C, symBinAddr: 0x100066658, symSize: 0x88 }
  - { offsetInCU: 0x4DDF6, offset: 0x4DDF6, size: 0x8, addend: 0x0, symName: __ZNSt3__117__compressed_pairINS0_IPN5memdb9Tokenizer10AttributeTENS_10shared_ptrINS2_5TokenEE27__shared_ptr_default_deleteIS6_S3_EEEENS_9allocatorIS3_EEEC1B8ue170006ISA_SC_EEOT_OT0_, symObjAddr: 0x64DD4, symBinAddr: 0x1000666E0, symSize: 0x88 }
  - { offsetInCU: 0x4DE4E, offset: 0x4DE4E, size: 0x8, addend: 0x0, symName: __ZNSt3__120__shared_ptr_pointerIPN5memdb9Tokenizer10AttributeTENS_10shared_ptrINS2_5TokenEE27__shared_ptr_default_deleteIS6_S3_EENS_9allocatorIS3_EEED1Ev, symObjAddr: 0x64E5C, symBinAddr: 0x100066768, symSize: 0x78 }
  - { offsetInCU: 0x4DE7A, offset: 0x4DE7A, size: 0x8, addend: 0x0, symName: __ZNSt3__120__shared_ptr_pointerIPN5memdb9Tokenizer10AttributeTENS_10shared_ptrINS2_5TokenEE27__shared_ptr_default_deleteIS6_S3_EENS_9allocatorIS3_EEED0Ev, symObjAddr: 0x64ED4, symBinAddr: 0x1000667E0, symSize: 0x74 }
  - { offsetInCU: 0x4DEA6, offset: 0x4DEA6, size: 0x8, addend: 0x0, symName: __ZNSt3__120__shared_ptr_pointerIPN5memdb9Tokenizer10AttributeTENS_10shared_ptrINS2_5TokenEE27__shared_ptr_default_deleteIS6_S3_EENS_9allocatorIS3_EEE16__on_zero_sharedEv, symObjAddr: 0x64F48, symBinAddr: 0x100066854, symSize: 0x460 }
  - { offsetInCU: 0x4DECE, offset: 0x4DECE, size: 0x8, addend: 0x0, symName: __ZNKSt3__120__shared_ptr_pointerIPN5memdb9Tokenizer10AttributeTENS_10shared_ptrINS2_5TokenEE27__shared_ptr_default_deleteIS6_S3_EENS_9allocatorIS3_EEE13__get_deleterERKSt9type_info, symObjAddr: 0x653A8, symBinAddr: 0x100066CB4, symSize: 0x298 }
  - { offsetInCU: 0x4DF03, offset: 0x4DF03, size: 0x8, addend: 0x0, symName: __ZNSt3__120__shared_ptr_pointerIPN5memdb9Tokenizer10AttributeTENS_10shared_ptrINS2_5TokenEE27__shared_ptr_default_deleteIS6_S3_EENS_9allocatorIS3_EEE21__on_zero_shared_weakEv, symObjAddr: 0x65640, symBinAddr: 0x100066F4C, symSize: 0x448 }
  - { offsetInCU: 0x4DF4B, offset: 0x4DF4B, size: 0x8, addend: 0x0, symName: __ZNSt3__117__compressed_pairIPN5memdb9Tokenizer10AttributeTENS_10shared_ptrINS2_5TokenEE27__shared_ptr_default_deleteIS6_S3_EEEC2B8ue170006IRS4_S9_EEOT_OT0_, symObjAddr: 0x65A88, symBinAddr: 0x100067394, symSize: 0x170 }
  - { offsetInCU: 0x4DFA3, offset: 0x4DFA3, size: 0x8, addend: 0x0, symName: __ZNSt3__122__compressed_pair_elemINS_10shared_ptrIN5memdb9Tokenizer5TokenEE27__shared_ptr_default_deleteIS4_NS3_10AttributeTEEELi1ELb1EEC2B8ue170006IS8_vEEOT_, symObjAddr: 0x65BF8, symBinAddr: 0x100067504, symSize: 0x58 }
  - { offsetInCU: 0x4DFE5, offset: 0x4DFE5, size: 0x8, addend: 0x0, symName: __ZNSt3__117__compressed_pairINS0_IPN5memdb9Tokenizer10AttributeTENS_10shared_ptrINS2_5TokenEE27__shared_ptr_default_deleteIS6_S3_EEEENS_9allocatorIS3_EEEC2B8ue170006ISA_SC_EEOT_OT0_, symObjAddr: 0x65C50, symBinAddr: 0x10006755C, symSize: 0x170 }
  - { offsetInCU: 0x4E03D, offset: 0x4E03D, size: 0x8, addend: 0x0, symName: __ZNSt3__122__compressed_pair_elemINS_17__compressed_pairIPN5memdb9Tokenizer10AttributeTENS_10shared_ptrINS3_5TokenEE27__shared_ptr_default_deleteIS7_S4_EEEELi0ELb0EEC2B8ue170006ISB_vEEOT_, symObjAddr: 0x65DC0, symBinAddr: 0x1000676CC, symSize: 0x84 }
  - { offsetInCU: 0x4E07F, offset: 0x4E07F, size: 0x8, addend: 0x0, symName: __ZNSt3__122__compressed_pair_elemINS_9allocatorIN5memdb9Tokenizer10AttributeTEEELi1ELb1EEC2B8ue170006IS5_vEEOT_, symObjAddr: 0x65E44, symBinAddr: 0x100067750, symSize: 0x58 }
  - { offsetInCU: 0x4E0C1, offset: 0x4E0C1, size: 0x8, addend: 0x0, symName: __ZNSt3__120__shared_ptr_pointerIPN5memdb9Tokenizer10AttributeTENS_10shared_ptrINS2_5TokenEE27__shared_ptr_default_deleteIS6_S3_EENS_9allocatorIS3_EEED2Ev, symObjAddr: 0x65E9C, symBinAddr: 0x1000677A8, symSize: 0x78 }
  - { offsetInCU: 0x4E0ED, offset: 0x4E0ED, size: 0x8, addend: 0x0, symName: __ZNSt3__117__compressed_pairINS0_IPN5memdb9Tokenizer10AttributeTENS_10shared_ptrINS2_5TokenEE27__shared_ptr_default_deleteIS6_S3_EEEENS_9allocatorIS3_EEE5firstB8ue170006Ev, symObjAddr: 0x65F14, symBinAddr: 0x100067820, symSize: 0x124 }
  - { offsetInCU: 0x4E113, offset: 0x4E113, size: 0x8, addend: 0x0, symName: __ZNSt3__117__compressed_pairIPN5memdb9Tokenizer10AttributeTENS_10shared_ptrINS2_5TokenEE27__shared_ptr_default_deleteIS6_S3_EEE6secondB8ue170006Ev, symObjAddr: 0x66038, symBinAddr: 0x100067944, symSize: 0x108 }
  - { offsetInCU: 0x4E139, offset: 0x4E139, size: 0x8, addend: 0x0, symName: __ZNKSt3__114default_deleteIN5memdb9Tokenizer10AttributeTEEclB8ue170006EPS3_, symObjAddr: 0x66140, symBinAddr: 0x100067A4C, symSize: 0x158 }
  - { offsetInCU: 0x4E16D, offset: 0x4E16D, size: 0x8, addend: 0x0, symName: __ZNSt3__117__compressed_pairIPN5memdb9Tokenizer10AttributeTENS_10shared_ptrINS2_5TokenEE27__shared_ptr_default_deleteIS6_S3_EEE5firstB8ue170006Ev, symObjAddr: 0x66298, symBinAddr: 0x100067BA4, symSize: 0x124 }
  - { offsetInCU: 0x4E193, offset: 0x4E193, size: 0x8, addend: 0x0, symName: __ZNSt3__122__compressed_pair_elemINS_17__compressed_pairIPN5memdb9Tokenizer10AttributeTENS_10shared_ptrINS3_5TokenEE27__shared_ptr_default_deleteIS7_S4_EEEELi0ELb0EE5__getB8ue170006Ev, symObjAddr: 0x663BC, symBinAddr: 0x100067CC8, symSize: 0xAC }
  - { offsetInCU: 0x4E1B9, offset: 0x4E1B9, size: 0x8, addend: 0x0, symName: __ZNSt3__122__compressed_pair_elemINS_10shared_ptrIN5memdb9Tokenizer5TokenEE27__shared_ptr_default_deleteIS4_NS3_10AttributeTEEELi1ELb1EE5__getB8ue170006Ev, symObjAddr: 0x66468, symBinAddr: 0x100067D74, symSize: 0x74 }
  - { offsetInCU: 0x4E1DF, offset: 0x4E1DF, size: 0x8, addend: 0x0, symName: __ZNSt3__122__compressed_pair_elemIPN5memdb9Tokenizer10AttributeTELi0ELb0EE5__getB8ue170006Ev, symObjAddr: 0x664DC, symBinAddr: 0x100067DE8, symSize: 0xAC }
  - { offsetInCU: 0x4E205, offset: 0x4E205, size: 0x8, addend: 0x0, symName: __ZNKSt3__117__compressed_pairINS0_IPN5memdb9Tokenizer10AttributeTENS_10shared_ptrINS2_5TokenEE27__shared_ptr_default_deleteIS6_S3_EEEENS_9allocatorIS3_EEE5firstB8ue170006Ev, symObjAddr: 0x66588, symBinAddr: 0x100067E94, symSize: 0x124 }
  - { offsetInCU: 0x4E22B, offset: 0x4E22B, size: 0x8, addend: 0x0, symName: __ZNKSt3__117__compressed_pairIPN5memdb9Tokenizer10AttributeTENS_10shared_ptrINS2_5TokenEE27__shared_ptr_default_deleteIS6_S3_EEE6secondB8ue170006Ev, symObjAddr: 0x666AC, symBinAddr: 0x100067FB8, symSize: 0x108 }
  - { offsetInCU: 0x4E251, offset: 0x4E251, size: 0x8, addend: 0x0, symName: __ZNKSt3__122__compressed_pair_elemINS_17__compressed_pairIPN5memdb9Tokenizer10AttributeTENS_10shared_ptrINS3_5TokenEE27__shared_ptr_default_deleteIS7_S4_EEEELi0ELb0EE5__getB8ue170006Ev, symObjAddr: 0x667B4, symBinAddr: 0x1000680C0, symSize: 0xAC }
  - { offsetInCU: 0x4E277, offset: 0x4E277, size: 0x8, addend: 0x0, symName: __ZNKSt3__122__compressed_pair_elemINS_10shared_ptrIN5memdb9Tokenizer5TokenEE27__shared_ptr_default_deleteIS4_NS3_10AttributeTEEELi1ELb1EE5__getB8ue170006Ev, symObjAddr: 0x66860, symBinAddr: 0x10006816C, symSize: 0x74 }
  - { offsetInCU: 0x4E29D, offset: 0x4E29D, size: 0x8, addend: 0x0, symName: __ZNSt3__117__compressed_pairINS0_IPN5memdb9Tokenizer10AttributeTENS_10shared_ptrINS2_5TokenEE27__shared_ptr_default_deleteIS6_S3_EEEENS_9allocatorIS3_EEE6secondB8ue170006Ev, symObjAddr: 0x668D4, symBinAddr: 0x1000681E0, symSize: 0x108 }
  - { offsetInCU: 0x4E2D5, offset: 0x4E2D5, size: 0x8, addend: 0x0, symName: __ZNSt3__19allocatorINS_20__shared_ptr_pointerIPN5memdb9Tokenizer10AttributeTENS_10shared_ptrINS3_5TokenEE27__shared_ptr_default_deleteIS7_S4_EENS0_IS4_EEEEEC1B8ue170006IS4_EERKNS0_IT_EE, symObjAddr: 0x669DC, symBinAddr: 0x1000682E8, symSize: 0x64 }
  - { offsetInCU: 0x4E312, offset: 0x4E312, size: 0x8, addend: 0x0, symName: __ZNSt3__19allocatorINS_20__shared_ptr_pointerIPN5memdb9Tokenizer10AttributeTENS_10shared_ptrINS3_5TokenEE27__shared_ptr_default_deleteIS7_S4_EENS0_IS4_EEEEE10deallocateB8ue170006EPSC_m, symObjAddr: 0x66A40, symBinAddr: 0x10006834C, symSize: 0x78 }
  - { offsetInCU: 0x4E35A, offset: 0x4E35A, size: 0x8, addend: 0x0, symName: __ZNSt3__114pointer_traitsIPNS_20__shared_ptr_pointerIPN5memdb9Tokenizer10AttributeTENS_10shared_ptrINS3_5TokenEE27__shared_ptr_default_deleteIS7_S4_EENS_9allocatorIS4_EEEEE10pointer_toB8ue170006ERSD_, symObjAddr: 0x66AB8, symBinAddr: 0x1000683C4, symSize: 0x14 }
  - { offsetInCU: 0x4E37D, offset: 0x4E37D, size: 0x8, addend: 0x0, symName: __ZNSt3__122__compressed_pair_elemINS_9allocatorIN5memdb9Tokenizer10AttributeTEEELi1ELb1EE5__getB8ue170006Ev, symObjAddr: 0x66ACC, symBinAddr: 0x1000683D8, symSize: 0x74 }
  - { offsetInCU: 0x4E3A3, offset: 0x4E3A3, size: 0x8, addend: 0x0, symName: __ZNSt3__19allocatorINS_20__shared_ptr_pointerIPN5memdb9Tokenizer10AttributeTENS_10shared_ptrINS3_5TokenEE27__shared_ptr_default_deleteIS7_S4_EENS0_IS4_EEEEEC2B8ue170006IS4_EERKNS0_IT_EE, symObjAddr: 0x66B40, symBinAddr: 0x10006844C, symSize: 0x88 }
  - { offsetInCU: 0x4E3E0, offset: 0x4E3E0, size: 0x8, addend: 0x0, symName: __ZNSt3__116__non_trivial_ifILb1ENS_9allocatorINS_20__shared_ptr_pointerIPN5memdb9Tokenizer10AttributeTENS_10shared_ptrINS4_5TokenEE27__shared_ptr_default_deleteIS8_S5_EENS1_IS5_EEEEEEEC2B8ue170006Ev, symObjAddr: 0x66BC8, symBinAddr: 0x1000684D4, symSize: 0x54 }
  - { offsetInCU: 0x4E40A, offset: 0x4E40A, size: 0x8, addend: 0x0, symName: __ZNSt3__117__compressed_pairIPN5memdb9Tokenizer10AttributeTENS_14default_deleteIS3_EEE5firstB8ue170006Ev, symObjAddr: 0x66C1C, symBinAddr: 0x100068528, symSize: 0x124 }
  - { offsetInCU: 0x4E430, offset: 0x4E430, size: 0x8, addend: 0x0, symName: __ZNSt3__110unique_ptrIN5memdb9Tokenizer10AttributeTENS_14default_deleteIS3_EEED2B8ue170006Ev, symObjAddr: 0x66D40, symBinAddr: 0x10006864C, symSize: 0x7C }
  - { offsetInCU: 0x4E45A, offset: 0x4E45A, size: 0x8, addend: 0x0, symName: __ZNSt3__110unique_ptrIN5memdb9Tokenizer10AttributeTENS_14default_deleteIS3_EEE5resetB8ue170006EPS3_, symObjAddr: 0x66DBC, symBinAddr: 0x1000686C8, symSize: 0x2B0 }
  - { offsetInCU: 0x4E49E, offset: 0x4E49E, size: 0x8, addend: 0x0, symName: __ZNSt3__117__compressed_pairIPN5memdb9Tokenizer10AttributeTENS_14default_deleteIS3_EEE6secondB8ue170006Ev, symObjAddr: 0x6706C, symBinAddr: 0x100068978, symSize: 0x108 }
  - { offsetInCU: 0x4E4C4, offset: 0x4E4C4, size: 0x8, addend: 0x0, symName: __ZNSt3__122__compressed_pair_elemINS_14default_deleteIN5memdb9Tokenizer10AttributeTEEELi1ELb1EE5__getB8ue170006Ev, symObjAddr: 0x67174, symBinAddr: 0x100068A80, symSize: 0x74 }
  - { offsetInCU: 0x4E4EA, offset: 0x4E4EA, size: 0x8, addend: 0x0, symName: __ZN5memdb9Tokenizer10AttributeTC2Ev, symObjAddr: 0x671E8, symBinAddr: 0x100068AF4, symSize: 0x118 }
  - { offsetInCU: 0x4E514, offset: 0x4E514, size: 0x8, addend: 0x0, symName: __ZNK5memdb9Tokenizer10AttributeT7GetTypeEv, symObjAddr: 0x67300, symBinAddr: 0x100068C0C, symSize: 0x64 }
  - { offsetInCU: 0x4E53A, offset: 0x4E53A, size: 0x8, addend: 0x0, symName: __ZN5memdb9Tokenizer10AttributeT4CopyEv, symObjAddr: 0x67364, symBinAddr: 0x100068C70, symSize: 0x30C }
  - { offsetInCU: 0x4E570, offset: 0x4E570, size: 0x8, addend: 0x0, symName: __ZN5memdb9Tokenizer10AttributeT5ParseERNSt3__16vectorINS2_12basic_stringIcNS2_11char_traitsIcEENS2_9allocatorIcEEEENS7_IS9_EEEERi, symObjAddr: 0x67670, symBinAddr: 0x100068F7C, symSize: 0x738 }
  - { offsetInCU: 0x4E5CA, offset: 0x4E5CA, size: 0x8, addend: 0x0, symName: __ZN5memdb9Tokenizer10AttributeTC1ENS_5lexer9AttributeE, symObjAddr: 0x67DA8, symBinAddr: 0x1000696B4, symSize: 0x80 }
  - { offsetInCU: 0x4E603, offset: 0x4E603, size: 0x8, addend: 0x0, symName: __ZN5memdb9Tokenizer10AttributeTC2ENS_5lexer9AttributeE, symObjAddr: 0x67E28, symBinAddr: 0x100069734, symSize: 0x188 }
  - { offsetInCU: 0x4E63C, offset: 0x4E63C, size: 0x8, addend: 0x0, symName: __ZNSt3__110shared_ptrIN5memdb9Tokenizer5TokenEE5resetB8ue170006INS2_10OperationTEvEEvPT_, symObjAddr: 0x67FB0, symBinAddr: 0x1000698BC, symSize: 0x27C }
  - { offsetInCU: 0x4E67D, offset: 0x4E67D, size: 0x8, addend: 0x0, symName: __ZN5memdb9Tokenizer10OperationTC1Ev, symObjAddr: 0x6822C, symBinAddr: 0x100069B38, symSize: 0x78 }
  - { offsetInCU: 0x4E6A7, offset: 0x4E6A7, size: 0x8, addend: 0x0, symName: __ZNSt3__110shared_ptrIN5memdb9Tokenizer5TokenEEC1B8ue170006INS2_10OperationTEvEEPT_, symObjAddr: 0x682A4, symBinAddr: 0x100069BB0, symSize: 0x80 }
  - { offsetInCU: 0x4E6EA, offset: 0x4E6EA, size: 0x8, addend: 0x0, symName: __ZNSt3__110shared_ptrIN5memdb9Tokenizer5TokenEEC2B8ue170006INS2_10OperationTEvEEPT_, symObjAddr: 0x68324, symBinAddr: 0x100069C30, symSize: 0x4D8 }
  - { offsetInCU: 0x4E7FC, offset: 0x4E7FC, size: 0x8, addend: 0x0, symName: __ZNSt3__110unique_ptrIN5memdb9Tokenizer10OperationTENS_14default_deleteIS3_EEEC1B8ue170006ILb1EvEEPS3_, symObjAddr: 0x687FC, symBinAddr: 0x10006A108, symSize: 0x80 }
  - { offsetInCU: 0x4E84B, offset: 0x4E84B, size: 0x8, addend: 0x0, symName: __ZNSt3__19allocatorIN5memdb9Tokenizer10OperationTEEC1B8ue170006Ev, symObjAddr: 0x6887C, symBinAddr: 0x10006A188, symSize: 0x5C }
  - { offsetInCU: 0x4E935, offset: 0x4E935, size: 0x8, addend: 0x0, symName: __ZNSt3__120__shared_ptr_pointerIPN5memdb9Tokenizer10OperationTENS_10shared_ptrINS2_5TokenEE27__shared_ptr_default_deleteIS6_S3_EENS_9allocatorIS3_EEEC1B8ue170006ES4_S9_SB_, symObjAddr: 0x688D8, symBinAddr: 0x10006A1E4, symSize: 0x80 }
  - { offsetInCU: 0x4E989, offset: 0x4E989, size: 0x8, addend: 0x0, symName: __ZNSt3__110unique_ptrIN5memdb9Tokenizer10OperationTENS_14default_deleteIS3_EEE7releaseB8ue170006Ev, symObjAddr: 0x68958, symBinAddr: 0x10006A264, symSize: 0x20C }
  - { offsetInCU: 0x4E9BE, offset: 0x4E9BE, size: 0x8, addend: 0x0, symName: __ZNSt3__110unique_ptrIN5memdb9Tokenizer10OperationTENS_14default_deleteIS3_EEED1B8ue170006Ev, symObjAddr: 0x68B64, symBinAddr: 0x10006A470, symSize: 0x78 }
  - { offsetInCU: 0x4E9E8, offset: 0x4E9E8, size: 0x8, addend: 0x0, symName: __ZNSt3__110unique_ptrIN5memdb9Tokenizer10OperationTENS_14default_deleteIS3_EEEC2B8ue170006ILb1EvEEPS3_, symObjAddr: 0x68BDC, symBinAddr: 0x10006A4E8, symSize: 0x2B8 }
  - { offsetInCU: 0x4EA30, offset: 0x4EA30, size: 0x8, addend: 0x0, symName: __ZNSt3__117__compressed_pairIPN5memdb9Tokenizer10OperationTENS_14default_deleteIS3_EEEC1B8ue170006IRS4_NS_16__value_init_tagEEEOT_OT0_, symObjAddr: 0x68E94, symBinAddr: 0x10006A7A0, symSize: 0x88 }
  - { offsetInCU: 0x4EA88, offset: 0x4EA88, size: 0x8, addend: 0x0, symName: __ZNSt3__117__compressed_pairIPN5memdb9Tokenizer10OperationTENS_14default_deleteIS3_EEEC2B8ue170006IRS4_NS_16__value_init_tagEEEOT_OT0_, symObjAddr: 0x68F1C, symBinAddr: 0x10006A828, symSize: 0x140 }
  - { offsetInCU: 0x4EAE0, offset: 0x4EAE0, size: 0x8, addend: 0x0, symName: __ZNSt3__122__compressed_pair_elemIPN5memdb9Tokenizer10OperationTELi0ELb0EEC2B8ue170006IRS4_vEEOT_, symObjAddr: 0x6905C, symBinAddr: 0x10006A968, symSize: 0x144 }
  - { offsetInCU: 0x4EB22, offset: 0x4EB22, size: 0x8, addend: 0x0, symName: __ZNSt3__122__compressed_pair_elemINS_14default_deleteIN5memdb9Tokenizer10OperationTEEELi1ELb1EEC2B8ue170006ENS_16__value_init_tagE, symObjAddr: 0x691A0, symBinAddr: 0x10006AAAC, symSize: 0x54 }
  - { offsetInCU: 0x4EB56, offset: 0x4EB56, size: 0x8, addend: 0x0, symName: __ZNSt3__19allocatorIN5memdb9Tokenizer10OperationTEEC2B8ue170006Ev, symObjAddr: 0x691F4, symBinAddr: 0x10006AB00, symSize: 0x84 }
  - { offsetInCU: 0x4EB80, offset: 0x4EB80, size: 0x8, addend: 0x0, symName: __ZNSt3__116__non_trivial_ifILb1ENS_9allocatorIN5memdb9Tokenizer10OperationTEEEEC2B8ue170006Ev, symObjAddr: 0x69278, symBinAddr: 0x10006AB84, symSize: 0x54 }
  - { offsetInCU: 0x4EBAA, offset: 0x4EBAA, size: 0x8, addend: 0x0, symName: __ZNSt3__120__shared_ptr_pointerIPN5memdb9Tokenizer10OperationTENS_10shared_ptrINS2_5TokenEE27__shared_ptr_default_deleteIS6_S3_EENS_9allocatorIS3_EEEC2B8ue170006ES4_S9_SB_, symObjAddr: 0x692CC, symBinAddr: 0x10006ABD8, symSize: 0x44C }
  - { offsetInCU: 0x4EC11, offset: 0x4EC11, size: 0x8, addend: 0x0, symName: __ZNSt3__117__compressed_pairIPN5memdb9Tokenizer10OperationTENS_10shared_ptrINS2_5TokenEE27__shared_ptr_default_deleteIS6_S3_EEEC1B8ue170006IRS4_S9_EEOT_OT0_, symObjAddr: 0x69718, symBinAddr: 0x10006B024, symSize: 0x88 }
  - { offsetInCU: 0x4EC75, offset: 0x4EC75, size: 0x8, addend: 0x0, symName: __ZNSt3__117__compressed_pairINS0_IPN5memdb9Tokenizer10OperationTENS_10shared_ptrINS2_5TokenEE27__shared_ptr_default_deleteIS6_S3_EEEENS_9allocatorIS3_EEEC1B8ue170006ISA_SC_EEOT_OT0_, symObjAddr: 0x697A0, symBinAddr: 0x10006B0AC, symSize: 0x88 }
  - { offsetInCU: 0x4ECCD, offset: 0x4ECCD, size: 0x8, addend: 0x0, symName: __ZNSt3__120__shared_ptr_pointerIPN5memdb9Tokenizer10OperationTENS_10shared_ptrINS2_5TokenEE27__shared_ptr_default_deleteIS6_S3_EENS_9allocatorIS3_EEED1Ev, symObjAddr: 0x69828, symBinAddr: 0x10006B134, symSize: 0x78 }
  - { offsetInCU: 0x4ECF9, offset: 0x4ECF9, size: 0x8, addend: 0x0, symName: __ZNSt3__120__shared_ptr_pointerIPN5memdb9Tokenizer10OperationTENS_10shared_ptrINS2_5TokenEE27__shared_ptr_default_deleteIS6_S3_EENS_9allocatorIS3_EEED0Ev, symObjAddr: 0x698A0, symBinAddr: 0x10006B1AC, symSize: 0x74 }
  - { offsetInCU: 0x4ED25, offset: 0x4ED25, size: 0x8, addend: 0x0, symName: __ZNSt3__120__shared_ptr_pointerIPN5memdb9Tokenizer10OperationTENS_10shared_ptrINS2_5TokenEE27__shared_ptr_default_deleteIS6_S3_EENS_9allocatorIS3_EEE16__on_zero_sharedEv, symObjAddr: 0x69914, symBinAddr: 0x10006B220, symSize: 0x460 }
  - { offsetInCU: 0x4ED4D, offset: 0x4ED4D, size: 0x8, addend: 0x0, symName: __ZNKSt3__120__shared_ptr_pointerIPN5memdb9Tokenizer10OperationTENS_10shared_ptrINS2_5TokenEE27__shared_ptr_default_deleteIS6_S3_EENS_9allocatorIS3_EEE13__get_deleterERKSt9type_info, symObjAddr: 0x69D74, symBinAddr: 0x10006B680, symSize: 0x298 }
  - { offsetInCU: 0x4ED82, offset: 0x4ED82, size: 0x8, addend: 0x0, symName: __ZNSt3__120__shared_ptr_pointerIPN5memdb9Tokenizer10OperationTENS_10shared_ptrINS2_5TokenEE27__shared_ptr_default_deleteIS6_S3_EENS_9allocatorIS3_EEE21__on_zero_shared_weakEv, symObjAddr: 0x6A00C, symBinAddr: 0x10006B918, symSize: 0x448 }
  - { offsetInCU: 0x4EDCA, offset: 0x4EDCA, size: 0x8, addend: 0x0, symName: __ZNSt3__117__compressed_pairIPN5memdb9Tokenizer10OperationTENS_10shared_ptrINS2_5TokenEE27__shared_ptr_default_deleteIS6_S3_EEEC2B8ue170006IRS4_S9_EEOT_OT0_, symObjAddr: 0x6A454, symBinAddr: 0x10006BD60, symSize: 0x170 }
  - { offsetInCU: 0x4EE22, offset: 0x4EE22, size: 0x8, addend: 0x0, symName: __ZNSt3__122__compressed_pair_elemINS_10shared_ptrIN5memdb9Tokenizer5TokenEE27__shared_ptr_default_deleteIS4_NS3_10OperationTEEELi1ELb1EEC2B8ue170006IS8_vEEOT_, symObjAddr: 0x6A5C4, symBinAddr: 0x10006BED0, symSize: 0x58 }
  - { offsetInCU: 0x4EE64, offset: 0x4EE64, size: 0x8, addend: 0x0, symName: __ZNSt3__117__compressed_pairINS0_IPN5memdb9Tokenizer10OperationTENS_10shared_ptrINS2_5TokenEE27__shared_ptr_default_deleteIS6_S3_EEEENS_9allocatorIS3_EEEC2B8ue170006ISA_SC_EEOT_OT0_, symObjAddr: 0x6A61C, symBinAddr: 0x10006BF28, symSize: 0x170 }
  - { offsetInCU: 0x4EEBC, offset: 0x4EEBC, size: 0x8, addend: 0x0, symName: __ZNSt3__122__compressed_pair_elemINS_17__compressed_pairIPN5memdb9Tokenizer10OperationTENS_10shared_ptrINS3_5TokenEE27__shared_ptr_default_deleteIS7_S4_EEEELi0ELb0EEC2B8ue170006ISB_vEEOT_, symObjAddr: 0x6A78C, symBinAddr: 0x10006C098, symSize: 0x84 }
  - { offsetInCU: 0x4EEFE, offset: 0x4EEFE, size: 0x8, addend: 0x0, symName: __ZNSt3__122__compressed_pair_elemINS_9allocatorIN5memdb9Tokenizer10OperationTEEELi1ELb1EEC2B8ue170006IS5_vEEOT_, symObjAddr: 0x6A810, symBinAddr: 0x10006C11C, symSize: 0x58 }
  - { offsetInCU: 0x4EF40, offset: 0x4EF40, size: 0x8, addend: 0x0, symName: __ZNSt3__120__shared_ptr_pointerIPN5memdb9Tokenizer10OperationTENS_10shared_ptrINS2_5TokenEE27__shared_ptr_default_deleteIS6_S3_EENS_9allocatorIS3_EEED2Ev, symObjAddr: 0x6A868, symBinAddr: 0x10006C174, symSize: 0x78 }
  - { offsetInCU: 0x4EF6C, offset: 0x4EF6C, size: 0x8, addend: 0x0, symName: __ZNSt3__117__compressed_pairINS0_IPN5memdb9Tokenizer10OperationTENS_10shared_ptrINS2_5TokenEE27__shared_ptr_default_deleteIS6_S3_EEEENS_9allocatorIS3_EEE5firstB8ue170006Ev, symObjAddr: 0x6A8E0, symBinAddr: 0x10006C1EC, symSize: 0x124 }
  - { offsetInCU: 0x4EF92, offset: 0x4EF92, size: 0x8, addend: 0x0, symName: __ZNSt3__117__compressed_pairIPN5memdb9Tokenizer10OperationTENS_10shared_ptrINS2_5TokenEE27__shared_ptr_default_deleteIS6_S3_EEE6secondB8ue170006Ev, symObjAddr: 0x6AA04, symBinAddr: 0x10006C310, symSize: 0x108 }
  - { offsetInCU: 0x4EFB8, offset: 0x4EFB8, size: 0x8, addend: 0x0, symName: __ZNKSt3__114default_deleteIN5memdb9Tokenizer10OperationTEEclB8ue170006EPS3_, symObjAddr: 0x6AB0C, symBinAddr: 0x10006C418, symSize: 0x158 }
  - { offsetInCU: 0x4EFEC, offset: 0x4EFEC, size: 0x8, addend: 0x0, symName: __ZNSt3__117__compressed_pairIPN5memdb9Tokenizer10OperationTENS_10shared_ptrINS2_5TokenEE27__shared_ptr_default_deleteIS6_S3_EEE5firstB8ue170006Ev, symObjAddr: 0x6AC64, symBinAddr: 0x10006C570, symSize: 0x124 }
  - { offsetInCU: 0x4F012, offset: 0x4F012, size: 0x8, addend: 0x0, symName: __ZNSt3__122__compressed_pair_elemINS_17__compressed_pairIPN5memdb9Tokenizer10OperationTENS_10shared_ptrINS3_5TokenEE27__shared_ptr_default_deleteIS7_S4_EEEELi0ELb0EE5__getB8ue170006Ev, symObjAddr: 0x6AD88, symBinAddr: 0x10006C694, symSize: 0xAC }
  - { offsetInCU: 0x4F038, offset: 0x4F038, size: 0x8, addend: 0x0, symName: __ZNSt3__122__compressed_pair_elemINS_10shared_ptrIN5memdb9Tokenizer5TokenEE27__shared_ptr_default_deleteIS4_NS3_10OperationTEEELi1ELb1EE5__getB8ue170006Ev, symObjAddr: 0x6AE34, symBinAddr: 0x10006C740, symSize: 0x74 }
  - { offsetInCU: 0x4F05E, offset: 0x4F05E, size: 0x8, addend: 0x0, symName: __ZNSt3__122__compressed_pair_elemIPN5memdb9Tokenizer10OperationTELi0ELb0EE5__getB8ue170006Ev, symObjAddr: 0x6AEA8, symBinAddr: 0x10006C7B4, symSize: 0xAC }
  - { offsetInCU: 0x4F084, offset: 0x4F084, size: 0x8, addend: 0x0, symName: __ZNKSt3__117__compressed_pairINS0_IPN5memdb9Tokenizer10OperationTENS_10shared_ptrINS2_5TokenEE27__shared_ptr_default_deleteIS6_S3_EEEENS_9allocatorIS3_EEE5firstB8ue170006Ev, symObjAddr: 0x6AF54, symBinAddr: 0x10006C860, symSize: 0x124 }
  - { offsetInCU: 0x4F0AA, offset: 0x4F0AA, size: 0x8, addend: 0x0, symName: __ZNKSt3__117__compressed_pairIPN5memdb9Tokenizer10OperationTENS_10shared_ptrINS2_5TokenEE27__shared_ptr_default_deleteIS6_S3_EEE6secondB8ue170006Ev, symObjAddr: 0x6B078, symBinAddr: 0x10006C984, symSize: 0x108 }
  - { offsetInCU: 0x4F0D0, offset: 0x4F0D0, size: 0x8, addend: 0x0, symName: __ZNKSt3__122__compressed_pair_elemINS_17__compressed_pairIPN5memdb9Tokenizer10OperationTENS_10shared_ptrINS3_5TokenEE27__shared_ptr_default_deleteIS7_S4_EEEELi0ELb0EE5__getB8ue170006Ev, symObjAddr: 0x6B180, symBinAddr: 0x10006CA8C, symSize: 0xAC }
  - { offsetInCU: 0x4F0F6, offset: 0x4F0F6, size: 0x8, addend: 0x0, symName: __ZNKSt3__122__compressed_pair_elemINS_10shared_ptrIN5memdb9Tokenizer5TokenEE27__shared_ptr_default_deleteIS4_NS3_10OperationTEEELi1ELb1EE5__getB8ue170006Ev, symObjAddr: 0x6B22C, symBinAddr: 0x10006CB38, symSize: 0x74 }
  - { offsetInCU: 0x4F11C, offset: 0x4F11C, size: 0x8, addend: 0x0, symName: __ZNSt3__117__compressed_pairINS0_IPN5memdb9Tokenizer10OperationTENS_10shared_ptrINS2_5TokenEE27__shared_ptr_default_deleteIS6_S3_EEEENS_9allocatorIS3_EEE6secondB8ue170006Ev, symObjAddr: 0x6B2A0, symBinAddr: 0x10006CBAC, symSize: 0x108 }
  - { offsetInCU: 0x4F154, offset: 0x4F154, size: 0x8, addend: 0x0, symName: __ZNSt3__19allocatorINS_20__shared_ptr_pointerIPN5memdb9Tokenizer10OperationTENS_10shared_ptrINS3_5TokenEE27__shared_ptr_default_deleteIS7_S4_EENS0_IS4_EEEEEC1B8ue170006IS4_EERKNS0_IT_EE, symObjAddr: 0x6B3A8, symBinAddr: 0x10006CCB4, symSize: 0x64 }
  - { offsetInCU: 0x4F191, offset: 0x4F191, size: 0x8, addend: 0x0, symName: __ZNSt3__19allocatorINS_20__shared_ptr_pointerIPN5memdb9Tokenizer10OperationTENS_10shared_ptrINS3_5TokenEE27__shared_ptr_default_deleteIS7_S4_EENS0_IS4_EEEEE10deallocateB8ue170006EPSC_m, symObjAddr: 0x6B40C, symBinAddr: 0x10006CD18, symSize: 0x78 }
  - { offsetInCU: 0x4F1D9, offset: 0x4F1D9, size: 0x8, addend: 0x0, symName: __ZNSt3__114pointer_traitsIPNS_20__shared_ptr_pointerIPN5memdb9Tokenizer10OperationTENS_10shared_ptrINS3_5TokenEE27__shared_ptr_default_deleteIS7_S4_EENS_9allocatorIS4_EEEEE10pointer_toB8ue170006ERSD_, symObjAddr: 0x6B484, symBinAddr: 0x10006CD90, symSize: 0x14 }
  - { offsetInCU: 0x4F1FC, offset: 0x4F1FC, size: 0x8, addend: 0x0, symName: __ZNSt3__122__compressed_pair_elemINS_9allocatorIN5memdb9Tokenizer10OperationTEEELi1ELb1EE5__getB8ue170006Ev, symObjAddr: 0x6B498, symBinAddr: 0x10006CDA4, symSize: 0x74 }
  - { offsetInCU: 0x4F222, offset: 0x4F222, size: 0x8, addend: 0x0, symName: __ZNSt3__19allocatorINS_20__shared_ptr_pointerIPN5memdb9Tokenizer10OperationTENS_10shared_ptrINS3_5TokenEE27__shared_ptr_default_deleteIS7_S4_EENS0_IS4_EEEEEC2B8ue170006IS4_EERKNS0_IT_EE, symObjAddr: 0x6B50C, symBinAddr: 0x10006CE18, symSize: 0x88 }
  - { offsetInCU: 0x4F25F, offset: 0x4F25F, size: 0x8, addend: 0x0, symName: __ZNSt3__116__non_trivial_ifILb1ENS_9allocatorINS_20__shared_ptr_pointerIPN5memdb9Tokenizer10OperationTENS_10shared_ptrINS4_5TokenEE27__shared_ptr_default_deleteIS8_S5_EENS1_IS5_EEEEEEEC2B8ue170006Ev, symObjAddr: 0x6B594, symBinAddr: 0x10006CEA0, symSize: 0x54 }
  - { offsetInCU: 0x4F289, offset: 0x4F289, size: 0x8, addend: 0x0, symName: __ZNSt3__117__compressed_pairIPN5memdb9Tokenizer10OperationTENS_14default_deleteIS3_EEE5firstB8ue170006Ev, symObjAddr: 0x6B5E8, symBinAddr: 0x10006CEF4, symSize: 0x124 }
  - { offsetInCU: 0x4F2AF, offset: 0x4F2AF, size: 0x8, addend: 0x0, symName: __ZNSt3__110unique_ptrIN5memdb9Tokenizer10OperationTENS_14default_deleteIS3_EEED2B8ue170006Ev, symObjAddr: 0x6B70C, symBinAddr: 0x10006D018, symSize: 0x7C }
  - { offsetInCU: 0x4F2D9, offset: 0x4F2D9, size: 0x8, addend: 0x0, symName: __ZNSt3__110unique_ptrIN5memdb9Tokenizer10OperationTENS_14default_deleteIS3_EEE5resetB8ue170006EPS3_, symObjAddr: 0x6B788, symBinAddr: 0x10006D094, symSize: 0x2B0 }
  - { offsetInCU: 0x4F31D, offset: 0x4F31D, size: 0x8, addend: 0x0, symName: __ZNSt3__117__compressed_pairIPN5memdb9Tokenizer10OperationTENS_14default_deleteIS3_EEE6secondB8ue170006Ev, symObjAddr: 0x6BA38, symBinAddr: 0x10006D344, symSize: 0x108 }
  - { offsetInCU: 0x4F343, offset: 0x4F343, size: 0x8, addend: 0x0, symName: __ZNSt3__122__compressed_pair_elemINS_14default_deleteIN5memdb9Tokenizer10OperationTEEELi1ELb1EE5__getB8ue170006Ev, symObjAddr: 0x6BB40, symBinAddr: 0x10006D44C, symSize: 0x74 }
  - { offsetInCU: 0x4F369, offset: 0x4F369, size: 0x8, addend: 0x0, symName: __ZN5memdb9Tokenizer10OperationTC2Ev, symObjAddr: 0x6BBB4, symBinAddr: 0x10006D4C0, symSize: 0x118 }
  - { offsetInCU: 0x4F393, offset: 0x4F393, size: 0x8, addend: 0x0, symName: __ZNK5memdb9Tokenizer10OperationT7GetTypeEv, symObjAddr: 0x6BCCC, symBinAddr: 0x10006D5D8, symSize: 0x64 }
  - { offsetInCU: 0x4F3B9, offset: 0x4F3B9, size: 0x8, addend: 0x0, symName: __ZN5memdb9Tokenizer10OperationT4CopyEv, symObjAddr: 0x6BD30, symBinAddr: 0x10006D63C, symSize: 0x30C }
  - { offsetInCU: 0x4F3EF, offset: 0x4F3EF, size: 0x8, addend: 0x0, symName: __ZN5memdb9Tokenizer10OperationT5ParseERNSt3__16vectorINS2_12basic_stringIcNS2_11char_traitsIcEENS2_9allocatorIcEEEENS7_IS9_EEEERi, symObjAddr: 0x6C03C, symBinAddr: 0x10006D948, symSize: 0x738 }
  - { offsetInCU: 0x4F449, offset: 0x4F449, size: 0x8, addend: 0x0, symName: __ZN5memdb9Tokenizer10OperationTC1ENS_9OperationE, symObjAddr: 0x6C774, symBinAddr: 0x10006E080, symSize: 0x80 }
  - { offsetInCU: 0x4F482, offset: 0x4F482, size: 0x8, addend: 0x0, symName: __ZN5memdb9Tokenizer10OperationTC2ENS_9OperationE, symObjAddr: 0x6C7F4, symBinAddr: 0x10006E100, symSize: 0x188 }
  - { offsetInCU: 0x4F4BB, offset: 0x4F4BB, size: 0x8, addend: 0x0, symName: __ZNSt3__110shared_ptrIN5memdb9Tokenizer5TokenEE5resetB8ue170006INS2_8BracketTEvEEvPT_, symObjAddr: 0x6C97C, symBinAddr: 0x10006E288, symSize: 0x27C }
  - { offsetInCU: 0x4F4FC, offset: 0x4F4FC, size: 0x8, addend: 0x0, symName: __ZN5memdb9Tokenizer8BracketTC1Ev, symObjAddr: 0x6CBF8, symBinAddr: 0x10006E504, symSize: 0x78 }
  - { offsetInCU: 0x4F526, offset: 0x4F526, size: 0x8, addend: 0x0, symName: __ZNSt3__110shared_ptrIN5memdb9Tokenizer5TokenEEC1B8ue170006INS2_8BracketTEvEEPT_, symObjAddr: 0x6CC70, symBinAddr: 0x10006E57C, symSize: 0x80 }
  - { offsetInCU: 0x4F569, offset: 0x4F569, size: 0x8, addend: 0x0, symName: __ZNSt3__110shared_ptrIN5memdb9Tokenizer5TokenEEC2B8ue170006INS2_8BracketTEvEEPT_, symObjAddr: 0x6CCF0, symBinAddr: 0x10006E5FC, symSize: 0x4D8 }
  - { offsetInCU: 0x4F67B, offset: 0x4F67B, size: 0x8, addend: 0x0, symName: __ZNSt3__110unique_ptrIN5memdb9Tokenizer8BracketTENS_14default_deleteIS3_EEEC1B8ue170006ILb1EvEEPS3_, symObjAddr: 0x6D1C8, symBinAddr: 0x10006EAD4, symSize: 0x80 }
  - { offsetInCU: 0x4F6CA, offset: 0x4F6CA, size: 0x8, addend: 0x0, symName: __ZNSt3__19allocatorIN5memdb9Tokenizer8BracketTEEC1B8ue170006Ev, symObjAddr: 0x6D248, symBinAddr: 0x10006EB54, symSize: 0x5C }
  - { offsetInCU: 0x4F7B4, offset: 0x4F7B4, size: 0x8, addend: 0x0, symName: __ZNSt3__120__shared_ptr_pointerIPN5memdb9Tokenizer8BracketTENS_10shared_ptrINS2_5TokenEE27__shared_ptr_default_deleteIS6_S3_EENS_9allocatorIS3_EEEC1B8ue170006ES4_S9_SB_, symObjAddr: 0x6D2A4, symBinAddr: 0x10006EBB0, symSize: 0x80 }
  - { offsetInCU: 0x4F808, offset: 0x4F808, size: 0x8, addend: 0x0, symName: __ZNSt3__110unique_ptrIN5memdb9Tokenizer8BracketTENS_14default_deleteIS3_EEE7releaseB8ue170006Ev, symObjAddr: 0x6D324, symBinAddr: 0x10006EC30, symSize: 0x20C }
  - { offsetInCU: 0x4F83D, offset: 0x4F83D, size: 0x8, addend: 0x0, symName: __ZNSt3__110unique_ptrIN5memdb9Tokenizer8BracketTENS_14default_deleteIS3_EEED1B8ue170006Ev, symObjAddr: 0x6D530, symBinAddr: 0x10006EE3C, symSize: 0x78 }
  - { offsetInCU: 0x4F867, offset: 0x4F867, size: 0x8, addend: 0x0, symName: __ZNSt3__110unique_ptrIN5memdb9Tokenizer8BracketTENS_14default_deleteIS3_EEEC2B8ue170006ILb1EvEEPS3_, symObjAddr: 0x6D5A8, symBinAddr: 0x10006EEB4, symSize: 0x2B8 }
  - { offsetInCU: 0x4F8AF, offset: 0x4F8AF, size: 0x8, addend: 0x0, symName: __ZNSt3__117__compressed_pairIPN5memdb9Tokenizer8BracketTENS_14default_deleteIS3_EEEC1B8ue170006IRS4_NS_16__value_init_tagEEEOT_OT0_, symObjAddr: 0x6D860, symBinAddr: 0x10006F16C, symSize: 0x88 }
  - { offsetInCU: 0x4F907, offset: 0x4F907, size: 0x8, addend: 0x0, symName: __ZNSt3__117__compressed_pairIPN5memdb9Tokenizer8BracketTENS_14default_deleteIS3_EEEC2B8ue170006IRS4_NS_16__value_init_tagEEEOT_OT0_, symObjAddr: 0x6D8E8, symBinAddr: 0x10006F1F4, symSize: 0x140 }
  - { offsetInCU: 0x4F95F, offset: 0x4F95F, size: 0x8, addend: 0x0, symName: __ZNSt3__122__compressed_pair_elemIPN5memdb9Tokenizer8BracketTELi0ELb0EEC2B8ue170006IRS4_vEEOT_, symObjAddr: 0x6DA28, symBinAddr: 0x10006F334, symSize: 0x144 }
  - { offsetInCU: 0x4F9A1, offset: 0x4F9A1, size: 0x8, addend: 0x0, symName: __ZNSt3__122__compressed_pair_elemINS_14default_deleteIN5memdb9Tokenizer8BracketTEEELi1ELb1EEC2B8ue170006ENS_16__value_init_tagE, symObjAddr: 0x6DB6C, symBinAddr: 0x10006F478, symSize: 0x54 }
  - { offsetInCU: 0x4F9D5, offset: 0x4F9D5, size: 0x8, addend: 0x0, symName: __ZNSt3__19allocatorIN5memdb9Tokenizer8BracketTEEC2B8ue170006Ev, symObjAddr: 0x6DBC0, symBinAddr: 0x10006F4CC, symSize: 0x84 }
  - { offsetInCU: 0x4F9FF, offset: 0x4F9FF, size: 0x8, addend: 0x0, symName: __ZNSt3__116__non_trivial_ifILb1ENS_9allocatorIN5memdb9Tokenizer8BracketTEEEEC2B8ue170006Ev, symObjAddr: 0x6DC44, symBinAddr: 0x10006F550, symSize: 0x54 }
  - { offsetInCU: 0x4FA29, offset: 0x4FA29, size: 0x8, addend: 0x0, symName: __ZNSt3__120__shared_ptr_pointerIPN5memdb9Tokenizer8BracketTENS_10shared_ptrINS2_5TokenEE27__shared_ptr_default_deleteIS6_S3_EENS_9allocatorIS3_EEEC2B8ue170006ES4_S9_SB_, symObjAddr: 0x6DC98, symBinAddr: 0x10006F5A4, symSize: 0x44C }
  - { offsetInCU: 0x4FA90, offset: 0x4FA90, size: 0x8, addend: 0x0, symName: __ZNSt3__117__compressed_pairIPN5memdb9Tokenizer8BracketTENS_10shared_ptrINS2_5TokenEE27__shared_ptr_default_deleteIS6_S3_EEEC1B8ue170006IRS4_S9_EEOT_OT0_, symObjAddr: 0x6E0E4, symBinAddr: 0x10006F9F0, symSize: 0x88 }
  - { offsetInCU: 0x4FAF4, offset: 0x4FAF4, size: 0x8, addend: 0x0, symName: __ZNSt3__117__compressed_pairINS0_IPN5memdb9Tokenizer8BracketTENS_10shared_ptrINS2_5TokenEE27__shared_ptr_default_deleteIS6_S3_EEEENS_9allocatorIS3_EEEC1B8ue170006ISA_SC_EEOT_OT0_, symObjAddr: 0x6E16C, symBinAddr: 0x10006FA78, symSize: 0x88 }
  - { offsetInCU: 0x4FB4C, offset: 0x4FB4C, size: 0x8, addend: 0x0, symName: __ZNSt3__120__shared_ptr_pointerIPN5memdb9Tokenizer8BracketTENS_10shared_ptrINS2_5TokenEE27__shared_ptr_default_deleteIS6_S3_EENS_9allocatorIS3_EEED1Ev, symObjAddr: 0x6E1F4, symBinAddr: 0x10006FB00, symSize: 0x78 }
  - { offsetInCU: 0x4FB78, offset: 0x4FB78, size: 0x8, addend: 0x0, symName: __ZNSt3__120__shared_ptr_pointerIPN5memdb9Tokenizer8BracketTENS_10shared_ptrINS2_5TokenEE27__shared_ptr_default_deleteIS6_S3_EENS_9allocatorIS3_EEED0Ev, symObjAddr: 0x6E26C, symBinAddr: 0x10006FB78, symSize: 0x74 }
  - { offsetInCU: 0x4FBA4, offset: 0x4FBA4, size: 0x8, addend: 0x0, symName: __ZNSt3__120__shared_ptr_pointerIPN5memdb9Tokenizer8BracketTENS_10shared_ptrINS2_5TokenEE27__shared_ptr_default_deleteIS6_S3_EENS_9allocatorIS3_EEE16__on_zero_sharedEv, symObjAddr: 0x6E2E0, symBinAddr: 0x10006FBEC, symSize: 0x460 }
  - { offsetInCU: 0x4FBCC, offset: 0x4FBCC, size: 0x8, addend: 0x0, symName: __ZNKSt3__120__shared_ptr_pointerIPN5memdb9Tokenizer8BracketTENS_10shared_ptrINS2_5TokenEE27__shared_ptr_default_deleteIS6_S3_EENS_9allocatorIS3_EEE13__get_deleterERKSt9type_info, symObjAddr: 0x6E740, symBinAddr: 0x10007004C, symSize: 0x298 }
  - { offsetInCU: 0x4FC01, offset: 0x4FC01, size: 0x8, addend: 0x0, symName: __ZNSt3__120__shared_ptr_pointerIPN5memdb9Tokenizer8BracketTENS_10shared_ptrINS2_5TokenEE27__shared_ptr_default_deleteIS6_S3_EENS_9allocatorIS3_EEE21__on_zero_shared_weakEv, symObjAddr: 0x6E9D8, symBinAddr: 0x1000702E4, symSize: 0x448 }
  - { offsetInCU: 0x4FC49, offset: 0x4FC49, size: 0x8, addend: 0x0, symName: __ZNSt3__117__compressed_pairIPN5memdb9Tokenizer8BracketTENS_10shared_ptrINS2_5TokenEE27__shared_ptr_default_deleteIS6_S3_EEEC2B8ue170006IRS4_S9_EEOT_OT0_, symObjAddr: 0x6EE20, symBinAddr: 0x10007072C, symSize: 0x170 }
  - { offsetInCU: 0x4FCA1, offset: 0x4FCA1, size: 0x8, addend: 0x0, symName: __ZNSt3__122__compressed_pair_elemINS_10shared_ptrIN5memdb9Tokenizer5TokenEE27__shared_ptr_default_deleteIS4_NS3_8BracketTEEELi1ELb1EEC2B8ue170006IS8_vEEOT_, symObjAddr: 0x6EF90, symBinAddr: 0x10007089C, symSize: 0x58 }
  - { offsetInCU: 0x4FCE3, offset: 0x4FCE3, size: 0x8, addend: 0x0, symName: __ZNSt3__117__compressed_pairINS0_IPN5memdb9Tokenizer8BracketTENS_10shared_ptrINS2_5TokenEE27__shared_ptr_default_deleteIS6_S3_EEEENS_9allocatorIS3_EEEC2B8ue170006ISA_SC_EEOT_OT0_, symObjAddr: 0x6EFE8, symBinAddr: 0x1000708F4, symSize: 0x170 }
  - { offsetInCU: 0x4FD3B, offset: 0x4FD3B, size: 0x8, addend: 0x0, symName: __ZNSt3__122__compressed_pair_elemINS_17__compressed_pairIPN5memdb9Tokenizer8BracketTENS_10shared_ptrINS3_5TokenEE27__shared_ptr_default_deleteIS7_S4_EEEELi0ELb0EEC2B8ue170006ISB_vEEOT_, symObjAddr: 0x6F158, symBinAddr: 0x100070A64, symSize: 0x84 }
  - { offsetInCU: 0x4FD7D, offset: 0x4FD7D, size: 0x8, addend: 0x0, symName: __ZNSt3__122__compressed_pair_elemINS_9allocatorIN5memdb9Tokenizer8BracketTEEELi1ELb1EEC2B8ue170006IS5_vEEOT_, symObjAddr: 0x6F1DC, symBinAddr: 0x100070AE8, symSize: 0x58 }
  - { offsetInCU: 0x4FDBF, offset: 0x4FDBF, size: 0x8, addend: 0x0, symName: __ZNSt3__120__shared_ptr_pointerIPN5memdb9Tokenizer8BracketTENS_10shared_ptrINS2_5TokenEE27__shared_ptr_default_deleteIS6_S3_EENS_9allocatorIS3_EEED2Ev, symObjAddr: 0x6F234, symBinAddr: 0x100070B40, symSize: 0x78 }
  - { offsetInCU: 0x4FDEB, offset: 0x4FDEB, size: 0x8, addend: 0x0, symName: __ZNSt3__117__compressed_pairINS0_IPN5memdb9Tokenizer8BracketTENS_10shared_ptrINS2_5TokenEE27__shared_ptr_default_deleteIS6_S3_EEEENS_9allocatorIS3_EEE5firstB8ue170006Ev, symObjAddr: 0x6F2AC, symBinAddr: 0x100070BB8, symSize: 0x124 }
  - { offsetInCU: 0x4FE11, offset: 0x4FE11, size: 0x8, addend: 0x0, symName: __ZNSt3__117__compressed_pairIPN5memdb9Tokenizer8BracketTENS_10shared_ptrINS2_5TokenEE27__shared_ptr_default_deleteIS6_S3_EEE6secondB8ue170006Ev, symObjAddr: 0x6F3D0, symBinAddr: 0x100070CDC, symSize: 0x108 }
  - { offsetInCU: 0x4FE37, offset: 0x4FE37, size: 0x8, addend: 0x0, symName: __ZNKSt3__114default_deleteIN5memdb9Tokenizer8BracketTEEclB8ue170006EPS3_, symObjAddr: 0x6F4D8, symBinAddr: 0x100070DE4, symSize: 0x158 }
  - { offsetInCU: 0x4FE6B, offset: 0x4FE6B, size: 0x8, addend: 0x0, symName: __ZNSt3__117__compressed_pairIPN5memdb9Tokenizer8BracketTENS_10shared_ptrINS2_5TokenEE27__shared_ptr_default_deleteIS6_S3_EEE5firstB8ue170006Ev, symObjAddr: 0x6F630, symBinAddr: 0x100070F3C, symSize: 0x124 }
  - { offsetInCU: 0x4FE91, offset: 0x4FE91, size: 0x8, addend: 0x0, symName: __ZNSt3__122__compressed_pair_elemINS_17__compressed_pairIPN5memdb9Tokenizer8BracketTENS_10shared_ptrINS3_5TokenEE27__shared_ptr_default_deleteIS7_S4_EEEELi0ELb0EE5__getB8ue170006Ev, symObjAddr: 0x6F754, symBinAddr: 0x100071060, symSize: 0xAC }
  - { offsetInCU: 0x4FEB7, offset: 0x4FEB7, size: 0x8, addend: 0x0, symName: __ZNSt3__122__compressed_pair_elemINS_10shared_ptrIN5memdb9Tokenizer5TokenEE27__shared_ptr_default_deleteIS4_NS3_8BracketTEEELi1ELb1EE5__getB8ue170006Ev, symObjAddr: 0x6F800, symBinAddr: 0x10007110C, symSize: 0x74 }
  - { offsetInCU: 0x4FEDD, offset: 0x4FEDD, size: 0x8, addend: 0x0, symName: __ZNSt3__122__compressed_pair_elemIPN5memdb9Tokenizer8BracketTELi0ELb0EE5__getB8ue170006Ev, symObjAddr: 0x6F874, symBinAddr: 0x100071180, symSize: 0xAC }
  - { offsetInCU: 0x4FF03, offset: 0x4FF03, size: 0x8, addend: 0x0, symName: __ZNKSt3__117__compressed_pairINS0_IPN5memdb9Tokenizer8BracketTENS_10shared_ptrINS2_5TokenEE27__shared_ptr_default_deleteIS6_S3_EEEENS_9allocatorIS3_EEE5firstB8ue170006Ev, symObjAddr: 0x6F920, symBinAddr: 0x10007122C, symSize: 0x124 }
  - { offsetInCU: 0x4FF29, offset: 0x4FF29, size: 0x8, addend: 0x0, symName: __ZNKSt3__117__compressed_pairIPN5memdb9Tokenizer8BracketTENS_10shared_ptrINS2_5TokenEE27__shared_ptr_default_deleteIS6_S3_EEE6secondB8ue170006Ev, symObjAddr: 0x6FA44, symBinAddr: 0x100071350, symSize: 0x108 }
  - { offsetInCU: 0x4FF4F, offset: 0x4FF4F, size: 0x8, addend: 0x0, symName: __ZNKSt3__122__compressed_pair_elemINS_17__compressed_pairIPN5memdb9Tokenizer8BracketTENS_10shared_ptrINS3_5TokenEE27__shared_ptr_default_deleteIS7_S4_EEEELi0ELb0EE5__getB8ue170006Ev, symObjAddr: 0x6FB4C, symBinAddr: 0x100071458, symSize: 0xAC }
  - { offsetInCU: 0x4FF75, offset: 0x4FF75, size: 0x8, addend: 0x0, symName: __ZNKSt3__122__compressed_pair_elemINS_10shared_ptrIN5memdb9Tokenizer5TokenEE27__shared_ptr_default_deleteIS4_NS3_8BracketTEEELi1ELb1EE5__getB8ue170006Ev, symObjAddr: 0x6FBF8, symBinAddr: 0x100071504, symSize: 0x74 }
  - { offsetInCU: 0x4FF9B, offset: 0x4FF9B, size: 0x8, addend: 0x0, symName: __ZNSt3__117__compressed_pairINS0_IPN5memdb9Tokenizer8BracketTENS_10shared_ptrINS2_5TokenEE27__shared_ptr_default_deleteIS6_S3_EEEENS_9allocatorIS3_EEE6secondB8ue170006Ev, symObjAddr: 0x6FC6C, symBinAddr: 0x100071578, symSize: 0x108 }
  - { offsetInCU: 0x4FFD3, offset: 0x4FFD3, size: 0x8, addend: 0x0, symName: __ZNSt3__19allocatorINS_20__shared_ptr_pointerIPN5memdb9Tokenizer8BracketTENS_10shared_ptrINS3_5TokenEE27__shared_ptr_default_deleteIS7_S4_EENS0_IS4_EEEEEC1B8ue170006IS4_EERKNS0_IT_EE, symObjAddr: 0x6FD74, symBinAddr: 0x100071680, symSize: 0x64 }
  - { offsetInCU: 0x50010, offset: 0x50010, size: 0x8, addend: 0x0, symName: __ZNSt3__19allocatorINS_20__shared_ptr_pointerIPN5memdb9Tokenizer8BracketTENS_10shared_ptrINS3_5TokenEE27__shared_ptr_default_deleteIS7_S4_EENS0_IS4_EEEEE10deallocateB8ue170006EPSC_m, symObjAddr: 0x6FDD8, symBinAddr: 0x1000716E4, symSize: 0x78 }
  - { offsetInCU: 0x50058, offset: 0x50058, size: 0x8, addend: 0x0, symName: __ZNSt3__114pointer_traitsIPNS_20__shared_ptr_pointerIPN5memdb9Tokenizer8BracketTENS_10shared_ptrINS3_5TokenEE27__shared_ptr_default_deleteIS7_S4_EENS_9allocatorIS4_EEEEE10pointer_toB8ue170006ERSD_, symObjAddr: 0x6FE50, symBinAddr: 0x10007175C, symSize: 0x14 }
  - { offsetInCU: 0x5007B, offset: 0x5007B, size: 0x8, addend: 0x0, symName: __ZNSt3__122__compressed_pair_elemINS_9allocatorIN5memdb9Tokenizer8BracketTEEELi1ELb1EE5__getB8ue170006Ev, symObjAddr: 0x6FE64, symBinAddr: 0x100071770, symSize: 0x74 }
  - { offsetInCU: 0x500A1, offset: 0x500A1, size: 0x8, addend: 0x0, symName: __ZNSt3__19allocatorINS_20__shared_ptr_pointerIPN5memdb9Tokenizer8BracketTENS_10shared_ptrINS3_5TokenEE27__shared_ptr_default_deleteIS7_S4_EENS0_IS4_EEEEEC2B8ue170006IS4_EERKNS0_IT_EE, symObjAddr: 0x6FED8, symBinAddr: 0x1000717E4, symSize: 0x88 }
  - { offsetInCU: 0x500DE, offset: 0x500DE, size: 0x8, addend: 0x0, symName: __ZNSt3__116__non_trivial_ifILb1ENS_9allocatorINS_20__shared_ptr_pointerIPN5memdb9Tokenizer8BracketTENS_10shared_ptrINS4_5TokenEE27__shared_ptr_default_deleteIS8_S5_EENS1_IS5_EEEEEEEC2B8ue170006Ev, symObjAddr: 0x6FF60, symBinAddr: 0x10007186C, symSize: 0x54 }
  - { offsetInCU: 0x50108, offset: 0x50108, size: 0x8, addend: 0x0, symName: __ZNSt3__117__compressed_pairIPN5memdb9Tokenizer8BracketTENS_14default_deleteIS3_EEE5firstB8ue170006Ev, symObjAddr: 0x6FFB4, symBinAddr: 0x1000718C0, symSize: 0x124 }
  - { offsetInCU: 0x5012E, offset: 0x5012E, size: 0x8, addend: 0x0, symName: __ZNSt3__110unique_ptrIN5memdb9Tokenizer8BracketTENS_14default_deleteIS3_EEED2B8ue170006Ev, symObjAddr: 0x700D8, symBinAddr: 0x1000719E4, symSize: 0x7C }
  - { offsetInCU: 0x50158, offset: 0x50158, size: 0x8, addend: 0x0, symName: __ZNSt3__110unique_ptrIN5memdb9Tokenizer8BracketTENS_14default_deleteIS3_EEE5resetB8ue170006EPS3_, symObjAddr: 0x70154, symBinAddr: 0x100071A60, symSize: 0x2B0 }
  - { offsetInCU: 0x5019C, offset: 0x5019C, size: 0x8, addend: 0x0, symName: __ZNSt3__117__compressed_pairIPN5memdb9Tokenizer8BracketTENS_14default_deleteIS3_EEE6secondB8ue170006Ev, symObjAddr: 0x70404, symBinAddr: 0x100071D10, symSize: 0x108 }
  - { offsetInCU: 0x501C2, offset: 0x501C2, size: 0x8, addend: 0x0, symName: __ZNSt3__122__compressed_pair_elemINS_14default_deleteIN5memdb9Tokenizer8BracketTEEELi1ELb1EE5__getB8ue170006Ev, symObjAddr: 0x7050C, symBinAddr: 0x100071E18, symSize: 0x74 }
  - { offsetInCU: 0x501E8, offset: 0x501E8, size: 0x8, addend: 0x0, symName: __ZN5memdb9Tokenizer8BracketTC2Ev, symObjAddr: 0x70580, symBinAddr: 0x100071E8C, symSize: 0x118 }
  - { offsetInCU: 0x50212, offset: 0x50212, size: 0x8, addend: 0x0, symName: __ZNK5memdb9Tokenizer8BracketT7GetTypeEv, symObjAddr: 0x70698, symBinAddr: 0x100071FA4, symSize: 0x64 }
  - { offsetInCU: 0x50238, offset: 0x50238, size: 0x8, addend: 0x0, symName: __ZN5memdb9Tokenizer8BracketT4CopyEv, symObjAddr: 0x706FC, symBinAddr: 0x100072008, symSize: 0x30C }
  - { offsetInCU: 0x5026E, offset: 0x5026E, size: 0x8, addend: 0x0, symName: __ZN5memdb9Tokenizer8BracketT5ParseERNSt3__16vectorINS2_12basic_stringIcNS2_11char_traitsIcEENS2_9allocatorIcEEEENS7_IS9_EEEERi, symObjAddr: 0x70A08, symBinAddr: 0x100072314, symSize: 0x738 }
  - { offsetInCU: 0x502C8, offset: 0x502C8, size: 0x8, addend: 0x0, symName: __ZN5memdb9Tokenizer8BracketTC1ENS_5lexer7BracketE, symObjAddr: 0x71140, symBinAddr: 0x100072A4C, symSize: 0x80 }
  - { offsetInCU: 0x50301, offset: 0x50301, size: 0x8, addend: 0x0, symName: __ZN5memdb9Tokenizer8BracketTC2ENS_5lexer7BracketE, symObjAddr: 0x711C0, symBinAddr: 0x100072ACC, symSize: 0x188 }
  - { offsetInCU: 0x5033A, offset: 0x5033A, size: 0x8, addend: 0x0, symName: __ZNSt3__110shared_ptrIN5memdb9Tokenizer5TokenEE5resetB8ue170006INS2_11ColumnTypeTEvEEvPT_, symObjAddr: 0x71348, symBinAddr: 0x100072C54, symSize: 0x27C }
  - { offsetInCU: 0x5037B, offset: 0x5037B, size: 0x8, addend: 0x0, symName: __ZN5memdb9Tokenizer11ColumnTypeTC1Ev, symObjAddr: 0x715C4, symBinAddr: 0x100072ED0, symSize: 0x78 }
  - { offsetInCU: 0x503A5, offset: 0x503A5, size: 0x8, addend: 0x0, symName: __ZNSt3__110shared_ptrIN5memdb9Tokenizer5TokenEEC1B8ue170006INS2_11ColumnTypeTEvEEPT_, symObjAddr: 0x7163C, symBinAddr: 0x100072F48, symSize: 0x80 }
  - { offsetInCU: 0x503E8, offset: 0x503E8, size: 0x8, addend: 0x0, symName: __ZNSt3__110shared_ptrIN5memdb9Tokenizer5TokenEEC2B8ue170006INS2_11ColumnTypeTEvEEPT_, symObjAddr: 0x716BC, symBinAddr: 0x100072FC8, symSize: 0x4D8 }
  - { offsetInCU: 0x504FA, offset: 0x504FA, size: 0x8, addend: 0x0, symName: __ZNSt3__110unique_ptrIN5memdb9Tokenizer11ColumnTypeTENS_14default_deleteIS3_EEEC1B8ue170006ILb1EvEEPS3_, symObjAddr: 0x71B94, symBinAddr: 0x1000734A0, symSize: 0x80 }
  - { offsetInCU: 0x50549, offset: 0x50549, size: 0x8, addend: 0x0, symName: __ZNSt3__19allocatorIN5memdb9Tokenizer11ColumnTypeTEEC1B8ue170006Ev, symObjAddr: 0x71C14, symBinAddr: 0x100073520, symSize: 0x5C }
  - { offsetInCU: 0x50633, offset: 0x50633, size: 0x8, addend: 0x0, symName: __ZNSt3__120__shared_ptr_pointerIPN5memdb9Tokenizer11ColumnTypeTENS_10shared_ptrINS2_5TokenEE27__shared_ptr_default_deleteIS6_S3_EENS_9allocatorIS3_EEEC1B8ue170006ES4_S9_SB_, symObjAddr: 0x71C70, symBinAddr: 0x10007357C, symSize: 0x80 }
  - { offsetInCU: 0x50687, offset: 0x50687, size: 0x8, addend: 0x0, symName: __ZNSt3__110unique_ptrIN5memdb9Tokenizer11ColumnTypeTENS_14default_deleteIS3_EEE7releaseB8ue170006Ev, symObjAddr: 0x71CF0, symBinAddr: 0x1000735FC, symSize: 0x20C }
  - { offsetInCU: 0x506BC, offset: 0x506BC, size: 0x8, addend: 0x0, symName: __ZNSt3__110unique_ptrIN5memdb9Tokenizer11ColumnTypeTENS_14default_deleteIS3_EEED1B8ue170006Ev, symObjAddr: 0x71EFC, symBinAddr: 0x100073808, symSize: 0x78 }
  - { offsetInCU: 0x506E6, offset: 0x506E6, size: 0x8, addend: 0x0, symName: __ZNSt3__110unique_ptrIN5memdb9Tokenizer11ColumnTypeTENS_14default_deleteIS3_EEEC2B8ue170006ILb1EvEEPS3_, symObjAddr: 0x71F74, symBinAddr: 0x100073880, symSize: 0x2B8 }
  - { offsetInCU: 0x5072E, offset: 0x5072E, size: 0x8, addend: 0x0, symName: __ZNSt3__117__compressed_pairIPN5memdb9Tokenizer11ColumnTypeTENS_14default_deleteIS3_EEEC1B8ue170006IRS4_NS_16__value_init_tagEEEOT_OT0_, symObjAddr: 0x7222C, symBinAddr: 0x100073B38, symSize: 0x88 }
  - { offsetInCU: 0x50786, offset: 0x50786, size: 0x8, addend: 0x0, symName: __ZNSt3__117__compressed_pairIPN5memdb9Tokenizer11ColumnTypeTENS_14default_deleteIS3_EEEC2B8ue170006IRS4_NS_16__value_init_tagEEEOT_OT0_, symObjAddr: 0x722B4, symBinAddr: 0x100073BC0, symSize: 0x140 }
  - { offsetInCU: 0x507DE, offset: 0x507DE, size: 0x8, addend: 0x0, symName: __ZNSt3__122__compressed_pair_elemIPN5memdb9Tokenizer11ColumnTypeTELi0ELb0EEC2B8ue170006IRS4_vEEOT_, symObjAddr: 0x723F4, symBinAddr: 0x100073D00, symSize: 0x144 }
  - { offsetInCU: 0x50820, offset: 0x50820, size: 0x8, addend: 0x0, symName: __ZNSt3__122__compressed_pair_elemINS_14default_deleteIN5memdb9Tokenizer11ColumnTypeTEEELi1ELb1EEC2B8ue170006ENS_16__value_init_tagE, symObjAddr: 0x72538, symBinAddr: 0x100073E44, symSize: 0x54 }
  - { offsetInCU: 0x50854, offset: 0x50854, size: 0x8, addend: 0x0, symName: __ZNSt3__19allocatorIN5memdb9Tokenizer11ColumnTypeTEEC2B8ue170006Ev, symObjAddr: 0x7258C, symBinAddr: 0x100073E98, symSize: 0x84 }
  - { offsetInCU: 0x5087E, offset: 0x5087E, size: 0x8, addend: 0x0, symName: __ZNSt3__116__non_trivial_ifILb1ENS_9allocatorIN5memdb9Tokenizer11ColumnTypeTEEEEC2B8ue170006Ev, symObjAddr: 0x72610, symBinAddr: 0x100073F1C, symSize: 0x54 }
  - { offsetInCU: 0x508A8, offset: 0x508A8, size: 0x8, addend: 0x0, symName: __ZNSt3__120__shared_ptr_pointerIPN5memdb9Tokenizer11ColumnTypeTENS_10shared_ptrINS2_5TokenEE27__shared_ptr_default_deleteIS6_S3_EENS_9allocatorIS3_EEEC2B8ue170006ES4_S9_SB_, symObjAddr: 0x72664, symBinAddr: 0x100073F70, symSize: 0x44C }
  - { offsetInCU: 0x5090F, offset: 0x5090F, size: 0x8, addend: 0x0, symName: __ZNSt3__117__compressed_pairIPN5memdb9Tokenizer11ColumnTypeTENS_10shared_ptrINS2_5TokenEE27__shared_ptr_default_deleteIS6_S3_EEEC1B8ue170006IRS4_S9_EEOT_OT0_, symObjAddr: 0x72AB0, symBinAddr: 0x1000743BC, symSize: 0x88 }
  - { offsetInCU: 0x50973, offset: 0x50973, size: 0x8, addend: 0x0, symName: __ZNSt3__117__compressed_pairINS0_IPN5memdb9Tokenizer11ColumnTypeTENS_10shared_ptrINS2_5TokenEE27__shared_ptr_default_deleteIS6_S3_EEEENS_9allocatorIS3_EEEC1B8ue170006ISA_SC_EEOT_OT0_, symObjAddr: 0x72B38, symBinAddr: 0x100074444, symSize: 0x88 }
  - { offsetInCU: 0x509CB, offset: 0x509CB, size: 0x8, addend: 0x0, symName: __ZNSt3__120__shared_ptr_pointerIPN5memdb9Tokenizer11ColumnTypeTENS_10shared_ptrINS2_5TokenEE27__shared_ptr_default_deleteIS6_S3_EENS_9allocatorIS3_EEED1Ev, symObjAddr: 0x72BC0, symBinAddr: 0x1000744CC, symSize: 0x78 }
  - { offsetInCU: 0x509F7, offset: 0x509F7, size: 0x8, addend: 0x0, symName: __ZNSt3__120__shared_ptr_pointerIPN5memdb9Tokenizer11ColumnTypeTENS_10shared_ptrINS2_5TokenEE27__shared_ptr_default_deleteIS6_S3_EENS_9allocatorIS3_EEED0Ev, symObjAddr: 0x72C38, symBinAddr: 0x100074544, symSize: 0x74 }
  - { offsetInCU: 0x50A23, offset: 0x50A23, size: 0x8, addend: 0x0, symName: __ZNSt3__120__shared_ptr_pointerIPN5memdb9Tokenizer11ColumnTypeTENS_10shared_ptrINS2_5TokenEE27__shared_ptr_default_deleteIS6_S3_EENS_9allocatorIS3_EEE16__on_zero_sharedEv, symObjAddr: 0x72CAC, symBinAddr: 0x1000745B8, symSize: 0x460 }
  - { offsetInCU: 0x50A4B, offset: 0x50A4B, size: 0x8, addend: 0x0, symName: __ZNKSt3__120__shared_ptr_pointerIPN5memdb9Tokenizer11ColumnTypeTENS_10shared_ptrINS2_5TokenEE27__shared_ptr_default_deleteIS6_S3_EENS_9allocatorIS3_EEE13__get_deleterERKSt9type_info, symObjAddr: 0x7310C, symBinAddr: 0x100074A18, symSize: 0x298 }
  - { offsetInCU: 0x50A80, offset: 0x50A80, size: 0x8, addend: 0x0, symName: __ZNSt3__120__shared_ptr_pointerIPN5memdb9Tokenizer11ColumnTypeTENS_10shared_ptrINS2_5TokenEE27__shared_ptr_default_deleteIS6_S3_EENS_9allocatorIS3_EEE21__on_zero_shared_weakEv, symObjAddr: 0x733A4, symBinAddr: 0x100074CB0, symSize: 0x448 }
  - { offsetInCU: 0x50AC8, offset: 0x50AC8, size: 0x8, addend: 0x0, symName: __ZNSt3__117__compressed_pairIPN5memdb9Tokenizer11ColumnTypeTENS_10shared_ptrINS2_5TokenEE27__shared_ptr_default_deleteIS6_S3_EEEC2B8ue170006IRS4_S9_EEOT_OT0_, symObjAddr: 0x737EC, symBinAddr: 0x1000750F8, symSize: 0x170 }
  - { offsetInCU: 0x50B20, offset: 0x50B20, size: 0x8, addend: 0x0, symName: __ZNSt3__122__compressed_pair_elemINS_10shared_ptrIN5memdb9Tokenizer5TokenEE27__shared_ptr_default_deleteIS4_NS3_11ColumnTypeTEEELi1ELb1EEC2B8ue170006IS8_vEEOT_, symObjAddr: 0x7395C, symBinAddr: 0x100075268, symSize: 0x58 }
  - { offsetInCU: 0x50B62, offset: 0x50B62, size: 0x8, addend: 0x0, symName: __ZNSt3__117__compressed_pairINS0_IPN5memdb9Tokenizer11ColumnTypeTENS_10shared_ptrINS2_5TokenEE27__shared_ptr_default_deleteIS6_S3_EEEENS_9allocatorIS3_EEEC2B8ue170006ISA_SC_EEOT_OT0_, symObjAddr: 0x739B4, symBinAddr: 0x1000752C0, symSize: 0x170 }
  - { offsetInCU: 0x50BBA, offset: 0x50BBA, size: 0x8, addend: 0x0, symName: __ZNSt3__122__compressed_pair_elemINS_17__compressed_pairIPN5memdb9Tokenizer11ColumnTypeTENS_10shared_ptrINS3_5TokenEE27__shared_ptr_default_deleteIS7_S4_EEEELi0ELb0EEC2B8ue170006ISB_vEEOT_, symObjAddr: 0x73B24, symBinAddr: 0x100075430, symSize: 0x84 }
  - { offsetInCU: 0x50BFC, offset: 0x50BFC, size: 0x8, addend: 0x0, symName: __ZNSt3__122__compressed_pair_elemINS_9allocatorIN5memdb9Tokenizer11ColumnTypeTEEELi1ELb1EEC2B8ue170006IS5_vEEOT_, symObjAddr: 0x73BA8, symBinAddr: 0x1000754B4, symSize: 0x58 }
  - { offsetInCU: 0x50C3E, offset: 0x50C3E, size: 0x8, addend: 0x0, symName: __ZNSt3__120__shared_ptr_pointerIPN5memdb9Tokenizer11ColumnTypeTENS_10shared_ptrINS2_5TokenEE27__shared_ptr_default_deleteIS6_S3_EENS_9allocatorIS3_EEED2Ev, symObjAddr: 0x73C00, symBinAddr: 0x10007550C, symSize: 0x78 }
  - { offsetInCU: 0x50C6A, offset: 0x50C6A, size: 0x8, addend: 0x0, symName: __ZNSt3__117__compressed_pairINS0_IPN5memdb9Tokenizer11ColumnTypeTENS_10shared_ptrINS2_5TokenEE27__shared_ptr_default_deleteIS6_S3_EEEENS_9allocatorIS3_EEE5firstB8ue170006Ev, symObjAddr: 0x73C78, symBinAddr: 0x100075584, symSize: 0x124 }
  - { offsetInCU: 0x50C90, offset: 0x50C90, size: 0x8, addend: 0x0, symName: __ZNSt3__117__compressed_pairIPN5memdb9Tokenizer11ColumnTypeTENS_10shared_ptrINS2_5TokenEE27__shared_ptr_default_deleteIS6_S3_EEE6secondB8ue170006Ev, symObjAddr: 0x73D9C, symBinAddr: 0x1000756A8, symSize: 0x108 }
  - { offsetInCU: 0x50CB6, offset: 0x50CB6, size: 0x8, addend: 0x0, symName: __ZNKSt3__114default_deleteIN5memdb9Tokenizer11ColumnTypeTEEclB8ue170006EPS3_, symObjAddr: 0x73EA4, symBinAddr: 0x1000757B0, symSize: 0x158 }
  - { offsetInCU: 0x50CEA, offset: 0x50CEA, size: 0x8, addend: 0x0, symName: __ZNSt3__117__compressed_pairIPN5memdb9Tokenizer11ColumnTypeTENS_10shared_ptrINS2_5TokenEE27__shared_ptr_default_deleteIS6_S3_EEE5firstB8ue170006Ev, symObjAddr: 0x73FFC, symBinAddr: 0x100075908, symSize: 0x124 }
  - { offsetInCU: 0x50D10, offset: 0x50D10, size: 0x8, addend: 0x0, symName: __ZNSt3__122__compressed_pair_elemINS_17__compressed_pairIPN5memdb9Tokenizer11ColumnTypeTENS_10shared_ptrINS3_5TokenEE27__shared_ptr_default_deleteIS7_S4_EEEELi0ELb0EE5__getB8ue170006Ev, symObjAddr: 0x74120, symBinAddr: 0x100075A2C, symSize: 0xAC }
  - { offsetInCU: 0x50D36, offset: 0x50D36, size: 0x8, addend: 0x0, symName: __ZNSt3__122__compressed_pair_elemINS_10shared_ptrIN5memdb9Tokenizer5TokenEE27__shared_ptr_default_deleteIS4_NS3_11ColumnTypeTEEELi1ELb1EE5__getB8ue170006Ev, symObjAddr: 0x741CC, symBinAddr: 0x100075AD8, symSize: 0x74 }
  - { offsetInCU: 0x50D5C, offset: 0x50D5C, size: 0x8, addend: 0x0, symName: __ZNSt3__122__compressed_pair_elemIPN5memdb9Tokenizer11ColumnTypeTELi0ELb0EE5__getB8ue170006Ev, symObjAddr: 0x74240, symBinAddr: 0x100075B4C, symSize: 0xAC }
  - { offsetInCU: 0x50D82, offset: 0x50D82, size: 0x8, addend: 0x0, symName: __ZNKSt3__117__compressed_pairINS0_IPN5memdb9Tokenizer11ColumnTypeTENS_10shared_ptrINS2_5TokenEE27__shared_ptr_default_deleteIS6_S3_EEEENS_9allocatorIS3_EEE5firstB8ue170006Ev, symObjAddr: 0x742EC, symBinAddr: 0x100075BF8, symSize: 0x124 }
  - { offsetInCU: 0x50DA8, offset: 0x50DA8, size: 0x8, addend: 0x0, symName: __ZNKSt3__117__compressed_pairIPN5memdb9Tokenizer11ColumnTypeTENS_10shared_ptrINS2_5TokenEE27__shared_ptr_default_deleteIS6_S3_EEE6secondB8ue170006Ev, symObjAddr: 0x74410, symBinAddr: 0x100075D1C, symSize: 0x108 }
  - { offsetInCU: 0x50DCE, offset: 0x50DCE, size: 0x8, addend: 0x0, symName: __ZNKSt3__122__compressed_pair_elemINS_17__compressed_pairIPN5memdb9Tokenizer11ColumnTypeTENS_10shared_ptrINS3_5TokenEE27__shared_ptr_default_deleteIS7_S4_EEEELi0ELb0EE5__getB8ue170006Ev, symObjAddr: 0x74518, symBinAddr: 0x100075E24, symSize: 0xAC }
  - { offsetInCU: 0x50DF4, offset: 0x50DF4, size: 0x8, addend: 0x0, symName: __ZNKSt3__122__compressed_pair_elemINS_10shared_ptrIN5memdb9Tokenizer5TokenEE27__shared_ptr_default_deleteIS4_NS3_11ColumnTypeTEEELi1ELb1EE5__getB8ue170006Ev, symObjAddr: 0x745C4, symBinAddr: 0x100075ED0, symSize: 0x74 }
  - { offsetInCU: 0x50E1A, offset: 0x50E1A, size: 0x8, addend: 0x0, symName: __ZNSt3__117__compressed_pairINS0_IPN5memdb9Tokenizer11ColumnTypeTENS_10shared_ptrINS2_5TokenEE27__shared_ptr_default_deleteIS6_S3_EEEENS_9allocatorIS3_EEE6secondB8ue170006Ev, symObjAddr: 0x74638, symBinAddr: 0x100075F44, symSize: 0x108 }
  - { offsetInCU: 0x50E52, offset: 0x50E52, size: 0x8, addend: 0x0, symName: __ZNSt3__19allocatorINS_20__shared_ptr_pointerIPN5memdb9Tokenizer11ColumnTypeTENS_10shared_ptrINS3_5TokenEE27__shared_ptr_default_deleteIS7_S4_EENS0_IS4_EEEEEC1B8ue170006IS4_EERKNS0_IT_EE, symObjAddr: 0x74740, symBinAddr: 0x10007604C, symSize: 0x64 }
  - { offsetInCU: 0x50E8F, offset: 0x50E8F, size: 0x8, addend: 0x0, symName: __ZNSt3__19allocatorINS_20__shared_ptr_pointerIPN5memdb9Tokenizer11ColumnTypeTENS_10shared_ptrINS3_5TokenEE27__shared_ptr_default_deleteIS7_S4_EENS0_IS4_EEEEE10deallocateB8ue170006EPSC_m, symObjAddr: 0x747A4, symBinAddr: 0x1000760B0, symSize: 0x78 }
  - { offsetInCU: 0x50ED7, offset: 0x50ED7, size: 0x8, addend: 0x0, symName: __ZNSt3__114pointer_traitsIPNS_20__shared_ptr_pointerIPN5memdb9Tokenizer11ColumnTypeTENS_10shared_ptrINS3_5TokenEE27__shared_ptr_default_deleteIS7_S4_EENS_9allocatorIS4_EEEEE10pointer_toB8ue170006ERSD_, symObjAddr: 0x7481C, symBinAddr: 0x100076128, symSize: 0x14 }
  - { offsetInCU: 0x50EFA, offset: 0x50EFA, size: 0x8, addend: 0x0, symName: __ZNSt3__122__compressed_pair_elemINS_9allocatorIN5memdb9Tokenizer11ColumnTypeTEEELi1ELb1EE5__getB8ue170006Ev, symObjAddr: 0x74830, symBinAddr: 0x10007613C, symSize: 0x74 }
  - { offsetInCU: 0x50F20, offset: 0x50F20, size: 0x8, addend: 0x0, symName: __ZNSt3__19allocatorINS_20__shared_ptr_pointerIPN5memdb9Tokenizer11ColumnTypeTENS_10shared_ptrINS3_5TokenEE27__shared_ptr_default_deleteIS7_S4_EENS0_IS4_EEEEEC2B8ue170006IS4_EERKNS0_IT_EE, symObjAddr: 0x748A4, symBinAddr: 0x1000761B0, symSize: 0x88 }
  - { offsetInCU: 0x50F5D, offset: 0x50F5D, size: 0x8, addend: 0x0, symName: __ZNSt3__116__non_trivial_ifILb1ENS_9allocatorINS_20__shared_ptr_pointerIPN5memdb9Tokenizer11ColumnTypeTENS_10shared_ptrINS4_5TokenEE27__shared_ptr_default_deleteIS8_S5_EENS1_IS5_EEEEEEEC2B8ue170006Ev, symObjAddr: 0x7492C, symBinAddr: 0x100076238, symSize: 0x54 }
  - { offsetInCU: 0x50F87, offset: 0x50F87, size: 0x8, addend: 0x0, symName: __ZNSt3__117__compressed_pairIPN5memdb9Tokenizer11ColumnTypeTENS_14default_deleteIS3_EEE5firstB8ue170006Ev, symObjAddr: 0x74980, symBinAddr: 0x10007628C, symSize: 0x124 }
  - { offsetInCU: 0x50FAD, offset: 0x50FAD, size: 0x8, addend: 0x0, symName: __ZNSt3__110unique_ptrIN5memdb9Tokenizer11ColumnTypeTENS_14default_deleteIS3_EEED2B8ue170006Ev, symObjAddr: 0x74AA4, symBinAddr: 0x1000763B0, symSize: 0x7C }
  - { offsetInCU: 0x50FD7, offset: 0x50FD7, size: 0x8, addend: 0x0, symName: __ZNSt3__110unique_ptrIN5memdb9Tokenizer11ColumnTypeTENS_14default_deleteIS3_EEE5resetB8ue170006EPS3_, symObjAddr: 0x74B20, symBinAddr: 0x10007642C, symSize: 0x2B0 }
  - { offsetInCU: 0x5101B, offset: 0x5101B, size: 0x8, addend: 0x0, symName: __ZNSt3__117__compressed_pairIPN5memdb9Tokenizer11ColumnTypeTENS_14default_deleteIS3_EEE6secondB8ue170006Ev, symObjAddr: 0x74DD0, symBinAddr: 0x1000766DC, symSize: 0x108 }
  - { offsetInCU: 0x51041, offset: 0x51041, size: 0x8, addend: 0x0, symName: __ZNSt3__122__compressed_pair_elemINS_14default_deleteIN5memdb9Tokenizer11ColumnTypeTEEELi1ELb1EE5__getB8ue170006Ev, symObjAddr: 0x74ED8, symBinAddr: 0x1000767E4, symSize: 0x74 }
  - { offsetInCU: 0x51067, offset: 0x51067, size: 0x8, addend: 0x0, symName: __ZN5memdb9Tokenizer11ColumnTypeTC2Ev, symObjAddr: 0x74F4C, symBinAddr: 0x100076858, symSize: 0x124 }
  - { offsetInCU: 0x51091, offset: 0x51091, size: 0x8, addend: 0x0, symName: __ZNK5memdb9Tokenizer11ColumnTypeT7GetTypeEv, symObjAddr: 0x75070, symBinAddr: 0x10007697C, symSize: 0x64 }
  - { offsetInCU: 0x510B7, offset: 0x510B7, size: 0x8, addend: 0x0, symName: __ZN5memdb9Tokenizer11ColumnTypeT4CopyEv, symObjAddr: 0x750D4, symBinAddr: 0x1000769E0, symSize: 0x564 }
  - { offsetInCU: 0x510EF, offset: 0x510EF, size: 0x8, addend: 0x0, symName: __ZN5memdb9Tokenizer11ColumnTypeT5ParseERNSt3__16vectorINS2_12basic_stringIcNS2_11char_traitsIcEENS2_9allocatorIcEEEENS7_IS9_EEEERi, symObjAddr: 0x75638, symBinAddr: 0x100076F44, symSize: 0x96C }
  - { offsetInCU: 0x51149, offset: 0x51149, size: 0x8, addend: 0x0, symName: __ZN5memdb9Tokenizer11ColumnTypeTC1ENS_10ColumnTypeE, symObjAddr: 0x75FA4, symBinAddr: 0x1000778B0, symSize: 0x394 }
  - { offsetInCU: 0x51187, offset: 0x51187, size: 0x8, addend: 0x0, symName: __ZN5memdb9Tokenizer11ColumnTypeTC2ENS_10ColumnTypeE, symObjAddr: 0x76338, symBinAddr: 0x100077C44, symSize: 0x378 }
  - { offsetInCU: 0x511C5, offset: 0x511C5, size: 0x8, addend: 0x0, symName: __ZNSt3__110shared_ptrIN5memdb9Tokenizer5TokenEE5resetB8ue170006INS2_7DBTypeTEvEEvPT_, symObjAddr: 0x766B0, symBinAddr: 0x100077FBC, symSize: 0x27C }
  - { offsetInCU: 0x51206, offset: 0x51206, size: 0x8, addend: 0x0, symName: __ZN5memdb9Tokenizer7DBTypeTC1Ev, symObjAddr: 0x7692C, symBinAddr: 0x100078238, symSize: 0x78 }
  - { offsetInCU: 0x51230, offset: 0x51230, size: 0x8, addend: 0x0, symName: __ZNSt3__110shared_ptrIN5memdb9Tokenizer5TokenEEC1B8ue170006INS2_7DBTypeTEvEEPT_, symObjAddr: 0x769A4, symBinAddr: 0x1000782B0, symSize: 0x80 }
  - { offsetInCU: 0x51273, offset: 0x51273, size: 0x8, addend: 0x0, symName: __ZNSt3__110shared_ptrIN5memdb9Tokenizer5TokenEEC2B8ue170006INS2_7DBTypeTEvEEPT_, symObjAddr: 0x76A24, symBinAddr: 0x100078330, symSize: 0x4D8 }
  - { offsetInCU: 0x51385, offset: 0x51385, size: 0x8, addend: 0x0, symName: __ZNSt3__110unique_ptrIN5memdb9Tokenizer7DBTypeTENS_14default_deleteIS3_EEEC1B8ue170006ILb1EvEEPS3_, symObjAddr: 0x76EFC, symBinAddr: 0x100078808, symSize: 0x80 }
  - { offsetInCU: 0x513D4, offset: 0x513D4, size: 0x8, addend: 0x0, symName: __ZNSt3__19allocatorIN5memdb9Tokenizer7DBTypeTEEC1B8ue170006Ev, symObjAddr: 0x76F7C, symBinAddr: 0x100078888, symSize: 0x5C }
  - { offsetInCU: 0x514BE, offset: 0x514BE, size: 0x8, addend: 0x0, symName: __ZNSt3__120__shared_ptr_pointerIPN5memdb9Tokenizer7DBTypeTENS_10shared_ptrINS2_5TokenEE27__shared_ptr_default_deleteIS6_S3_EENS_9allocatorIS3_EEEC1B8ue170006ES4_S9_SB_, symObjAddr: 0x76FD8, symBinAddr: 0x1000788E4, symSize: 0x80 }
  - { offsetInCU: 0x51512, offset: 0x51512, size: 0x8, addend: 0x0, symName: __ZNSt3__110unique_ptrIN5memdb9Tokenizer7DBTypeTENS_14default_deleteIS3_EEE7releaseB8ue170006Ev, symObjAddr: 0x77058, symBinAddr: 0x100078964, symSize: 0x20C }
  - { offsetInCU: 0x51547, offset: 0x51547, size: 0x8, addend: 0x0, symName: __ZNSt3__110unique_ptrIN5memdb9Tokenizer7DBTypeTENS_14default_deleteIS3_EEED1B8ue170006Ev, symObjAddr: 0x77264, symBinAddr: 0x100078B70, symSize: 0x78 }
  - { offsetInCU: 0x51571, offset: 0x51571, size: 0x8, addend: 0x0, symName: __ZNSt3__110unique_ptrIN5memdb9Tokenizer7DBTypeTENS_14default_deleteIS3_EEEC2B8ue170006ILb1EvEEPS3_, symObjAddr: 0x772DC, symBinAddr: 0x100078BE8, symSize: 0x2B8 }
  - { offsetInCU: 0x515B9, offset: 0x515B9, size: 0x8, addend: 0x0, symName: __ZNSt3__117__compressed_pairIPN5memdb9Tokenizer7DBTypeTENS_14default_deleteIS3_EEEC1B8ue170006IRS4_NS_16__value_init_tagEEEOT_OT0_, symObjAddr: 0x77594, symBinAddr: 0x100078EA0, symSize: 0x88 }
  - { offsetInCU: 0x51611, offset: 0x51611, size: 0x8, addend: 0x0, symName: __ZNSt3__117__compressed_pairIPN5memdb9Tokenizer7DBTypeTENS_14default_deleteIS3_EEEC2B8ue170006IRS4_NS_16__value_init_tagEEEOT_OT0_, symObjAddr: 0x7761C, symBinAddr: 0x100078F28, symSize: 0x140 }
  - { offsetInCU: 0x51669, offset: 0x51669, size: 0x8, addend: 0x0, symName: __ZNSt3__122__compressed_pair_elemIPN5memdb9Tokenizer7DBTypeTELi0ELb0EEC2B8ue170006IRS4_vEEOT_, symObjAddr: 0x7775C, symBinAddr: 0x100079068, symSize: 0x144 }
  - { offsetInCU: 0x516AB, offset: 0x516AB, size: 0x8, addend: 0x0, symName: __ZNSt3__122__compressed_pair_elemINS_14default_deleteIN5memdb9Tokenizer7DBTypeTEEELi1ELb1EEC2B8ue170006ENS_16__value_init_tagE, symObjAddr: 0x778A0, symBinAddr: 0x1000791AC, symSize: 0x54 }
  - { offsetInCU: 0x516DF, offset: 0x516DF, size: 0x8, addend: 0x0, symName: __ZNSt3__19allocatorIN5memdb9Tokenizer7DBTypeTEEC2B8ue170006Ev, symObjAddr: 0x778F4, symBinAddr: 0x100079200, symSize: 0x84 }
  - { offsetInCU: 0x51709, offset: 0x51709, size: 0x8, addend: 0x0, symName: __ZNSt3__116__non_trivial_ifILb1ENS_9allocatorIN5memdb9Tokenizer7DBTypeTEEEEC2B8ue170006Ev, symObjAddr: 0x77978, symBinAddr: 0x100079284, symSize: 0x54 }
  - { offsetInCU: 0x51733, offset: 0x51733, size: 0x8, addend: 0x0, symName: __ZNSt3__120__shared_ptr_pointerIPN5memdb9Tokenizer7DBTypeTENS_10shared_ptrINS2_5TokenEE27__shared_ptr_default_deleteIS6_S3_EENS_9allocatorIS3_EEEC2B8ue170006ES4_S9_SB_, symObjAddr: 0x779CC, symBinAddr: 0x1000792D8, symSize: 0x44C }
  - { offsetInCU: 0x5179A, offset: 0x5179A, size: 0x8, addend: 0x0, symName: __ZNSt3__117__compressed_pairIPN5memdb9Tokenizer7DBTypeTENS_10shared_ptrINS2_5TokenEE27__shared_ptr_default_deleteIS6_S3_EEEC1B8ue170006IRS4_S9_EEOT_OT0_, symObjAddr: 0x77E18, symBinAddr: 0x100079724, symSize: 0x88 }
  - { offsetInCU: 0x517FE, offset: 0x517FE, size: 0x8, addend: 0x0, symName: __ZNSt3__117__compressed_pairINS0_IPN5memdb9Tokenizer7DBTypeTENS_10shared_ptrINS2_5TokenEE27__shared_ptr_default_deleteIS6_S3_EEEENS_9allocatorIS3_EEEC1B8ue170006ISA_SC_EEOT_OT0_, symObjAddr: 0x77EA0, symBinAddr: 0x1000797AC, symSize: 0x88 }
  - { offsetInCU: 0x51856, offset: 0x51856, size: 0x8, addend: 0x0, symName: __ZNSt3__120__shared_ptr_pointerIPN5memdb9Tokenizer7DBTypeTENS_10shared_ptrINS2_5TokenEE27__shared_ptr_default_deleteIS6_S3_EENS_9allocatorIS3_EEED1Ev, symObjAddr: 0x77F28, symBinAddr: 0x100079834, symSize: 0x78 }
  - { offsetInCU: 0x51882, offset: 0x51882, size: 0x8, addend: 0x0, symName: __ZNSt3__120__shared_ptr_pointerIPN5memdb9Tokenizer7DBTypeTENS_10shared_ptrINS2_5TokenEE27__shared_ptr_default_deleteIS6_S3_EENS_9allocatorIS3_EEED0Ev, symObjAddr: 0x77FA0, symBinAddr: 0x1000798AC, symSize: 0x74 }
  - { offsetInCU: 0x518AE, offset: 0x518AE, size: 0x8, addend: 0x0, symName: __ZNSt3__120__shared_ptr_pointerIPN5memdb9Tokenizer7DBTypeTENS_10shared_ptrINS2_5TokenEE27__shared_ptr_default_deleteIS6_S3_EENS_9allocatorIS3_EEE16__on_zero_sharedEv, symObjAddr: 0x78014, symBinAddr: 0x100079920, symSize: 0x460 }
  - { offsetInCU: 0x518D6, offset: 0x518D6, size: 0x8, addend: 0x0, symName: __ZNKSt3__120__shared_ptr_pointerIPN5memdb9Tokenizer7DBTypeTENS_10shared_ptrINS2_5TokenEE27__shared_ptr_default_deleteIS6_S3_EENS_9allocatorIS3_EEE13__get_deleterERKSt9type_info, symObjAddr: 0x78474, symBinAddr: 0x100079D80, symSize: 0x298 }
  - { offsetInCU: 0x5190B, offset: 0x5190B, size: 0x8, addend: 0x0, symName: __ZNSt3__120__shared_ptr_pointerIPN5memdb9Tokenizer7DBTypeTENS_10shared_ptrINS2_5TokenEE27__shared_ptr_default_deleteIS6_S3_EENS_9allocatorIS3_EEE21__on_zero_shared_weakEv, symObjAddr: 0x7870C, symBinAddr: 0x10007A018, symSize: 0x448 }
  - { offsetInCU: 0x51953, offset: 0x51953, size: 0x8, addend: 0x0, symName: __ZNSt3__117__compressed_pairIPN5memdb9Tokenizer7DBTypeTENS_10shared_ptrINS2_5TokenEE27__shared_ptr_default_deleteIS6_S3_EEEC2B8ue170006IRS4_S9_EEOT_OT0_, symObjAddr: 0x78B54, symBinAddr: 0x10007A460, symSize: 0x170 }
  - { offsetInCU: 0x519AB, offset: 0x519AB, size: 0x8, addend: 0x0, symName: __ZNSt3__122__compressed_pair_elemINS_10shared_ptrIN5memdb9Tokenizer5TokenEE27__shared_ptr_default_deleteIS4_NS3_7DBTypeTEEELi1ELb1EEC2B8ue170006IS8_vEEOT_, symObjAddr: 0x78CC4, symBinAddr: 0x10007A5D0, symSize: 0x58 }
  - { offsetInCU: 0x519ED, offset: 0x519ED, size: 0x8, addend: 0x0, symName: __ZNSt3__117__compressed_pairINS0_IPN5memdb9Tokenizer7DBTypeTENS_10shared_ptrINS2_5TokenEE27__shared_ptr_default_deleteIS6_S3_EEEENS_9allocatorIS3_EEEC2B8ue170006ISA_SC_EEOT_OT0_, symObjAddr: 0x78D1C, symBinAddr: 0x10007A628, symSize: 0x170 }
  - { offsetInCU: 0x51A45, offset: 0x51A45, size: 0x8, addend: 0x0, symName: __ZNSt3__122__compressed_pair_elemINS_17__compressed_pairIPN5memdb9Tokenizer7DBTypeTENS_10shared_ptrINS3_5TokenEE27__shared_ptr_default_deleteIS7_S4_EEEELi0ELb0EEC2B8ue170006ISB_vEEOT_, symObjAddr: 0x78E8C, symBinAddr: 0x10007A798, symSize: 0x84 }
  - { offsetInCU: 0x51A87, offset: 0x51A87, size: 0x8, addend: 0x0, symName: __ZNSt3__122__compressed_pair_elemINS_9allocatorIN5memdb9Tokenizer7DBTypeTEEELi1ELb1EEC2B8ue170006IS5_vEEOT_, symObjAddr: 0x78F10, symBinAddr: 0x10007A81C, symSize: 0x58 }
  - { offsetInCU: 0x51AC9, offset: 0x51AC9, size: 0x8, addend: 0x0, symName: __ZNSt3__120__shared_ptr_pointerIPN5memdb9Tokenizer7DBTypeTENS_10shared_ptrINS2_5TokenEE27__shared_ptr_default_deleteIS6_S3_EENS_9allocatorIS3_EEED2Ev, symObjAddr: 0x78F68, symBinAddr: 0x10007A874, symSize: 0x78 }
  - { offsetInCU: 0x51AF5, offset: 0x51AF5, size: 0x8, addend: 0x0, symName: __ZNSt3__117__compressed_pairINS0_IPN5memdb9Tokenizer7DBTypeTENS_10shared_ptrINS2_5TokenEE27__shared_ptr_default_deleteIS6_S3_EEEENS_9allocatorIS3_EEE5firstB8ue170006Ev, symObjAddr: 0x78FE0, symBinAddr: 0x10007A8EC, symSize: 0x124 }
  - { offsetInCU: 0x51B1B, offset: 0x51B1B, size: 0x8, addend: 0x0, symName: __ZNSt3__117__compressed_pairIPN5memdb9Tokenizer7DBTypeTENS_10shared_ptrINS2_5TokenEE27__shared_ptr_default_deleteIS6_S3_EEE6secondB8ue170006Ev, symObjAddr: 0x79104, symBinAddr: 0x10007AA10, symSize: 0x108 }
  - { offsetInCU: 0x51B41, offset: 0x51B41, size: 0x8, addend: 0x0, symName: __ZNKSt3__114default_deleteIN5memdb9Tokenizer7DBTypeTEEclB8ue170006EPS3_, symObjAddr: 0x7920C, symBinAddr: 0x10007AB18, symSize: 0x160 }
  - { offsetInCU: 0x51B75, offset: 0x51B75, size: 0x8, addend: 0x0, symName: __ZNSt3__117__compressed_pairIPN5memdb9Tokenizer7DBTypeTENS_10shared_ptrINS2_5TokenEE27__shared_ptr_default_deleteIS6_S3_EEE5firstB8ue170006Ev, symObjAddr: 0x7936C, symBinAddr: 0x10007AC78, symSize: 0x124 }
  - { offsetInCU: 0x51B9B, offset: 0x51B9B, size: 0x8, addend: 0x0, symName: __ZNSt3__122__compressed_pair_elemINS_17__compressed_pairIPN5memdb9Tokenizer7DBTypeTENS_10shared_ptrINS3_5TokenEE27__shared_ptr_default_deleteIS7_S4_EEEELi0ELb0EE5__getB8ue170006Ev, symObjAddr: 0x79490, symBinAddr: 0x10007AD9C, symSize: 0xAC }
  - { offsetInCU: 0x51BC1, offset: 0x51BC1, size: 0x8, addend: 0x0, symName: __ZNSt3__122__compressed_pair_elemINS_10shared_ptrIN5memdb9Tokenizer5TokenEE27__shared_ptr_default_deleteIS4_NS3_7DBTypeTEEELi1ELb1EE5__getB8ue170006Ev, symObjAddr: 0x7953C, symBinAddr: 0x10007AE48, symSize: 0x74 }
  - { offsetInCU: 0x51BE7, offset: 0x51BE7, size: 0x8, addend: 0x0, symName: __ZN5memdb9Tokenizer7DBTypeTD1Ev, symObjAddr: 0x795B0, symBinAddr: 0x10007AEBC, symSize: 0x78 }
  - { offsetInCU: 0x51C14, offset: 0x51C14, size: 0x8, addend: 0x0, symName: __ZN5memdb9Tokenizer7DBTypeTD2Ev, symObjAddr: 0x79628, symBinAddr: 0x10007AF34, symSize: 0xD4 }
  - { offsetInCU: 0x51C41, offset: 0x51C41, size: 0x8, addend: 0x0, symName: __ZNSt3__110shared_ptrIN5memdb6DbTypeEED1B8ue170006Ev, symObjAddr: 0x796FC, symBinAddr: 0x10007B008, symSize: 0x78 }
  - { offsetInCU: 0x51C6B, offset: 0x51C6B, size: 0x8, addend: 0x0, symName: __ZNK5memdb9Tokenizer7DBTypeT7GetTypeEv, symObjAddr: 0x79774, symBinAddr: 0x10007B080, symSize: 0x64 }
  - { offsetInCU: 0x51C91, offset: 0x51C91, size: 0x8, addend: 0x0, symName: __ZN5memdb9Tokenizer7DBTypeT4CopyEv, symObjAddr: 0x797D8, symBinAddr: 0x10007B0E4, symSize: 0x530 }
  - { offsetInCU: 0x51CC9, offset: 0x51CC9, size: 0x8, addend: 0x0, symName: __ZN5memdb9Tokenizer7DBTypeT5ParseERNSt3__16vectorINS2_12basic_stringIcNS2_11char_traitsIcEENS2_9allocatorIcEEEENS7_IS9_EEEERi, symObjAddr: 0x79D08, symBinAddr: 0x10007B614, symSize: 0x1884 }
  - { offsetInCU: 0x51D87, offset: 0x51D87, size: 0x8, addend: 0x0, symName: __ZNSt3__110shared_ptrIN5memdb6DbTypeEED2B8ue170006Ev, symObjAddr: 0x7B58C, symBinAddr: 0x10007CE98, symSize: 0x1FC }
  - { offsetInCU: 0x51DB1, offset: 0x51DB1, size: 0x8, addend: 0x0, symName: __ZNSt3__119__shared_weak_count16__release_sharedB8ue170006Ev, symObjAddr: 0x7B788, symBinAddr: 0x10007D094, symSize: 0x1A8 }
  - { offsetInCU: 0x51DD7, offset: 0x51DD7, size: 0x8, addend: 0x0, symName: __ZNSt3__114__shared_count16__release_sharedB8ue170006Ev, symObjAddr: 0x7B930, symBinAddr: 0x10007D23C, symSize: 0x27C }
  - { offsetInCU: 0x51DFD, offset: 0x51DFD, size: 0x8, addend: 0x0, symName: __ZNSt3__110shared_ptrIN5memdb6DbTypeEEC1B8ue170006ERKS3_, symObjAddr: 0x7BC2C, symBinAddr: 0x10007D538, symSize: 0x80 }
  - { offsetInCU: 0x51E36, offset: 0x51E36, size: 0x8, addend: 0x0, symName: __ZN5memdb9Tokenizer7DBTypeTC1ENSt3__110shared_ptrINS_6DbTypeEEE, symObjAddr: 0x7BCAC, symBinAddr: 0x10007D5B8, symSize: 0x84 }
  - { offsetInCU: 0x51E70, offset: 0x51E70, size: 0x8, addend: 0x0, symName: __ZNSt3__110shared_ptrIN5memdb6DbTypeEEC2B8ue170006ERKS3_, symObjAddr: 0x7BD30, symBinAddr: 0x10007D63C, symSize: 0x35C }
  - { offsetInCU: 0x51EA9, offset: 0x51EA9, size: 0x8, addend: 0x0, symName: __ZNSt3__119__shared_weak_count12__add_sharedB8ue170006Ev, symObjAddr: 0x7C08C, symBinAddr: 0x10007D998, symSize: 0x120 }
  - { offsetInCU: 0x51ECF, offset: 0x51ECF, size: 0x8, addend: 0x0, symName: __ZNSt3__114__shared_count12__add_sharedB8ue170006Ev, symObjAddr: 0x7C1AC, symBinAddr: 0x10007DAB8, symSize: 0x140 }
  - { offsetInCU: 0x51EF5, offset: 0x51EF5, size: 0x8, addend: 0x0, symName: __ZN5memdb9Tokenizer7DBTypeTC2ENSt3__110shared_ptrINS_6DbTypeEEE, symObjAddr: 0x7C36C, symBinAddr: 0x10007DC78, symSize: 0x178 }
  - { offsetInCU: 0x51F2F, offset: 0x51F2F, size: 0x8, addend: 0x0, symName: __ZNSt3__110shared_ptrIN5memdb6DbTypeEE5resetB8ue170006IS2_vEEvPT_, symObjAddr: 0x7C4E4, symBinAddr: 0x10007DDF0, symSize: 0x27C }
  - { offsetInCU: 0x51F82, offset: 0x51F82, size: 0x8, addend: 0x0, symName: __ZN5memdb8DbStringC1ENSt3__112basic_stringIcNS1_11char_traitsIcEENS1_9allocatorIcEEEE, symObjAddr: 0x7C760, symBinAddr: 0x10007E06C, symSize: 0x84 }
  - { offsetInCU: 0x51FBB, offset: 0x51FBB, size: 0x8, addend: 0x0, symName: __ZNSt3__14pairIbNS_12basic_stringIcNS_11char_traitsIcEENS_9allocatorIcEEEEED1Ev, symObjAddr: 0x7C7E4, symBinAddr: 0x10007E0F0, symSize: 0x78 }
  - { offsetInCU: 0x51FF9, offset: 0x51FF9, size: 0x8, addend: 0x0, symName: __ZN5memdb7DbBytesC1ENSt3__16vectorIcNS1_9allocatorIcEEEE, symObjAddr: 0x7C85C, symBinAddr: 0x10007E168, symSize: 0x84 }
  - { offsetInCU: 0x52032, offset: 0x52032, size: 0x8, addend: 0x0, symName: __ZNSt3__14pairIbNS_6vectorIcNS_9allocatorIcEEEEED1Ev, symObjAddr: 0x7C8E0, symBinAddr: 0x10007E1EC, symSize: 0x78 }
  - { offsetInCU: 0x52070, offset: 0x52070, size: 0x8, addend: 0x0, symName: __ZN5memdb7DbInt32C1Ei, symObjAddr: 0x7C958, symBinAddr: 0x10007E264, symSize: 0x80 }
  - { offsetInCU: 0x520BA, offset: 0x520BA, size: 0x8, addend: 0x0, symName: __ZN5memdb6DbBoolC1Eb, symObjAddr: 0x7C9D8, symBinAddr: 0x10007E2E4, symSize: 0xBC }
  - { offsetInCU: 0x520F2, offset: 0x520F2, size: 0x8, addend: 0x0, symName: __ZNSt3__110shared_ptrIN5memdb6DbTypeEEC1B8ue170006IS2_vEEPT_, symObjAddr: 0x7CA94, symBinAddr: 0x10007E3A0, symSize: 0x80 }
  - { offsetInCU: 0x52135, offset: 0x52135, size: 0x8, addend: 0x0, symName: __ZNSt3__110shared_ptrIN5memdb6DbTypeEE4swapB8ue170006ERS3_, symObjAddr: 0x7CB14, symBinAddr: 0x10007E420, symSize: 0x1A4 }
  - { offsetInCU: 0x5216A, offset: 0x5216A, size: 0x8, addend: 0x0, symName: __ZNSt3__110shared_ptrIN5memdb6DbTypeEEC2B8ue170006IS2_vEEPT_, symObjAddr: 0x7CCB8, symBinAddr: 0x10007E5C4, symSize: 0x498 }
  - { offsetInCU: 0x52276, offset: 0x52276, size: 0x8, addend: 0x0, symName: __ZNSt3__110unique_ptrIN5memdb6DbTypeENS_14default_deleteIS2_EEEC1B8ue170006ILb1EvEEPS2_, symObjAddr: 0x7D150, symBinAddr: 0x10007EA5C, symSize: 0x80 }
  - { offsetInCU: 0x522C5, offset: 0x522C5, size: 0x8, addend: 0x0, symName: __ZNSt3__19allocatorIN5memdb6DbTypeEEC1B8ue170006Ev, symObjAddr: 0x7D1D0, symBinAddr: 0x10007EADC, symSize: 0x5C }
  - { offsetInCU: 0x523AF, offset: 0x523AF, size: 0x8, addend: 0x0, symName: __ZNSt3__120__shared_ptr_pointerIPN5memdb6DbTypeENS_10shared_ptrIS2_E27__shared_ptr_default_deleteIS2_S2_EENS_9allocatorIS2_EEEC1B8ue170006ES3_S7_S9_, symObjAddr: 0x7D22C, symBinAddr: 0x10007EB38, symSize: 0x80 }
  - { offsetInCU: 0x52403, offset: 0x52403, size: 0x8, addend: 0x0, symName: __ZNSt3__110unique_ptrIN5memdb6DbTypeENS_14default_deleteIS2_EEE7releaseB8ue170006Ev, symObjAddr: 0x7D2AC, symBinAddr: 0x10007EBB8, symSize: 0x20C }
  - { offsetInCU: 0x52438, offset: 0x52438, size: 0x8, addend: 0x0, symName: __ZNSt3__110shared_ptrIN5memdb6DbTypeEE18__enable_weak_thisB8ue170006Ez, symObjAddr: 0x7D4B8, symBinAddr: 0x10007EDC4, symSize: 0x60 }
  - { offsetInCU: 0x5245F, offset: 0x5245F, size: 0x8, addend: 0x0, symName: __ZNSt3__110unique_ptrIN5memdb6DbTypeENS_14default_deleteIS2_EEED1B8ue170006Ev, symObjAddr: 0x7D518, symBinAddr: 0x10007EE24, symSize: 0x78 }
  - { offsetInCU: 0x52489, offset: 0x52489, size: 0x8, addend: 0x0, symName: __ZNSt3__110unique_ptrIN5memdb6DbTypeENS_14default_deleteIS2_EEEC2B8ue170006ILb1EvEEPS2_, symObjAddr: 0x7D590, symBinAddr: 0x10007EE9C, symSize: 0x2B8 }
  - { offsetInCU: 0x524D1, offset: 0x524D1, size: 0x8, addend: 0x0, symName: __ZNSt3__117__compressed_pairIPN5memdb6DbTypeENS_14default_deleteIS2_EEEC1B8ue170006IRS3_NS_16__value_init_tagEEEOT_OT0_, symObjAddr: 0x7D848, symBinAddr: 0x10007F154, symSize: 0x88 }
  - { offsetInCU: 0x52529, offset: 0x52529, size: 0x8, addend: 0x0, symName: __ZNSt3__117__compressed_pairIPN5memdb6DbTypeENS_14default_deleteIS2_EEEC2B8ue170006IRS3_NS_16__value_init_tagEEEOT_OT0_, symObjAddr: 0x7D8D0, symBinAddr: 0x10007F1DC, symSize: 0x140 }
  - { offsetInCU: 0x52581, offset: 0x52581, size: 0x8, addend: 0x0, symName: __ZNSt3__122__compressed_pair_elemIPN5memdb6DbTypeELi0ELb0EEC2B8ue170006IRS3_vEEOT_, symObjAddr: 0x7DA10, symBinAddr: 0x10007F31C, symSize: 0x144 }
  - { offsetInCU: 0x525C3, offset: 0x525C3, size: 0x8, addend: 0x0, symName: __ZNSt3__122__compressed_pair_elemINS_14default_deleteIN5memdb6DbTypeEEELi1ELb1EEC2B8ue170006ENS_16__value_init_tagE, symObjAddr: 0x7DB54, symBinAddr: 0x10007F460, symSize: 0x54 }
  - { offsetInCU: 0x525F7, offset: 0x525F7, size: 0x8, addend: 0x0, symName: __ZNSt3__19allocatorIN5memdb6DbTypeEEC2B8ue170006Ev, symObjAddr: 0x7DBA8, symBinAddr: 0x10007F4B4, symSize: 0x84 }
  - { offsetInCU: 0x52621, offset: 0x52621, size: 0x8, addend: 0x0, symName: __ZNSt3__116__non_trivial_ifILb1ENS_9allocatorIN5memdb6DbTypeEEEEC2B8ue170006Ev, symObjAddr: 0x7DC2C, symBinAddr: 0x10007F538, symSize: 0x54 }
  - { offsetInCU: 0x5264B, offset: 0x5264B, size: 0x8, addend: 0x0, symName: __ZNSt3__120__shared_ptr_pointerIPN5memdb6DbTypeENS_10shared_ptrIS2_E27__shared_ptr_default_deleteIS2_S2_EENS_9allocatorIS2_EEEC2B8ue170006ES3_S7_S9_, symObjAddr: 0x7DC80, symBinAddr: 0x10007F58C, symSize: 0x44C }
  - { offsetInCU: 0x526B2, offset: 0x526B2, size: 0x8, addend: 0x0, symName: __ZNSt3__117__compressed_pairIPN5memdb6DbTypeENS_10shared_ptrIS2_E27__shared_ptr_default_deleteIS2_S2_EEEC1B8ue170006IRS3_S7_EEOT_OT0_, symObjAddr: 0x7E0CC, symBinAddr: 0x10007F9D8, symSize: 0x88 }
  - { offsetInCU: 0x52716, offset: 0x52716, size: 0x8, addend: 0x0, symName: __ZNSt3__117__compressed_pairINS0_IPN5memdb6DbTypeENS_10shared_ptrIS2_E27__shared_ptr_default_deleteIS2_S2_EEEENS_9allocatorIS2_EEEC1B8ue170006IS8_SA_EEOT_OT0_, symObjAddr: 0x7E154, symBinAddr: 0x10007FA60, symSize: 0x88 }
  - { offsetInCU: 0x5276E, offset: 0x5276E, size: 0x8, addend: 0x0, symName: __ZNSt3__120__shared_ptr_pointerIPN5memdb6DbTypeENS_10shared_ptrIS2_E27__shared_ptr_default_deleteIS2_S2_EENS_9allocatorIS2_EEED1Ev, symObjAddr: 0x7E1DC, symBinAddr: 0x10007FAE8, symSize: 0x78 }
  - { offsetInCU: 0x5279A, offset: 0x5279A, size: 0x8, addend: 0x0, symName: __ZNSt3__120__shared_ptr_pointerIPN5memdb6DbTypeENS_10shared_ptrIS2_E27__shared_ptr_default_deleteIS2_S2_EENS_9allocatorIS2_EEED0Ev, symObjAddr: 0x7E254, symBinAddr: 0x10007FB60, symSize: 0x74 }
  - { offsetInCU: 0x527C6, offset: 0x527C6, size: 0x8, addend: 0x0, symName: __ZNSt3__120__shared_ptr_pointerIPN5memdb6DbTypeENS_10shared_ptrIS2_E27__shared_ptr_default_deleteIS2_S2_EENS_9allocatorIS2_EEE16__on_zero_sharedEv, symObjAddr: 0x7E2C8, symBinAddr: 0x10007FBD4, symSize: 0x460 }
  - { offsetInCU: 0x527EE, offset: 0x527EE, size: 0x8, addend: 0x0, symName: __ZNKSt3__120__shared_ptr_pointerIPN5memdb6DbTypeENS_10shared_ptrIS2_E27__shared_ptr_default_deleteIS2_S2_EENS_9allocatorIS2_EEE13__get_deleterERKSt9type_info, symObjAddr: 0x7E728, symBinAddr: 0x100080034, symSize: 0x298 }
  - { offsetInCU: 0x52823, offset: 0x52823, size: 0x8, addend: 0x0, symName: __ZNSt3__120__shared_ptr_pointerIPN5memdb6DbTypeENS_10shared_ptrIS2_E27__shared_ptr_default_deleteIS2_S2_EENS_9allocatorIS2_EEE21__on_zero_shared_weakEv, symObjAddr: 0x7E9C0, symBinAddr: 0x1000802CC, symSize: 0x448 }
  - { offsetInCU: 0x5286B, offset: 0x5286B, size: 0x8, addend: 0x0, symName: __ZNSt3__117__compressed_pairIPN5memdb6DbTypeENS_10shared_ptrIS2_E27__shared_ptr_default_deleteIS2_S2_EEEC2B8ue170006IRS3_S7_EEOT_OT0_, symObjAddr: 0x7EE08, symBinAddr: 0x100080714, symSize: 0x170 }
  - { offsetInCU: 0x528C3, offset: 0x528C3, size: 0x8, addend: 0x0, symName: __ZNSt3__122__compressed_pair_elemINS_10shared_ptrIN5memdb6DbTypeEE27__shared_ptr_default_deleteIS3_S3_EELi1ELb1EEC2B8ue170006IS6_vEEOT_, symObjAddr: 0x7EF78, symBinAddr: 0x100080884, symSize: 0x58 }
  - { offsetInCU: 0x52905, offset: 0x52905, size: 0x8, addend: 0x0, symName: __ZNSt3__117__compressed_pairINS0_IPN5memdb6DbTypeENS_10shared_ptrIS2_E27__shared_ptr_default_deleteIS2_S2_EEEENS_9allocatorIS2_EEEC2B8ue170006IS8_SA_EEOT_OT0_, symObjAddr: 0x7EFD0, symBinAddr: 0x1000808DC, symSize: 0x170 }
  - { offsetInCU: 0x5295D, offset: 0x5295D, size: 0x8, addend: 0x0, symName: __ZNSt3__122__compressed_pair_elemINS_17__compressed_pairIPN5memdb6DbTypeENS_10shared_ptrIS3_E27__shared_ptr_default_deleteIS3_S3_EEEELi0ELb0EEC2B8ue170006IS9_vEEOT_, symObjAddr: 0x7F140, symBinAddr: 0x100080A4C, symSize: 0x84 }
  - { offsetInCU: 0x5299F, offset: 0x5299F, size: 0x8, addend: 0x0, symName: __ZNSt3__122__compressed_pair_elemINS_9allocatorIN5memdb6DbTypeEEELi1ELb1EEC2B8ue170006IS4_vEEOT_, symObjAddr: 0x7F1C4, symBinAddr: 0x100080AD0, symSize: 0x58 }
  - { offsetInCU: 0x529E1, offset: 0x529E1, size: 0x8, addend: 0x0, symName: __ZNSt3__120__shared_ptr_pointerIPN5memdb6DbTypeENS_10shared_ptrIS2_E27__shared_ptr_default_deleteIS2_S2_EENS_9allocatorIS2_EEED2Ev, symObjAddr: 0x7F21C, symBinAddr: 0x100080B28, symSize: 0x78 }
  - { offsetInCU: 0x52A0D, offset: 0x52A0D, size: 0x8, addend: 0x0, symName: __ZNSt3__117__compressed_pairINS0_IPN5memdb6DbTypeENS_10shared_ptrIS2_E27__shared_ptr_default_deleteIS2_S2_EEEENS_9allocatorIS2_EEE5firstB8ue170006Ev, symObjAddr: 0x7F294, symBinAddr: 0x100080BA0, symSize: 0x124 }
  - { offsetInCU: 0x52A33, offset: 0x52A33, size: 0x8, addend: 0x0, symName: __ZNSt3__117__compressed_pairIPN5memdb6DbTypeENS_10shared_ptrIS2_E27__shared_ptr_default_deleteIS2_S2_EEE6secondB8ue170006Ev, symObjAddr: 0x7F3B8, symBinAddr: 0x100080CC4, symSize: 0x108 }
  - { offsetInCU: 0x52A59, offset: 0x52A59, size: 0x8, addend: 0x0, symName: __ZNKSt3__114default_deleteIN5memdb6DbTypeEEclB8ue170006EPS2_, symObjAddr: 0x7F4C0, symBinAddr: 0x100080DCC, symSize: 0x1DC }
  - { offsetInCU: 0x52A8D, offset: 0x52A8D, size: 0x8, addend: 0x0, symName: __ZNSt3__117__compressed_pairIPN5memdb6DbTypeENS_10shared_ptrIS2_E27__shared_ptr_default_deleteIS2_S2_EEE5firstB8ue170006Ev, symObjAddr: 0x7F69C, symBinAddr: 0x100080FA8, symSize: 0x124 }
  - { offsetInCU: 0x52AB3, offset: 0x52AB3, size: 0x8, addend: 0x0, symName: __ZNSt3__122__compressed_pair_elemINS_17__compressed_pairIPN5memdb6DbTypeENS_10shared_ptrIS3_E27__shared_ptr_default_deleteIS3_S3_EEEELi0ELb0EE5__getB8ue170006Ev, symObjAddr: 0x7F7C0, symBinAddr: 0x1000810CC, symSize: 0xAC }
  - { offsetInCU: 0x52AD9, offset: 0x52AD9, size: 0x8, addend: 0x0, symName: __ZNSt3__122__compressed_pair_elemINS_10shared_ptrIN5memdb6DbTypeEE27__shared_ptr_default_deleteIS3_S3_EELi1ELb1EE5__getB8ue170006Ev, symObjAddr: 0x7F86C, symBinAddr: 0x100081178, symSize: 0x74 }
  - { offsetInCU: 0x52AFF, offset: 0x52AFF, size: 0x8, addend: 0x0, symName: __ZNSt3__122__compressed_pair_elemIPN5memdb6DbTypeELi0ELb0EE5__getB8ue170006Ev, symObjAddr: 0x7F8E0, symBinAddr: 0x1000811EC, symSize: 0xAC }
  - { offsetInCU: 0x52B25, offset: 0x52B25, size: 0x8, addend: 0x0, symName: __ZNKSt3__117__compressed_pairINS0_IPN5memdb6DbTypeENS_10shared_ptrIS2_E27__shared_ptr_default_deleteIS2_S2_EEEENS_9allocatorIS2_EEE5firstB8ue170006Ev, symObjAddr: 0x7F98C, symBinAddr: 0x100081298, symSize: 0x124 }
  - { offsetInCU: 0x52B4B, offset: 0x52B4B, size: 0x8, addend: 0x0, symName: __ZNKSt3__117__compressed_pairIPN5memdb6DbTypeENS_10shared_ptrIS2_E27__shared_ptr_default_deleteIS2_S2_EEE6secondB8ue170006Ev, symObjAddr: 0x7FAB0, symBinAddr: 0x1000813BC, symSize: 0x108 }
  - { offsetInCU: 0x52B71, offset: 0x52B71, size: 0x8, addend: 0x0, symName: __ZNKSt3__122__compressed_pair_elemINS_17__compressed_pairIPN5memdb6DbTypeENS_10shared_ptrIS3_E27__shared_ptr_default_deleteIS3_S3_EEEELi0ELb0EE5__getB8ue170006Ev, symObjAddr: 0x7FBB8, symBinAddr: 0x1000814C4, symSize: 0xAC }
  - { offsetInCU: 0x52B97, offset: 0x52B97, size: 0x8, addend: 0x0, symName: __ZNKSt3__122__compressed_pair_elemINS_10shared_ptrIN5memdb6DbTypeEE27__shared_ptr_default_deleteIS3_S3_EELi1ELb1EE5__getB8ue170006Ev, symObjAddr: 0x7FC64, symBinAddr: 0x100081570, symSize: 0x74 }
  - { offsetInCU: 0x52BBD, offset: 0x52BBD, size: 0x8, addend: 0x0, symName: __ZNSt3__117__compressed_pairINS0_IPN5memdb6DbTypeENS_10shared_ptrIS2_E27__shared_ptr_default_deleteIS2_S2_EEEENS_9allocatorIS2_EEE6secondB8ue170006Ev, symObjAddr: 0x7FCD8, symBinAddr: 0x1000815E4, symSize: 0x108 }
  - { offsetInCU: 0x52BF5, offset: 0x52BF5, size: 0x8, addend: 0x0, symName: __ZNSt3__19allocatorINS_20__shared_ptr_pointerIPN5memdb6DbTypeENS_10shared_ptrIS3_E27__shared_ptr_default_deleteIS3_S3_EENS0_IS3_EEEEEC1B8ue170006IS3_EERKNS0_IT_EE, symObjAddr: 0x7FDE0, symBinAddr: 0x1000816EC, symSize: 0x64 }
  - { offsetInCU: 0x52C32, offset: 0x52C32, size: 0x8, addend: 0x0, symName: __ZNSt3__19allocatorINS_20__shared_ptr_pointerIPN5memdb6DbTypeENS_10shared_ptrIS3_E27__shared_ptr_default_deleteIS3_S3_EENS0_IS3_EEEEE10deallocateB8ue170006EPSA_m, symObjAddr: 0x7FE44, symBinAddr: 0x100081750, symSize: 0x78 }
  - { offsetInCU: 0x52C7A, offset: 0x52C7A, size: 0x8, addend: 0x0, symName: __ZNSt3__114pointer_traitsIPNS_20__shared_ptr_pointerIPN5memdb6DbTypeENS_10shared_ptrIS3_E27__shared_ptr_default_deleteIS3_S3_EENS_9allocatorIS3_EEEEE10pointer_toB8ue170006ERSB_, symObjAddr: 0x7FEBC, symBinAddr: 0x1000817C8, symSize: 0x14 }
  - { offsetInCU: 0x52C9D, offset: 0x52C9D, size: 0x8, addend: 0x0, symName: __ZNSt3__122__compressed_pair_elemINS_9allocatorIN5memdb6DbTypeEEELi1ELb1EE5__getB8ue170006Ev, symObjAddr: 0x7FED0, symBinAddr: 0x1000817DC, symSize: 0x74 }
  - { offsetInCU: 0x52CC3, offset: 0x52CC3, size: 0x8, addend: 0x0, symName: __ZNSt3__19allocatorINS_20__shared_ptr_pointerIPN5memdb6DbTypeENS_10shared_ptrIS3_E27__shared_ptr_default_deleteIS3_S3_EENS0_IS3_EEEEEC2B8ue170006IS3_EERKNS0_IT_EE, symObjAddr: 0x7FF44, symBinAddr: 0x100081850, symSize: 0x88 }
  - { offsetInCU: 0x52D00, offset: 0x52D00, size: 0x8, addend: 0x0, symName: __ZNSt3__116__non_trivial_ifILb1ENS_9allocatorINS_20__shared_ptr_pointerIPN5memdb6DbTypeENS_10shared_ptrIS4_E27__shared_ptr_default_deleteIS4_S4_EENS1_IS4_EEEEEEEC2B8ue170006Ev, symObjAddr: 0x7FFCC, symBinAddr: 0x1000818D8, symSize: 0x54 }
  - { offsetInCU: 0x52D2A, offset: 0x52D2A, size: 0x8, addend: 0x0, symName: __ZNSt3__117__compressed_pairIPN5memdb6DbTypeENS_14default_deleteIS2_EEE5firstB8ue170006Ev, symObjAddr: 0x80020, symBinAddr: 0x10008192C, symSize: 0x124 }
  - { offsetInCU: 0x52D50, offset: 0x52D50, size: 0x8, addend: 0x0, symName: __ZNSt3__110unique_ptrIN5memdb6DbTypeENS_14default_deleteIS2_EEED2B8ue170006Ev, symObjAddr: 0x80144, symBinAddr: 0x100081A50, symSize: 0x7C }
  - { offsetInCU: 0x52D7A, offset: 0x52D7A, size: 0x8, addend: 0x0, symName: __ZNSt3__110unique_ptrIN5memdb6DbTypeENS_14default_deleteIS2_EEE5resetB8ue170006EPS2_, symObjAddr: 0x801C0, symBinAddr: 0x100081ACC, symSize: 0x2B0 }
  - { offsetInCU: 0x52DBE, offset: 0x52DBE, size: 0x8, addend: 0x0, symName: __ZNSt3__117__compressed_pairIPN5memdb6DbTypeENS_14default_deleteIS2_EEE6secondB8ue170006Ev, symObjAddr: 0x80470, symBinAddr: 0x100081D7C, symSize: 0x108 }
  - { offsetInCU: 0x52DE4, offset: 0x52DE4, size: 0x8, addend: 0x0, symName: __ZNSt3__122__compressed_pair_elemINS_14default_deleteIN5memdb6DbTypeEEELi1ELb1EE5__getB8ue170006Ev, symObjAddr: 0x80578, symBinAddr: 0x100081E84, symSize: 0x74 }
  - { offsetInCU: 0x52E0A, offset: 0x52E0A, size: 0x8, addend: 0x0, symName: __ZN5memdb8DbStringC2ENSt3__112basic_stringIcNS1_11char_traitsIcEENS1_9allocatorIcEEEE, symObjAddr: 0x807AC, symBinAddr: 0x1000820B8, symSize: 0x1A0 }
  - { offsetInCU: 0x52E43, offset: 0x52E43, size: 0x8, addend: 0x0, symName: __ZN5memdb6DbTypeC2Ev, symObjAddr: 0x8094C, symBinAddr: 0x100082258, symSize: 0xCC }
  - { offsetInCU: 0x52E6F, offset: 0x52E6F, size: 0x8, addend: 0x0, symName: __ZN5memdb6DbTypeD2Ev, symObjAddr: 0x80A18, symBinAddr: 0x100082324, symSize: 0x6C }
  - { offsetInCU: 0x52E99, offset: 0x52E99, size: 0x8, addend: 0x0, symName: __ZN5memdb8DbString7getTypeEv, symObjAddr: 0x80A84, symBinAddr: 0x100082390, symSize: 0x64 }
  - { offsetInCU: 0x52EBF, offset: 0x52EBF, size: 0x8, addend: 0x0, symName: __ZN5memdb8DbString4CopyEv, symObjAddr: 0x80AE8, symBinAddr: 0x1000823F4, symSize: 0x574 }
  - { offsetInCU: 0x52EF6, offset: 0x52EF6, size: 0x8, addend: 0x0, symName: __ZN5memdb8DbStringD1Ev, symObjAddr: 0x8105C, symBinAddr: 0x100082968, symSize: 0x78 }
  - { offsetInCU: 0x52F22, offset: 0x52F22, size: 0x8, addend: 0x0, symName: __ZN5memdb8DbStringD0Ev, symObjAddr: 0x810D4, symBinAddr: 0x1000829E0, symSize: 0x74 }
  - { offsetInCU: 0x52F4E, offset: 0x52F4E, size: 0x8, addend: 0x0, symName: __ZN5memdb6DbTypeD1Ev, symObjAddr: 0x81148, symBinAddr: 0x100082A54, symSize: 0x64 }
  - { offsetInCU: 0x52F78, offset: 0x52F78, size: 0x8, addend: 0x0, symName: __ZN5memdb6DbTypeD0Ev, symObjAddr: 0x811AC, symBinAddr: 0x100082AB8, symSize: 0x5C }
  - { offsetInCU: 0x52FA2, offset: 0x52FA2, size: 0x8, addend: 0x0, symName: __ZNSt3__110shared_ptrIN5memdb6DbTypeEEC1B8ue170006Ev, symObjAddr: 0x81208, symBinAddr: 0x100082B14, symSize: 0x78 }
  - { offsetInCU: 0x52FCC, offset: 0x52FCC, size: 0x8, addend: 0x0, symName: __ZNSt3__110shared_ptrIN5memdb6DbTypeEEC2B8ue170006Ev, symObjAddr: 0x81280, symBinAddr: 0x100082B8C, symSize: 0xF0 }
  - { offsetInCU: 0x52FF6, offset: 0x52FF6, size: 0x8, addend: 0x0, symName: __ZN5memdb8DbStringD2Ev, symObjAddr: 0x81370, symBinAddr: 0x100082C7C, symSize: 0xDC }
  - { offsetInCU: 0x53022, offset: 0x53022, size: 0x8, addend: 0x0, symName: __ZNSt3__14pairIbNS_12basic_stringIcNS_11char_traitsIcEENS_9allocatorIcEEEEED2Ev, symObjAddr: 0x8144C, symBinAddr: 0x100082D58, symSize: 0x7C }
  - { offsetInCU: 0x5304E, offset: 0x5304E, size: 0x8, addend: 0x0, symName: __ZN5memdb7DbBytesC2ENSt3__16vectorIcNS1_9allocatorIcEEEE, symObjAddr: 0x814C8, symBinAddr: 0x100082DD4, symSize: 0x1A0 }
  - { offsetInCU: 0x53087, offset: 0x53087, size: 0x8, addend: 0x0, symName: __ZN5memdb7DbBytes7getTypeEv, symObjAddr: 0x81668, symBinAddr: 0x100082F74, symSize: 0x64 }
  - { offsetInCU: 0x530AD, offset: 0x530AD, size: 0x8, addend: 0x0, symName: __ZN5memdb7DbBytes4CopyEv, symObjAddr: 0x816CC, symBinAddr: 0x100082FD8, symSize: 0x574 }
  - { offsetInCU: 0x530E4, offset: 0x530E4, size: 0x8, addend: 0x0, symName: __ZN5memdb7DbBytesD1Ev, symObjAddr: 0x81C40, symBinAddr: 0x10008354C, symSize: 0x78 }
  - { offsetInCU: 0x53110, offset: 0x53110, size: 0x8, addend: 0x0, symName: __ZN5memdb7DbBytesD0Ev, symObjAddr: 0x81CB8, symBinAddr: 0x1000835C4, symSize: 0x74 }
  - { offsetInCU: 0x5313C, offset: 0x5313C, size: 0x8, addend: 0x0, symName: __ZN5memdb7DbBytesD2Ev, symObjAddr: 0x81D2C, symBinAddr: 0x100083638, symSize: 0xDC }
  - { offsetInCU: 0x53168, offset: 0x53168, size: 0x8, addend: 0x0, symName: __ZNSt3__14pairIbNS_6vectorIcNS_9allocatorIcEEEEED2Ev, symObjAddr: 0x81E08, symBinAddr: 0x100083714, symSize: 0x7C }
  - { offsetInCU: 0x53194, offset: 0x53194, size: 0x8, addend: 0x0, symName: __ZN5memdb7DbInt32C2Ei, symObjAddr: 0x81E84, symBinAddr: 0x100083790, symSize: 0x188 }
  - { offsetInCU: 0x531CC, offset: 0x531CC, size: 0x8, addend: 0x0, symName: __ZN5memdb7DbInt327getTypeEv, symObjAddr: 0x8200C, symBinAddr: 0x100083918, symSize: 0x64 }
  - { offsetInCU: 0x531F2, offset: 0x531F2, size: 0x8, addend: 0x0, symName: __ZN5memdb7DbInt324CopyEv, symObjAddr: 0x82070, symBinAddr: 0x10008397C, symSize: 0x30C }
  - { offsetInCU: 0x53227, offset: 0x53227, size: 0x8, addend: 0x0, symName: __ZN5memdb7DbInt32D1Ev, symObjAddr: 0x8237C, symBinAddr: 0x100083C88, symSize: 0x78 }
  - { offsetInCU: 0x53253, offset: 0x53253, size: 0x8, addend: 0x0, symName: __ZN5memdb7DbInt32D0Ev, symObjAddr: 0x823F4, symBinAddr: 0x100083D00, symSize: 0x74 }
  - { offsetInCU: 0x5327F, offset: 0x5327F, size: 0x8, addend: 0x0, symName: __ZN5memdb7DbInt32D2Ev, symObjAddr: 0x82468, symBinAddr: 0x100083D74, symSize: 0x78 }
  - { offsetInCU: 0x532AB, offset: 0x532AB, size: 0x8, addend: 0x0, symName: __ZN5memdb6DbBoolC2Eb, symObjAddr: 0x824E0, symBinAddr: 0x100083DEC, symSize: 0x1CC }
  - { offsetInCU: 0x532E3, offset: 0x532E3, size: 0x8, addend: 0x0, symName: __ZN5memdb6DbBool7getTypeEv, symObjAddr: 0x826AC, symBinAddr: 0x100083FB8, symSize: 0x64 }
  - { offsetInCU: 0x53309, offset: 0x53309, size: 0x8, addend: 0x0, symName: __ZN5memdb6DbBool4CopyEv, symObjAddr: 0x82710, symBinAddr: 0x10008401C, symSize: 0x33C }
  - { offsetInCU: 0x5333E, offset: 0x5333E, size: 0x8, addend: 0x0, symName: __ZN5memdb6DbBoolD1Ev, symObjAddr: 0x82A4C, symBinAddr: 0x100084358, symSize: 0x78 }
  - { offsetInCU: 0x5336A, offset: 0x5336A, size: 0x8, addend: 0x0, symName: __ZN5memdb6DbBoolD0Ev, symObjAddr: 0x82AC4, symBinAddr: 0x1000843D0, symSize: 0x74 }
  - { offsetInCU: 0x53396, offset: 0x53396, size: 0x8, addend: 0x0, symName: __ZN5memdb6DbBoolD2Ev, symObjAddr: 0x82B38, symBinAddr: 0x100084444, symSize: 0x78 }
  - { offsetInCU: 0x533C2, offset: 0x533C2, size: 0x8, addend: 0x0, symName: __ZNSt3__122__compressed_pair_elemIPN5memdb9Tokenizer7DBTypeTELi0ELb0EE5__getB8ue170006Ev, symObjAddr: 0x82BB0, symBinAddr: 0x1000844BC, symSize: 0xAC }
  - { offsetInCU: 0x533E8, offset: 0x533E8, size: 0x8, addend: 0x0, symName: __ZNKSt3__117__compressed_pairINS0_IPN5memdb9Tokenizer7DBTypeTENS_10shared_ptrINS2_5TokenEE27__shared_ptr_default_deleteIS6_S3_EEEENS_9allocatorIS3_EEE5firstB8ue170006Ev, symObjAddr: 0x82C5C, symBinAddr: 0x100084568, symSize: 0x124 }
  - { offsetInCU: 0x5340E, offset: 0x5340E, size: 0x8, addend: 0x0, symName: __ZNKSt3__117__compressed_pairIPN5memdb9Tokenizer7DBTypeTENS_10shared_ptrINS2_5TokenEE27__shared_ptr_default_deleteIS6_S3_EEE6secondB8ue170006Ev, symObjAddr: 0x82D80, symBinAddr: 0x10008468C, symSize: 0x108 }
  - { offsetInCU: 0x53434, offset: 0x53434, size: 0x8, addend: 0x0, symName: __ZNKSt3__122__compressed_pair_elemINS_17__compressed_pairIPN5memdb9Tokenizer7DBTypeTENS_10shared_ptrINS3_5TokenEE27__shared_ptr_default_deleteIS7_S4_EEEELi0ELb0EE5__getB8ue170006Ev, symObjAddr: 0x82E88, symBinAddr: 0x100084794, symSize: 0xAC }
  - { offsetInCU: 0x5345A, offset: 0x5345A, size: 0x8, addend: 0x0, symName: __ZNKSt3__122__compressed_pair_elemINS_10shared_ptrIN5memdb9Tokenizer5TokenEE27__shared_ptr_default_deleteIS4_NS3_7DBTypeTEEELi1ELb1EE5__getB8ue170006Ev, symObjAddr: 0x82F34, symBinAddr: 0x100084840, symSize: 0x74 }
  - { offsetInCU: 0x53480, offset: 0x53480, size: 0x8, addend: 0x0, symName: __ZNSt3__117__compressed_pairINS0_IPN5memdb9Tokenizer7DBTypeTENS_10shared_ptrINS2_5TokenEE27__shared_ptr_default_deleteIS6_S3_EEEENS_9allocatorIS3_EEE6secondB8ue170006Ev, symObjAddr: 0x82FA8, symBinAddr: 0x1000848B4, symSize: 0x108 }
  - { offsetInCU: 0x534B8, offset: 0x534B8, size: 0x8, addend: 0x0, symName: __ZNSt3__19allocatorINS_20__shared_ptr_pointerIPN5memdb9Tokenizer7DBTypeTENS_10shared_ptrINS3_5TokenEE27__shared_ptr_default_deleteIS7_S4_EENS0_IS4_EEEEEC1B8ue170006IS4_EERKNS0_IT_EE, symObjAddr: 0x830B0, symBinAddr: 0x1000849BC, symSize: 0x64 }
  - { offsetInCU: 0x534F5, offset: 0x534F5, size: 0x8, addend: 0x0, symName: __ZNSt3__19allocatorINS_20__shared_ptr_pointerIPN5memdb9Tokenizer7DBTypeTENS_10shared_ptrINS3_5TokenEE27__shared_ptr_default_deleteIS7_S4_EENS0_IS4_EEEEE10deallocateB8ue170006EPSC_m, symObjAddr: 0x83114, symBinAddr: 0x100084A20, symSize: 0x78 }
  - { offsetInCU: 0x5353D, offset: 0x5353D, size: 0x8, addend: 0x0, symName: __ZNSt3__114pointer_traitsIPNS_20__shared_ptr_pointerIPN5memdb9Tokenizer7DBTypeTENS_10shared_ptrINS3_5TokenEE27__shared_ptr_default_deleteIS7_S4_EENS_9allocatorIS4_EEEEE10pointer_toB8ue170006ERSD_, symObjAddr: 0x8318C, symBinAddr: 0x100084A98, symSize: 0x14 }
  - { offsetInCU: 0x53560, offset: 0x53560, size: 0x8, addend: 0x0, symName: __ZNSt3__122__compressed_pair_elemINS_9allocatorIN5memdb9Tokenizer7DBTypeTEEELi1ELb1EE5__getB8ue170006Ev, symObjAddr: 0x831A0, symBinAddr: 0x100084AAC, symSize: 0x74 }
  - { offsetInCU: 0x53586, offset: 0x53586, size: 0x8, addend: 0x0, symName: __ZNSt3__19allocatorINS_20__shared_ptr_pointerIPN5memdb9Tokenizer7DBTypeTENS_10shared_ptrINS3_5TokenEE27__shared_ptr_default_deleteIS7_S4_EENS0_IS4_EEEEEC2B8ue170006IS4_EERKNS0_IT_EE, symObjAddr: 0x83214, symBinAddr: 0x100084B20, symSize: 0x88 }
  - { offsetInCU: 0x535C3, offset: 0x535C3, size: 0x8, addend: 0x0, symName: __ZNSt3__116__non_trivial_ifILb1ENS_9allocatorINS_20__shared_ptr_pointerIPN5memdb9Tokenizer7DBTypeTENS_10shared_ptrINS4_5TokenEE27__shared_ptr_default_deleteIS8_S5_EENS1_IS5_EEEEEEEC2B8ue170006Ev, symObjAddr: 0x8329C, symBinAddr: 0x100084BA8, symSize: 0x54 }
  - { offsetInCU: 0x535ED, offset: 0x535ED, size: 0x8, addend: 0x0, symName: __ZNSt3__117__compressed_pairIPN5memdb9Tokenizer7DBTypeTENS_14default_deleteIS3_EEE5firstB8ue170006Ev, symObjAddr: 0x832F0, symBinAddr: 0x100084BFC, symSize: 0x124 }
  - { offsetInCU: 0x53613, offset: 0x53613, size: 0x8, addend: 0x0, symName: __ZNSt3__110unique_ptrIN5memdb9Tokenizer7DBTypeTENS_14default_deleteIS3_EEED2B8ue170006Ev, symObjAddr: 0x83414, symBinAddr: 0x100084D20, symSize: 0x7C }
  - { offsetInCU: 0x5363D, offset: 0x5363D, size: 0x8, addend: 0x0, symName: __ZNSt3__110unique_ptrIN5memdb9Tokenizer7DBTypeTENS_14default_deleteIS3_EEE5resetB8ue170006EPS3_, symObjAddr: 0x83490, symBinAddr: 0x100084D9C, symSize: 0x2B0 }
  - { offsetInCU: 0x53681, offset: 0x53681, size: 0x8, addend: 0x0, symName: __ZNSt3__117__compressed_pairIPN5memdb9Tokenizer7DBTypeTENS_14default_deleteIS3_EEE6secondB8ue170006Ev, symObjAddr: 0x83740, symBinAddr: 0x10008504C, symSize: 0x108 }
  - { offsetInCU: 0x536A7, offset: 0x536A7, size: 0x8, addend: 0x0, symName: __ZNSt3__122__compressed_pair_elemINS_14default_deleteIN5memdb9Tokenizer7DBTypeTEEELi1ELb1EE5__getB8ue170006Ev, symObjAddr: 0x83848, symBinAddr: 0x100085154, symSize: 0x74 }
  - { offsetInCU: 0x536CD, offset: 0x536CD, size: 0x8, addend: 0x0, symName: __ZN5memdb9Tokenizer7DBTypeTC2Ev, symObjAddr: 0x838BC, symBinAddr: 0x1000851C8, symSize: 0x120 }
  - { offsetInCU: 0x536F7, offset: 0x536F7, size: 0x8, addend: 0x0, symName: __ZNSt3__110shared_ptrIN5memdb9Tokenizer5TokenEE5resetB8ue170006INS2_6OtherTEvEEvPT_, symObjAddr: 0x839DC, symBinAddr: 0x1000852E8, symSize: 0x27C }
  - { offsetInCU: 0x53738, offset: 0x53738, size: 0x8, addend: 0x0, symName: __ZN5memdb9Tokenizer6OtherTC1Ev, symObjAddr: 0x83C58, symBinAddr: 0x100085564, symSize: 0x78 }
  - { offsetInCU: 0x53762, offset: 0x53762, size: 0x8, addend: 0x0, symName: __ZNSt3__110shared_ptrIN5memdb9Tokenizer5TokenEEC1B8ue170006INS2_6OtherTEvEEPT_, symObjAddr: 0x83CD0, symBinAddr: 0x1000855DC, symSize: 0x80 }
  - { offsetInCU: 0x537A5, offset: 0x537A5, size: 0x8, addend: 0x0, symName: __ZNSt3__110shared_ptrIN5memdb9Tokenizer5TokenEEC2B8ue170006INS2_6OtherTEvEEPT_, symObjAddr: 0x83D50, symBinAddr: 0x10008565C, symSize: 0x4D8 }
  - { offsetInCU: 0x538B7, offset: 0x538B7, size: 0x8, addend: 0x0, symName: __ZNSt3__110unique_ptrIN5memdb9Tokenizer6OtherTENS_14default_deleteIS3_EEEC1B8ue170006ILb1EvEEPS3_, symObjAddr: 0x84228, symBinAddr: 0x100085B34, symSize: 0x80 }
  - { offsetInCU: 0x53906, offset: 0x53906, size: 0x8, addend: 0x0, symName: __ZNSt3__19allocatorIN5memdb9Tokenizer6OtherTEEC1B8ue170006Ev, symObjAddr: 0x842A8, symBinAddr: 0x100085BB4, symSize: 0x5C }
  - { offsetInCU: 0x539F0, offset: 0x539F0, size: 0x8, addend: 0x0, symName: __ZNSt3__120__shared_ptr_pointerIPN5memdb9Tokenizer6OtherTENS_10shared_ptrINS2_5TokenEE27__shared_ptr_default_deleteIS6_S3_EENS_9allocatorIS3_EEEC1B8ue170006ES4_S9_SB_, symObjAddr: 0x84304, symBinAddr: 0x100085C10, symSize: 0x80 }
  - { offsetInCU: 0x53A44, offset: 0x53A44, size: 0x8, addend: 0x0, symName: __ZNSt3__110unique_ptrIN5memdb9Tokenizer6OtherTENS_14default_deleteIS3_EEE7releaseB8ue170006Ev, symObjAddr: 0x84384, symBinAddr: 0x100085C90, symSize: 0x20C }
  - { offsetInCU: 0x53A79, offset: 0x53A79, size: 0x8, addend: 0x0, symName: __ZNSt3__110unique_ptrIN5memdb9Tokenizer6OtherTENS_14default_deleteIS3_EEED1B8ue170006Ev, symObjAddr: 0x84590, symBinAddr: 0x100085E9C, symSize: 0x78 }
  - { offsetInCU: 0x53AA3, offset: 0x53AA3, size: 0x8, addend: 0x0, symName: __ZNSt3__110unique_ptrIN5memdb9Tokenizer6OtherTENS_14default_deleteIS3_EEEC2B8ue170006ILb1EvEEPS3_, symObjAddr: 0x84608, symBinAddr: 0x100085F14, symSize: 0x2B8 }
  - { offsetInCU: 0x53AEB, offset: 0x53AEB, size: 0x8, addend: 0x0, symName: __ZNSt3__117__compressed_pairIPN5memdb9Tokenizer6OtherTENS_14default_deleteIS3_EEEC1B8ue170006IRS4_NS_16__value_init_tagEEEOT_OT0_, symObjAddr: 0x848C0, symBinAddr: 0x1000861CC, symSize: 0x88 }
  - { offsetInCU: 0x53B43, offset: 0x53B43, size: 0x8, addend: 0x0, symName: __ZNSt3__117__compressed_pairIPN5memdb9Tokenizer6OtherTENS_14default_deleteIS3_EEEC2B8ue170006IRS4_NS_16__value_init_tagEEEOT_OT0_, symObjAddr: 0x84948, symBinAddr: 0x100086254, symSize: 0x140 }
  - { offsetInCU: 0x53B9B, offset: 0x53B9B, size: 0x8, addend: 0x0, symName: __ZNSt3__122__compressed_pair_elemIPN5memdb9Tokenizer6OtherTELi0ELb0EEC2B8ue170006IRS4_vEEOT_, symObjAddr: 0x84A88, symBinAddr: 0x100086394, symSize: 0x144 }
  - { offsetInCU: 0x53BDD, offset: 0x53BDD, size: 0x8, addend: 0x0, symName: __ZNSt3__122__compressed_pair_elemINS_14default_deleteIN5memdb9Tokenizer6OtherTEEELi1ELb1EEC2B8ue170006ENS_16__value_init_tagE, symObjAddr: 0x84BCC, symBinAddr: 0x1000864D8, symSize: 0x54 }
  - { offsetInCU: 0x53C11, offset: 0x53C11, size: 0x8, addend: 0x0, symName: __ZNSt3__19allocatorIN5memdb9Tokenizer6OtherTEEC2B8ue170006Ev, symObjAddr: 0x84C20, symBinAddr: 0x10008652C, symSize: 0x84 }
  - { offsetInCU: 0x53C3B, offset: 0x53C3B, size: 0x8, addend: 0x0, symName: __ZNSt3__116__non_trivial_ifILb1ENS_9allocatorIN5memdb9Tokenizer6OtherTEEEEC2B8ue170006Ev, symObjAddr: 0x84CA4, symBinAddr: 0x1000865B0, symSize: 0x54 }
  - { offsetInCU: 0x53C65, offset: 0x53C65, size: 0x8, addend: 0x0, symName: __ZNSt3__120__shared_ptr_pointerIPN5memdb9Tokenizer6OtherTENS_10shared_ptrINS2_5TokenEE27__shared_ptr_default_deleteIS6_S3_EENS_9allocatorIS3_EEEC2B8ue170006ES4_S9_SB_, symObjAddr: 0x84CF8, symBinAddr: 0x100086604, symSize: 0x44C }
  - { offsetInCU: 0x53CCC, offset: 0x53CCC, size: 0x8, addend: 0x0, symName: __ZNSt3__117__compressed_pairIPN5memdb9Tokenizer6OtherTENS_10shared_ptrINS2_5TokenEE27__shared_ptr_default_deleteIS6_S3_EEEC1B8ue170006IRS4_S9_EEOT_OT0_, symObjAddr: 0x85144, symBinAddr: 0x100086A50, symSize: 0x88 }
  - { offsetInCU: 0x53D30, offset: 0x53D30, size: 0x8, addend: 0x0, symName: __ZNSt3__117__compressed_pairINS0_IPN5memdb9Tokenizer6OtherTENS_10shared_ptrINS2_5TokenEE27__shared_ptr_default_deleteIS6_S3_EEEENS_9allocatorIS3_EEEC1B8ue170006ISA_SC_EEOT_OT0_, symObjAddr: 0x851CC, symBinAddr: 0x100086AD8, symSize: 0x88 }
  - { offsetInCU: 0x53D88, offset: 0x53D88, size: 0x8, addend: 0x0, symName: __ZNSt3__120__shared_ptr_pointerIPN5memdb9Tokenizer6OtherTENS_10shared_ptrINS2_5TokenEE27__shared_ptr_default_deleteIS6_S3_EENS_9allocatorIS3_EEED1Ev, symObjAddr: 0x85254, symBinAddr: 0x100086B60, symSize: 0x78 }
  - { offsetInCU: 0x53DB4, offset: 0x53DB4, size: 0x8, addend: 0x0, symName: __ZNSt3__120__shared_ptr_pointerIPN5memdb9Tokenizer6OtherTENS_10shared_ptrINS2_5TokenEE27__shared_ptr_default_deleteIS6_S3_EENS_9allocatorIS3_EEED0Ev, symObjAddr: 0x852CC, symBinAddr: 0x100086BD8, symSize: 0x74 }
  - { offsetInCU: 0x53DE0, offset: 0x53DE0, size: 0x8, addend: 0x0, symName: __ZNSt3__120__shared_ptr_pointerIPN5memdb9Tokenizer6OtherTENS_10shared_ptrINS2_5TokenEE27__shared_ptr_default_deleteIS6_S3_EENS_9allocatorIS3_EEE16__on_zero_sharedEv, symObjAddr: 0x85340, symBinAddr: 0x100086C4C, symSize: 0x460 }
  - { offsetInCU: 0x53E08, offset: 0x53E08, size: 0x8, addend: 0x0, symName: __ZNKSt3__120__shared_ptr_pointerIPN5memdb9Tokenizer6OtherTENS_10shared_ptrINS2_5TokenEE27__shared_ptr_default_deleteIS6_S3_EENS_9allocatorIS3_EEE13__get_deleterERKSt9type_info, symObjAddr: 0x857A0, symBinAddr: 0x1000870AC, symSize: 0x298 }
  - { offsetInCU: 0x53E3D, offset: 0x53E3D, size: 0x8, addend: 0x0, symName: __ZNSt3__120__shared_ptr_pointerIPN5memdb9Tokenizer6OtherTENS_10shared_ptrINS2_5TokenEE27__shared_ptr_default_deleteIS6_S3_EENS_9allocatorIS3_EEE21__on_zero_shared_weakEv, symObjAddr: 0x85A38, symBinAddr: 0x100087344, symSize: 0x448 }
  - { offsetInCU: 0x53E85, offset: 0x53E85, size: 0x8, addend: 0x0, symName: __ZNSt3__117__compressed_pairIPN5memdb9Tokenizer6OtherTENS_10shared_ptrINS2_5TokenEE27__shared_ptr_default_deleteIS6_S3_EEEC2B8ue170006IRS4_S9_EEOT_OT0_, symObjAddr: 0x85E80, symBinAddr: 0x10008778C, symSize: 0x170 }
  - { offsetInCU: 0x53EDD, offset: 0x53EDD, size: 0x8, addend: 0x0, symName: __ZNSt3__122__compressed_pair_elemINS_10shared_ptrIN5memdb9Tokenizer5TokenEE27__shared_ptr_default_deleteIS4_NS3_6OtherTEEELi1ELb1EEC2B8ue170006IS8_vEEOT_, symObjAddr: 0x85FF0, symBinAddr: 0x1000878FC, symSize: 0x58 }
  - { offsetInCU: 0x53F1F, offset: 0x53F1F, size: 0x8, addend: 0x0, symName: __ZNSt3__117__compressed_pairINS0_IPN5memdb9Tokenizer6OtherTENS_10shared_ptrINS2_5TokenEE27__shared_ptr_default_deleteIS6_S3_EEEENS_9allocatorIS3_EEEC2B8ue170006ISA_SC_EEOT_OT0_, symObjAddr: 0x86048, symBinAddr: 0x100087954, symSize: 0x170 }
  - { offsetInCU: 0x53F77, offset: 0x53F77, size: 0x8, addend: 0x0, symName: __ZNSt3__122__compressed_pair_elemINS_17__compressed_pairIPN5memdb9Tokenizer6OtherTENS_10shared_ptrINS3_5TokenEE27__shared_ptr_default_deleteIS7_S4_EEEELi0ELb0EEC2B8ue170006ISB_vEEOT_, symObjAddr: 0x861B8, symBinAddr: 0x100087AC4, symSize: 0x84 }
  - { offsetInCU: 0x53FB9, offset: 0x53FB9, size: 0x8, addend: 0x0, symName: __ZNSt3__122__compressed_pair_elemINS_9allocatorIN5memdb9Tokenizer6OtherTEEELi1ELb1EEC2B8ue170006IS5_vEEOT_, symObjAddr: 0x8623C, symBinAddr: 0x100087B48, symSize: 0x58 }
  - { offsetInCU: 0x53FFB, offset: 0x53FFB, size: 0x8, addend: 0x0, symName: __ZNSt3__120__shared_ptr_pointerIPN5memdb9Tokenizer6OtherTENS_10shared_ptrINS2_5TokenEE27__shared_ptr_default_deleteIS6_S3_EENS_9allocatorIS3_EEED2Ev, symObjAddr: 0x86294, symBinAddr: 0x100087BA0, symSize: 0x78 }
  - { offsetInCU: 0x54027, offset: 0x54027, size: 0x8, addend: 0x0, symName: __ZNSt3__117__compressed_pairINS0_IPN5memdb9Tokenizer6OtherTENS_10shared_ptrINS2_5TokenEE27__shared_ptr_default_deleteIS6_S3_EEEENS_9allocatorIS3_EEE5firstB8ue170006Ev, symObjAddr: 0x8630C, symBinAddr: 0x100087C18, symSize: 0x124 }
  - { offsetInCU: 0x5404D, offset: 0x5404D, size: 0x8, addend: 0x0, symName: __ZNSt3__117__compressed_pairIPN5memdb9Tokenizer6OtherTENS_10shared_ptrINS2_5TokenEE27__shared_ptr_default_deleteIS6_S3_EEE6secondB8ue170006Ev, symObjAddr: 0x86430, symBinAddr: 0x100087D3C, symSize: 0x108 }
  - { offsetInCU: 0x54073, offset: 0x54073, size: 0x8, addend: 0x0, symName: __ZNKSt3__114default_deleteIN5memdb9Tokenizer6OtherTEEclB8ue170006EPS3_, symObjAddr: 0x86538, symBinAddr: 0x100087E44, symSize: 0x158 }
  - { offsetInCU: 0x540A7, offset: 0x540A7, size: 0x8, addend: 0x0, symName: __ZNSt3__117__compressed_pairIPN5memdb9Tokenizer6OtherTENS_10shared_ptrINS2_5TokenEE27__shared_ptr_default_deleteIS6_S3_EEE5firstB8ue170006Ev, symObjAddr: 0x86690, symBinAddr: 0x100087F9C, symSize: 0x124 }
  - { offsetInCU: 0x540CD, offset: 0x540CD, size: 0x8, addend: 0x0, symName: __ZNSt3__122__compressed_pair_elemINS_17__compressed_pairIPN5memdb9Tokenizer6OtherTENS_10shared_ptrINS3_5TokenEE27__shared_ptr_default_deleteIS7_S4_EEEELi0ELb0EE5__getB8ue170006Ev, symObjAddr: 0x867B4, symBinAddr: 0x1000880C0, symSize: 0xAC }
  - { offsetInCU: 0x540F3, offset: 0x540F3, size: 0x8, addend: 0x0, symName: __ZNSt3__122__compressed_pair_elemINS_10shared_ptrIN5memdb9Tokenizer5TokenEE27__shared_ptr_default_deleteIS4_NS3_6OtherTEEELi1ELb1EE5__getB8ue170006Ev, symObjAddr: 0x86860, symBinAddr: 0x10008816C, symSize: 0x74 }
  - { offsetInCU: 0x54119, offset: 0x54119, size: 0x8, addend: 0x0, symName: __ZNSt3__122__compressed_pair_elemIPN5memdb9Tokenizer6OtherTELi0ELb0EE5__getB8ue170006Ev, symObjAddr: 0x868D4, symBinAddr: 0x1000881E0, symSize: 0xAC }
  - { offsetInCU: 0x5413F, offset: 0x5413F, size: 0x8, addend: 0x0, symName: __ZNKSt3__117__compressed_pairINS0_IPN5memdb9Tokenizer6OtherTENS_10shared_ptrINS2_5TokenEE27__shared_ptr_default_deleteIS6_S3_EEEENS_9allocatorIS3_EEE5firstB8ue170006Ev, symObjAddr: 0x86980, symBinAddr: 0x10008828C, symSize: 0x124 }
  - { offsetInCU: 0x54165, offset: 0x54165, size: 0x8, addend: 0x0, symName: __ZNKSt3__117__compressed_pairIPN5memdb9Tokenizer6OtherTENS_10shared_ptrINS2_5TokenEE27__shared_ptr_default_deleteIS6_S3_EEE6secondB8ue170006Ev, symObjAddr: 0x86AA4, symBinAddr: 0x1000883B0, symSize: 0x108 }
  - { offsetInCU: 0x5418B, offset: 0x5418B, size: 0x8, addend: 0x0, symName: __ZNKSt3__122__compressed_pair_elemINS_17__compressed_pairIPN5memdb9Tokenizer6OtherTENS_10shared_ptrINS3_5TokenEE27__shared_ptr_default_deleteIS7_S4_EEEELi0ELb0EE5__getB8ue170006Ev, symObjAddr: 0x86BAC, symBinAddr: 0x1000884B8, symSize: 0xAC }
  - { offsetInCU: 0x541B1, offset: 0x541B1, size: 0x8, addend: 0x0, symName: __ZNKSt3__122__compressed_pair_elemINS_10shared_ptrIN5memdb9Tokenizer5TokenEE27__shared_ptr_default_deleteIS4_NS3_6OtherTEEELi1ELb1EE5__getB8ue170006Ev, symObjAddr: 0x86C58, symBinAddr: 0x100088564, symSize: 0x74 }
  - { offsetInCU: 0x541D7, offset: 0x541D7, size: 0x8, addend: 0x0, symName: __ZNSt3__117__compressed_pairINS0_IPN5memdb9Tokenizer6OtherTENS_10shared_ptrINS2_5TokenEE27__shared_ptr_default_deleteIS6_S3_EEEENS_9allocatorIS3_EEE6secondB8ue170006Ev, symObjAddr: 0x86CCC, symBinAddr: 0x1000885D8, symSize: 0x108 }
  - { offsetInCU: 0x5420F, offset: 0x5420F, size: 0x8, addend: 0x0, symName: __ZNSt3__19allocatorINS_20__shared_ptr_pointerIPN5memdb9Tokenizer6OtherTENS_10shared_ptrINS3_5TokenEE27__shared_ptr_default_deleteIS7_S4_EENS0_IS4_EEEEEC1B8ue170006IS4_EERKNS0_IT_EE, symObjAddr: 0x86DD4, symBinAddr: 0x1000886E0, symSize: 0x64 }
  - { offsetInCU: 0x5424C, offset: 0x5424C, size: 0x8, addend: 0x0, symName: __ZNSt3__19allocatorINS_20__shared_ptr_pointerIPN5memdb9Tokenizer6OtherTENS_10shared_ptrINS3_5TokenEE27__shared_ptr_default_deleteIS7_S4_EENS0_IS4_EEEEE10deallocateB8ue170006EPSC_m, symObjAddr: 0x86E38, symBinAddr: 0x100088744, symSize: 0x78 }
  - { offsetInCU: 0x54294, offset: 0x54294, size: 0x8, addend: 0x0, symName: __ZNSt3__114pointer_traitsIPNS_20__shared_ptr_pointerIPN5memdb9Tokenizer6OtherTENS_10shared_ptrINS3_5TokenEE27__shared_ptr_default_deleteIS7_S4_EENS_9allocatorIS4_EEEEE10pointer_toB8ue170006ERSD_, symObjAddr: 0x86EB0, symBinAddr: 0x1000887BC, symSize: 0x14 }
  - { offsetInCU: 0x542B7, offset: 0x542B7, size: 0x8, addend: 0x0, symName: __ZNSt3__122__compressed_pair_elemINS_9allocatorIN5memdb9Tokenizer6OtherTEEELi1ELb1EE5__getB8ue170006Ev, symObjAddr: 0x86EC4, symBinAddr: 0x1000887D0, symSize: 0x74 }
  - { offsetInCU: 0x542DD, offset: 0x542DD, size: 0x8, addend: 0x0, symName: __ZNSt3__19allocatorINS_20__shared_ptr_pointerIPN5memdb9Tokenizer6OtherTENS_10shared_ptrINS3_5TokenEE27__shared_ptr_default_deleteIS7_S4_EENS0_IS4_EEEEEC2B8ue170006IS4_EERKNS0_IT_EE, symObjAddr: 0x86F38, symBinAddr: 0x100088844, symSize: 0x88 }
  - { offsetInCU: 0x5431A, offset: 0x5431A, size: 0x8, addend: 0x0, symName: __ZNSt3__116__non_trivial_ifILb1ENS_9allocatorINS_20__shared_ptr_pointerIPN5memdb9Tokenizer6OtherTENS_10shared_ptrINS4_5TokenEE27__shared_ptr_default_deleteIS8_S5_EENS1_IS5_EEEEEEEC2B8ue170006Ev, symObjAddr: 0x86FC0, symBinAddr: 0x1000888CC, symSize: 0x54 }
  - { offsetInCU: 0x54344, offset: 0x54344, size: 0x8, addend: 0x0, symName: __ZNSt3__117__compressed_pairIPN5memdb9Tokenizer6OtherTENS_14default_deleteIS3_EEE5firstB8ue170006Ev, symObjAddr: 0x87014, symBinAddr: 0x100088920, symSize: 0x124 }
  - { offsetInCU: 0x5436A, offset: 0x5436A, size: 0x8, addend: 0x0, symName: __ZNSt3__110unique_ptrIN5memdb9Tokenizer6OtherTENS_14default_deleteIS3_EEED2B8ue170006Ev, symObjAddr: 0x87138, symBinAddr: 0x100088A44, symSize: 0x7C }
  - { offsetInCU: 0x54394, offset: 0x54394, size: 0x8, addend: 0x0, symName: __ZNSt3__110unique_ptrIN5memdb9Tokenizer6OtherTENS_14default_deleteIS3_EEE5resetB8ue170006EPS3_, symObjAddr: 0x871B4, symBinAddr: 0x100088AC0, symSize: 0x2B0 }
  - { offsetInCU: 0x543D8, offset: 0x543D8, size: 0x8, addend: 0x0, symName: __ZNSt3__117__compressed_pairIPN5memdb9Tokenizer6OtherTENS_14default_deleteIS3_EEE6secondB8ue170006Ev, symObjAddr: 0x87464, symBinAddr: 0x100088D70, symSize: 0x108 }
  - { offsetInCU: 0x543FE, offset: 0x543FE, size: 0x8, addend: 0x0, symName: __ZNSt3__122__compressed_pair_elemINS_14default_deleteIN5memdb9Tokenizer6OtherTEEELi1ELb1EE5__getB8ue170006Ev, symObjAddr: 0x8756C, symBinAddr: 0x100088E78, symSize: 0x74 }
  - { offsetInCU: 0x54424, offset: 0x54424, size: 0x8, addend: 0x0, symName: __ZN5memdb9Tokenizer6OtherTC2Ev, symObjAddr: 0x875E0, symBinAddr: 0x100088EEC, symSize: 0x118 }
  - { offsetInCU: 0x5444E, offset: 0x5444E, size: 0x8, addend: 0x0, symName: __ZNK5memdb9Tokenizer6OtherT7GetTypeEv, symObjAddr: 0x876F8, symBinAddr: 0x100089004, symSize: 0x64 }
  - { offsetInCU: 0x54474, offset: 0x54474, size: 0x8, addend: 0x0, symName: __ZN5memdb9Tokenizer6OtherT4CopyEv, symObjAddr: 0x8775C, symBinAddr: 0x100089068, symSize: 0x30C }
  - { offsetInCU: 0x544AA, offset: 0x544AA, size: 0x8, addend: 0x0, symName: __ZN5memdb9Tokenizer6OtherT5ParseERNSt3__16vectorINS2_12basic_stringIcNS2_11char_traitsIcEENS2_9allocatorIcEEEENS7_IS9_EEEERi, symObjAddr: 0x87A68, symBinAddr: 0x100089374, symSize: 0x738 }
  - { offsetInCU: 0x54504, offset: 0x54504, size: 0x8, addend: 0x0, symName: __ZN5memdb9Tokenizer6OtherTC1ENS_5lexer5OtherE, symObjAddr: 0x881A0, symBinAddr: 0x100089AAC, symSize: 0x80 }
  - { offsetInCU: 0x5453D, offset: 0x5453D, size: 0x8, addend: 0x0, symName: __ZN5memdb9Tokenizer6OtherTC2ENS_5lexer5OtherE, symObjAddr: 0x88220, symBinAddr: 0x100089B2C, symSize: 0x188 }
  - { offsetInCU: 0x54576, offset: 0x54576, size: 0x8, addend: 0x0, symName: __ZNSt3__110shared_ptrIN5memdb9Tokenizer5TokenEE5resetB8ue170006INS2_7StringTEvEEvPT_, symObjAddr: 0x883A8, symBinAddr: 0x100089CB4, symSize: 0x27C }
  - { offsetInCU: 0x545B7, offset: 0x545B7, size: 0x8, addend: 0x0, symName: __ZN5memdb9Tokenizer7StringTC1Ev, symObjAddr: 0x88624, symBinAddr: 0x100089F30, symSize: 0x78 }
  - { offsetInCU: 0x545E1, offset: 0x545E1, size: 0x8, addend: 0x0, symName: __ZNSt3__110shared_ptrIN5memdb9Tokenizer5TokenEEC1B8ue170006INS2_7StringTEvEEPT_, symObjAddr: 0x8869C, symBinAddr: 0x100089FA8, symSize: 0x80 }
  - { offsetInCU: 0x54624, offset: 0x54624, size: 0x8, addend: 0x0, symName: __ZNSt3__110shared_ptrIN5memdb9Tokenizer5TokenEEC2B8ue170006INS2_7StringTEvEEPT_, symObjAddr: 0x8871C, symBinAddr: 0x10008A028, symSize: 0x4D8 }
  - { offsetInCU: 0x54736, offset: 0x54736, size: 0x8, addend: 0x0, symName: __ZNSt3__110unique_ptrIN5memdb9Tokenizer7StringTENS_14default_deleteIS3_EEEC1B8ue170006ILb1EvEEPS3_, symObjAddr: 0x88BF4, symBinAddr: 0x10008A500, symSize: 0x80 }
  - { offsetInCU: 0x54785, offset: 0x54785, size: 0x8, addend: 0x0, symName: __ZNSt3__19allocatorIN5memdb9Tokenizer7StringTEEC1B8ue170006Ev, symObjAddr: 0x88C74, symBinAddr: 0x10008A580, symSize: 0x5C }
  - { offsetInCU: 0x5486F, offset: 0x5486F, size: 0x8, addend: 0x0, symName: __ZNSt3__120__shared_ptr_pointerIPN5memdb9Tokenizer7StringTENS_10shared_ptrINS2_5TokenEE27__shared_ptr_default_deleteIS6_S3_EENS_9allocatorIS3_EEEC1B8ue170006ES4_S9_SB_, symObjAddr: 0x88CD0, symBinAddr: 0x10008A5DC, symSize: 0x80 }
  - { offsetInCU: 0x548C3, offset: 0x548C3, size: 0x8, addend: 0x0, symName: __ZNSt3__110unique_ptrIN5memdb9Tokenizer7StringTENS_14default_deleteIS3_EEE7releaseB8ue170006Ev, symObjAddr: 0x88D50, symBinAddr: 0x10008A65C, symSize: 0x20C }
  - { offsetInCU: 0x548F8, offset: 0x548F8, size: 0x8, addend: 0x0, symName: __ZNSt3__110unique_ptrIN5memdb9Tokenizer7StringTENS_14default_deleteIS3_EEED1B8ue170006Ev, symObjAddr: 0x88F5C, symBinAddr: 0x10008A868, symSize: 0x78 }
  - { offsetInCU: 0x54922, offset: 0x54922, size: 0x8, addend: 0x0, symName: __ZNSt3__110unique_ptrIN5memdb9Tokenizer7StringTENS_14default_deleteIS3_EEEC2B8ue170006ILb1EvEEPS3_, symObjAddr: 0x88FD4, symBinAddr: 0x10008A8E0, symSize: 0x2B8 }
  - { offsetInCU: 0x5496A, offset: 0x5496A, size: 0x8, addend: 0x0, symName: __ZNSt3__117__compressed_pairIPN5memdb9Tokenizer7StringTENS_14default_deleteIS3_EEEC1B8ue170006IRS4_NS_16__value_init_tagEEEOT_OT0_, symObjAddr: 0x8928C, symBinAddr: 0x10008AB98, symSize: 0x88 }
  - { offsetInCU: 0x549C2, offset: 0x549C2, size: 0x8, addend: 0x0, symName: __ZNSt3__117__compressed_pairIPN5memdb9Tokenizer7StringTENS_14default_deleteIS3_EEEC2B8ue170006IRS4_NS_16__value_init_tagEEEOT_OT0_, symObjAddr: 0x89314, symBinAddr: 0x10008AC20, symSize: 0x140 }
  - { offsetInCU: 0x54A1A, offset: 0x54A1A, size: 0x8, addend: 0x0, symName: __ZNSt3__122__compressed_pair_elemIPN5memdb9Tokenizer7StringTELi0ELb0EEC2B8ue170006IRS4_vEEOT_, symObjAddr: 0x89454, symBinAddr: 0x10008AD60, symSize: 0x144 }
  - { offsetInCU: 0x54A5C, offset: 0x54A5C, size: 0x8, addend: 0x0, symName: __ZNSt3__122__compressed_pair_elemINS_14default_deleteIN5memdb9Tokenizer7StringTEEELi1ELb1EEC2B8ue170006ENS_16__value_init_tagE, symObjAddr: 0x89598, symBinAddr: 0x10008AEA4, symSize: 0x54 }
  - { offsetInCU: 0x54A90, offset: 0x54A90, size: 0x8, addend: 0x0, symName: __ZNSt3__19allocatorIN5memdb9Tokenizer7StringTEEC2B8ue170006Ev, symObjAddr: 0x895EC, symBinAddr: 0x10008AEF8, symSize: 0x84 }
  - { offsetInCU: 0x54ABA, offset: 0x54ABA, size: 0x8, addend: 0x0, symName: __ZNSt3__116__non_trivial_ifILb1ENS_9allocatorIN5memdb9Tokenizer7StringTEEEEC2B8ue170006Ev, symObjAddr: 0x89670, symBinAddr: 0x10008AF7C, symSize: 0x54 }
  - { offsetInCU: 0x54AE4, offset: 0x54AE4, size: 0x8, addend: 0x0, symName: __ZNSt3__120__shared_ptr_pointerIPN5memdb9Tokenizer7StringTENS_10shared_ptrINS2_5TokenEE27__shared_ptr_default_deleteIS6_S3_EENS_9allocatorIS3_EEEC2B8ue170006ES4_S9_SB_, symObjAddr: 0x896C4, symBinAddr: 0x10008AFD0, symSize: 0x44C }
  - { offsetInCU: 0x54B4B, offset: 0x54B4B, size: 0x8, addend: 0x0, symName: __ZNSt3__117__compressed_pairIPN5memdb9Tokenizer7StringTENS_10shared_ptrINS2_5TokenEE27__shared_ptr_default_deleteIS6_S3_EEEC1B8ue170006IRS4_S9_EEOT_OT0_, symObjAddr: 0x89B10, symBinAddr: 0x10008B41C, symSize: 0x88 }
  - { offsetInCU: 0x54BAF, offset: 0x54BAF, size: 0x8, addend: 0x0, symName: __ZNSt3__117__compressed_pairINS0_IPN5memdb9Tokenizer7StringTENS_10shared_ptrINS2_5TokenEE27__shared_ptr_default_deleteIS6_S3_EEEENS_9allocatorIS3_EEEC1B8ue170006ISA_SC_EEOT_OT0_, symObjAddr: 0x89B98, symBinAddr: 0x10008B4A4, symSize: 0x88 }
  - { offsetInCU: 0x54C07, offset: 0x54C07, size: 0x8, addend: 0x0, symName: __ZNSt3__120__shared_ptr_pointerIPN5memdb9Tokenizer7StringTENS_10shared_ptrINS2_5TokenEE27__shared_ptr_default_deleteIS6_S3_EENS_9allocatorIS3_EEED1Ev, symObjAddr: 0x89C20, symBinAddr: 0x10008B52C, symSize: 0x78 }
  - { offsetInCU: 0x54C33, offset: 0x54C33, size: 0x8, addend: 0x0, symName: __ZNSt3__120__shared_ptr_pointerIPN5memdb9Tokenizer7StringTENS_10shared_ptrINS2_5TokenEE27__shared_ptr_default_deleteIS6_S3_EENS_9allocatorIS3_EEED0Ev, symObjAddr: 0x89C98, symBinAddr: 0x10008B5A4, symSize: 0x74 }
  - { offsetInCU: 0x54C5F, offset: 0x54C5F, size: 0x8, addend: 0x0, symName: __ZNSt3__120__shared_ptr_pointerIPN5memdb9Tokenizer7StringTENS_10shared_ptrINS2_5TokenEE27__shared_ptr_default_deleteIS6_S3_EENS_9allocatorIS3_EEE16__on_zero_sharedEv, symObjAddr: 0x89D0C, symBinAddr: 0x10008B618, symSize: 0x460 }
  - { offsetInCU: 0x54C87, offset: 0x54C87, size: 0x8, addend: 0x0, symName: __ZNKSt3__120__shared_ptr_pointerIPN5memdb9Tokenizer7StringTENS_10shared_ptrINS2_5TokenEE27__shared_ptr_default_deleteIS6_S3_EENS_9allocatorIS3_EEE13__get_deleterERKSt9type_info, symObjAddr: 0x8A16C, symBinAddr: 0x10008BA78, symSize: 0x298 }
  - { offsetInCU: 0x54CBC, offset: 0x54CBC, size: 0x8, addend: 0x0, symName: __ZNSt3__120__shared_ptr_pointerIPN5memdb9Tokenizer7StringTENS_10shared_ptrINS2_5TokenEE27__shared_ptr_default_deleteIS6_S3_EENS_9allocatorIS3_EEE21__on_zero_shared_weakEv, symObjAddr: 0x8A404, symBinAddr: 0x10008BD10, symSize: 0x448 }
  - { offsetInCU: 0x54D04, offset: 0x54D04, size: 0x8, addend: 0x0, symName: __ZNSt3__117__compressed_pairIPN5memdb9Tokenizer7StringTENS_10shared_ptrINS2_5TokenEE27__shared_ptr_default_deleteIS6_S3_EEEC2B8ue170006IRS4_S9_EEOT_OT0_, symObjAddr: 0x8A84C, symBinAddr: 0x10008C158, symSize: 0x170 }
  - { offsetInCU: 0x54D5C, offset: 0x54D5C, size: 0x8, addend: 0x0, symName: __ZNSt3__122__compressed_pair_elemINS_10shared_ptrIN5memdb9Tokenizer5TokenEE27__shared_ptr_default_deleteIS4_NS3_7StringTEEELi1ELb1EEC2B8ue170006IS8_vEEOT_, symObjAddr: 0x8A9BC, symBinAddr: 0x10008C2C8, symSize: 0x58 }
  - { offsetInCU: 0x54D9E, offset: 0x54D9E, size: 0x8, addend: 0x0, symName: __ZNSt3__117__compressed_pairINS0_IPN5memdb9Tokenizer7StringTENS_10shared_ptrINS2_5TokenEE27__shared_ptr_default_deleteIS6_S3_EEEENS_9allocatorIS3_EEEC2B8ue170006ISA_SC_EEOT_OT0_, symObjAddr: 0x8AA14, symBinAddr: 0x10008C320, symSize: 0x170 }
  - { offsetInCU: 0x54DF6, offset: 0x54DF6, size: 0x8, addend: 0x0, symName: __ZNSt3__122__compressed_pair_elemINS_17__compressed_pairIPN5memdb9Tokenizer7StringTENS_10shared_ptrINS3_5TokenEE27__shared_ptr_default_deleteIS7_S4_EEEELi0ELb0EEC2B8ue170006ISB_vEEOT_, symObjAddr: 0x8AB84, symBinAddr: 0x10008C490, symSize: 0x84 }
  - { offsetInCU: 0x54E38, offset: 0x54E38, size: 0x8, addend: 0x0, symName: __ZNSt3__122__compressed_pair_elemINS_9allocatorIN5memdb9Tokenizer7StringTEEELi1ELb1EEC2B8ue170006IS5_vEEOT_, symObjAddr: 0x8AC08, symBinAddr: 0x10008C514, symSize: 0x58 }
  - { offsetInCU: 0x54E7A, offset: 0x54E7A, size: 0x8, addend: 0x0, symName: __ZNSt3__120__shared_ptr_pointerIPN5memdb9Tokenizer7StringTENS_10shared_ptrINS2_5TokenEE27__shared_ptr_default_deleteIS6_S3_EENS_9allocatorIS3_EEED2Ev, symObjAddr: 0x8AC60, symBinAddr: 0x10008C56C, symSize: 0x78 }
  - { offsetInCU: 0x54EA6, offset: 0x54EA6, size: 0x8, addend: 0x0, symName: __ZNSt3__117__compressed_pairINS0_IPN5memdb9Tokenizer7StringTENS_10shared_ptrINS2_5TokenEE27__shared_ptr_default_deleteIS6_S3_EEEENS_9allocatorIS3_EEE5firstB8ue170006Ev, symObjAddr: 0x8ACD8, symBinAddr: 0x10008C5E4, symSize: 0x124 }
  - { offsetInCU: 0x54ECC, offset: 0x54ECC, size: 0x8, addend: 0x0, symName: __ZNSt3__117__compressed_pairIPN5memdb9Tokenizer7StringTENS_10shared_ptrINS2_5TokenEE27__shared_ptr_default_deleteIS6_S3_EEE6secondB8ue170006Ev, symObjAddr: 0x8ADFC, symBinAddr: 0x10008C708, symSize: 0x108 }
  - { offsetInCU: 0x54EF2, offset: 0x54EF2, size: 0x8, addend: 0x0, symName: __ZNKSt3__114default_deleteIN5memdb9Tokenizer7StringTEEclB8ue170006EPS3_, symObjAddr: 0x8AF04, symBinAddr: 0x10008C810, symSize: 0x160 }
  - { offsetInCU: 0x54F26, offset: 0x54F26, size: 0x8, addend: 0x0, symName: __ZNSt3__117__compressed_pairIPN5memdb9Tokenizer7StringTENS_10shared_ptrINS2_5TokenEE27__shared_ptr_default_deleteIS6_S3_EEE5firstB8ue170006Ev, symObjAddr: 0x8B064, symBinAddr: 0x10008C970, symSize: 0x124 }
  - { offsetInCU: 0x54F4C, offset: 0x54F4C, size: 0x8, addend: 0x0, symName: __ZNSt3__122__compressed_pair_elemINS_17__compressed_pairIPN5memdb9Tokenizer7StringTENS_10shared_ptrINS3_5TokenEE27__shared_ptr_default_deleteIS7_S4_EEEELi0ELb0EE5__getB8ue170006Ev, symObjAddr: 0x8B188, symBinAddr: 0x10008CA94, symSize: 0xAC }
  - { offsetInCU: 0x54F72, offset: 0x54F72, size: 0x8, addend: 0x0, symName: __ZNSt3__122__compressed_pair_elemINS_10shared_ptrIN5memdb9Tokenizer5TokenEE27__shared_ptr_default_deleteIS4_NS3_7StringTEEELi1ELb1EE5__getB8ue170006Ev, symObjAddr: 0x8B234, symBinAddr: 0x10008CB40, symSize: 0x74 }
  - { offsetInCU: 0x54F98, offset: 0x54F98, size: 0x8, addend: 0x0, symName: __ZN5memdb9Tokenizer7StringTD1Ev, symObjAddr: 0x8B2A8, symBinAddr: 0x10008CBB4, symSize: 0x78 }
  - { offsetInCU: 0x54FC5, offset: 0x54FC5, size: 0x8, addend: 0x0, symName: __ZN5memdb9Tokenizer7StringTD2Ev, symObjAddr: 0x8B320, symBinAddr: 0x10008CC2C, symSize: 0xD4 }
  - { offsetInCU: 0x54FF2, offset: 0x54FF2, size: 0x8, addend: 0x0, symName: __ZNK5memdb9Tokenizer7StringT7GetTypeEv, symObjAddr: 0x8B3F4, symBinAddr: 0x10008CD00, symSize: 0x64 }
  - { offsetInCU: 0x55018, offset: 0x55018, size: 0x8, addend: 0x0, symName: __ZN5memdb9Tokenizer7StringT4CopyEv, symObjAddr: 0x8B458, symBinAddr: 0x10008CD64, symSize: 0x574 }
  - { offsetInCU: 0x55050, offset: 0x55050, size: 0x8, addend: 0x0, symName: __ZN5memdb9Tokenizer7StringT5ParseERNSt3__16vectorINS2_12basic_stringIcNS2_11char_traitsIcEENS2_9allocatorIcEEEENS7_IS9_EEEERi, symObjAddr: 0x8B9CC, symBinAddr: 0x10008D2D8, symSize: 0x354 }
  - { offsetInCU: 0x55094, offset: 0x55094, size: 0x8, addend: 0x0, symName: __ZN5memdb9Tokenizer7StringTC1ENSt3__112basic_stringIcNS2_11char_traitsIcEENS2_9allocatorIcEEEE, symObjAddr: 0x8BD20, symBinAddr: 0x10008D62C, symSize: 0x84 }
  - { offsetInCU: 0x550CE, offset: 0x550CE, size: 0x8, addend: 0x0, symName: __ZN5memdb9Tokenizer7StringTC2ENSt3__112basic_stringIcNS2_11char_traitsIcEENS2_9allocatorIcEEEE, symObjAddr: 0x8BDA4, symBinAddr: 0x10008D6B0, symSize: 0x178 }
  - { offsetInCU: 0x55108, offset: 0x55108, size: 0x8, addend: 0x0, symName: __ZNSt3__122__compressed_pair_elemIPN5memdb9Tokenizer7StringTELi0ELb0EE5__getB8ue170006Ev, symObjAddr: 0x8BF1C, symBinAddr: 0x10008D828, symSize: 0xAC }
  - { offsetInCU: 0x5512E, offset: 0x5512E, size: 0x8, addend: 0x0, symName: __ZNKSt3__117__compressed_pairINS0_IPN5memdb9Tokenizer7StringTENS_10shared_ptrINS2_5TokenEE27__shared_ptr_default_deleteIS6_S3_EEEENS_9allocatorIS3_EEE5firstB8ue170006Ev, symObjAddr: 0x8BFC8, symBinAddr: 0x10008D8D4, symSize: 0x124 }
  - { offsetInCU: 0x55154, offset: 0x55154, size: 0x8, addend: 0x0, symName: __ZNKSt3__117__compressed_pairIPN5memdb9Tokenizer7StringTENS_10shared_ptrINS2_5TokenEE27__shared_ptr_default_deleteIS6_S3_EEE6secondB8ue170006Ev, symObjAddr: 0x8C0EC, symBinAddr: 0x10008D9F8, symSize: 0x108 }
  - { offsetInCU: 0x5517A, offset: 0x5517A, size: 0x8, addend: 0x0, symName: __ZNKSt3__122__compressed_pair_elemINS_17__compressed_pairIPN5memdb9Tokenizer7StringTENS_10shared_ptrINS3_5TokenEE27__shared_ptr_default_deleteIS7_S4_EEEELi0ELb0EE5__getB8ue170006Ev, symObjAddr: 0x8C1F4, symBinAddr: 0x10008DB00, symSize: 0xAC }
  - { offsetInCU: 0x551A0, offset: 0x551A0, size: 0x8, addend: 0x0, symName: __ZNKSt3__122__compressed_pair_elemINS_10shared_ptrIN5memdb9Tokenizer5TokenEE27__shared_ptr_default_deleteIS4_NS3_7StringTEEELi1ELb1EE5__getB8ue170006Ev, symObjAddr: 0x8C2A0, symBinAddr: 0x10008DBAC, symSize: 0x74 }
  - { offsetInCU: 0x551C6, offset: 0x551C6, size: 0x8, addend: 0x0, symName: __ZNSt3__117__compressed_pairINS0_IPN5memdb9Tokenizer7StringTENS_10shared_ptrINS2_5TokenEE27__shared_ptr_default_deleteIS6_S3_EEEENS_9allocatorIS3_EEE6secondB8ue170006Ev, symObjAddr: 0x8C314, symBinAddr: 0x10008DC20, symSize: 0x108 }
  - { offsetInCU: 0x551FE, offset: 0x551FE, size: 0x8, addend: 0x0, symName: __ZNSt3__19allocatorINS_20__shared_ptr_pointerIPN5memdb9Tokenizer7StringTENS_10shared_ptrINS3_5TokenEE27__shared_ptr_default_deleteIS7_S4_EENS0_IS4_EEEEEC1B8ue170006IS4_EERKNS0_IT_EE, symObjAddr: 0x8C41C, symBinAddr: 0x10008DD28, symSize: 0x64 }
  - { offsetInCU: 0x5523B, offset: 0x5523B, size: 0x8, addend: 0x0, symName: __ZNSt3__19allocatorINS_20__shared_ptr_pointerIPN5memdb9Tokenizer7StringTENS_10shared_ptrINS3_5TokenEE27__shared_ptr_default_deleteIS7_S4_EENS0_IS4_EEEEE10deallocateB8ue170006EPSC_m, symObjAddr: 0x8C480, symBinAddr: 0x10008DD8C, symSize: 0x78 }
  - { offsetInCU: 0x55283, offset: 0x55283, size: 0x8, addend: 0x0, symName: __ZNSt3__114pointer_traitsIPNS_20__shared_ptr_pointerIPN5memdb9Tokenizer7StringTENS_10shared_ptrINS3_5TokenEE27__shared_ptr_default_deleteIS7_S4_EENS_9allocatorIS4_EEEEE10pointer_toB8ue170006ERSD_, symObjAddr: 0x8C4F8, symBinAddr: 0x10008DE04, symSize: 0x14 }
  - { offsetInCU: 0x552A6, offset: 0x552A6, size: 0x8, addend: 0x0, symName: __ZNSt3__122__compressed_pair_elemINS_9allocatorIN5memdb9Tokenizer7StringTEEELi1ELb1EE5__getB8ue170006Ev, symObjAddr: 0x8C50C, symBinAddr: 0x10008DE18, symSize: 0x74 }
  - { offsetInCU: 0x552CC, offset: 0x552CC, size: 0x8, addend: 0x0, symName: __ZNSt3__19allocatorINS_20__shared_ptr_pointerIPN5memdb9Tokenizer7StringTENS_10shared_ptrINS3_5TokenEE27__shared_ptr_default_deleteIS7_S4_EENS0_IS4_EEEEEC2B8ue170006IS4_EERKNS0_IT_EE, symObjAddr: 0x8C580, symBinAddr: 0x10008DE8C, symSize: 0x88 }
  - { offsetInCU: 0x55309, offset: 0x55309, size: 0x8, addend: 0x0, symName: __ZNSt3__116__non_trivial_ifILb1ENS_9allocatorINS_20__shared_ptr_pointerIPN5memdb9Tokenizer7StringTENS_10shared_ptrINS4_5TokenEE27__shared_ptr_default_deleteIS8_S5_EENS1_IS5_EEEEEEEC2B8ue170006Ev, symObjAddr: 0x8C608, symBinAddr: 0x10008DF14, symSize: 0x54 }
  - { offsetInCU: 0x55333, offset: 0x55333, size: 0x8, addend: 0x0, symName: __ZNSt3__117__compressed_pairIPN5memdb9Tokenizer7StringTENS_14default_deleteIS3_EEE5firstB8ue170006Ev, symObjAddr: 0x8C65C, symBinAddr: 0x10008DF68, symSize: 0x124 }
  - { offsetInCU: 0x55359, offset: 0x55359, size: 0x8, addend: 0x0, symName: __ZNSt3__110unique_ptrIN5memdb9Tokenizer7StringTENS_14default_deleteIS3_EEED2B8ue170006Ev, symObjAddr: 0x8C780, symBinAddr: 0x10008E08C, symSize: 0x7C }
  - { offsetInCU: 0x55383, offset: 0x55383, size: 0x8, addend: 0x0, symName: __ZNSt3__110unique_ptrIN5memdb9Tokenizer7StringTENS_14default_deleteIS3_EEE5resetB8ue170006EPS3_, symObjAddr: 0x8C7FC, symBinAddr: 0x10008E108, symSize: 0x2B0 }
  - { offsetInCU: 0x553C7, offset: 0x553C7, size: 0x8, addend: 0x0, symName: __ZNSt3__117__compressed_pairIPN5memdb9Tokenizer7StringTENS_14default_deleteIS3_EEE6secondB8ue170006Ev, symObjAddr: 0x8CAAC, symBinAddr: 0x10008E3B8, symSize: 0x108 }
  - { offsetInCU: 0x553ED, offset: 0x553ED, size: 0x8, addend: 0x0, symName: __ZNSt3__122__compressed_pair_elemINS_14default_deleteIN5memdb9Tokenizer7StringTEEELi1ELb1EE5__getB8ue170006Ev, symObjAddr: 0x8CBB4, symBinAddr: 0x10008E4C0, symSize: 0x74 }
  - { offsetInCU: 0x55413, offset: 0x55413, size: 0x8, addend: 0x0, symName: __ZN5memdb9Tokenizer7StringTC2Ev, symObjAddr: 0x8CC28, symBinAddr: 0x10008E534, symSize: 0x120 }
  - { offsetInCU: 0x5543D, offset: 0x5543D, size: 0x8, addend: 0x0, symName: __ZNSt3__110shared_ptrIN5memdb9Tokenizer5TokenEED2B8ue170006Ev, symObjAddr: 0x8CD48, symBinAddr: 0x10008E654, symSize: 0x1FC }
  - { offsetInCU: 0x55467, offset: 0x55467, size: 0x8, addend: 0x0, symName: __ZNSt3__16vectorINS_10shared_ptrIN5memdb9Tokenizer5TokenEEENS_9allocatorIS5_EEEC2B8ue170006ESt16initializer_listIS5_E, symObjAddr: 0x8CF44, symBinAddr: 0x10008E850, symSize: 0x5B0 }
  - { offsetInCU: 0x554C0, offset: 0x554C0, size: 0x8, addend: 0x0, symName: __ZNSt3__117__compressed_pairIPNS_10shared_ptrIN5memdb9Tokenizer5TokenEEENS_9allocatorIS5_EEEC1B8ue170006IDnNS_18__default_init_tagEEEOT_OT0_, symObjAddr: 0x8D4F4, symBinAddr: 0x10008EE00, symSize: 0x88 }
  - { offsetInCU: 0x55518, offset: 0x55518, size: 0x8, addend: 0x0, symName: __ZNSt3__16vectorINS_10shared_ptrIN5memdb9Tokenizer5TokenEEENS_9allocatorIS5_EEE16__destroy_vectorC1B8ue170006ERS8_, symObjAddr: 0x8D838, symBinAddr: 0x10008F144, symSize: 0x80 }
  - { offsetInCU: 0x55551, offset: 0x55551, size: 0x8, addend: 0x0, symName: __ZNKSt16initializer_listINSt3__110shared_ptrIN5memdb9Tokenizer5TokenEEEE4sizeB8ue170006Ev, symObjAddr: 0x8D8B8, symBinAddr: 0x10008F1C4, symSize: 0xB0 }
  - { offsetInCU: 0x55577, offset: 0x55577, size: 0x8, addend: 0x0, symName: __ZNSt3__16vectorINS_10shared_ptrIN5memdb9Tokenizer5TokenEEENS_9allocatorIS5_EEE11__vallocateB8ue170006Em, symObjAddr: 0x8D968, symBinAddr: 0x10008F274, symSize: 0x5E8 }
  - { offsetInCU: 0x555C1, offset: 0x555C1, size: 0x8, addend: 0x0, symName: __ZNSt3__16vectorINS_10shared_ptrIN5memdb9Tokenizer5TokenEEENS_9allocatorIS5_EEE18__construct_at_endIPKS5_SB_EEvT_T0_m, symObjAddr: 0x8DF50, symBinAddr: 0x10008F85C, symSize: 0x494 }
  - { offsetInCU: 0x5563F, offset: 0x5563F, size: 0x8, addend: 0x0, symName: __ZNKSt16initializer_listINSt3__110shared_ptrIN5memdb9Tokenizer5TokenEEEE5beginB8ue170006Ev, symObjAddr: 0x8E3E4, symBinAddr: 0x10008FCF0, symSize: 0xAC }
  - { offsetInCU: 0x55665, offset: 0x55665, size: 0x8, addend: 0x0, symName: __ZNKSt16initializer_listINSt3__110shared_ptrIN5memdb9Tokenizer5TokenEEEE3endB8ue170006Ev, symObjAddr: 0x8E490, symBinAddr: 0x10008FD9C, symSize: 0x1C0 }
  - { offsetInCU: 0x5568B, offset: 0x5568B, size: 0x8, addend: 0x0, symName: __ZNSt3__128__exception_guard_exceptionsINS_6vectorINS_10shared_ptrIN5memdb9Tokenizer5TokenEEENS_9allocatorIS6_EEE16__destroy_vectorEE10__completeB8ue170006Ev, symObjAddr: 0x8E650, symBinAddr: 0x10008FF5C, symSize: 0xD8 }
  - { offsetInCU: 0x556B1, offset: 0x556B1, size: 0x8, addend: 0x0, symName: __ZNSt3__128__exception_guard_exceptionsINS_6vectorINS_10shared_ptrIN5memdb9Tokenizer5TokenEEENS_9allocatorIS6_EEE16__destroy_vectorEED1B8ue170006Ev, symObjAddr: 0x8E728, symBinAddr: 0x100090034, symSize: 0x78 }
  - { offsetInCU: 0x556DB, offset: 0x556DB, size: 0x8, addend: 0x0, symName: __ZNSt3__117__compressed_pairIPNS_10shared_ptrIN5memdb9Tokenizer5TokenEEENS_9allocatorIS5_EEEC2B8ue170006IDnNS_18__default_init_tagEEEOT_OT0_, symObjAddr: 0x8E7A0, symBinAddr: 0x1000900AC, symSize: 0x140 }
  - { offsetInCU: 0x55733, offset: 0x55733, size: 0x8, addend: 0x0, symName: __ZNSt3__122__compressed_pair_elemIPNS_10shared_ptrIN5memdb9Tokenizer5TokenEEELi0ELb0EEC2B8ue170006IDnvEEOT_, symObjAddr: 0x8E8E0, symBinAddr: 0x1000901EC, symSize: 0xBC }
  - { offsetInCU: 0x55775, offset: 0x55775, size: 0x8, addend: 0x0, symName: __ZNSt3__122__compressed_pair_elemINS_9allocatorINS_10shared_ptrIN5memdb9Tokenizer5TokenEEEEELi1ELb1EEC2B8ue170006ENS_18__default_init_tagE, symObjAddr: 0x8E99C, symBinAddr: 0x1000902A8, symSize: 0x84 }
  - { offsetInCU: 0x557A9, offset: 0x557A9, size: 0x8, addend: 0x0, symName: __ZNSt3__19allocatorINS_10shared_ptrIN5memdb9Tokenizer5TokenEEEEC2B8ue170006Ev, symObjAddr: 0x8EA20, symBinAddr: 0x10009032C, symSize: 0x84 }
  - { offsetInCU: 0x557D3, offset: 0x557D3, size: 0x8, addend: 0x0, symName: __ZNSt3__116__non_trivial_ifILb1ENS_9allocatorINS_10shared_ptrIN5memdb9Tokenizer5TokenEEEEEEC2B8ue170006Ev, symObjAddr: 0x8EAA4, symBinAddr: 0x1000903B0, symSize: 0x54 }
  - { offsetInCU: 0x557FD, offset: 0x557FD, size: 0x8, addend: 0x0, symName: __ZNSt3__128__exception_guard_exceptionsINS_6vectorINS_10shared_ptrIN5memdb9Tokenizer5TokenEEENS_9allocatorIS6_EEE16__destroy_vectorEEC1B8ue170006ESA_, symObjAddr: 0x8EAF8, symBinAddr: 0x100090404, symSize: 0x28C }
  - { offsetInCU: 0x5583A, offset: 0x5583A, size: 0x8, addend: 0x0, symName: __ZNSt3__128__exception_guard_exceptionsINS_6vectorINS_10shared_ptrIN5memdb9Tokenizer5TokenEEENS_9allocatorIS6_EEE16__destroy_vectorEEC2B8ue170006ESA_, symObjAddr: 0x8ED84, symBinAddr: 0x100090690, symSize: 0x2BC }
  - { offsetInCU: 0x55877, offset: 0x55877, size: 0x8, addend: 0x0, symName: __ZNSt3__16vectorINS_10shared_ptrIN5memdb9Tokenizer5TokenEEENS_9allocatorIS5_EEE16__destroy_vectorC2B8ue170006ERS8_, symObjAddr: 0x8F040, symBinAddr: 0x10009094C, symSize: 0x108 }
  - { offsetInCU: 0x558B0, offset: 0x558B0, size: 0x8, addend: 0x0, symName: __ZNKSt3__16vectorINS_10shared_ptrIN5memdb9Tokenizer5TokenEEENS_9allocatorIS5_EEE8max_sizeEv, symObjAddr: 0x8F148, symBinAddr: 0x100090A54, symSize: 0x3B8 }
  - { offsetInCU: 0x558D9, offset: 0x558D9, size: 0x8, addend: 0x0, symName: __ZNKSt3__16vectorINS_10shared_ptrIN5memdb9Tokenizer5TokenEEENS_9allocatorIS5_EEE20__throw_length_errorB8ue170006Ev, symObjAddr: 0x8F500, symBinAddr: 0x100090E0C, symSize: 0x80 }
  - { offsetInCU: 0x558FF, offset: 0x558FF, size: 0x8, addend: 0x0, symName: __ZNSt3__16vectorINS_10shared_ptrIN5memdb9Tokenizer5TokenEEENS_9allocatorIS5_EEE7__allocB8ue170006Ev, symObjAddr: 0x8F7D0, symBinAddr: 0x1000910DC, symSize: 0xE4 }
  - { offsetInCU: 0x55925, offset: 0x55925, size: 0x8, addend: 0x0, symName: __ZNSt3__16vectorINS_10shared_ptrIN5memdb9Tokenizer5TokenEEENS_9allocatorIS5_EEE9__end_capB8ue170006Ev, symObjAddr: 0x8F8B4, symBinAddr: 0x1000911C0, symSize: 0x100 }
  - { offsetInCU: 0x5594B, offset: 0x5594B, size: 0x8, addend: 0x0, symName: __ZNKSt3__16vectorINS_10shared_ptrIN5memdb9Tokenizer5TokenEEENS_9allocatorIS5_EEE14__annotate_newB8ue170006Em, symObjAddr: 0x8F9B4, symBinAddr: 0x1000912C0, symSize: 0x360 }
  - { offsetInCU: 0x5598C, offset: 0x5598C, size: 0x8, addend: 0x0, symName: __ZNSt3__116allocator_traitsINS_9allocatorINS_10shared_ptrIN5memdb9Tokenizer5TokenEEEEEE8max_sizeB8ue170006IS7_vvEEmRKS7_, symObjAddr: 0x8FD14, symBinAddr: 0x100091620, symSize: 0x54 }
  - { offsetInCU: 0x559B7, offset: 0x559B7, size: 0x8, addend: 0x0, symName: __ZNKSt3__16vectorINS_10shared_ptrIN5memdb9Tokenizer5TokenEEENS_9allocatorIS5_EEE7__allocB8ue170006Ev, symObjAddr: 0x8FD68, symBinAddr: 0x100091674, symSize: 0xE4 }
  - { offsetInCU: 0x559DD, offset: 0x559DD, size: 0x8, addend: 0x0, symName: __ZNKSt3__117__compressed_pairIPNS_10shared_ptrIN5memdb9Tokenizer5TokenEEENS_9allocatorIS5_EEE6secondB8ue170006Ev, symObjAddr: 0x8FE4C, symBinAddr: 0x100091758, symSize: 0x108 }
  - { offsetInCU: 0x55A03, offset: 0x55A03, size: 0x8, addend: 0x0, symName: __ZNKSt3__122__compressed_pair_elemINS_9allocatorINS_10shared_ptrIN5memdb9Tokenizer5TokenEEEEELi1ELb1EE5__getB8ue170006Ev, symObjAddr: 0x8FF54, symBinAddr: 0x100091860, symSize: 0x74 }
  - { offsetInCU: 0x55A29, offset: 0x55A29, size: 0x8, addend: 0x0, symName: __ZNSt3__19allocatorINS_10shared_ptrIN5memdb9Tokenizer5TokenEEEE17allocate_at_leastB8ue170006Em, symObjAddr: 0x901EC, symBinAddr: 0x100091AF8, symSize: 0x2B8 }
  - { offsetInCU: 0x55A5F, offset: 0x55A5F, size: 0x8, addend: 0x0, symName: __ZNSt3__19allocatorINS_10shared_ptrIN5memdb9Tokenizer5TokenEEEE8allocateB8ue170006Em, symObjAddr: 0x904A4, symBinAddr: 0x100091DB0, symSize: 0xCC }
  - { offsetInCU: 0x55A93, offset: 0x55A93, size: 0x8, addend: 0x0, symName: __ZNSt3__117__compressed_pairIPNS_10shared_ptrIN5memdb9Tokenizer5TokenEEENS_9allocatorIS5_EEE6secondB8ue170006Ev, symObjAddr: 0x90570, symBinAddr: 0x100091E7C, symSize: 0x108 }
  - { offsetInCU: 0x55AB9, offset: 0x55AB9, size: 0x8, addend: 0x0, symName: __ZNSt3__122__compressed_pair_elemINS_9allocatorINS_10shared_ptrIN5memdb9Tokenizer5TokenEEEEELi1ELb1EE5__getB8ue170006Ev, symObjAddr: 0x90678, symBinAddr: 0x100091F84, symSize: 0x74 }
  - { offsetInCU: 0x55ADF, offset: 0x55ADF, size: 0x8, addend: 0x0, symName: __ZNSt3__117__compressed_pairIPNS_10shared_ptrIN5memdb9Tokenizer5TokenEEENS_9allocatorIS5_EEE5firstB8ue170006Ev, symObjAddr: 0x906EC, symBinAddr: 0x100091FF8, symSize: 0x124 }
  - { offsetInCU: 0x55B05, offset: 0x55B05, size: 0x8, addend: 0x0, symName: __ZNSt3__122__compressed_pair_elemIPNS_10shared_ptrIN5memdb9Tokenizer5TokenEEELi0ELb0EE5__getB8ue170006Ev, symObjAddr: 0x90810, symBinAddr: 0x10009211C, symSize: 0xAC }
  - { offsetInCU: 0x55B2B, offset: 0x55B2B, size: 0x8, addend: 0x0, symName: __ZNKSt3__16vectorINS_10shared_ptrIN5memdb9Tokenizer5TokenEEENS_9allocatorIS5_EEE31__annotate_contiguous_containerEPKvSA_SA_SA_, symObjAddr: 0x908BC, symBinAddr: 0x1000921C8, symSize: 0x9C }
  - { offsetInCU: 0x55B8D, offset: 0x55B8D, size: 0x8, addend: 0x0, symName: __ZNKSt3__16vectorINS_10shared_ptrIN5memdb9Tokenizer5TokenEEENS_9allocatorIS5_EEE4dataB8ue170006Ev, symObjAddr: 0x90958, symBinAddr: 0x100092264, symSize: 0xB0 }
  - { offsetInCU: 0x55BB3, offset: 0x55BB3, size: 0x8, addend: 0x0, symName: __ZNKSt3__16vectorINS_10shared_ptrIN5memdb9Tokenizer5TokenEEENS_9allocatorIS5_EEE8capacityB8ue170006Ev, symObjAddr: 0x90A08, symBinAddr: 0x100092314, symSize: 0x144 }
  - { offsetInCU: 0x55BD9, offset: 0x55BD9, size: 0x8, addend: 0x0, symName: __ZNKSt3__16vectorINS_10shared_ptrIN5memdb9Tokenizer5TokenEEENS_9allocatorIS5_EEE9__end_capB8ue170006Ev, symObjAddr: 0x90B60, symBinAddr: 0x10009246C, symSize: 0x100 }
  - { offsetInCU: 0x55BFF, offset: 0x55BFF, size: 0x8, addend: 0x0, symName: __ZNKSt3__117__compressed_pairIPNS_10shared_ptrIN5memdb9Tokenizer5TokenEEENS_9allocatorIS5_EEE5firstB8ue170006Ev, symObjAddr: 0x90C60, symBinAddr: 0x10009256C, symSize: 0x124 }
  - { offsetInCU: 0x55C25, offset: 0x55C25, size: 0x8, addend: 0x0, symName: __ZNKSt3__122__compressed_pair_elemIPNS_10shared_ptrIN5memdb9Tokenizer5TokenEEELi0ELb0EE5__getB8ue170006Ev, symObjAddr: 0x90D84, symBinAddr: 0x100092690, symSize: 0xAC }
  - { offsetInCU: 0x55C69, offset: 0x55C69, size: 0x8, addend: 0x0, symName: __ZNSt3__16vectorINS_10shared_ptrIN5memdb9Tokenizer5TokenEEENS_9allocatorIS5_EEE21_ConstructTransactionC1B8ue170006ERS8_m, symObjAddr: 0x90E30, symBinAddr: 0x10009273C, symSize: 0x88 }
  - { offsetInCU: 0x55CB1, offset: 0x55CB1, size: 0x8, addend: 0x0, symName: __ZNSt3__16vectorINS_10shared_ptrIN5memdb9Tokenizer5TokenEEENS_9allocatorIS5_EEE21_ConstructTransactionD1B8ue170006Ev, symObjAddr: 0x911EC, symBinAddr: 0x100092AF8, symSize: 0x78 }
  - { offsetInCU: 0x55CDB, offset: 0x55CDB, size: 0x8, addend: 0x0, symName: __ZNSt3__16vectorINS_10shared_ptrIN5memdb9Tokenizer5TokenEEENS_9allocatorIS5_EEE21_ConstructTransactionC2B8ue170006ERS8_m, symObjAddr: 0x91264, symBinAddr: 0x100092B70, symSize: 0x3D8 }
  - { offsetInCU: 0x55D23, offset: 0x55D23, size: 0x8, addend: 0x0, symName: __ZNKSt3__16vectorINS_10shared_ptrIN5memdb9Tokenizer5TokenEEENS_9allocatorIS5_EEE19__annotate_increaseB8ue170006Em, symObjAddr: 0x9163C, symBinAddr: 0x100092F48, symSize: 0x44C }
  - { offsetInCU: 0x55D7C, offset: 0x55D7C, size: 0x8, addend: 0x0, symName: __ZNSt3__119__unwrap_range_implIPKNS_10shared_ptrIN5memdb9Tokenizer5TokenEEES7_E8__unwrapB8ue170006ES7_S7_, symObjAddr: 0x92404, symBinAddr: 0x100093D10, symSize: 0x30C }
  - { offsetInCU: 0x55DB5, offset: 0x55DB5, size: 0x8, addend: 0x0, symName: __ZNSt3__14pairIPKNS_10shared_ptrIN5memdb9Tokenizer5TokenEEES7_EC1B8ue170006IS7_S7_LPv0EEEOT_OT0_, symObjAddr: 0x92734, symBinAddr: 0x100094040, symSize: 0x88 }
  - { offsetInCU: 0x55E13, offset: 0x55E13, size: 0x8, addend: 0x0, symName: __ZNSt3__118__unwrap_iter_implIPKNS_10shared_ptrIN5memdb9Tokenizer5TokenEEELb1EE8__unwrapB8ue170006ES7_, symObjAddr: 0x927BC, symBinAddr: 0x1000940C8, symSize: 0x24 }
  - { offsetInCU: 0x55E36, offset: 0x55E36, size: 0x8, addend: 0x0, symName: __ZNSt3__14pairIPKNS_10shared_ptrIN5memdb9Tokenizer5TokenEEES7_EC2B8ue170006IS7_S7_LPv0EEEOT_OT0_, symObjAddr: 0x927F4, symBinAddr: 0x100094100, symSize: 0x210 }
  - { offsetInCU: 0x55E94, offset: 0x55E94, size: 0x8, addend: 0x0, symName: __ZNSt3__129_AllocatorDestroyRangeReverseINS_9allocatorINS_10shared_ptrIN5memdb9Tokenizer5TokenEEEEEPS6_EC1B8ue170006ERS7_RS8_SB_, symObjAddr: 0x92C40, symBinAddr: 0x10009454C, symSize: 0x90 }
  - { offsetInCU: 0x55EEB, offset: 0x55EEB, size: 0x8, addend: 0x0, symName: __ZNSt3__116allocator_traitsINS_9allocatorINS_10shared_ptrIN5memdb9Tokenizer5TokenEEEEEE9constructB8ue170006IS6_JRKS6_EvvEEvRS7_PT_DpOT0_, symObjAddr: 0x92CD0, symBinAddr: 0x1000945DC, symSize: 0x80 }
  - { offsetInCU: 0x55F3F, offset: 0x55F3F, size: 0x8, addend: 0x0, symName: __ZNSt3__128__exception_guard_exceptionsINS_29_AllocatorDestroyRangeReverseINS_9allocatorINS_10shared_ptrIN5memdb9Tokenizer5TokenEEEEEPS7_EEE10__completeB8ue170006Ev, symObjAddr: 0x92D50, symBinAddr: 0x10009465C, symSize: 0xD8 }
  - { offsetInCU: 0x55F65, offset: 0x55F65, size: 0x8, addend: 0x0, symName: __ZNSt3__128__exception_guard_exceptionsINS_29_AllocatorDestroyRangeReverseINS_9allocatorINS_10shared_ptrIN5memdb9Tokenizer5TokenEEEEEPS7_EEED1B8ue170006Ev, symObjAddr: 0x92E28, symBinAddr: 0x100094734, symSize: 0x78 }
  - { offsetInCU: 0x55F8F, offset: 0x55F8F, size: 0x8, addend: 0x0, symName: __ZNSt3__128__exception_guard_exceptionsINS_29_AllocatorDestroyRangeReverseINS_9allocatorINS_10shared_ptrIN5memdb9Tokenizer5TokenEEEEEPS7_EEEC1B8ue170006ESA_, symObjAddr: 0x92EA0, symBinAddr: 0x1000947AC, symSize: 0x84 }
  - { offsetInCU: 0x55FC8, offset: 0x55FC8, size: 0x8, addend: 0x0, symName: __ZNSt3__128__exception_guard_exceptionsINS_29_AllocatorDestroyRangeReverseINS_9allocatorINS_10shared_ptrIN5memdb9Tokenizer5TokenEEEEEPS7_EEEC2B8ue170006ESA_, symObjAddr: 0x92F24, symBinAddr: 0x100094830, symSize: 0xF8 }
  - { offsetInCU: 0x56001, offset: 0x56001, size: 0x8, addend: 0x0, symName: __ZNSt3__129_AllocatorDestroyRangeReverseINS_9allocatorINS_10shared_ptrIN5memdb9Tokenizer5TokenEEEEEPS6_EC2B8ue170006ERS7_RS8_SB_, symObjAddr: 0x9301C, symBinAddr: 0x100094928, symSize: 0x20C }
  - { offsetInCU: 0x56058, offset: 0x56058, size: 0x8, addend: 0x0, symName: __ZNSt3__110shared_ptrIN5memdb9Tokenizer5TokenEEC1B8ue170006ERKS4_, symObjAddr: 0x93338, symBinAddr: 0x100094C44, symSize: 0x80 }
  - { offsetInCU: 0x56091, offset: 0x56091, size: 0x8, addend: 0x0, symName: __ZNSt3__110shared_ptrIN5memdb9Tokenizer5TokenEEC2B8ue170006ERKS4_, symObjAddr: 0x933B8, symBinAddr: 0x100094CC4, symSize: 0x35C }
  - { offsetInCU: 0x560CA, offset: 0x560CA, size: 0x8, addend: 0x0, symName: __ZNSt3__128__exception_guard_exceptionsINS_29_AllocatorDestroyRangeReverseINS_9allocatorINS_10shared_ptrIN5memdb9Tokenizer5TokenEEEEEPS7_EEED2B8ue170006Ev, symObjAddr: 0x93714, symBinAddr: 0x100095020, symSize: 0x17C }
  - { offsetInCU: 0x560F4, offset: 0x560F4, size: 0x8, addend: 0x0, symName: __ZNKSt3__129_AllocatorDestroyRangeReverseINS_9allocatorINS_10shared_ptrIN5memdb9Tokenizer5TokenEEEEEPS6_EclB8ue170006Ev, symObjAddr: 0x93890, symBinAddr: 0x10009519C, symSize: 0x40C }
  - { offsetInCU: 0x5611B, offset: 0x5611B, size: 0x8, addend: 0x0, symName: __ZNSt3__116reverse_iteratorIPNS_10shared_ptrIN5memdb9Tokenizer5TokenEEEEC1B8ue170006ES6_, symObjAddr: 0x93F78, symBinAddr: 0x100095884, symSize: 0x80 }
  - { offsetInCU: 0x56153, offset: 0x56153, size: 0x8, addend: 0x0, symName: __ZNSt3__116allocator_traitsINS_9allocatorINS_10shared_ptrIN5memdb9Tokenizer5TokenEEEEEE7destroyB8ue170006IS6_vvEEvRS7_PT_, symObjAddr: 0x94094, symBinAddr: 0x1000959A0, symSize: 0x28 }
  - { offsetInCU: 0x5618D, offset: 0x5618D, size: 0x8, addend: 0x0, symName: __ZNSt3__116reverse_iteratorIPNS_10shared_ptrIN5memdb9Tokenizer5TokenEEEEppB8ue170006Ev, symObjAddr: 0x94128, symBinAddr: 0x100095A34, symSize: 0x1B0 }
  - { offsetInCU: 0x561B3, offset: 0x561B3, size: 0x8, addend: 0x0, symName: __ZNKSt3__116reverse_iteratorIPNS_10shared_ptrIN5memdb9Tokenizer5TokenEEEE4baseB8ue170006Ev, symObjAddr: 0x942D8, symBinAddr: 0x100095BE4, symSize: 0xB0 }
  - { offsetInCU: 0x561DF, offset: 0x561DF, size: 0x8, addend: 0x0, symName: __ZNSt3__119__to_address_helperINS_16reverse_iteratorIPNS_10shared_ptrIN5memdb9Tokenizer5TokenEEEEEvE6__callB8ue170006ERKS8_, symObjAddr: 0x94418, symBinAddr: 0x100095D24, symSize: 0x70 }
  - { offsetInCU: 0x56202, offset: 0x56202, size: 0x8, addend: 0x0, symName: __ZNKSt3__116reverse_iteratorIPNS_10shared_ptrIN5memdb9Tokenizer5TokenEEEEptB8ue170006Ev, symObjAddr: 0x94488, symBinAddr: 0x100095D94, symSize: 0xB8 }
  - { offsetInCU: 0x56228, offset: 0x56228, size: 0x8, addend: 0x0, symName: __ZNSt3__116reverse_iteratorIPNS_10shared_ptrIN5memdb9Tokenizer5TokenEEEEC2B8ue170006ES6_, symObjAddr: 0x949CC, symBinAddr: 0x1000962D8, symSize: 0x10C }
  - { offsetInCU: 0x56260, offset: 0x56260, size: 0x8, addend: 0x0, symName: __ZNSt3__118__unwrap_iter_implIPNS_10shared_ptrIN5memdb9Tokenizer5TokenEEELb1EE8__unwrapB8ue170006ES6_, symObjAddr: 0x94AD8, symBinAddr: 0x1000963E4, symSize: 0x24 }
  - { offsetInCU: 0x56283, offset: 0x56283, size: 0x8, addend: 0x0, symName: __ZNSt3__118__unwrap_iter_implIPNS_10shared_ptrIN5memdb9Tokenizer5TokenEEELb1EE8__rewrapB8ue170006ES6_S6_, symObjAddr: 0x94AFC, symBinAddr: 0x100096408, symSize: 0x13C }
  - { offsetInCU: 0x562B4, offset: 0x562B4, size: 0x8, addend: 0x0, symName: __ZNSt3__16vectorINS_10shared_ptrIN5memdb9Tokenizer5TokenEEENS_9allocatorIS5_EEE21_ConstructTransactionD2B8ue170006Ev, symObjAddr: 0x94C38, symBinAddr: 0x100096544, symSize: 0x390 }
  - { offsetInCU: 0x562DE, offset: 0x562DE, size: 0x8, addend: 0x0, symName: __ZNKSt3__16vectorINS_10shared_ptrIN5memdb9Tokenizer5TokenEEENS_9allocatorIS5_EEE17__annotate_shrinkB8ue170006Em, symObjAddr: 0x94FC8, symBinAddr: 0x1000968D4, symSize: 0x360 }
  - { offsetInCU: 0x56313, offset: 0x56313, size: 0x8, addend: 0x0, symName: __ZNSt3__128__exception_guard_exceptionsINS_6vectorINS_10shared_ptrIN5memdb9Tokenizer5TokenEEENS_9allocatorIS6_EEE16__destroy_vectorEED2B8ue170006Ev, symObjAddr: 0x95328, symBinAddr: 0x100096C34, symSize: 0x17C }
  - { offsetInCU: 0x5633D, offset: 0x5633D, size: 0x8, addend: 0x0, symName: __ZNSt3__16vectorINS_10shared_ptrIN5memdb9Tokenizer5TokenEEENS_9allocatorIS5_EEE16__destroy_vectorclB8ue170006Ev, symObjAddr: 0x954A4, symBinAddr: 0x100096DB0, symSize: 0x43C }
  - { offsetInCU: 0x56363, offset: 0x56363, size: 0x8, addend: 0x0, symName: __ZNSt3__16vectorINS_10shared_ptrIN5memdb9Tokenizer5TokenEEENS_9allocatorIS5_EEE7__clearB8ue170006Ev, symObjAddr: 0x958E0, symBinAddr: 0x1000971EC, symSize: 0xB0 }
  - { offsetInCU: 0x56389, offset: 0x56389, size: 0x8, addend: 0x0, symName: __ZNKSt3__16vectorINS_10shared_ptrIN5memdb9Tokenizer5TokenEEENS_9allocatorIS5_EEE17__annotate_deleteB8ue170006Ev, symObjAddr: 0x95990, symBinAddr: 0x10009729C, symSize: 0x370 }
  - { offsetInCU: 0x563AF, offset: 0x563AF, size: 0x8, addend: 0x0, symName: __ZNSt3__116allocator_traitsINS_9allocatorINS_10shared_ptrIN5memdb9Tokenizer5TokenEEEEEE10deallocateB8ue170006ERS7_PS6_m, symObjAddr: 0x95D00, symBinAddr: 0x10009760C, symSize: 0x34 }
  - { offsetInCU: 0x563F1, offset: 0x563F1, size: 0x8, addend: 0x0, symName: __ZNSt3__16vectorINS_10shared_ptrIN5memdb9Tokenizer5TokenEEENS_9allocatorIS5_EEE22__base_destruct_at_endB8ue170006EPS5_, symObjAddr: 0x95D34, symBinAddr: 0x100097640, symSize: 0x1FC }
  - { offsetInCU: 0x56435, offset: 0x56435, size: 0x8, addend: 0x0, symName: __ZNSt3__19allocatorINS_10shared_ptrIN5memdb9Tokenizer5TokenEEEE10deallocateB8ue170006EPS5_m, symObjAddr: 0x95F30, symBinAddr: 0x10009783C, symSize: 0x78 }
  - { offsetInCU: 0x56477, offset: 0x56477, size: 0x8, addend: 0x0, symName: __ZNSt3__16vectorINS_10shared_ptrIN5memdb9Tokenizer5TokenEEENS_9allocatorIS5_EEEC1B8ue170006Ev, symObjAddr: 0x95FA8, symBinAddr: 0x1000978B4, symSize: 0x78 }
  - { offsetInCU: 0x564A1, offset: 0x564A1, size: 0x8, addend: 0x0, symName: __ZNSt3__16vectorINS_10shared_ptrIN5memdb9Tokenizer5TokenEEENS_9allocatorIS5_EEE5beginB8ue170006Ev, symObjAddr: 0x96020, symBinAddr: 0x10009792C, symSize: 0x2B0 }
  - { offsetInCU: 0x564CA, offset: 0x564CA, size: 0x8, addend: 0x0, symName: __ZNSt3__16vectorINS_10shared_ptrIN5memdb9Tokenizer5TokenEEENS_9allocatorIS5_EEE3endB8ue170006Ev, symObjAddr: 0x962D0, symBinAddr: 0x100097BDC, symSize: 0x2B4 }
  - { offsetInCU: 0x564F3, offset: 0x564F3, size: 0x8, addend: 0x0, symName: __ZNKSt3__111__wrap_iterIPNS_10shared_ptrIN5memdb9Tokenizer5TokenEEEEdeB8ue170006Ev, symObjAddr: 0x96648, symBinAddr: 0x100097F54, symSize: 0xF4 }
  - { offsetInCU: 0x56519, offset: 0x56519, size: 0x8, addend: 0x0, symName: __ZNKSt3__110shared_ptrIN5memdb9Tokenizer5TokenEEptB8ue170006Ev, symObjAddr: 0x9673C, symBinAddr: 0x100098048, symSize: 0xAC }
  - { offsetInCU: 0x5653F, offset: 0x5653F, size: 0x8, addend: 0x0, symName: __ZNSt3__16vectorINS_10shared_ptrIN5memdb9Tokenizer5TokenEEENS_9allocatorIS5_EEE9push_backB8ue170006EOS5_, symObjAddr: 0x967E8, symBinAddr: 0x1000980F4, symSize: 0x1FC }
  - { offsetInCU: 0x56576, offset: 0x56576, size: 0x8, addend: 0x0, symName: __ZNSt3__111__wrap_iterIPNS_10shared_ptrIN5memdb9Tokenizer5TokenEEEEppB8ue170006Ev, symObjAddr: 0x969E4, symBinAddr: 0x1000982F0, symSize: 0x1A8 }
  - { offsetInCU: 0x5659C, offset: 0x5659C, size: 0x8, addend: 0x0, symName: __ZNSt3__16vectorINS_10shared_ptrIN5memdb9Tokenizer5TokenEEENS_9allocatorIS5_EEEC2B8ue170006Ev, symObjAddr: 0x96B8C, symBinAddr: 0x100098498, symSize: 0x340 }
  - { offsetInCU: 0x565C7, offset: 0x565C7, size: 0x8, addend: 0x0, symName: __ZNSt3__16vectorINS_10shared_ptrIN5memdb9Tokenizer5TokenEEENS_9allocatorIS5_EEE11__make_iterB8ue170006EPS5_, symObjAddr: 0x96ECC, symBinAddr: 0x1000987D8, symSize: 0x244 }
  - { offsetInCU: 0x565FE, offset: 0x565FE, size: 0x8, addend: 0x0, symName: __ZNSt3__111__wrap_iterIPNS_10shared_ptrIN5memdb9Tokenizer5TokenEEEEC1B8ue170006ES6_, symObjAddr: 0x97110, symBinAddr: 0x100098A1C, symSize: 0x80 }
  - { offsetInCU: 0x56636, offset: 0x56636, size: 0x8, addend: 0x0, symName: __ZNSt3__111__wrap_iterIPNS_10shared_ptrIN5memdb9Tokenizer5TokenEEEEC2B8ue170006ES6_, symObjAddr: 0x97190, symBinAddr: 0x100098A9C, symSize: 0xC8 }
  - { offsetInCU: 0x5666E, offset: 0x5666E, size: 0x8, addend: 0x0, symName: __ZNKSt3__111__wrap_iterIPNS_10shared_ptrIN5memdb9Tokenizer5TokenEEEE4baseB8ue170006Ev, symObjAddr: 0x972F4, symBinAddr: 0x100098C00, symSize: 0xAC }
  - { offsetInCU: 0x56694, offset: 0x56694, size: 0x8, addend: 0x0, symName: __ZNSt3__16vectorINS_10shared_ptrIN5memdb9Tokenizer5TokenEEENS_9allocatorIS5_EEE22__construct_one_at_endB8ue170006IJS5_EEEvDpOT_, symObjAddr: 0x973A0, symBinAddr: 0x100098CAC, symSize: 0x550 }
  - { offsetInCU: 0x566E9, offset: 0x566E9, size: 0x8, addend: 0x0, symName: __ZNSt3__16vectorINS_10shared_ptrIN5memdb9Tokenizer5TokenEEENS_9allocatorIS5_EEE21__push_back_slow_pathIS5_EEvOT_, symObjAddr: 0x978F0, symBinAddr: 0x1000991FC, symSize: 0x5B0 }
  - { offsetInCU: 0x5674E, offset: 0x5674E, size: 0x8, addend: 0x0, symName: __ZNSt3__116allocator_traitsINS_9allocatorINS_10shared_ptrIN5memdb9Tokenizer5TokenEEEEEE9constructB8ue170006IS6_JS6_EvvEEvRS7_PT_DpOT0_, symObjAddr: 0x97EA0, symBinAddr: 0x1000997AC, symSize: 0x80 }
  - { offsetInCU: 0x567A2, offset: 0x567A2, size: 0x8, addend: 0x0, symName: __ZNSt3__110shared_ptrIN5memdb9Tokenizer5TokenEEC1B8ue170006EOS4_, symObjAddr: 0x98030, symBinAddr: 0x10009993C, symSize: 0x80 }
  - { offsetInCU: 0x567DB, offset: 0x567DB, size: 0x8, addend: 0x0, symName: __ZNSt3__110shared_ptrIN5memdb9Tokenizer5TokenEEC2B8ue170006EOS4_, symObjAddr: 0x980B0, symBinAddr: 0x1000999BC, symSize: 0x2BC }
  - { offsetInCU: 0x56814, offset: 0x56814, size: 0x8, addend: 0x0, symName: __ZNKSt3__16vectorINS_10shared_ptrIN5memdb9Tokenizer5TokenEEENS_9allocatorIS5_EEE11__recommendB8ue170006Em, symObjAddr: 0x9836C, symBinAddr: 0x100099C78, symSize: 0x45C }
  - { offsetInCU: 0x56870, offset: 0x56870, size: 0x8, addend: 0x0, symName: __ZNSt3__114__split_bufferINS_10shared_ptrIN5memdb9Tokenizer5TokenEEERNS_9allocatorIS5_EEEC1EmmS8_, symObjAddr: 0x987C8, symBinAddr: 0x10009A0D4, symSize: 0x90 }
  - { offsetInCU: 0x568C6, offset: 0x568C6, size: 0x8, addend: 0x0, symName: __ZNSt3__114__split_bufferINS_10shared_ptrIN5memdb9Tokenizer5TokenEEERNS_9allocatorIS5_EEED1Ev, symObjAddr: 0x990B4, symBinAddr: 0x10009A9C0, symSize: 0x78 }
  - { offsetInCU: 0x568F2, offset: 0x568F2, size: 0x8, addend: 0x0, symName: __ZNSt3__114__split_bufferINS_10shared_ptrIN5memdb9Tokenizer5TokenEEERNS_9allocatorIS5_EEEC2EmmS8_, symObjAddr: 0x9912C, symBinAddr: 0x10009AA38, symSize: 0x7D8 }
  - { offsetInCU: 0x5696D, offset: 0x5696D, size: 0x8, addend: 0x0, symName: __ZNSt3__117__compressed_pairIPNS_10shared_ptrIN5memdb9Tokenizer5TokenEEERNS_9allocatorIS5_EEEC1B8ue170006IDnS9_EEOT_OT0_, symObjAddr: 0x99904, symBinAddr: 0x10009B210, symSize: 0x88 }
  - { offsetInCU: 0x569C5, offset: 0x569C5, size: 0x8, addend: 0x0, symName: __ZNSt3__114__split_bufferINS_10shared_ptrIN5memdb9Tokenizer5TokenEEERNS_9allocatorIS5_EEE7__allocB8ue170006Ev, symObjAddr: 0x9998C, symBinAddr: 0x10009B298, symSize: 0xE4 }
  - { offsetInCU: 0x569EB, offset: 0x569EB, size: 0x8, addend: 0x0, symName: __ZNSt3__114__split_bufferINS_10shared_ptrIN5memdb9Tokenizer5TokenEEERNS_9allocatorIS5_EEE9__end_capB8ue170006Ev, symObjAddr: 0x99A70, symBinAddr: 0x10009B37C, symSize: 0x100 }
  - { offsetInCU: 0x56A11, offset: 0x56A11, size: 0x8, addend: 0x0, symName: __ZNSt3__117__compressed_pairIPNS_10shared_ptrIN5memdb9Tokenizer5TokenEEERNS_9allocatorIS5_EEEC2B8ue170006IDnS9_EEOT_OT0_, symObjAddr: 0x99B70, symBinAddr: 0x10009B47C, symSize: 0x198 }
  - { offsetInCU: 0x56A69, offset: 0x56A69, size: 0x8, addend: 0x0, symName: __ZNSt3__122__compressed_pair_elemIRNS_9allocatorINS_10shared_ptrIN5memdb9Tokenizer5TokenEEEEELi1ELb0EEC2B8ue170006IS8_vEEOT_, symObjAddr: 0x99D08, symBinAddr: 0x10009B614, symSize: 0xEC }
  - { offsetInCU: 0x56AAB, offset: 0x56AAB, size: 0x8, addend: 0x0, symName: __ZNSt3__117__compressed_pairIPNS_10shared_ptrIN5memdb9Tokenizer5TokenEEERNS_9allocatorIS5_EEE6secondB8ue170006Ev, symObjAddr: 0x99DF4, symBinAddr: 0x10009B700, symSize: 0x110 }
  - { offsetInCU: 0x56AD1, offset: 0x56AD1, size: 0x8, addend: 0x0, symName: __ZNSt3__122__compressed_pair_elemIRNS_9allocatorINS_10shared_ptrIN5memdb9Tokenizer5TokenEEEEELi1ELb0EE5__getB8ue170006Ev, symObjAddr: 0x99F04, symBinAddr: 0x10009B810, symSize: 0xD8 }
  - { offsetInCU: 0x56AF7, offset: 0x56AF7, size: 0x8, addend: 0x0, symName: __ZNSt3__117__compressed_pairIPNS_10shared_ptrIN5memdb9Tokenizer5TokenEEERNS_9allocatorIS5_EEE5firstB8ue170006Ev, symObjAddr: 0x99FDC, symBinAddr: 0x10009B8E8, symSize: 0x124 }
  - { offsetInCU: 0x56B1D, offset: 0x56B1D, size: 0x8, addend: 0x0, symName: __ZNSt3__129_AllocatorDestroyRangeReverseINS_9allocatorINS_10shared_ptrIN5memdb9Tokenizer5TokenEEEEENS_16reverse_iteratorIPS6_EEEC1B8ue170006ERS7_RSA_SD_, symObjAddr: 0x9AACC, symBinAddr: 0x10009C3D8, symSize: 0x90 }
  - { offsetInCU: 0x56B74, offset: 0x56B74, size: 0x8, addend: 0x0, symName: __ZNKSt3__116reverse_iteratorIPNS_10shared_ptrIN5memdb9Tokenizer5TokenEEEEdeB8ue170006Ev, symObjAddr: 0x9AB5C, symBinAddr: 0x10009C468, symSize: 0x184 }
  - { offsetInCU: 0x56BA8, offset: 0x56BA8, size: 0x8, addend: 0x0, symName: __ZNSt3__128__exception_guard_exceptionsINS_29_AllocatorDestroyRangeReverseINS_9allocatorINS_10shared_ptrIN5memdb9Tokenizer5TokenEEEEENS_16reverse_iteratorIPS7_EEEEE10__completeB8ue170006Ev, symObjAddr: 0x9ACE0, symBinAddr: 0x10009C5EC, symSize: 0xD8 }
  - { offsetInCU: 0x56BCE, offset: 0x56BCE, size: 0x8, addend: 0x0, symName: __ZNSt3__128__exception_guard_exceptionsINS_29_AllocatorDestroyRangeReverseINS_9allocatorINS_10shared_ptrIN5memdb9Tokenizer5TokenEEEEENS_16reverse_iteratorIPS7_EEEEED1B8ue170006Ev, symObjAddr: 0x9ADB8, symBinAddr: 0x10009C6C4, symSize: 0x78 }
  - { offsetInCU: 0x56BF8, offset: 0x56BF8, size: 0x8, addend: 0x0, symName: __ZNSt3__128__exception_guard_exceptionsINS_29_AllocatorDestroyRangeReverseINS_9allocatorINS_10shared_ptrIN5memdb9Tokenizer5TokenEEEEENS_16reverse_iteratorIPS7_EEEEEC1B8ue170006ESC_, symObjAddr: 0x9AE30, symBinAddr: 0x10009C73C, symSize: 0x84 }
  - { offsetInCU: 0x56C31, offset: 0x56C31, size: 0x8, addend: 0x0, symName: __ZNSt3__128__exception_guard_exceptionsINS_29_AllocatorDestroyRangeReverseINS_9allocatorINS_10shared_ptrIN5memdb9Tokenizer5TokenEEEEENS_16reverse_iteratorIPS7_EEEEEC2B8ue170006ESC_, symObjAddr: 0x9AEB4, symBinAddr: 0x10009C7C0, symSize: 0xF8 }
  - { offsetInCU: 0x56C6A, offset: 0x56C6A, size: 0x8, addend: 0x0, symName: __ZNSt3__129_AllocatorDestroyRangeReverseINS_9allocatorINS_10shared_ptrIN5memdb9Tokenizer5TokenEEEEENS_16reverse_iteratorIPS6_EEEC2B8ue170006ERS7_RSA_SD_, symObjAddr: 0x9AFAC, symBinAddr: 0x10009C8B8, symSize: 0x20C }
  - { offsetInCU: 0x56CC1, offset: 0x56CC1, size: 0x8, addend: 0x0, symName: __ZNSt3__128__exception_guard_exceptionsINS_29_AllocatorDestroyRangeReverseINS_9allocatorINS_10shared_ptrIN5memdb9Tokenizer5TokenEEEEENS_16reverse_iteratorIPS7_EEEEED2B8ue170006Ev, symObjAddr: 0x9B1B8, symBinAddr: 0x10009CAC4, symSize: 0x17C }
  - { offsetInCU: 0x56CEB, offset: 0x56CEB, size: 0x8, addend: 0x0, symName: __ZNKSt3__129_AllocatorDestroyRangeReverseINS_9allocatorINS_10shared_ptrIN5memdb9Tokenizer5TokenEEEEENS_16reverse_iteratorIPS6_EEEclB8ue170006Ev, symObjAddr: 0x9B334, symBinAddr: 0x10009CC40, symSize: 0x418 }
  - { offsetInCU: 0x56D12, offset: 0x56D12, size: 0x8, addend: 0x0, symName: __ZNSt3__116reverse_iteratorINS0_IPNS_10shared_ptrIN5memdb9Tokenizer5TokenEEEEEEC1B8ue170006ES7_, symObjAddr: 0x9B8F0, symBinAddr: 0x10009D1FC, symSize: 0x29C }
  - { offsetInCU: 0x56D4F, offset: 0x56D4F, size: 0x8, addend: 0x0, symName: __ZNSt3__116reverse_iteratorINS0_IPNS_10shared_ptrIN5memdb9Tokenizer5TokenEEEEEEppB8ue170006Ev, symObjAddr: 0x9BF1C, symBinAddr: 0x10009D828, symSize: 0x100 }
  - { offsetInCU: 0x56D75, offset: 0x56D75, size: 0x8, addend: 0x0, symName: __ZNKSt3__116reverse_iteratorINS0_IPNS_10shared_ptrIN5memdb9Tokenizer5TokenEEEEEE4baseB8ue170006Ev, symObjAddr: 0x9C01C, symBinAddr: 0x10009D928, symSize: 0x258 }
  - { offsetInCU: 0x56DA2, offset: 0x56DA2, size: 0x8, addend: 0x0, symName: __ZNSt3__119__to_address_helperINS_16reverse_iteratorINS1_IPNS_10shared_ptrIN5memdb9Tokenizer5TokenEEEEEEEvE6__callB8ue170006ERKS9_, symObjAddr: 0x9C274, symBinAddr: 0x10009DB80, symSize: 0x70 }
  - { offsetInCU: 0x56DC5, offset: 0x56DC5, size: 0x8, addend: 0x0, symName: __ZNKSt3__116reverse_iteratorINS0_IPNS_10shared_ptrIN5memdb9Tokenizer5TokenEEEEEEptB8ue170006Ev, symObjAddr: 0x9C2E4, symBinAddr: 0x10009DBF0, symSize: 0x2F0 }
  - { offsetInCU: 0x56DEC, offset: 0x56DEC, size: 0x8, addend: 0x0, symName: __ZNSt3__116reverse_iteratorIPNS_10shared_ptrIN5memdb9Tokenizer5TokenEEEEpLB8ue170006El, symObjAddr: 0x9C994, symBinAddr: 0x10009E2A0, symSize: 0x238 }
  - { offsetInCU: 0x56E20, offset: 0x56E20, size: 0x8, addend: 0x0, symName: __ZNSt3__116reverse_iteratorIPNS_10shared_ptrIN5memdb9Tokenizer5TokenEEEEmmB8ue170006Ev, symObjAddr: 0x9CBCC, symBinAddr: 0x10009E4D8, symSize: 0x1B0 }
  - { offsetInCU: 0x56E46, offset: 0x56E46, size: 0x8, addend: 0x0, symName: __ZNSt3__116reverse_iteratorINS0_IPNS_10shared_ptrIN5memdb9Tokenizer5TokenEEEEEEC2B8ue170006ES7_, symObjAddr: 0x9CD7C, symBinAddr: 0x10009E688, symSize: 0x284 }
  - { offsetInCU: 0x56E83, offset: 0x56E83, size: 0x8, addend: 0x0, symName: __ZNSt3__114__split_bufferINS_10shared_ptrIN5memdb9Tokenizer5TokenEEERNS_9allocatorIS5_EEED2Ev, symObjAddr: 0x9D000, symBinAddr: 0x10009E90C, symSize: 0x16C }
  - { offsetInCU: 0x56EAF, offset: 0x56EAF, size: 0x8, addend: 0x0, symName: __ZNSt3__114__split_bufferINS_10shared_ptrIN5memdb9Tokenizer5TokenEEERNS_9allocatorIS5_EEE5clearB8ue170006Ev, symObjAddr: 0x9D16C, symBinAddr: 0x10009EA78, symSize: 0xB4 }
  - { offsetInCU: 0x56ED5, offset: 0x56ED5, size: 0x8, addend: 0x0, symName: __ZNKSt3__114__split_bufferINS_10shared_ptrIN5memdb9Tokenizer5TokenEEERNS_9allocatorIS5_EEE8capacityB8ue170006Ev, symObjAddr: 0x9D220, symBinAddr: 0x10009EB2C, symSize: 0x144 }
  - { offsetInCU: 0x56EFB, offset: 0x56EFB, size: 0x8, addend: 0x0, symName: __ZNSt3__114__split_bufferINS_10shared_ptrIN5memdb9Tokenizer5TokenEEERNS_9allocatorIS5_EEE17__destruct_at_endB8ue170006EPS5_, symObjAddr: 0x9D364, symBinAddr: 0x10009EC70, symSize: 0x74 }
  - { offsetInCU: 0x56F2F, offset: 0x56F2F, size: 0x8, addend: 0x0, symName: __ZNSt3__114__split_bufferINS_10shared_ptrIN5memdb9Tokenizer5TokenEEERNS_9allocatorIS5_EEE17__destruct_at_endB8ue170006EPS5_NS_17integral_constantIbLb0EEE, symObjAddr: 0x9D3D8, symBinAddr: 0x10009ECE4, symSize: 0x224 }
  - { offsetInCU: 0x56F6F, offset: 0x56F6F, size: 0x8, addend: 0x0, symName: __ZNKSt3__114__split_bufferINS_10shared_ptrIN5memdb9Tokenizer5TokenEEERNS_9allocatorIS5_EEE9__end_capB8ue170006Ev, symObjAddr: 0x9D5FC, symBinAddr: 0x10009EF08, symSize: 0x100 }
  - { offsetInCU: 0x56F95, offset: 0x56F95, size: 0x8, addend: 0x0, symName: __ZNKSt3__117__compressed_pairIPNS_10shared_ptrIN5memdb9Tokenizer5TokenEEERNS_9allocatorIS5_EEE5firstB8ue170006Ev, symObjAddr: 0x9D6FC, symBinAddr: 0x10009F008, symSize: 0x124 }
  - { offsetInCU: 0x56FBB, offset: 0x56FBB, size: 0x8, addend: 0x0, symName: __ZNSt3__16vectorINS_12basic_stringIcNS_11char_traitsIcEENS_9allocatorIcEEEENS4_IS6_EEEC2ERKS8_, symObjAddr: 0x9D820, symBinAddr: 0x10009F12C, symSize: 0x4C0 }
  - { offsetInCU: 0x56FF8, offset: 0x56FF8, size: 0x8, addend: 0x0, symName: __ZNSt3__116allocator_traitsINS_9allocatorINS_12basic_stringIcNS_11char_traitsIcEENS1_IcEEEEEEE37select_on_container_copy_constructionB8ue170006IS7_vvEES7_RKS7_, symObjAddr: 0x9DCE0, symBinAddr: 0x10009F5EC, symSize: 0x10 }
  - { offsetInCU: 0x5702D, offset: 0x5702D, size: 0x8, addend: 0x0, symName: __ZNSt3__117__compressed_pairIPNS_12basic_stringIcNS_11char_traitsIcEENS_9allocatorIcEEEENS4_IS6_EEEC1B8ue170006IDnS8_EEOT_OT0_, symObjAddr: 0x9DCF0, symBinAddr: 0x10009F5FC, symSize: 0x88 }
  - { offsetInCU: 0x57085, offset: 0x57085, size: 0x8, addend: 0x0, symName: __ZNSt3__16vectorINS_12basic_stringIcNS_11char_traitsIcEENS_9allocatorIcEEEENS4_IS6_EEE16__init_with_sizeB8ue170006IPS6_SA_EEvT_T0_m, symObjAddr: 0x9DD78, symBinAddr: 0x10009F684, symSize: 0x3EC }
  - { offsetInCU: 0x57101, offset: 0x57101, size: 0x8, addend: 0x0, symName: __ZNSt3__117__compressed_pairIPNS_12basic_stringIcNS_11char_traitsIcEENS_9allocatorIcEEEENS4_IS6_EEEC2B8ue170006IDnS8_EEOT_OT0_, symObjAddr: 0x9E164, symBinAddr: 0x10009FA70, symSize: 0x170 }
  - { offsetInCU: 0x57159, offset: 0x57159, size: 0x8, addend: 0x0, symName: __ZNSt3__122__compressed_pair_elemINS_9allocatorINS_12basic_stringIcNS_11char_traitsIcEENS1_IcEEEEEELi1ELb1EEC2B8ue170006IS7_vEEOT_, symObjAddr: 0x9E2D4, symBinAddr: 0x10009FBE0, symSize: 0x58 }
  - { offsetInCU: 0x5719B, offset: 0x5719B, size: 0x8, addend: 0x0, symName: __ZNSt3__16vectorINS_12basic_stringIcNS_11char_traitsIcEENS_9allocatorIcEEEENS4_IS6_EEE16__destroy_vectorC1B8ue170006ERS8_, symObjAddr: 0x9E5E8, symBinAddr: 0x10009FEF4, symSize: 0x80 }
  - { offsetInCU: 0x571D4, offset: 0x571D4, size: 0x8, addend: 0x0, symName: __ZNSt3__16vectorINS_12basic_stringIcNS_11char_traitsIcEENS_9allocatorIcEEEENS4_IS6_EEE11__vallocateB8ue170006Em, symObjAddr: 0x9E668, symBinAddr: 0x10009FF74, symSize: 0x5F0 }
  - { offsetInCU: 0x5721E, offset: 0x5721E, size: 0x8, addend: 0x0, symName: __ZNSt3__16vectorINS_12basic_stringIcNS_11char_traitsIcEENS_9allocatorIcEEEENS4_IS6_EEE18__construct_at_endIPS6_SA_EEvT_T0_m, symObjAddr: 0x9EC58, symBinAddr: 0x1000A0564, symSize: 0x494 }
  - { offsetInCU: 0x5729C, offset: 0x5729C, size: 0x8, addend: 0x0, symName: __ZNSt3__128__exception_guard_exceptionsINS_6vectorINS_12basic_stringIcNS_11char_traitsIcEENS_9allocatorIcEEEENS5_IS7_EEE16__destroy_vectorEE10__completeB8ue170006Ev, symObjAddr: 0x9F0EC, symBinAddr: 0x1000A09F8, symSize: 0xD8 }
  - { offsetInCU: 0x572C2, offset: 0x572C2, size: 0x8, addend: 0x0, symName: __ZNSt3__128__exception_guard_exceptionsINS_6vectorINS_12basic_stringIcNS_11char_traitsIcEENS_9allocatorIcEEEENS5_IS7_EEE16__destroy_vectorEED1B8ue170006Ev, symObjAddr: 0x9F1C4, symBinAddr: 0x1000A0AD0, symSize: 0x78 }
  - { offsetInCU: 0x572EC, offset: 0x572EC, size: 0x8, addend: 0x0, symName: __ZNSt3__128__exception_guard_exceptionsINS_6vectorINS_12basic_stringIcNS_11char_traitsIcEENS_9allocatorIcEEEENS5_IS7_EEE16__destroy_vectorEEC1B8ue170006ESA_, symObjAddr: 0x9F23C, symBinAddr: 0x1000A0B48, symSize: 0x28C }
  - { offsetInCU: 0x57329, offset: 0x57329, size: 0x8, addend: 0x0, symName: __ZNSt3__128__exception_guard_exceptionsINS_6vectorINS_12basic_stringIcNS_11char_traitsIcEENS_9allocatorIcEEEENS5_IS7_EEE16__destroy_vectorEEC2B8ue170006ESA_, symObjAddr: 0x9F4C8, symBinAddr: 0x1000A0DD4, symSize: 0x2BC }
  - { offsetInCU: 0x57366, offset: 0x57366, size: 0x8, addend: 0x0, symName: __ZNSt3__16vectorINS_12basic_stringIcNS_11char_traitsIcEENS_9allocatorIcEEEENS4_IS6_EEE16__destroy_vectorC2B8ue170006ERS8_, symObjAddr: 0x9F784, symBinAddr: 0x1000A1090, symSize: 0x108 }
  - { offsetInCU: 0x573C3, offset: 0x573C3, size: 0x8, addend: 0x0, symName: __ZNSt3__119__unwrap_range_implIPNS_12basic_stringIcNS_11char_traitsIcEENS_9allocatorIcEEEES7_E8__unwrapB8ue170006ES7_S7_, symObjAddr: 0xA053C, symBinAddr: 0x1000A1E48, symSize: 0x30C }
  - { offsetInCU: 0x573FC, offset: 0x573FC, size: 0x8, addend: 0x0, symName: __ZNSt3__14pairIPNS_12basic_stringIcNS_11char_traitsIcEENS_9allocatorIcEEEES7_EC1B8ue170006IS7_S7_LPv0EEEOT_OT0_, symObjAddr: 0xA0848, symBinAddr: 0x1000A2154, symSize: 0x88 }
  - { offsetInCU: 0x5745A, offset: 0x5745A, size: 0x8, addend: 0x0, symName: __ZNSt3__14pairIPNS_12basic_stringIcNS_11char_traitsIcEENS_9allocatorIcEEEES7_EC2B8ue170006IS7_S7_LPv0EEEOT_OT0_, symObjAddr: 0xA08D0, symBinAddr: 0x1000A21DC, symSize: 0x210 }
  - { offsetInCU: 0x574B8, offset: 0x574B8, size: 0x8, addend: 0x0, symName: __ZNSt3__129_AllocatorDestroyRangeReverseINS_9allocatorINS_12basic_stringIcNS_11char_traitsIcEENS1_IcEEEEEEPS6_EC1B8ue170006ERS7_RS8_SB_, symObjAddr: 0xA0D1C, symBinAddr: 0x1000A2628, symSize: 0x90 }
  - { offsetInCU: 0x5750F, offset: 0x5750F, size: 0x8, addend: 0x0, symName: __ZNSt3__116allocator_traitsINS_9allocatorINS_12basic_stringIcNS_11char_traitsIcEENS1_IcEEEEEEE9constructB8ue170006IS6_JRS6_EvvEEvRS7_PT_DpOT0_, symObjAddr: 0xA0DAC, symBinAddr: 0x1000A26B8, symSize: 0x80 }
  - { offsetInCU: 0x57563, offset: 0x57563, size: 0x8, addend: 0x0, symName: __ZNSt3__128__exception_guard_exceptionsINS_29_AllocatorDestroyRangeReverseINS_9allocatorINS_12basic_stringIcNS_11char_traitsIcEENS2_IcEEEEEEPS7_EEE10__completeB8ue170006Ev, symObjAddr: 0xA0E2C, symBinAddr: 0x1000A2738, symSize: 0xD8 }
  - { offsetInCU: 0x57589, offset: 0x57589, size: 0x8, addend: 0x0, symName: __ZNSt3__128__exception_guard_exceptionsINS_29_AllocatorDestroyRangeReverseINS_9allocatorINS_12basic_stringIcNS_11char_traitsIcEENS2_IcEEEEEEPS7_EEED1B8ue170006Ev, symObjAddr: 0xA0F04, symBinAddr: 0x1000A2810, symSize: 0x78 }
  - { offsetInCU: 0x575B3, offset: 0x575B3, size: 0x8, addend: 0x0, symName: __ZNSt3__128__exception_guard_exceptionsINS_29_AllocatorDestroyRangeReverseINS_9allocatorINS_12basic_stringIcNS_11char_traitsIcEENS2_IcEEEEEEPS7_EEEC1B8ue170006ESA_, symObjAddr: 0xA0F7C, symBinAddr: 0x1000A2888, symSize: 0x84 }
  - { offsetInCU: 0x575EC, offset: 0x575EC, size: 0x8, addend: 0x0, symName: __ZNSt3__128__exception_guard_exceptionsINS_29_AllocatorDestroyRangeReverseINS_9allocatorINS_12basic_stringIcNS_11char_traitsIcEENS2_IcEEEEEEPS7_EEEC2B8ue170006ESA_, symObjAddr: 0xA1000, symBinAddr: 0x1000A290C, symSize: 0xF8 }
  - { offsetInCU: 0x57625, offset: 0x57625, size: 0x8, addend: 0x0, symName: __ZNSt3__129_AllocatorDestroyRangeReverseINS_9allocatorINS_12basic_stringIcNS_11char_traitsIcEENS1_IcEEEEEEPS6_EC2B8ue170006ERS7_RS8_SB_, symObjAddr: 0xA10F8, symBinAddr: 0x1000A2A04, symSize: 0x20C }
  - { offsetInCU: 0x5767C, offset: 0x5767C, size: 0x8, addend: 0x0, symName: __ZNSt3__128__exception_guard_exceptionsINS_29_AllocatorDestroyRangeReverseINS_9allocatorINS_12basic_stringIcNS_11char_traitsIcEENS2_IcEEEEEEPS7_EEED2B8ue170006Ev, symObjAddr: 0xA1414, symBinAddr: 0x1000A2D20, symSize: 0x17C }
  - { offsetInCU: 0x576A6, offset: 0x576A6, size: 0x8, addend: 0x0, symName: __ZNKSt3__129_AllocatorDestroyRangeReverseINS_9allocatorINS_12basic_stringIcNS_11char_traitsIcEENS1_IcEEEEEEPS6_EclB8ue170006Ev, symObjAddr: 0xA1590, symBinAddr: 0x1000A2E9C, symSize: 0x40C }
  - { offsetInCU: 0x576CD, offset: 0x576CD, size: 0x8, addend: 0x0, symName: __ZNSt3__118__unwrap_iter_implIPNS_12basic_stringIcNS_11char_traitsIcEENS_9allocatorIcEEEELb1EE8__unwrapB8ue170006ES7_, symObjAddr: 0xA1C78, symBinAddr: 0x1000A3584, symSize: 0x24 }
  - { offsetInCU: 0x576F0, offset: 0x576F0, size: 0x8, addend: 0x0, symName: __ZNSt3__118__unwrap_iter_implIPNS_12basic_stringIcNS_11char_traitsIcEENS_9allocatorIcEEEELb1EE8__rewrapB8ue170006ES7_S7_, symObjAddr: 0xA1C9C, symBinAddr: 0x1000A35A8, symSize: 0x140 }
  - { offsetInCU: 0x57721, offset: 0x57721, size: 0x8, addend: 0x0, symName: __ZNSt3__128__exception_guard_exceptionsINS_6vectorINS_12basic_stringIcNS_11char_traitsIcEENS_9allocatorIcEEEENS5_IS7_EEE16__destroy_vectorEED2B8ue170006Ev, symObjAddr: 0xA1DDC, symBinAddr: 0x1000A36E8, symSize: 0x17C }
  - { offsetInCU: 0x5774B, offset: 0x5774B, size: 0x8, addend: 0x0, symName: __ZNSt3__16vectorINS_12basic_stringIcNS_11char_traitsIcEENS_9allocatorIcEEEENS4_IS6_EEE16__destroy_vectorclB8ue170006Ev, symObjAddr: 0xA1F58, symBinAddr: 0x1000A3864, symSize: 0x43C }
  - { offsetInCU: 0x57771, offset: 0x57771, size: 0x8, addend: 0x0, symName: __ZNSt3__16vectorINS_12basic_stringIcNS_11char_traitsIcEENS_9allocatorIcEEEENS4_IS6_EEE7__clearB8ue170006Ev, symObjAddr: 0xA2394, symBinAddr: 0x1000A3CA0, symSize: 0xB0 }
  - { offsetInCU: 0x57797, offset: 0x57797, size: 0x8, addend: 0x0, symName: __ZNSt3__16vectorINS_12basic_stringIcNS_11char_traitsIcEENS_9allocatorIcEEEENS4_IS6_EEE22__base_destruct_at_endB8ue170006EPS6_, symObjAddr: 0xA2444, symBinAddr: 0x1000A3D50, symSize: 0x1FC }
  - { offsetInCU: 0x577DB, offset: 0x577DB, size: 0x8, addend: 0x0, symName: __ZNSt3__16vectorINS_12basic_stringIcNS_11char_traitsIcEENS_9allocatorIcEEEENS4_IS6_EEED2B8ue170006Ev, symObjAddr: 0xA2640, symBinAddr: 0x1000A3F4C, symSize: 0x294 }
  - { offsetInCU: 0x57806, offset: 0x57806, size: 0x8, addend: 0x0, symName: __ZN5memdb9TokenizerD2Ev, symObjAddr: 0xA28D4, symBinAddr: 0x1000A41E0, symSize: 0x78 }
  - { offsetInCU: 0x57832, offset: 0x57832, size: 0x8, addend: 0x0, symName: __ZN5memdb6parser18ColumnDescriptionsC1Ev, symObjAddr: 0xA294C, symBinAddr: 0x1000A4258, symSize: 0x78 }
  - { offsetInCU: 0x5785E, offset: 0x5785E, size: 0x8, addend: 0x0, symName: __ZN5memdb6parser12ColumnParser14checkBracketedERKNSt3__16vectorINS2_10shared_ptrINS_9Tokenizer5TokenEEENS2_9allocatorIS7_EEEEllNS_5lexer7BracketESE_, symObjAddr: 0xA29C4, symBinAddr: 0x1000A42D0, symSize: 0x918 }
  - { offsetInCU: 0x578D6, offset: 0x578D6, size: 0x8, addend: 0x0, symName: __ZNSt3__16vectorIN5memdb21ColumnFullDescriptionENS_9allocatorIS2_EEE12emplace_backIJS2_EEERS2_DpOT_, symObjAddr: 0xA32DC, symBinAddr: 0x1000A4BE8, symSize: 0x24C }
  - { offsetInCU: 0x57918, offset: 0x57918, size: 0x8, addend: 0x0, symName: __ZN5memdb6parser12ColumnParser8parseOneERKNSt3__16vectorINS2_10shared_ptrINS_9Tokenizer5TokenEEENS2_9allocatorIS7_EEEERll, symObjAddr: 0xA3528, symBinAddr: 0x1000A4E34, symSize: 0x12A0 }
  - { offsetInCU: 0x579A3, offset: 0x579A3, size: 0x8, addend: 0x0, symName: __ZN5memdb21ColumnFullDescriptionD1Ev, symObjAddr: 0xA47C8, symBinAddr: 0x1000A60D4, symSize: 0x78 }
  - { offsetInCU: 0x579CF, offset: 0x579CF, size: 0x8, addend: 0x0, symName: __ZN5memdb6parser18ColumnDescriptionsC2Ev, symObjAddr: 0xA4840, symBinAddr: 0x1000A614C, symSize: 0x78 }
  - { offsetInCU: 0x579FB, offset: 0x579FB, size: 0x8, addend: 0x0, symName: __ZNSt3__16vectorIN5memdb21ColumnFullDescriptionENS_9allocatorIS2_EEEC1B8ue170006Ev, symObjAddr: 0xA48B8, symBinAddr: 0x1000A61C4, symSize: 0x78 }
  - { offsetInCU: 0x57A25, offset: 0x57A25, size: 0x8, addend: 0x0, symName: __ZNSt3__16vectorIN5memdb21ColumnFullDescriptionENS_9allocatorIS2_EEEC2B8ue170006Ev, symObjAddr: 0xA4930, symBinAddr: 0x1000A623C, symSize: 0x340 }
  - { offsetInCU: 0x57A50, offset: 0x57A50, size: 0x8, addend: 0x0, symName: __ZNSt3__117__compressed_pairIPN5memdb21ColumnFullDescriptionENS_9allocatorIS2_EEEC1B8ue170006IDnNS_18__default_init_tagEEEOT_OT0_, symObjAddr: 0xA4C70, symBinAddr: 0x1000A657C, symSize: 0x88 }
  - { offsetInCU: 0x57AA8, offset: 0x57AA8, size: 0x8, addend: 0x0, symName: __ZNSt3__117__compressed_pairIPN5memdb21ColumnFullDescriptionENS_9allocatorIS2_EEEC2B8ue170006IDnNS_18__default_init_tagEEEOT_OT0_, symObjAddr: 0xA4CF8, symBinAddr: 0x1000A6604, symSize: 0x140 }
  - { offsetInCU: 0x57B00, offset: 0x57B00, size: 0x8, addend: 0x0, symName: __ZNSt3__122__compressed_pair_elemIPN5memdb21ColumnFullDescriptionELi0ELb0EEC2B8ue170006IDnvEEOT_, symObjAddr: 0xA4E38, symBinAddr: 0x1000A6744, symSize: 0xBC }
  - { offsetInCU: 0x57B42, offset: 0x57B42, size: 0x8, addend: 0x0, symName: __ZNSt3__122__compressed_pair_elemINS_9allocatorIN5memdb21ColumnFullDescriptionEEELi1ELb1EEC2B8ue170006ENS_18__default_init_tagE, symObjAddr: 0xA4EF4, symBinAddr: 0x1000A6800, symSize: 0x84 }
  - { offsetInCU: 0x57B76, offset: 0x57B76, size: 0x8, addend: 0x0, symName: __ZNSt3__19allocatorIN5memdb21ColumnFullDescriptionEEC2B8ue170006Ev, symObjAddr: 0xA4F78, symBinAddr: 0x1000A6884, symSize: 0x84 }
  - { offsetInCU: 0x57BA0, offset: 0x57BA0, size: 0x8, addend: 0x0, symName: __ZNSt3__116__non_trivial_ifILb1ENS_9allocatorIN5memdb21ColumnFullDescriptionEEEEC2B8ue170006Ev, symObjAddr: 0xA4FFC, symBinAddr: 0x1000A6908, symSize: 0x54 }
  - { offsetInCU: 0x57BCA, offset: 0x57BCA, size: 0x8, addend: 0x0, symName: __ZNKSt3__16vectorINS_10shared_ptrIN5memdb9Tokenizer5TokenEEENS_9allocatorIS5_EEEixB8ue170006Em, symObjAddr: 0xA5050, symBinAddr: 0x1000A695C, symSize: 0x1CC }
  - { offsetInCU: 0x57C01, offset: 0x57C01, size: 0x8, addend: 0x0, symName: __ZNKSt3__110shared_ptrIN5memdb9Tokenizer5TokenEE3getB8ue170006Ev, symObjAddr: 0xA553C, symBinAddr: 0x1000A6E48, symSize: 0xAC }
  - { offsetInCU: 0x57C27, offset: 0x57C27, size: 0x8, addend: 0x0, symName: __ZNSt3__16vectorIN5memdb21ColumnFullDescriptionENS_9allocatorIS2_EEE9__end_capB8ue170006Ev, symObjAddr: 0xA55E8, symBinAddr: 0x1000A6EF4, symSize: 0x100 }
  - { offsetInCU: 0x57C4D, offset: 0x57C4D, size: 0x8, addend: 0x0, symName: __ZNSt3__16vectorIN5memdb21ColumnFullDescriptionENS_9allocatorIS2_EEE22__construct_one_at_endB8ue170006IJS2_EEEvDpOT_, symObjAddr: 0xA56E8, symBinAddr: 0x1000A6FF4, symSize: 0x550 }
  - { offsetInCU: 0x57CA2, offset: 0x57CA2, size: 0x8, addend: 0x0, symName: __ZNSt3__16vectorIN5memdb21ColumnFullDescriptionENS_9allocatorIS2_EEE24__emplace_back_slow_pathIJS2_EEEvDpOT_, symObjAddr: 0xA5C38, symBinAddr: 0x1000A7544, symSize: 0x5B0 }
  - { offsetInCU: 0x57D09, offset: 0x57D09, size: 0x8, addend: 0x0, symName: __ZNSt3__16vectorIN5memdb21ColumnFullDescriptionENS_9allocatorIS2_EEE4backB8ue170006Ev, symObjAddr: 0xA61E8, symBinAddr: 0x1000A7AF4, symSize: 0x18C }
  - { offsetInCU: 0x57D2F, offset: 0x57D2F, size: 0x8, addend: 0x0, symName: __ZNSt3__117__compressed_pairIPN5memdb21ColumnFullDescriptionENS_9allocatorIS2_EEE5firstB8ue170006Ev, symObjAddr: 0xA6374, symBinAddr: 0x1000A7C80, symSize: 0x124 }
  - { offsetInCU: 0x57D55, offset: 0x57D55, size: 0x8, addend: 0x0, symName: __ZNSt3__122__compressed_pair_elemIPN5memdb21ColumnFullDescriptionELi0ELb0EE5__getB8ue170006Ev, symObjAddr: 0xA6498, symBinAddr: 0x1000A7DA4, symSize: 0xAC }
  - { offsetInCU: 0x57D99, offset: 0x57D99, size: 0x8, addend: 0x0, symName: __ZNSt3__16vectorIN5memdb21ColumnFullDescriptionENS_9allocatorIS2_EEE21_ConstructTransactionC1B8ue170006ERS5_m, symObjAddr: 0xA6544, symBinAddr: 0x1000A7E50, symSize: 0x88 }
  - { offsetInCU: 0x57DE1, offset: 0x57DE1, size: 0x8, addend: 0x0, symName: __ZNSt3__116allocator_traitsINS_9allocatorIN5memdb21ColumnFullDescriptionEEEE9constructB8ue170006IS3_JS3_EvvEEvRS4_PT_DpOT0_, symObjAddr: 0xA65CC, symBinAddr: 0x1000A7ED8, symSize: 0x80 }
  - { offsetInCU: 0x57E35, offset: 0x57E35, size: 0x8, addend: 0x0, symName: __ZNSt3__16vectorIN5memdb21ColumnFullDescriptionENS_9allocatorIS2_EEE7__allocB8ue170006Ev, symObjAddr: 0xA664C, symBinAddr: 0x1000A7F58, symSize: 0xE4 }
  - { offsetInCU: 0x57E5B, offset: 0x57E5B, size: 0x8, addend: 0x0, symName: __ZNSt3__16vectorIN5memdb21ColumnFullDescriptionENS_9allocatorIS2_EEE21_ConstructTransactionD1B8ue170006Ev, symObjAddr: 0xA6744, symBinAddr: 0x1000A8050, symSize: 0x78 }
  - { offsetInCU: 0x57E85, offset: 0x57E85, size: 0x8, addend: 0x0, symName: __ZNSt3__16vectorIN5memdb21ColumnFullDescriptionENS_9allocatorIS2_EEE21_ConstructTransactionC2B8ue170006ERS5_m, symObjAddr: 0xA67BC, symBinAddr: 0x1000A80C8, symSize: 0x3D8 }
  - { offsetInCU: 0x57ECD, offset: 0x57ECD, size: 0x8, addend: 0x0, symName: __ZNKSt3__16vectorIN5memdb21ColumnFullDescriptionENS_9allocatorIS2_EEE19__annotate_increaseB8ue170006Em, symObjAddr: 0xA6B94, symBinAddr: 0x1000A84A0, symSize: 0x44C }
  - { offsetInCU: 0x57F02, offset: 0x57F02, size: 0x8, addend: 0x0, symName: __ZNKSt3__16vectorIN5memdb21ColumnFullDescriptionENS_9allocatorIS2_EEE31__annotate_contiguous_containerEPKvS7_S7_S7_, symObjAddr: 0xA6FE0, symBinAddr: 0x1000A88EC, symSize: 0x9C }
  - { offsetInCU: 0x57F64, offset: 0x57F64, size: 0x8, addend: 0x0, symName: __ZNKSt3__16vectorIN5memdb21ColumnFullDescriptionENS_9allocatorIS2_EEE4dataB8ue170006Ev, symObjAddr: 0xA707C, symBinAddr: 0x1000A8988, symSize: 0xB0 }
  - { offsetInCU: 0x57F8A, offset: 0x57F8A, size: 0x8, addend: 0x0, symName: __ZNKSt3__16vectorIN5memdb21ColumnFullDescriptionENS_9allocatorIS2_EEE8capacityB8ue170006Ev, symObjAddr: 0xA712C, symBinAddr: 0x1000A8A38, symSize: 0x144 }
  - { offsetInCU: 0x57FB0, offset: 0x57FB0, size: 0x8, addend: 0x0, symName: __ZNKSt3__16vectorIN5memdb21ColumnFullDescriptionENS_9allocatorIS2_EEE4sizeB8ue170006Ev, symObjAddr: 0xA7270, symBinAddr: 0x1000A8B7C, symSize: 0xF8 }
  - { offsetInCU: 0x57FD6, offset: 0x57FD6, size: 0x8, addend: 0x0, symName: __ZNKSt3__16vectorIN5memdb21ColumnFullDescriptionENS_9allocatorIS2_EEE9__end_capB8ue170006Ev, symObjAddr: 0xA7368, symBinAddr: 0x1000A8C74, symSize: 0x100 }
  - { offsetInCU: 0x57FFC, offset: 0x57FFC, size: 0x8, addend: 0x0, symName: __ZNKSt3__117__compressed_pairIPN5memdb21ColumnFullDescriptionENS_9allocatorIS2_EEE5firstB8ue170006Ev, symObjAddr: 0xA7468, symBinAddr: 0x1000A8D74, symSize: 0x124 }
  - { offsetInCU: 0x58022, offset: 0x58022, size: 0x8, addend: 0x0, symName: __ZNKSt3__122__compressed_pair_elemIPN5memdb21ColumnFullDescriptionELi0ELb0EE5__getB8ue170006Ev, symObjAddr: 0xA758C, symBinAddr: 0x1000A8E98, symSize: 0xAC }
  - { offsetInCU: 0x58048, offset: 0x58048, size: 0x8, addend: 0x0, symName: __ZN5memdb21ColumnFullDescriptionC1EOS0_, symObjAddr: 0xA7748, symBinAddr: 0x1000A9054, symSize: 0x80 }
  - { offsetInCU: 0x5807D, offset: 0x5807D, size: 0x8, addend: 0x0, symName: __ZN5memdb21ColumnFullDescriptionC2EOS0_, symObjAddr: 0xA77C8, symBinAddr: 0x1000A90D4, symSize: 0x184 }
  - { offsetInCU: 0x580B8, offset: 0x580B8, size: 0x8, addend: 0x0, symName: __ZN5memdb17ColumnDescriptionC2EOS0_, symObjAddr: 0xA794C, symBinAddr: 0x1000A9258, symSize: 0x220 }
  - { offsetInCU: 0x580ED, offset: 0x580ED, size: 0x8, addend: 0x0, symName: __ZNSt3__16vectorIN5memdb11ColumnAttrsENS_9allocatorIS2_EEEC1ERKS5_, symObjAddr: 0xA7B6C, symBinAddr: 0x1000A9478, symSize: 0x80 }
  - { offsetInCU: 0x58128, offset: 0x58128, size: 0x8, addend: 0x0, symName: __ZNSt3__110shared_ptrIN5memdb6DbTypeEEC1B8ue170006EOS3_, symObjAddr: 0xA7BEC, symBinAddr: 0x1000A94F8, symSize: 0x80 }
  - { offsetInCU: 0x58161, offset: 0x58161, size: 0x8, addend: 0x0, symName: __ZNSt3__16vectorIN5memdb11ColumnAttrsENS_9allocatorIS2_EEEC2ERKS5_, symObjAddr: 0xA7C6C, symBinAddr: 0x1000A9578, symSize: 0x4C0 }
  - { offsetInCU: 0x581AA, offset: 0x581AA, size: 0x8, addend: 0x0, symName: __ZNSt3__116allocator_traitsINS_9allocatorIN5memdb11ColumnAttrsEEEE37select_on_container_copy_constructionB8ue170006IS4_vvEES4_RKS4_, symObjAddr: 0xA812C, symBinAddr: 0x1000A9A38, symSize: 0x10 }
  - { offsetInCU: 0x581D9, offset: 0x581D9, size: 0x8, addend: 0x0, symName: __ZNKSt3__16vectorIN5memdb11ColumnAttrsENS_9allocatorIS2_EEE7__allocB8ue170006Ev, symObjAddr: 0xA813C, symBinAddr: 0x1000A9A48, symSize: 0xE4 }
  - { offsetInCU: 0x58205, offset: 0x58205, size: 0x8, addend: 0x0, symName: __ZNSt3__117__compressed_pairIPN5memdb11ColumnAttrsENS_9allocatorIS2_EEEC1B8ue170006IDnS5_EEOT_OT0_, symObjAddr: 0xA8220, symBinAddr: 0x1000A9B2C, symSize: 0x88 }
  - { offsetInCU: 0x5825D, offset: 0x5825D, size: 0x8, addend: 0x0, symName: __ZNSt3__16vectorIN5memdb11ColumnAttrsENS_9allocatorIS2_EEE16__init_with_sizeB8ue170006IPS2_S7_EEvT_T0_m, symObjAddr: 0xA82A8, symBinAddr: 0x1000A9BB4, symSize: 0x3EC }
  - { offsetInCU: 0x582D9, offset: 0x582D9, size: 0x8, addend: 0x0, symName: __ZNKSt3__16vectorIN5memdb11ColumnAttrsENS_9allocatorIS2_EEE4sizeB8ue170006Ev, symObjAddr: 0xA8694, symBinAddr: 0x1000A9FA0, symSize: 0xF8 }
  - { offsetInCU: 0x582FF, offset: 0x582FF, size: 0x8, addend: 0x0, symName: __ZNKSt3__117__compressed_pairIPN5memdb11ColumnAttrsENS_9allocatorIS2_EEE6secondB8ue170006Ev, symObjAddr: 0xA878C, symBinAddr: 0x1000AA098, symSize: 0x108 }
  - { offsetInCU: 0x58325, offset: 0x58325, size: 0x8, addend: 0x0, symName: __ZNKSt3__122__compressed_pair_elemINS_9allocatorIN5memdb11ColumnAttrsEEELi1ELb1EE5__getB8ue170006Ev, symObjAddr: 0xA8894, symBinAddr: 0x1000AA1A0, symSize: 0x74 }
  - { offsetInCU: 0x5834B, offset: 0x5834B, size: 0x8, addend: 0x0, symName: __ZNSt3__117__compressed_pairIPN5memdb11ColumnAttrsENS_9allocatorIS2_EEEC2B8ue170006IDnS5_EEOT_OT0_, symObjAddr: 0xA8908, symBinAddr: 0x1000AA214, symSize: 0x170 }
  - { offsetInCU: 0x583A3, offset: 0x583A3, size: 0x8, addend: 0x0, symName: __ZNSt3__122__compressed_pair_elemIPN5memdb11ColumnAttrsELi0ELb0EEC2B8ue170006IDnvEEOT_, symObjAddr: 0xA8A78, symBinAddr: 0x1000AA384, symSize: 0xBC }
  - { offsetInCU: 0x583E5, offset: 0x583E5, size: 0x8, addend: 0x0, symName: __ZNSt3__122__compressed_pair_elemINS_9allocatorIN5memdb11ColumnAttrsEEELi1ELb1EEC2B8ue170006IS4_vEEOT_, symObjAddr: 0xA8B34, symBinAddr: 0x1000AA440, symSize: 0x58 }
  - { offsetInCU: 0x58427, offset: 0x58427, size: 0x8, addend: 0x0, symName: __ZNSt3__16vectorIN5memdb11ColumnAttrsENS_9allocatorIS2_EEE16__destroy_vectorC1B8ue170006ERS5_, symObjAddr: 0xA8E48, symBinAddr: 0x1000AA754, symSize: 0x80 }
  - { offsetInCU: 0x58460, offset: 0x58460, size: 0x8, addend: 0x0, symName: __ZNSt3__16vectorIN5memdb11ColumnAttrsENS_9allocatorIS2_EEE11__vallocateB8ue170006Em, symObjAddr: 0xA8EC8, symBinAddr: 0x1000AA7D4, symSize: 0x5E8 }
  - { offsetInCU: 0x584AA, offset: 0x584AA, size: 0x8, addend: 0x0, symName: __ZNSt3__16vectorIN5memdb11ColumnAttrsENS_9allocatorIS2_EEE18__construct_at_endIPS2_S7_EEvT_T0_m, symObjAddr: 0xA94B0, symBinAddr: 0x1000AADBC, symSize: 0x494 }
  - { offsetInCU: 0x58528, offset: 0x58528, size: 0x8, addend: 0x0, symName: __ZNSt3__128__exception_guard_exceptionsINS_6vectorIN5memdb11ColumnAttrsENS_9allocatorIS3_EEE16__destroy_vectorEE10__completeB8ue170006Ev, symObjAddr: 0xA9944, symBinAddr: 0x1000AB250, symSize: 0xD8 }
  - { offsetInCU: 0x5854E, offset: 0x5854E, size: 0x8, addend: 0x0, symName: __ZNSt3__128__exception_guard_exceptionsINS_6vectorIN5memdb11ColumnAttrsENS_9allocatorIS3_EEE16__destroy_vectorEED1B8ue170006Ev, symObjAddr: 0xA9A1C, symBinAddr: 0x1000AB328, symSize: 0x78 }
  - { offsetInCU: 0x58578, offset: 0x58578, size: 0x8, addend: 0x0, symName: __ZNSt3__128__exception_guard_exceptionsINS_6vectorIN5memdb11ColumnAttrsENS_9allocatorIS3_EEE16__destroy_vectorEEC1B8ue170006ES7_, symObjAddr: 0xA9A94, symBinAddr: 0x1000AB3A0, symSize: 0x28C }
  - { offsetInCU: 0x585B5, offset: 0x585B5, size: 0x8, addend: 0x0, symName: __ZNSt3__128__exception_guard_exceptionsINS_6vectorIN5memdb11ColumnAttrsENS_9allocatorIS3_EEE16__destroy_vectorEEC2B8ue170006ES7_, symObjAddr: 0xA9D20, symBinAddr: 0x1000AB62C, symSize: 0x2BC }
  - { offsetInCU: 0x585F2, offset: 0x585F2, size: 0x8, addend: 0x0, symName: __ZNSt3__16vectorIN5memdb11ColumnAttrsENS_9allocatorIS2_EEE16__destroy_vectorC2B8ue170006ERS5_, symObjAddr: 0xA9FDC, symBinAddr: 0x1000AB8E8, symSize: 0x108 }
  - { offsetInCU: 0x5862B, offset: 0x5862B, size: 0x8, addend: 0x0, symName: __ZNKSt3__16vectorIN5memdb11ColumnAttrsENS_9allocatorIS2_EEE8max_sizeEv, symObjAddr: 0xAA0E4, symBinAddr: 0x1000AB9F0, symSize: 0x3B8 }
  - { offsetInCU: 0x58654, offset: 0x58654, size: 0x8, addend: 0x0, symName: __ZNKSt3__16vectorIN5memdb11ColumnAttrsENS_9allocatorIS2_EEE20__throw_length_errorB8ue170006Ev, symObjAddr: 0xAA49C, symBinAddr: 0x1000ABDA8, symSize: 0x80 }
  - { offsetInCU: 0x5867A, offset: 0x5867A, size: 0x8, addend: 0x0, symName: __ZNSt3__16vectorIN5memdb11ColumnAttrsENS_9allocatorIS2_EEE7__allocB8ue170006Ev, symObjAddr: 0xAA76C, symBinAddr: 0x1000AC078, symSize: 0xE4 }
  - { offsetInCU: 0x586A0, offset: 0x586A0, size: 0x8, addend: 0x0, symName: __ZNSt3__16vectorIN5memdb11ColumnAttrsENS_9allocatorIS2_EEE9__end_capB8ue170006Ev, symObjAddr: 0xAA850, symBinAddr: 0x1000AC15C, symSize: 0x100 }
  - { offsetInCU: 0x586C6, offset: 0x586C6, size: 0x8, addend: 0x0, symName: __ZNKSt3__16vectorIN5memdb11ColumnAttrsENS_9allocatorIS2_EEE14__annotate_newB8ue170006Em, symObjAddr: 0xAA950, symBinAddr: 0x1000AC25C, symSize: 0x360 }
  - { offsetInCU: 0x586FB, offset: 0x586FB, size: 0x8, addend: 0x0, symName: __ZNSt3__116allocator_traitsINS_9allocatorIN5memdb11ColumnAttrsEEEE8max_sizeB8ue170006IS4_vvEEmRKS4_, symObjAddr: 0xAACB0, symBinAddr: 0x1000AC5BC, symSize: 0x54 }
  - { offsetInCU: 0x58726, offset: 0x58726, size: 0x8, addend: 0x0, symName: __ZNSt3__19allocatorIN5memdb11ColumnAttrsEE17allocate_at_leastB8ue170006Em, symObjAddr: 0xAAF28, symBinAddr: 0x1000AC834, symSize: 0x2B8 }
  - { offsetInCU: 0x5875C, offset: 0x5875C, size: 0x8, addend: 0x0, symName: __ZNSt3__19allocatorIN5memdb11ColumnAttrsEE8allocateB8ue170006Em, symObjAddr: 0xAB1E0, symBinAddr: 0x1000ACAEC, symSize: 0xCC }
  - { offsetInCU: 0x58790, offset: 0x58790, size: 0x8, addend: 0x0, symName: __ZNSt3__117__compressed_pairIPN5memdb11ColumnAttrsENS_9allocatorIS2_EEE6secondB8ue170006Ev, symObjAddr: 0xAB2AC, symBinAddr: 0x1000ACBB8, symSize: 0x108 }
  - { offsetInCU: 0x587B6, offset: 0x587B6, size: 0x8, addend: 0x0, symName: __ZNSt3__122__compressed_pair_elemINS_9allocatorIN5memdb11ColumnAttrsEEELi1ELb1EE5__getB8ue170006Ev, symObjAddr: 0xAB3B4, symBinAddr: 0x1000ACCC0, symSize: 0x74 }
  - { offsetInCU: 0x587DC, offset: 0x587DC, size: 0x8, addend: 0x0, symName: __ZNSt3__117__compressed_pairIPN5memdb11ColumnAttrsENS_9allocatorIS2_EEE5firstB8ue170006Ev, symObjAddr: 0xAB428, symBinAddr: 0x1000ACD34, symSize: 0x124 }
  - { offsetInCU: 0x58802, offset: 0x58802, size: 0x8, addend: 0x0, symName: __ZNSt3__122__compressed_pair_elemIPN5memdb11ColumnAttrsELi0ELb0EE5__getB8ue170006Ev, symObjAddr: 0xAB54C, symBinAddr: 0x1000ACE58, symSize: 0xAC }
  - { offsetInCU: 0x58828, offset: 0x58828, size: 0x8, addend: 0x0, symName: __ZNKSt3__16vectorIN5memdb11ColumnAttrsENS_9allocatorIS2_EEE31__annotate_contiguous_containerEPKvS7_S7_S7_, symObjAddr: 0xAB5F8, symBinAddr: 0x1000ACF04, symSize: 0x9C }
  - { offsetInCU: 0x5888A, offset: 0x5888A, size: 0x8, addend: 0x0, symName: __ZNKSt3__16vectorIN5memdb11ColumnAttrsENS_9allocatorIS2_EEE4dataB8ue170006Ev, symObjAddr: 0xAB694, symBinAddr: 0x1000ACFA0, symSize: 0xB0 }
  - { offsetInCU: 0x588B0, offset: 0x588B0, size: 0x8, addend: 0x0, symName: __ZNKSt3__16vectorIN5memdb11ColumnAttrsENS_9allocatorIS2_EEE8capacityB8ue170006Ev, symObjAddr: 0xAB744, symBinAddr: 0x1000AD050, symSize: 0x144 }
  - { offsetInCU: 0x588D6, offset: 0x588D6, size: 0x8, addend: 0x0, symName: __ZNKSt3__16vectorIN5memdb11ColumnAttrsENS_9allocatorIS2_EEE9__end_capB8ue170006Ev, symObjAddr: 0xAB89C, symBinAddr: 0x1000AD1A8, symSize: 0x100 }
  - { offsetInCU: 0x588FC, offset: 0x588FC, size: 0x8, addend: 0x0, symName: __ZNKSt3__117__compressed_pairIPN5memdb11ColumnAttrsENS_9allocatorIS2_EEE5firstB8ue170006Ev, symObjAddr: 0xAB99C, symBinAddr: 0x1000AD2A8, symSize: 0x124 }
  - { offsetInCU: 0x58922, offset: 0x58922, size: 0x8, addend: 0x0, symName: __ZNKSt3__122__compressed_pair_elemIPN5memdb11ColumnAttrsELi0ELb0EE5__getB8ue170006Ev, symObjAddr: 0xABAC0, symBinAddr: 0x1000AD3CC, symSize: 0xAC }
  - { offsetInCU: 0x58966, offset: 0x58966, size: 0x8, addend: 0x0, symName: __ZNSt3__16vectorIN5memdb11ColumnAttrsENS_9allocatorIS2_EEE21_ConstructTransactionC1B8ue170006ERS5_m, symObjAddr: 0xABB6C, symBinAddr: 0x1000AD478, symSize: 0x88 }
  - { offsetInCU: 0x589AE, offset: 0x589AE, size: 0x8, addend: 0x0, symName: __ZNSt3__16vectorIN5memdb11ColumnAttrsENS_9allocatorIS2_EEE21_ConstructTransactionD1B8ue170006Ev, symObjAddr: 0xABF28, symBinAddr: 0x1000AD834, symSize: 0x78 }
  - { offsetInCU: 0x589D8, offset: 0x589D8, size: 0x8, addend: 0x0, symName: __ZNSt3__16vectorIN5memdb11ColumnAttrsENS_9allocatorIS2_EEE21_ConstructTransactionC2B8ue170006ERS5_m, symObjAddr: 0xABFA0, symBinAddr: 0x1000AD8AC, symSize: 0x3D8 }
  - { offsetInCU: 0x58A20, offset: 0x58A20, size: 0x8, addend: 0x0, symName: __ZNKSt3__16vectorIN5memdb11ColumnAttrsENS_9allocatorIS2_EEE19__annotate_increaseB8ue170006Em, symObjAddr: 0xAC378, symBinAddr: 0x1000ADC84, symSize: 0x44C }
  - { offsetInCU: 0x58A79, offset: 0x58A79, size: 0x8, addend: 0x0, symName: __ZNSt3__119__unwrap_range_implIPN5memdb11ColumnAttrsES3_E8__unwrapB8ue170006ES3_S3_, symObjAddr: 0xACA8C, symBinAddr: 0x1000AE398, symSize: 0x30C }
  - { offsetInCU: 0x58AB2, offset: 0x58AB2, size: 0x8, addend: 0x0, symName: __ZNSt3__14pairIPN5memdb11ColumnAttrsES3_EC1B8ue170006IS3_S3_LPv0EEEOT_OT0_, symObjAddr: 0xACD98, symBinAddr: 0x1000AE6A4, symSize: 0x88 }
  - { offsetInCU: 0x58B10, offset: 0x58B10, size: 0x8, addend: 0x0, symName: __ZNSt3__14pairIPN5memdb11ColumnAttrsES3_EC2B8ue170006IS3_S3_LPv0EEEOT_OT0_, symObjAddr: 0xACE20, symBinAddr: 0x1000AE72C, symSize: 0x210 }
  - { offsetInCU: 0x58B6E, offset: 0x58B6E, size: 0x8, addend: 0x0, symName: __ZNKSt3__114__copy_trivialclB8ue170006IN5memdb11ColumnAttrsES3_Li0EEENS_4pairIPT_PT0_EES6_S6_S8_, symObjAddr: 0xADD70, symBinAddr: 0x1000AF67C, symSize: 0x25C }
  - { offsetInCU: 0x58BDA, offset: 0x58BDA, size: 0x8, addend: 0x0, symName: __ZNSt3__14pairIPN5memdb11ColumnAttrsES3_EC1B8ue170006IRS3_S3_LPv0EEEOT_OT0_, symObjAddr: 0xAEA1C, symBinAddr: 0x1000B0328, symSize: 0x88 }
  - { offsetInCU: 0x58C38, offset: 0x58C38, size: 0x8, addend: 0x0, symName: __ZNSt3__14pairIPN5memdb11ColumnAttrsES3_EC2B8ue170006IRS3_S3_LPv0EEEOT_OT0_, symObjAddr: 0xAEAA4, symBinAddr: 0x1000B03B0, symSize: 0x210 }
  - { offsetInCU: 0x58C96, offset: 0x58C96, size: 0x8, addend: 0x0, symName: __ZNSt3__119__unwrap_range_implIPN5memdb11ColumnAttrsES3_E8__rewrapB8ue170006ES3_S3_, symObjAddr: 0xAECB4, symBinAddr: 0x1000B05C0, symSize: 0x2C }
  - { offsetInCU: 0x58CC7, offset: 0x58CC7, size: 0x8, addend: 0x0, symName: __ZNSt3__118__unwrap_iter_implIPN5memdb11ColumnAttrsELb1EE8__unwrapB8ue170006ES3_, symObjAddr: 0xAECE0, symBinAddr: 0x1000B05EC, symSize: 0x24 }
