---
triple:          'arm64-apple-darwin'
binary-path:     '/Users/lehatrutenb/Desktop/prog/memdb/memdb/internal/type/type'
relocations:
  - { offsetInCU: 0x38, offset: 0x38, size: 0x8, addend: 0x0, symName: __ZN5memdb8IsBoolOpENS_9OperationE, symObjAddr: 0x0, symBinAddr: 0x1000029D4, symSize: 0x83C }
  - { offsetInCU: 0x61, offset: 0x61, size: 0x8, addend: 0x0, symName: __ZZN5memdb8IsBoolOpENS_9OperationEE4bOps, symObjAddr: 0x126400, symBinAddr: 0x100088C20, symSize: 0x0 }
  - { offsetInCU: 0xEA, offset: 0xEA, size: 0x8, addend: 0x0, symName: __ZN5memdb8IsMathOpENS_9OperationE, symObjAddr: 0x1670, symBinAddr: 0x100004044, symSize: 0x6C0 }
  - { offsetInCU: 0x113, offset: 0x113, size: 0x8, addend: 0x0, symName: __ZZN5memdb8IsMathOpENS_9OperationEE4mOps, symObjAddr: 0x126460, symBinAddr: 0x100088C80, symSize: 0x0 }
  - { offsetInCU: 0x12F, offset: 0x12F, size: 0x8, addend: 0x0, symName: __ZN5memdb7IsCmpOpENS_9OperationE, symObjAddr: 0x1D30, symBinAddr: 0x100004704, symSize: 0x6BC }
  - { offsetInCU: 0x158, offset: 0x158, size: 0x8, addend: 0x0, symName: __ZZN5memdb7IsCmpOpENS_9OperationEE4cOps, symObjAddr: 0x1264C0, symBinAddr: 0x100088CE0, symSize: 0x0 }
  - { offsetInCU: 0x174, offset: 0x174, size: 0x8, addend: 0x0, symName: __ZN5memdb13IsNonDefCmpOpENS_9OperationE, symObjAddr: 0x23EC, symBinAddr: 0x100004DC0, symSize: 0x83C }
  - { offsetInCU: 0x19D, offset: 0x19D, size: 0x8, addend: 0x0, symName: __ZZN5memdb13IsNonDefCmpOpENS_9OperationEE4cOps, symObjAddr: 0x126520, symBinAddr: 0x100088D40, symSize: 0x0 }
  - { offsetInCU: 0x169E, offset: 0x169E, size: 0x8, addend: 0x0, symName: __ZNSt3__119piecewise_constructE, symObjAddr: 0x5A148, symBinAddr: 0x10005CFE8, symSize: 0x0 }
  - { offsetInCU: 0x5CD5, offset: 0x5CD5, size: 0x8, addend: 0x0, symName: __ZNSt3__17advanceB8ue170006IPNS_12basic_stringIcNS_11char_traitsIcEENS_9allocatorIcEEEEllvEEvRT_T0_, symObjAddr: 0x1CE60, symBinAddr: 0x10001F834, symSize: 0x80 }
  - { offsetInCU: 0x5F55, offset: 0x5F55, size: 0x8, addend: 0x0, symName: __ZNSt3__17advanceB8ue170006INS_16reverse_iteratorIPNS_12basic_stringIcNS_11char_traitsIcEENS_9allocatorIcEEEEEEllvEEvRT_T0_, symObjAddr: 0x1E830, symBinAddr: 0x100021204, symSize: 0x80 }
  - { offsetInCU: 0x113AF, offset: 0x113AF, size: 0x8, addend: 0x0, symName: __ZNSt3__1neB8ue170006IPN5memdb9OperationEEEbRKNS_11__wrap_iterIT_EES8_, symObjAddr: 0xB50, symBinAddr: 0x100003524, symSize: 0xC4 }
  - { offsetInCU: 0x113F2, offset: 0x113F2, size: 0x8, addend: 0x0, symName: __ZNSt3__14findB8ue170006INS_11__wrap_iterIPN5memdb9OperationEEES3_EET_S6_S6_RKT0_, symObjAddr: 0xC14, symBinAddr: 0x1000035E8, symSize: 0x4F8 }
  - { offsetInCU: 0x12AA2, offset: 0x12AA2, size: 0x8, addend: 0x0, symName: __ZNSt3__122__make_exception_guardB8ue170006INS_6vectorIN5memdb9OperationENS_9allocatorIS3_EEE16__destroy_vectorEEENS_28__exception_guard_exceptionsIT_EES9_, symObjAddr: 0x3AD8, symBinAddr: 0x1000064AC, symSize: 0x2BC }
  - { offsetInCU: 0x12ADB, offset: 0x12ADB, size: 0x8, addend: 0x0, symName: __ZNSt3__119__allocate_at_leastB8ue170006INS_9allocatorIN5memdb9OperationEEEEEDaRT_m, symObjAddr: 0x5ADC, symBinAddr: 0x1000084B0, symSize: 0x250 }
  - { offsetInCU: 0x12B20, offset: 0x12B20, size: 0x8, addend: 0x0, symName: __ZNSt3__13minB8ue170006ImEERKT_S3_S3_, symObjAddr: 0x6270, symBinAddr: 0x100008C44, symSize: 0x104 }
  - { offsetInCU: 0x12D4D, offset: 0x12D4D, size: 0x8, addend: 0x0, symName: __ZNSt3__13minB8ue170006ImNS_6__lessIvvEEEERKT_S5_S5_T0_, symObjAddr: 0x64CC, symBinAddr: 0x100008EA0, symSize: 0x2C0 }
  - { offsetInCU: 0x12DF2, offset: 0x12DF2, size: 0x8, addend: 0x0, symName: __ZNSt3__120__throw_length_errorB8ue170006EPKc, symObjAddr: 0x6A18, symBinAddr: 0x1000093EC, symSize: 0xB4 }
  - { offsetInCU: 0x12E1C, offset: 0x12E1C, size: 0x8, addend: 0x0, symName: __ZNSt3__117allocate_at_leastB8ue170006INS_9allocatorIN5memdb9OperationEEEEENS_17allocation_resultINS_16allocator_traitsIT_E7pointerEEERS7_m, symObjAddr: 0x6C74, symBinAddr: 0x100009648, symSize: 0x224 }
  - { offsetInCU: 0x12E61, offset: 0x12E61, size: 0x8, addend: 0x0, symName: __ZNSt3__117__libcpp_allocateB8ue170006Emm, symObjAddr: 0x7298, symBinAddr: 0x100009C6C, symSize: 0x60 }
  - { offsetInCU: 0x12EBB, offset: 0x12EBB, size: 0x8, addend: 0x0, symName: __ZNSt3__124__is_overaligned_for_newB8ue170006Em, symObjAddr: 0x72F8, symBinAddr: 0x100009CCC, symSize: 0x20 }
  - { offsetInCU: 0x12EE9, offset: 0x12EE9, size: 0x8, addend: 0x0, symName: __ZNSt3__121__libcpp_operator_newB8ue170006IJmSt11align_val_tEEEPvDpT_, symObjAddr: 0x7318, symBinAddr: 0x100009CEC, symSize: 0x6C }
  - { offsetInCU: 0x12F36, offset: 0x12F36, size: 0x8, addend: 0x0, symName: __ZNSt3__121__libcpp_operator_newB8ue170006IJmEEEPvDpT_, symObjAddr: 0x7384, symBinAddr: 0x100009D58, symSize: 0x24 }
  - { offsetInCU: 0x12F6F, offset: 0x12F6F, size: 0x8, addend: 0x0, symName: __ZNSt3__112__to_addressB8ue170006IN5memdb9OperationEEEPT_S4_, symObjAddr: 0x7984, symBinAddr: 0x10000A358, symSize: 0x14 }
  - { offsetInCU: 0x12FA4, offset: 0x12FA4, size: 0x8, addend: 0x0, symName: __ZNSt3__130__uninitialized_allocator_copyB8ue170006INS_9allocatorIN5memdb9OperationEEEPKS3_S6_PS3_EET2_RT_T0_T1_S8_, symObjAddr: 0x7CF0, symBinAddr: 0x10000A6C4, symSize: 0x334 }
  - { offsetInCU: 0x1304A, offset: 0x1304A, size: 0x8, addend: 0x0, symName: __ZNSt3__114__unwrap_rangeB8ue170006IPKN5memdb9OperationES4_EEDaT_T0_, symObjAddr: 0x89B8, symBinAddr: 0x10000B38C, symSize: 0x224 }
  - { offsetInCU: 0x13098, offset: 0x13098, size: 0x8, addend: 0x0, symName: __ZNSt3__135__uninitialized_allocator_copy_implB8ue170006INS_9allocatorIN5memdb9OperationEEEKS3_S3_S3_LPv0EEEPT2_RT_PT0_SC_S8_, symObjAddr: 0x8BDC, symBinAddr: 0x10000B5B0, symSize: 0x38 }
  - { offsetInCU: 0x13119, offset: 0x13119, size: 0x8, addend: 0x0, symName: __ZNSt3__113__unwrap_iterB8ue170006IPN5memdb9OperationENS_18__unwrap_iter_implIS3_Lb1EEELi0EEEDTclsrT0_8__unwrapclsr3stdE7declvalIT_EEEES7_, symObjAddr: 0x8C14, symBinAddr: 0x10000B5E8, symSize: 0x24 }
  - { offsetInCU: 0x1315D, offset: 0x1315D, size: 0x8, addend: 0x0, symName: __ZNSt3__113__rewrap_iterB8ue170006IPN5memdb9OperationES3_NS_18__unwrap_iter_implIS3_Lb1EEEEET_S6_T0_, symObjAddr: 0x8C38, symBinAddr: 0x10000B60C, symSize: 0x48 }
  - { offsetInCU: 0x1331B, offset: 0x1331B, size: 0x8, addend: 0x0, symName: __ZNSt3__113__unwrap_iterB8ue170006IPKN5memdb9OperationENS_18__unwrap_iter_implIS4_Lb1EEELi0EEEDTclsrT0_8__unwrapclsr3stdE7declvalIT_EEEES8_, symObjAddr: 0x8F8C, symBinAddr: 0x10000B960, symSize: 0x24 }
  - { offsetInCU: 0x133B2, offset: 0x133B2, size: 0x8, addend: 0x0, symName: __ZNSt3__112__to_addressB8ue170006IKN5memdb9OperationEEEPT_S5_, symObjAddr: 0x905C, symBinAddr: 0x10000BA30, symSize: 0x14 }
  - { offsetInCU: 0x133E7, offset: 0x133E7, size: 0x8, addend: 0x0, symName: __ZNSt3__14copyB8ue170006IPKN5memdb9OperationEPS2_EET0_T_S7_S6_, symObjAddr: 0x9280, symBinAddr: 0x10000BC54, symSize: 0x2B4 }
  - { offsetInCU: 0x13444, offset: 0x13444, size: 0x8, addend: 0x0, symName: __ZNSt3__16__copyB8ue170006INS_17_ClassicAlgPolicyEPKN5memdb9OperationES5_PS3_EENS_4pairIT0_T2_EES8_T1_S9_, symObjAddr: 0x9534, symBinAddr: 0x10000BF08, symSize: 0x22C }
  - { offsetInCU: 0x134B3, offset: 0x134B3, size: 0x8, addend: 0x0, symName: __ZNSt3__123__dispatch_copy_or_moveB8ue170006INS_17_ClassicAlgPolicyENS_11__copy_loopIS1_EENS_14__copy_trivialEPKN5memdb9OperationES8_PS6_EENS_4pairIT2_T4_EESB_T3_SC_, symObjAddr: 0x9760, symBinAddr: 0x10000C134, symSize: 0x22C }
  - { offsetInCU: 0x13534, offset: 0x13534, size: 0x8, addend: 0x0, symName: __ZNSt3__121__unwrap_and_dispatchB8ue170006INS_10__overloadINS_11__copy_loopINS_17_ClassicAlgPolicyEEENS_14__copy_trivialEEEPKN5memdb9OperationESA_PS8_Li0EEENS_4pairIT0_T2_EESD_T1_SE_, symObjAddr: 0x998C, symBinAddr: 0x10000C360, symSize: 0x634 }
  - { offsetInCU: 0x13763, offset: 0x13763, size: 0x8, addend: 0x0, symName: __ZNSt3__19make_pairB8ue170006IPKN5memdb9OperationEPS2_EENS_4pairINS_18__unwrap_ref_decayIT_E4typeENS7_IT0_E4typeEEEOS8_OSB_, symObjAddr: 0xA21C, symBinAddr: 0x10000CBF0, symSize: 0x2A0 }
  - { offsetInCU: 0x137B4, offset: 0x137B4, size: 0x8, addend: 0x0, symName: __ZNSt3__114__rewrap_rangeB8ue170006IPKN5memdb9OperationES4_S4_EET0_S5_T1_, symObjAddr: 0xA4BC, symBinAddr: 0x10000CE90, symSize: 0x2C }
  - { offsetInCU: 0x13809, offset: 0x13809, size: 0x8, addend: 0x0, symName: __ZNSt3__119__copy_trivial_implB8ue170006IKN5memdb9OperationES2_EENS_4pairIPT_PT0_EES6_S6_S8_, symObjAddr: 0xA4E8, symBinAddr: 0x10000CEBC, symSize: 0x480 }
  - { offsetInCU: 0x13878, offset: 0x13878, size: 0x8, addend: 0x0, symName: __ZNSt3__119__constexpr_memmoveB8ue170006IN5memdb9OperationEKS2_Li0EEEPT_S5_PT0_NS_15__element_countE, symObjAddr: 0xA968, symBinAddr: 0x10000D33C, symSize: 0x64 }
  - { offsetInCU: 0x138E6, offset: 0x138E6, size: 0x8, addend: 0x0, symName: __ZNSt3__19make_pairB8ue170006IRPKN5memdb9OperationEPS2_EENS_4pairINS_18__unwrap_ref_decayIT_E4typeENS8_IT0_E4typeEEEOS9_OSC_, symObjAddr: 0xA9CC, symBinAddr: 0x10000D3A0, symSize: 0x2A0 }
  - { offsetInCU: 0x13937, offset: 0x13937, size: 0x8, addend: 0x0, symName: __ZNSt3__113__rewrap_iterB8ue170006IPKN5memdb9OperationES4_NS_18__unwrap_iter_implIS4_Lb1EEEEET_S7_T0_, symObjAddr: 0xB1C8, symBinAddr: 0x10000DB9C, symSize: 0x48 }
  - { offsetInCU: 0x139DF, offset: 0x139DF, size: 0x8, addend: 0x0, symName: __ZNSt3__110destroy_atB8ue170006IN5memdb9OperationELi0EEEvPT_, symObjAddr: 0xC7CC, symBinAddr: 0x10000F1A0, symSize: 0x24 }
  - { offsetInCU: 0x13A16, offset: 0x13A16, size: 0x8, addend: 0x0, symName: __ZNSt3__112__destroy_atB8ue170006IN5memdb9OperationELi0EEEvPT_, symObjAddr: 0xC7F0, symBinAddr: 0x10000F1C4, symSize: 0x10 }
  - { offsetInCU: 0x13A4D, offset: 0x13A4D, size: 0x8, addend: 0x0, symName: __ZNSt3__119__libcpp_deallocateB8ue170006EPvmm, symObjAddr: 0xC878, symBinAddr: 0x10000F24C, symSize: 0x60 }
  - { offsetInCU: 0x13AB2, offset: 0x13AB2, size: 0x8, addend: 0x0, symName: __ZNSt3__127__do_deallocate_handle_sizeB8ue170006IJSt11align_val_tEEEvPvmDpT_, symObjAddr: 0xC8D8, symBinAddr: 0x10000F2AC, symSize: 0x30 }
  - { offsetInCU: 0x13B05, offset: 0x13B05, size: 0x8, addend: 0x0, symName: __ZNSt3__127__do_deallocate_handle_sizeB8ue170006IJEEEvPvmDpT_, symObjAddr: 0xC908, symBinAddr: 0x10000F2DC, symSize: 0x28 }
  - { offsetInCU: 0x13B43, offset: 0x13B43, size: 0x8, addend: 0x0, symName: __ZNSt3__124__libcpp_operator_deleteB8ue170006IJPvSt11align_val_tEEEvDpT_, symObjAddr: 0xC930, symBinAddr: 0x10000F304, symSize: 0x2C }
  - { offsetInCU: 0x13B8C, offset: 0x13B8C, size: 0x8, addend: 0x0, symName: __ZNSt3__124__libcpp_operator_deleteB8ue170006IJPvEEEvDpT_, symObjAddr: 0xC95C, symBinAddr: 0x10000F330, symSize: 0x24 }
  - { offsetInCU: 0x13BC1, offset: 0x13BC1, size: 0x8, addend: 0x0, symName: __ZNSt3__1eqB8ue170006IPN5memdb9OperationEEEbRKNS_11__wrap_iterIT_EES8_, symObjAddr: 0xCC14, symBinAddr: 0x10000F5E8, symSize: 0x9C }
  - { offsetInCU: 0x13C04, offset: 0x13C04, size: 0x8, addend: 0x0, symName: __ZNSt3__113__rewrap_iterB8ue170006INS_11__wrap_iterIPN5memdb9OperationEEES4_NS_18__unwrap_iter_implIS5_Lb1EEEEET_S8_T0_, symObjAddr: 0xCD5C, symBinAddr: 0x10000F730, symSize: 0x338 }
  - { offsetInCU: 0x13C5E, offset: 0x13C5E, size: 0x8, addend: 0x0, symName: __ZNSt3__111__find_implB8ue170006IPN5memdb9OperationES3_S2_NS_10__identityEEET_S5_T0_RKT1_RT2_, symObjAddr: 0xD094, symBinAddr: 0x10000FA68, symSize: 0x28C }
  - { offsetInCU: 0x13CD8, offset: 0x13CD8, size: 0x8, addend: 0x0, symName: __ZNSt3__113__unwrap_iterB8ue170006INS_11__wrap_iterIPN5memdb9OperationEEENS_18__unwrap_iter_implIS5_Lb1EEELi0EEEDTclsrT0_8__unwrapclsr3stdE7declvalIT_EEEES9_, symObjAddr: 0xD320, symBinAddr: 0x10000FCF4, symSize: 0x274 }
  - { offsetInCU: 0x13D73, offset: 0x13D73, size: 0x8, addend: 0x0, symName: __ZNSt3__112__to_addressB8ue170006INS_11__wrap_iterIPN5memdb9OperationEEEvEEu7__decayIDTclsr19__to_address_helperIT_EE6__callclsr3stdE7declvalIRKS6_EEEEES8_, symObjAddr: 0xDAC0, symBinAddr: 0x100010494, symSize: 0x6C }
  - { offsetInCU: 0x13E10, offset: 0x13E10, size: 0x8, addend: 0x0, symName: __ZNSt3__18__invokeB8ue170006IRNS_10__identityEJRN5memdb9OperationEEEEDTclclsr3stdE7declvalIT_EEspclsr3stdE7declvalIT0_EEEEOS6_DpOS7_, symObjAddr: 0xE148, symBinAddr: 0x100010B1C, symSize: 0xE8 }
  - { offsetInCU: 0x13E8E, offset: 0x13E8E, size: 0x8, addend: 0x0, symName: __ZNSt3__1neB8ue170006IPlEEbRKNS_11__wrap_iterIT_EES6_, symObjAddr: 0x169B8, symBinAddr: 0x10001938C, symSize: 0xC4 }
  - { offsetInCU: 0x13ED1, offset: 0x13ED1, size: 0x8, addend: 0x0, symName: __ZNSt3__119__allocate_at_leastB8ue170006INS_9allocatorINS_12basic_stringIcNS_11char_traitsIcEENS1_IcEEEEEEEEDaRT_m, symObjAddr: 0x19488, symBinAddr: 0x10001BE5C, symSize: 0x250 }
  - { offsetInCU: 0x13F16, offset: 0x13F16, size: 0x8, addend: 0x0, symName: __ZNSt3__117allocate_at_leastB8ue170006INS_9allocatorINS_12basic_stringIcNS_11char_traitsIcEENS1_IcEEEEEEEENS_17allocation_resultINS_16allocator_traitsIT_E7pointerEEERSA_m, symObjAddr: 0x19BFC, symBinAddr: 0x10001C5D0, symSize: 0x224 }
  - { offsetInCU: 0x13F5B, offset: 0x13F5B, size: 0x8, addend: 0x0, symName: __ZNSt3__142__uninitialized_allocator_move_if_noexceptB8ue170006INS_9allocatorINS_12basic_stringIcNS_11char_traitsIcEENS1_IcEEEEEENS_16reverse_iteratorIPS6_EESA_SA_EET2_RT_T0_T1_SB_, symObjAddr: 0x1A8E8, symBinAddr: 0x10001D2BC, symSize: 0x5D8 }
  - { offsetInCU: 0x14010, offset: 0x14010, size: 0x8, addend: 0x0, symName: __ZNSt3__14swapB8ue170006IPNS_12basic_stringIcNS_11char_traitsIcEENS_9allocatorIcEEEEEENS_9enable_ifIXaasr21is_move_constructibleIT_EE5valuesr18is_move_assignableIS9_EE5valueEvE4typeERS9_SC_, symObjAddr: 0x1AFF0, symBinAddr: 0x10001D9C4, symSize: 0x1C0 }
  - { offsetInCU: 0x14061, offset: 0x14061, size: 0x8, addend: 0x0, symName: __ZNSt3__112__to_addressB8ue170006INS_12basic_stringIcNS_11char_traitsIcEENS_9allocatorIcEEEEEEPT_S8_, symObjAddr: 0x1B774, symBinAddr: 0x10001E148, symSize: 0x14 }
  - { offsetInCU: 0x14096, offset: 0x14096, size: 0x8, addend: 0x0, symName: __ZNSt3__122__make_exception_guardB8ue170006INS_29_AllocatorDestroyRangeReverseINS_9allocatorINS_12basic_stringIcNS_11char_traitsIcEENS2_IcEEEEEENS_16reverse_iteratorIPS7_EEEEEENS_28__exception_guard_exceptionsIT_EESE_, symObjAddr: 0x1B788, symBinAddr: 0x10001E15C, symSize: 0x23C }
  - { offsetInCU: 0x140CD, offset: 0x140CD, size: 0x8, addend: 0x0, symName: __ZNSt3__1neB8ue170006IPNS_12basic_stringIcNS_11char_traitsIcEENS_9allocatorIcEEEES7_EEbRKNS_16reverse_iteratorIT_EERKNS8_IT0_EE, symObjAddr: 0x1BA54, symBinAddr: 0x10001E428, symSize: 0x9C }
  - { offsetInCU: 0x14119, offset: 0x14119, size: 0x8, addend: 0x0, symName: __ZNSt3__112__to_addressB8ue170006INS_16reverse_iteratorIPNS_12basic_stringIcNS_11char_traitsIcEENS_9allocatorIcEEEEEEvEEu7__decayIDTclsr19__to_address_helperIT_EE6__callclsr3stdE7declvalIRKSA_EEEEESC_, symObjAddr: 0x1BB70, symBinAddr: 0x10001E544, symSize: 0x6C }
  - { offsetInCU: 0x14174, offset: 0x14174, size: 0x8, addend: 0x0, symName: __ZNSt3__112construct_atB8ue170006INS_12basic_stringIcNS_11char_traitsIcEENS_9allocatorIcEEEEJS6_EPS6_EEPT_S9_DpOT0_, symObjAddr: 0x1C3E8, symBinAddr: 0x10001EDBC, symSize: 0x110 }
  - { offsetInCU: 0x1420D, offset: 0x1420D, size: 0x8, addend: 0x0, symName: __ZNSt3__14prevB8ue170006IPNS_12basic_stringIcNS_11char_traitsIcEENS_9allocatorIcEEEEEENS_9enable_ifIXsr29__has_input_iterator_categoryIT_EE5valueES9_E4typeES9_NS_15iterator_traitsIS9_E15difference_typeE, symObjAddr: 0x1CBF0, symBinAddr: 0x10001F5C4, symSize: 0x270 }
  - { offsetInCU: 0x14255, offset: 0x14255, size: 0x8, addend: 0x0, symName: __ZNSt3__121__convert_to_integralB8ue170006El, symObjAddr: 0x1CEE0, symBinAddr: 0x10001F8B4, symSize: 0x14 }
  - { offsetInCU: 0x14281, offset: 0x14281, size: 0x8, addend: 0x0, symName: __ZNSt3__19__advanceB8ue170006IPNS_12basic_stringIcNS_11char_traitsIcEENS_9allocatorIcEEEEEEvRT_NS_15iterator_traitsIS8_E15difference_typeENS_26random_access_iterator_tagE, symObjAddr: 0x1CEF4, symBinAddr: 0x10001F8C8, symSize: 0x1A4 }
  - { offsetInCU: 0x142CA, offset: 0x142CA, size: 0x8, addend: 0x0, symName: __ZNSt3__119__allocator_destroyB8ue170006INS_9allocatorINS_12basic_stringIcNS_11char_traitsIcEENS1_IcEEEEEENS_16reverse_iteratorINS8_IPS6_EEEESB_EEvRT_T0_T1_, symObjAddr: 0x1D62C, symBinAddr: 0x100020000, symSize: 0x1A4 }
  - { offsetInCU: 0x1432F, offset: 0x1432F, size: 0x8, addend: 0x0, symName: __ZNSt3__1neB8ue170006INS_16reverse_iteratorIPNS_12basic_stringIcNS_11char_traitsIcEENS_9allocatorIcEEEEEES9_EEbRKNS1_IT_EERKNS1_IT0_EE, symObjAddr: 0x1DA6C, symBinAddr: 0x100020440, symSize: 0x324 }
  - { offsetInCU: 0x1437D, offset: 0x1437D, size: 0x8, addend: 0x0, symName: __ZNSt3__112__to_addressB8ue170006INS_16reverse_iteratorINS1_IPNS_12basic_stringIcNS_11char_traitsIcEENS_9allocatorIcEEEEEEEEvEEu7__decayIDTclsr19__to_address_helperIT_EE6__callclsr3stdE7declvalIRKSB_EEEEESD_, symObjAddr: 0x1DDB8, symBinAddr: 0x10002078C, symSize: 0x6C }
  - { offsetInCU: 0x143B3, offset: 0x143B3, size: 0x8, addend: 0x0, symName: __ZNSt3__110destroy_atB8ue170006INS_12basic_stringIcNS_11char_traitsIcEENS_9allocatorIcEEEELi0EEEvPT_, symObjAddr: 0x1E17C, symBinAddr: 0x100020B50, symSize: 0x24 }
  - { offsetInCU: 0x143EA, offset: 0x143EA, size: 0x8, addend: 0x0, symName: __ZNSt3__112__destroy_atB8ue170006INS_12basic_stringIcNS_11char_traitsIcEENS_9allocatorIcEEEELi0EEEvPT_, symObjAddr: 0x1E1A0, symBinAddr: 0x100020B74, symSize: 0x6C }
  - { offsetInCU: 0x1444A, offset: 0x1444A, size: 0x8, addend: 0x0, symName: __ZNSt3__14prevB8ue170006INS_16reverse_iteratorIPNS_12basic_stringIcNS_11char_traitsIcEENS_9allocatorIcEEEEEEEENS_9enable_ifIXsr29__has_input_iterator_categoryIT_EE5valueESB_E4typeESB_NS_15iterator_traitsISB_E15difference_typeE, symObjAddr: 0x1E56C, symBinAddr: 0x100020F40, symSize: 0x2C4 }
  - { offsetInCU: 0x14492, offset: 0x14492, size: 0x8, addend: 0x0, symName: __ZNSt3__19__advanceB8ue170006INS_16reverse_iteratorIPNS_12basic_stringIcNS_11char_traitsIcEENS_9allocatorIcEEEEEEEEvRT_NS_15iterator_traitsISA_E15difference_typeENS_26random_access_iterator_tagE, symObjAddr: 0x1E8B0, symBinAddr: 0x100021284, symSize: 0x7C }
  - { offsetInCU: 0x144DB, offset: 0x144DB, size: 0x8, addend: 0x0, symName: __ZNSt3__1eqB8ue170006IPlEEbRKNS_11__wrap_iterIT_EES6_, symObjAddr: 0x1FE2C, symBinAddr: 0x100022800, symSize: 0x9C }
  - { offsetInCU: 0x1451E, offset: 0x1451E, size: 0x8, addend: 0x0, symName: __ZNSt3__112construct_atB8ue170006INS_12basic_stringIcNS_11char_traitsIcEENS_9allocatorIcEEEEJRS6_EPS6_EEPT_SA_DpOT0_, symObjAddr: 0x215CC, symBinAddr: 0x100023FA0, symSize: 0x110 }
  - { offsetInCU: 0x1458E, offset: 0x1458E, size: 0x8, addend: 0x0, symName: __ZNSt3__13maxB8ue170006ImEERKT_S3_S3_, symObjAddr: 0x22240, symBinAddr: 0x100024C14, symSize: 0x104 }
  - { offsetInCU: 0x145D1, offset: 0x145D1, size: 0x8, addend: 0x0, symName: __ZNSt3__13maxB8ue170006ImNS_6__lessIvvEEEERKT_S5_S5_T0_, symObjAddr: 0x22344, symBinAddr: 0x100024D18, symSize: 0x2C0 }
  - { offsetInCU: 0x14680, offset: 0x14680, size: 0x8, addend: 0x0, symName: __ZNSt3__116forward_as_tupleB8ue170006IJRKlEEENS_5tupleIJDpOT_EEES6_, symObjAddr: 0x243D4, symBinAddr: 0x100026DA8, symSize: 0x244 }
  - { offsetInCU: 0x146BA, offset: 0x146BA, size: 0x8, addend: 0x0, symName: __ZNSt3__116forward_as_tupleB8ue170006IJEEENS_5tupleIJDpOT_EEES4_, symObjAddr: 0x24618, symBinAddr: 0x100026FEC, symSize: 0x4 }
  - { offsetInCU: 0x146DE, offset: 0x146DE, size: 0x8, addend: 0x0, symName: __ZNSt3__116__constrain_hashB8ue170006Emm, symObjAddr: 0x24B08, symBinAddr: 0x1000274DC, symSize: 0xDC }
  - { offsetInCU: 0x14718, offset: 0x14718, size: 0x8, addend: 0x0, symName: __ZNSt3__116__is_hash_power2B8ue170006Em, symObjAddr: 0x25EE8, symBinAddr: 0x1000288BC, symSize: 0x50 }
  - { offsetInCU: 0x14744, offset: 0x14744, size: 0x8, addend: 0x0, symName: __ZNSt3__17launderB8ue170006IKNS_4pairIKlNS_12basic_stringIcNS_11char_traitsIcEENS_9allocatorIcEEEEEEEEPT_SC_, symObjAddr: 0x273BC, symBinAddr: 0x100029D90, symSize: 0x24 }
  - { offsetInCU: 0x1477B, offset: 0x1477B, size: 0x8, addend: 0x0, symName: __ZNSt3__19__launderB8ue170006IKNS_4pairIKlNS_12basic_stringIcNS_11char_traitsIcEENS_9allocatorIcEEEEEEEEPT_SC_, symObjAddr: 0x273E0, symBinAddr: 0x100029DB4, symSize: 0x14 }
  - { offsetInCU: 0x14828, offset: 0x14828, size: 0x8, addend: 0x0, symName: __ZNSt3__112construct_atB8ue170006INS_4pairIKlNS_12basic_stringIcNS_11char_traitsIcEENS_9allocatorIcEEEEEEJRKNS_21piecewise_construct_tENS_5tupleIJRS2_EEENSD_IJEEEEPS9_EEPT_SJ_DpOT0_, symObjAddr: 0x2839C, symBinAddr: 0x10002AD70, symSize: 0x2A8 }
  - { offsetInCU: 0x148CE, offset: 0x148CE, size: 0x8, addend: 0x0, symName: __ZNSt3__13getB8ue170006ILm0EJRKlEEERNS_13tuple_elementIXT_ENS_5tupleIJDpT0_EEEE4typeERS7_, symObjAddr: 0x28B08, symBinAddr: 0x10002B4DC, symSize: 0xE0 }
  - { offsetInCU: 0x14911, offset: 0x14911, size: 0x8, addend: 0x0, symName: __ZNSt3__116__next_hash_pow2B8ue170006Em, symObjAddr: 0x2B2D0, symBinAddr: 0x10002DCA4, symSize: 0xCC }
  - { offsetInCU: 0x14959, offset: 0x14959, size: 0x8, addend: 0x0, symName: __ZNSt3__112__libcpp_clzB8ue170006Em, symObjAddr: 0x2C2B4, symBinAddr: 0x10002EC88, symSize: 0x1C }
  - { offsetInCU: 0x14985, offset: 0x14985, size: 0x8, addend: 0x0, symName: __ZNSt3__110destroy_atB8ue170006INS_4pairIKlNS_12basic_stringIcNS_11char_traitsIcEENS_9allocatorIcEEEEEELi0EEEvPT_, symObjAddr: 0x2CD80, symBinAddr: 0x10002F754, symSize: 0x24 }
  - { offsetInCU: 0x149BC, offset: 0x149BC, size: 0x8, addend: 0x0, symName: __ZNSt3__112__destroy_atB8ue170006INS_4pairIKlNS_12basic_stringIcNS_11char_traitsIcEENS_9allocatorIcEEEEEELi0EEEvPT_, symObjAddr: 0x2CDA4, symBinAddr: 0x10002F778, symSize: 0x6C }
  - { offsetInCU: 0x14A4A, offset: 0x14A4A, size: 0x8, addend: 0x0, symName: __ZNSt3__17launderB8ue170006INS_4pairIKlNS_12basic_stringIcNS_11char_traitsIcEENS_9allocatorIcEEEEEEEEPT_SB_, symObjAddr: 0x2D600, symBinAddr: 0x10002FFD4, symSize: 0x24 }
  - { offsetInCU: 0x14A81, offset: 0x14A81, size: 0x8, addend: 0x0, symName: __ZNSt3__19__launderB8ue170006INS_4pairIKlNS_12basic_stringIcNS_11char_traitsIcEENS_9allocatorIcEEEEEEEEPT_SB_, symObjAddr: 0x2D624, symBinAddr: 0x10002FFF8, symSize: 0x14 }
  - { offsetInCU: 0x14AB8, offset: 0x14AB8, size: 0x8, addend: 0x0, symName: __ZNSt3__116forward_as_tupleB8ue170006IJlEEENS_5tupleIJDpOT_EEES4_, symObjAddr: 0x30220, symBinAddr: 0x100032BF4, symSize: 0x244 }
  - { offsetInCU: 0x14AF2, offset: 0x14AF2, size: 0x8, addend: 0x0, symName: __ZNSt3__112construct_atB8ue170006INS_4pairIKlNS_12basic_stringIcNS_11char_traitsIcEENS_9allocatorIcEEEEEEJRKNS_21piecewise_construct_tENS_5tupleIJOlEEENSD_IJEEEEPS9_EEPT_SJ_DpOT0_, symObjAddr: 0x30E94, symBinAddr: 0x100033868, symSize: 0x2A8 }
  - { offsetInCU: 0x14B8D, offset: 0x14B8D, size: 0x8, addend: 0x0, symName: __ZNSt3__13getB8ue170006ILm0EJOlEEERNS_13tuple_elementIXT_ENS_5tupleIJDpT0_EEEE4typeERS6_, symObjAddr: 0x31600, symBinAddr: 0x100033FD4, symSize: 0xE0 }
  - { offsetInCU: 0x14BE5, offset: 0x14BE5, size: 0x8, addend: 0x0, symName: __ZNSt3__1neB8ue170006IPNS_8functionIFbRNS_12basic_stringIcNS_11char_traitsIcEENS_9allocatorIcEEEEEEEEEbRKNS_11__wrap_iterIT_EESG_, symObjAddr: 0x325A8, symBinAddr: 0x100034F7C, symSize: 0xC4 }
  - { offsetInCU: 0x14C28, offset: 0x14C28, size: 0x8, addend: 0x0, symName: __ZNSt3__14swapB8ue170006IlNS_9allocatorIlEEEEvRNS_6vectorIT_T0_EES7_, symObjAddr: 0x32D50, symBinAddr: 0x100035724, symSize: 0xA0 }
  - { offsetInCU: 0x14C73, offset: 0x14C73, size: 0x8, addend: 0x0, symName: __ZNSt3__119__allocate_at_leastB8ue170006INS_9allocatorIlEEEEDaRT_m, symObjAddr: 0x354AC, symBinAddr: 0x100037E80, symSize: 0x250 }
  - { offsetInCU: 0x14CB8, offset: 0x14CB8, size: 0x8, addend: 0x0, symName: __ZNSt3__117allocate_at_leastB8ue170006INS_9allocatorIlEEEENS_17allocation_resultINS_16allocator_traitsIT_E7pointerEEERS5_m, symObjAddr: 0x35B64, symBinAddr: 0x100038538, symSize: 0x224 }
  - { offsetInCU: 0x14CFD, offset: 0x14CFD, size: 0x8, addend: 0x0, symName: __ZNSt3__142__uninitialized_allocator_move_if_noexceptB8ue170006INS_9allocatorIlEENS_16reverse_iteratorIPlEES5_lvEET1_RT_T0_S9_S6_, symObjAddr: 0x36834, symBinAddr: 0x100039208, symSize: 0x4A8 }
  - { offsetInCU: 0x14D87, offset: 0x14D87, size: 0x8, addend: 0x0, symName: __ZNSt3__14swapB8ue170006IPlEENS_9enable_ifIXaasr21is_move_constructibleIT_EE5valuesr18is_move_assignableIS3_EE5valueEvE4typeERS3_S6_, symObjAddr: 0x36E0C, symBinAddr: 0x1000397E0, symSize: 0x1C0 }
  - { offsetInCU: 0x14DD8, offset: 0x14DD8, size: 0x8, addend: 0x0, symName: __ZNSt3__112__to_addressB8ue170006IlEEPT_S2_, symObjAddr: 0x37578, symBinAddr: 0x100039F4C, symSize: 0x14 }
  - { offsetInCU: 0x14E0D, offset: 0x14E0D, size: 0x8, addend: 0x0, symName: __ZNSt3__14moveB8ue170006INS_16reverse_iteratorIPlEES3_EET0_T_S5_S4_, symObjAddr: 0x3758C, symBinAddr: 0x100039F60, symSize: 0x4B0 }
  - { offsetInCU: 0x14E74, offset: 0x14E74, size: 0x8, addend: 0x0, symName: __ZNSt3__16__moveB8ue170006INS_17_ClassicAlgPolicyENS_16reverse_iteratorIPlEES4_S4_EENS_4pairIT0_T2_EES6_T1_S7_, symObjAddr: 0x37A3C, symBinAddr: 0x10003A410, symSize: 0x424 }
  - { offsetInCU: 0x14EEC, offset: 0x14EEC, size: 0x8, addend: 0x0, symName: __ZNSt3__123__dispatch_copy_or_moveB8ue170006INS_17_ClassicAlgPolicyENS_11__move_loopIS1_EENS_14__move_trivialENS_16reverse_iteratorIPlEES7_S7_EENS_4pairIT2_T4_EES9_T3_SA_, symObjAddr: 0x37E60, symBinAddr: 0x10003A834, symSize: 0x424 }
  - { offsetInCU: 0x14F76, offset: 0x14F76, size: 0x8, addend: 0x0, symName: __ZNSt3__121__unwrap_and_dispatchB8ue170006INS_10__overloadINS_11__move_loopINS_17_ClassicAlgPolicyEEENS_14__move_trivialEEENS_16reverse_iteratorIPlEES9_S9_Li0EEENS_4pairIT0_T2_EESB_T1_SC_, symObjAddr: 0x38284, symBinAddr: 0x10003AC58, symSize: 0x880 }
  - { offsetInCU: 0x1501A, offset: 0x1501A, size: 0x8, addend: 0x0, symName: __ZNSt3__114__unwrap_rangeB8ue170006INS_16reverse_iteratorIPlEES3_EEDaT_T0_, symObjAddr: 0x38B04, symBinAddr: 0x10003B4D8, symSize: 0x35C }
  - { offsetInCU: 0x151EA, offset: 0x151EA, size: 0x8, addend: 0x0, symName: __ZNSt3__113__unwrap_iterB8ue170006INS_16reverse_iteratorIPlEENS_18__unwrap_iter_implIS3_Lb0EEELi0EEEDTclsrT0_8__unwrapclsr3stdE7declvalIT_EEEES7_, symObjAddr: 0x392BC, symBinAddr: 0x10003BC90, symSize: 0x2EC }
  - { offsetInCU: 0x15232, offset: 0x15232, size: 0x8, addend: 0x0, symName: __ZNSt3__19make_pairB8ue170006INS_16reverse_iteratorIPlEES3_EENS_4pairINS_18__unwrap_ref_decayIT_E4typeENS5_IT0_E4typeEEEOS6_OS9_, symObjAddr: 0x395A8, symBinAddr: 0x10003BF7C, symSize: 0x108 }
  - { offsetInCU: 0x15281, offset: 0x15281, size: 0x8, addend: 0x0, symName: __ZNSt3__114__rewrap_rangeB8ue170006INS_16reverse_iteratorIPlEES3_S3_EET0_S4_T1_, symObjAddr: 0x396B0, symBinAddr: 0x10003C084, symSize: 0x3D4 }
  - { offsetInCU: 0x152DE, offset: 0x152DE, size: 0x8, addend: 0x0, symName: __ZNSt3__113__rewrap_iterB8ue170006INS_16reverse_iteratorIPlEES3_NS_18__unwrap_iter_implIS3_Lb0EEEEET_S6_T0_, symObjAddr: 0x39A84, symBinAddr: 0x10003C458, symSize: 0x3E8 }
  - { offsetInCU: 0x1538B, offset: 0x1538B, size: 0x8, addend: 0x0, symName: __ZNSt3__1neB8ue170006IPlS1_EEbRKNS_16reverse_iteratorIT_EERKNS2_IT0_EE, symObjAddr: 0x3A424, symBinAddr: 0x10003CDF8, symSize: 0x9C }
  - { offsetInCU: 0x15489, offset: 0x15489, size: 0x8, addend: 0x0, symName: __ZNSt3__110destroy_atB8ue170006IlLi0EEEvPT_, symObjAddr: 0x3BA60, symBinAddr: 0x10003E434, symSize: 0x24 }
  - { offsetInCU: 0x154C0, offset: 0x154C0, size: 0x8, addend: 0x0, symName: __ZNSt3__112__destroy_atB8ue170006IlLi0EEEvPT_, symObjAddr: 0x3BA84, symBinAddr: 0x10003E458, symSize: 0x10 }
  - { offsetInCU: 0x154F7, offset: 0x154F7, size: 0x8, addend: 0x0, symName: __ZNSt3__1eqB8ue170006IPNS_8functionIFbRNS_12basic_stringIcNS_11char_traitsIcEENS_9allocatorIcEEEEEEEEEbRKNS_11__wrap_iterIT_EESG_, symObjAddr: 0x3C0BC, symBinAddr: 0x10003EA90, symSize: 0x9C }
  - { offsetInCU: 0x1553A, offset: 0x1553A, size: 0x8, addend: 0x0, symName: __ZNSt3__125__throw_bad_function_callB8ue170006Ev, symObjAddr: 0x3CC78, symBinAddr: 0x10003F64C, symSize: 0x90 }
  - { offsetInCU: 0x155AF, offset: 0x155AF, size: 0x8, addend: 0x0, symName: __ZNSt3__112construct_atB8ue170006IlJRlEPlEEPT_S4_DpOT0_, symObjAddr: 0x3EC34, symBinAddr: 0x100041608, symSize: 0x188 }
  - { offsetInCU: 0x1561F, offset: 0x1561F, size: 0x8, addend: 0x0, symName: __ZNSt3__116__swap_allocatorB8ue170006INS_9allocatorIlEEEEvRT_S4_NS_17integral_constantIbLb0EEE, symObjAddr: 0x3FC14, symBinAddr: 0x1000425E8, symSize: 0x14 }
  - { offsetInCU: 0x15660, offset: 0x15660, size: 0x8, addend: 0x0, symName: __ZNSt3__1eqB8ue170006ERKNS_15__hash_iteratorIPNS_11__hash_nodeINS_17__hash_value_typeIlNS_12basic_stringIcNS_11char_traitsIcEENS_9allocatorIcEEEEEEPvEEEESF_, symObjAddr: 0x42CD8, symBinAddr: 0x1000456AC, symSize: 0x114 }
  - { offsetInCU: 0x1572A, offset: 0x1572A, size: 0x8, addend: 0x0, symName: __ZNSt3__17launderB8ue170006IKNS_4pairIKlNS_23__forward_list_iteratorIPNS_19__forward_list_nodeIlPvEEEEEEEEPT_SC_, symObjAddr: 0x494E4, symBinAddr: 0x10004BEB8, symSize: 0x24 }
  - { offsetInCU: 0x15761, offset: 0x15761, size: 0x8, addend: 0x0, symName: __ZNSt3__19__launderB8ue170006IKNS_4pairIKlNS_23__forward_list_iteratorIPNS_19__forward_list_nodeIlPvEEEEEEEEPT_SC_, symObjAddr: 0x49508, symBinAddr: 0x10004BEDC, symSize: 0x14 }
  - { offsetInCU: 0x1580E, offset: 0x1580E, size: 0x8, addend: 0x0, symName: __ZNSt3__112construct_atB8ue170006INS_4pairIKlNS_23__forward_list_iteratorIPNS_19__forward_list_nodeIlPvEEEEEEJRKNS_21piecewise_construct_tENS_5tupleIJOlEEENSD_IJEEEEPS9_EEPT_SJ_DpOT0_, symObjAddr: 0x4A4C0, symBinAddr: 0x10004CE94, symSize: 0x2A8 }
  - { offsetInCU: 0x158A9, offset: 0x158A9, size: 0x8, addend: 0x0, symName: __ZNSt3__110destroy_atB8ue170006INS_4pairIKlNS_23__forward_list_iteratorIPNS_19__forward_list_nodeIlPvEEEEEELi0EEEvPT_, symObjAddr: 0x4E594, symBinAddr: 0x100050F68, symSize: 0x24 }
  - { offsetInCU: 0x158E0, offset: 0x158E0, size: 0x8, addend: 0x0, symName: __ZNSt3__112__destroy_atB8ue170006INS_4pairIKlNS_23__forward_list_iteratorIPNS_19__forward_list_nodeIlPvEEEEEELi0EEEvPT_, symObjAddr: 0x4E5B8, symBinAddr: 0x100050F8C, symSize: 0x10 }
  - { offsetInCU: 0x1594A, offset: 0x1594A, size: 0x8, addend: 0x0, symName: __ZNSt3__17launderB8ue170006INS_4pairIKlNS_23__forward_list_iteratorIPNS_19__forward_list_nodeIlPvEEEEEEEEPT_SB_, symObjAddr: 0x4E8E4, symBinAddr: 0x1000512B8, symSize: 0x24 }
  - { offsetInCU: 0x15981, offset: 0x15981, size: 0x8, addend: 0x0, symName: __ZNSt3__19__launderB8ue170006INS_4pairIKlNS_23__forward_list_iteratorIPNS_19__forward_list_nodeIlPvEEEEEEEEPT_SB_, symObjAddr: 0x4E908, symBinAddr: 0x1000512DC, symSize: 0x14 }
  - { offsetInCU: 0x159B8, offset: 0x159B8, size: 0x8, addend: 0x0, symName: __ZNSt3__1eqB8ue170006ERKNS_15__hash_iteratorIPNS_11__hash_nodeINS_17__hash_value_typeIlNS_23__forward_list_iteratorIPNS_19__forward_list_nodeIlPvEEEEEES5_EEEESE_, symObjAddr: 0x4F928, symBinAddr: 0x1000522FC, symSize: 0x114 }
  - { offsetInCU: 0x1607D, offset: 0x1607D, size: 0x8, addend: 0x0, symName: __ZSt28__throw_bad_array_new_lengthB8ue170006v, symObjAddr: 0x721C, symBinAddr: 0x100009BF0, symSize: 0x7C }
  - { offsetInCU: 0x161FF, offset: 0x161FF, size: 0x8, addend: 0x0, symName: _.str, symObjAddr: 0x767E0, symBinAddr: 0x100068600, symSize: 0x0 }
  - { offsetInCU: 0x165D0, offset: 0x165D0, size: 0x8, addend: 0x0, symName: __ZNSt3__16vectorINS_12basic_stringIcNS_11char_traitsIcEENS_9allocatorIcEEEENS4_IS6_EEE26__swap_out_circular_bufferERNS_14__split_bufferIS6_RS7_EE, symObjAddr: 0x17C44, symBinAddr: 0x10001A618, symSize: 0x85C }
  - { offsetInCU: 0x16E34, offset: 0x16E34, size: 0x8, addend: 0x0, symName: __ZNSt3__16vectorIlNS_9allocatorIlEEE26__swap_out_circular_bufferERNS_14__split_bufferIlRS2_EE, symObjAddr: 0x33C78, symBinAddr: 0x10003664C, symSize: 0x85C }
  - { offsetInCU: 0x19913, offset: 0x19913, size: 0x8, addend: 0x0, symName: __ZNSt3__16vectorIN5memdb9OperationENS_9allocatorIS2_EEEC1B8ue170006ESt16initializer_listIS2_E, symObjAddr: 0x83C, symBinAddr: 0x100003210, symSize: 0x29C }
  - { offsetInCU: 0x19953, offset: 0x19953, size: 0x8, addend: 0x0, symName: __ZNSt3__16vectorIN5memdb9OperationENS_9allocatorIS2_EEED1B8ue170006Ev, symObjAddr: 0xAD8, symBinAddr: 0x1000034AC, symSize: 0x78 }
  - { offsetInCU: 0x1997D, offset: 0x1997D, size: 0x8, addend: 0x0, symName: __ZNSt3__16vectorIN5memdb9OperationENS_9allocatorIS2_EEE5beginB8ue170006Ev, symObjAddr: 0x110C, symBinAddr: 0x100003AE0, symSize: 0x2B0 }
  - { offsetInCU: 0x199A6, offset: 0x199A6, size: 0x8, addend: 0x0, symName: __ZNSt3__16vectorIN5memdb9OperationENS_9allocatorIS2_EEE3endB8ue170006Ev, symObjAddr: 0x13BC, symBinAddr: 0x100003D90, symSize: 0x2B4 }
  - { offsetInCU: 0x199CF, offset: 0x199CF, size: 0x8, addend: 0x0, symName: _main, symObjAddr: 0x2C28, symBinAddr: 0x1000055FC, symSize: 0x438 }
  - { offsetInCU: 0x19B9D, offset: 0x19B9D, size: 0x8, addend: 0x0, symName: __ZN5memdb8DbType_sINSt3__112basic_stringIcNS1_11char_traitsIcEENS1_9allocatorIcEEEEEC1Ev, symObjAddr: 0x3060, symBinAddr: 0x100005A34, symSize: 0x78 }
  - { offsetInCU: 0x19BCA, offset: 0x19BCA, size: 0x8, addend: 0x0, symName: __ZN5memdb8DbType_sINSt3__112basic_stringIcNS1_11char_traitsIcEENS1_9allocatorIcEEEEE5beginEv, symObjAddr: 0x30D8, symBinAddr: 0x100005AAC, symSize: 0x350 }
  - { offsetInCU: 0x19BF1, offset: 0x19BF1, size: 0x8, addend: 0x0, symName: __ZN5memdb8DbType_sINSt3__112basic_stringIcNS1_11char_traitsIcEENS1_9allocatorIcEEEEED1Ev, symObjAddr: 0x3428, symBinAddr: 0x100005DFC, symSize: 0x78 }
  - { offsetInCU: 0x19C1B, offset: 0x19C1B, size: 0x8, addend: 0x0, symName: __ZNSt3__16vectorIN5memdb9OperationENS_9allocatorIS2_EEEC2B8ue170006ESt16initializer_listIS2_E, symObjAddr: 0x34A0, symBinAddr: 0x100005E74, symSize: 0x5B0 }
  - { offsetInCU: 0x19C7F, offset: 0x19C7F, size: 0x8, addend: 0x0, symName: __ZNSt3__117__compressed_pairIPN5memdb9OperationENS_9allocatorIS2_EEEC1B8ue170006IDnNS_18__default_init_tagEEEOT_OT0_, symObjAddr: 0x3A50, symBinAddr: 0x100006424, symSize: 0x88 }
  - { offsetInCU: 0x19CD7, offset: 0x19CD7, size: 0x8, addend: 0x0, symName: __ZNSt3__16vectorIN5memdb9OperationENS_9allocatorIS2_EEE16__destroy_vectorC1B8ue170006ERS5_, symObjAddr: 0x3D94, symBinAddr: 0x100006768, symSize: 0x80 }
  - { offsetInCU: 0x19D10, offset: 0x19D10, size: 0x8, addend: 0x0, symName: __ZNKSt16initializer_listIN5memdb9OperationEE4sizeB8ue170006Ev, symObjAddr: 0x3E14, symBinAddr: 0x1000067E8, symSize: 0xB0 }
  - { offsetInCU: 0x19D36, offset: 0x19D36, size: 0x8, addend: 0x0, symName: __ZNSt3__16vectorIN5memdb9OperationENS_9allocatorIS2_EEE11__vallocateB8ue170006Em, symObjAddr: 0x3EC4, symBinAddr: 0x100006898, symSize: 0x5E8 }
  - { offsetInCU: 0x19D80, offset: 0x19D80, size: 0x8, addend: 0x0, symName: __ZNSt3__16vectorIN5memdb9OperationENS_9allocatorIS2_EEE18__construct_at_endIPKS2_S8_EEvT_T0_m, symObjAddr: 0x44AC, symBinAddr: 0x100006E80, symSize: 0x494 }
  - { offsetInCU: 0x19DFE, offset: 0x19DFE, size: 0x8, addend: 0x0, symName: __ZNKSt16initializer_listIN5memdb9OperationEE5beginB8ue170006Ev, symObjAddr: 0x4940, symBinAddr: 0x100007314, symSize: 0xAC }
  - { offsetInCU: 0x19E24, offset: 0x19E24, size: 0x8, addend: 0x0, symName: __ZNKSt16initializer_listIN5memdb9OperationEE3endB8ue170006Ev, symObjAddr: 0x49EC, symBinAddr: 0x1000073C0, symSize: 0x1C0 }
  - { offsetInCU: 0x19E4A, offset: 0x19E4A, size: 0x8, addend: 0x0, symName: __ZNSt3__128__exception_guard_exceptionsINS_6vectorIN5memdb9OperationENS_9allocatorIS3_EEE16__destroy_vectorEE10__completeB8ue170006Ev, symObjAddr: 0x4BAC, symBinAddr: 0x100007580, symSize: 0xD8 }
  - { offsetInCU: 0x19E70, offset: 0x19E70, size: 0x8, addend: 0x0, symName: __ZNSt3__128__exception_guard_exceptionsINS_6vectorIN5memdb9OperationENS_9allocatorIS3_EEE16__destroy_vectorEED1B8ue170006Ev, symObjAddr: 0x4C84, symBinAddr: 0x100007658, symSize: 0x78 }
  - { offsetInCU: 0x19E9A, offset: 0x19E9A, size: 0x8, addend: 0x0, symName: __ZNSt3__117__compressed_pairIPN5memdb9OperationENS_9allocatorIS2_EEEC2B8ue170006IDnNS_18__default_init_tagEEEOT_OT0_, symObjAddr: 0x4CFC, symBinAddr: 0x1000076D0, symSize: 0x140 }
  - { offsetInCU: 0x19EF2, offset: 0x19EF2, size: 0x8, addend: 0x0, symName: __ZNSt3__122__compressed_pair_elemIPN5memdb9OperationELi0ELb0EEC2B8ue170006IDnvEEOT_, symObjAddr: 0x4E3C, symBinAddr: 0x100007810, symSize: 0xBC }
  - { offsetInCU: 0x19F34, offset: 0x19F34, size: 0x8, addend: 0x0, symName: __ZNSt3__122__compressed_pair_elemINS_9allocatorIN5memdb9OperationEEELi1ELb1EEC2B8ue170006ENS_18__default_init_tagE, symObjAddr: 0x4EF8, symBinAddr: 0x1000078CC, symSize: 0x84 }
  - { offsetInCU: 0x19F68, offset: 0x19F68, size: 0x8, addend: 0x0, symName: __ZNSt3__19allocatorIN5memdb9OperationEEC2B8ue170006Ev, symObjAddr: 0x4F7C, symBinAddr: 0x100007950, symSize: 0x84 }
  - { offsetInCU: 0x19F92, offset: 0x19F92, size: 0x8, addend: 0x0, symName: __ZNSt3__116__non_trivial_ifILb1ENS_9allocatorIN5memdb9OperationEEEEC2B8ue170006Ev, symObjAddr: 0x5000, symBinAddr: 0x1000079D4, symSize: 0x54 }
  - { offsetInCU: 0x19FBC, offset: 0x19FBC, size: 0x8, addend: 0x0, symName: __ZNSt3__128__exception_guard_exceptionsINS_6vectorIN5memdb9OperationENS_9allocatorIS3_EEE16__destroy_vectorEEC1B8ue170006ES7_, symObjAddr: 0x5054, symBinAddr: 0x100007A28, symSize: 0x28C }
  - { offsetInCU: 0x19FF9, offset: 0x19FF9, size: 0x8, addend: 0x0, symName: __ZNSt3__128__exception_guard_exceptionsINS_6vectorIN5memdb9OperationENS_9allocatorIS3_EEE16__destroy_vectorEEC2B8ue170006ES7_, symObjAddr: 0x52E0, symBinAddr: 0x100007CB4, symSize: 0x2BC }
  - { offsetInCU: 0x1A036, offset: 0x1A036, size: 0x8, addend: 0x0, symName: __ZNSt3__16vectorIN5memdb9OperationENS_9allocatorIS2_EEE16__destroy_vectorC2B8ue170006ERS5_, symObjAddr: 0x559C, symBinAddr: 0x100007F70, symSize: 0x108 }
  - { offsetInCU: 0x1A06F, offset: 0x1A06F, size: 0x8, addend: 0x0, symName: __ZNKSt3__16vectorIN5memdb9OperationENS_9allocatorIS2_EEE8max_sizeEv, symObjAddr: 0x56A4, symBinAddr: 0x100008078, symSize: 0x3B8 }
  - { offsetInCU: 0x1A098, offset: 0x1A098, size: 0x8, addend: 0x0, symName: __ZNKSt3__16vectorIN5memdb9OperationENS_9allocatorIS2_EEE20__throw_length_errorB8ue170006Ev, symObjAddr: 0x5A5C, symBinAddr: 0x100008430, symSize: 0x80 }
  - { offsetInCU: 0x1A0BE, offset: 0x1A0BE, size: 0x8, addend: 0x0, symName: __ZNSt3__16vectorIN5memdb9OperationENS_9allocatorIS2_EEE7__allocB8ue170006Ev, symObjAddr: 0x5D2C, symBinAddr: 0x100008700, symSize: 0xE4 }
  - { offsetInCU: 0x1A0E4, offset: 0x1A0E4, size: 0x8, addend: 0x0, symName: __ZNSt3__16vectorIN5memdb9OperationENS_9allocatorIS2_EEE9__end_capB8ue170006Ev, symObjAddr: 0x5E10, symBinAddr: 0x1000087E4, symSize: 0x100 }
  - { offsetInCU: 0x1A10A, offset: 0x1A10A, size: 0x8, addend: 0x0, symName: __ZNKSt3__16vectorIN5memdb9OperationENS_9allocatorIS2_EEE14__annotate_newB8ue170006Em, symObjAddr: 0x5F10, symBinAddr: 0x1000088E4, symSize: 0x360 }
  - { offsetInCU: 0x1A149, offset: 0x1A149, size: 0x8, addend: 0x0, symName: __ZNSt3__116allocator_traitsINS_9allocatorIN5memdb9OperationEEEE8max_sizeB8ue170006IS4_vvEEmRKS4_, symObjAddr: 0x6374, symBinAddr: 0x100008D48, symSize: 0x54 }
  - { offsetInCU: 0x1A174, offset: 0x1A174, size: 0x8, addend: 0x0, symName: __ZNKSt3__16vectorIN5memdb9OperationENS_9allocatorIS2_EEE7__allocB8ue170006Ev, symObjAddr: 0x63C8, symBinAddr: 0x100008D9C, symSize: 0xE4 }
  - { offsetInCU: 0x1A19A, offset: 0x1A19A, size: 0x8, addend: 0x0, symName: __ZNSt3__114numeric_limitsIlE3maxB8ue170006Ev, symObjAddr: 0x64AC, symBinAddr: 0x100008E80, symSize: 0x14 }
  - { offsetInCU: 0x1A1B8, offset: 0x1A1B8, size: 0x8, addend: 0x0, symName: __ZNKSt3__16__lessIvvEclB8ue170006ImmEEbRKT_RKT0_, symObjAddr: 0x678C, symBinAddr: 0x100009160, symSize: 0xEC }
  - { offsetInCU: 0x1A20C, offset: 0x1A20C, size: 0x8, addend: 0x0, symName: __ZNSt3__114numeric_limitsImE3maxB8ue170006Ev, symObjAddr: 0x6878, symBinAddr: 0x10000924C, symSize: 0x14 }
  - { offsetInCU: 0x1A220, offset: 0x1A220, size: 0x8, addend: 0x0, symName: __ZNSt3__123__libcpp_numeric_limitsImLb1EE3maxB8ue170006Ev, symObjAddr: 0x688C, symBinAddr: 0x100009260, symSize: 0x8 }
  - { offsetInCU: 0x1A234, offset: 0x1A234, size: 0x8, addend: 0x0, symName: __ZNKSt3__117__compressed_pairIPN5memdb9OperationENS_9allocatorIS2_EEE6secondB8ue170006Ev, symObjAddr: 0x6894, symBinAddr: 0x100009268, symSize: 0x108 }
  - { offsetInCU: 0x1A25A, offset: 0x1A25A, size: 0x8, addend: 0x0, symName: __ZNKSt3__122__compressed_pair_elemINS_9allocatorIN5memdb9OperationEEELi1ELb1EE5__getB8ue170006Ev, symObjAddr: 0x699C, symBinAddr: 0x100009370, symSize: 0x74 }
  - { offsetInCU: 0x1A280, offset: 0x1A280, size: 0x8, addend: 0x0, symName: __ZNSt3__123__libcpp_numeric_limitsIlLb1EE3maxB8ue170006Ev, symObjAddr: 0x6A10, symBinAddr: 0x1000093E4, symSize: 0x8 }
  - { offsetInCU: 0x1A294, offset: 0x1A294, size: 0x8, addend: 0x0, symName: __ZNSt12length_errorC1B8ue170006EPKc, symObjAddr: 0x6ACC, symBinAddr: 0x1000094A0, symSize: 0x80 }
  - { offsetInCU: 0x1A2CC, offset: 0x1A2CC, size: 0x8, addend: 0x0, symName: __ZNSt12length_errorC2B8ue170006EPKc, symObjAddr: 0x6B4C, symBinAddr: 0x100009520, symSize: 0x128 }
  - { offsetInCU: 0x1A304, offset: 0x1A304, size: 0x8, addend: 0x0, symName: __ZNSt3__19allocatorIN5memdb9OperationEE17allocate_at_leastB8ue170006Em, symObjAddr: 0x6E98, symBinAddr: 0x10000986C, symSize: 0x2B8 }
  - { offsetInCU: 0x1A33A, offset: 0x1A33A, size: 0x8, addend: 0x0, symName: __ZNSt3__19allocatorIN5memdb9OperationEE8allocateB8ue170006Em, symObjAddr: 0x7150, symBinAddr: 0x100009B24, symSize: 0xCC }
  - { offsetInCU: 0x1A36E, offset: 0x1A36E, size: 0x8, addend: 0x0, symName: __ZNSt3__117__compressed_pairIPN5memdb9OperationENS_9allocatorIS2_EEE6secondB8ue170006Ev, symObjAddr: 0x73A8, symBinAddr: 0x100009D7C, symSize: 0x108 }
  - { offsetInCU: 0x1A394, offset: 0x1A394, size: 0x8, addend: 0x0, symName: __ZNSt3__122__compressed_pair_elemINS_9allocatorIN5memdb9OperationEEELi1ELb1EE5__getB8ue170006Ev, symObjAddr: 0x74B0, symBinAddr: 0x100009E84, symSize: 0x74 }
  - { offsetInCU: 0x1A3BA, offset: 0x1A3BA, size: 0x8, addend: 0x0, symName: __ZNSt3__117__compressed_pairIPN5memdb9OperationENS_9allocatorIS2_EEE5firstB8ue170006Ev, symObjAddr: 0x7524, symBinAddr: 0x100009EF8, symSize: 0x124 }
  - { offsetInCU: 0x1A3E0, offset: 0x1A3E0, size: 0x8, addend: 0x0, symName: __ZNSt3__122__compressed_pair_elemIPN5memdb9OperationELi0ELb0EE5__getB8ue170006Ev, symObjAddr: 0x7648, symBinAddr: 0x10000A01C, symSize: 0xAC }
  - { offsetInCU: 0x1A406, offset: 0x1A406, size: 0x8, addend: 0x0, symName: __ZNKSt3__16vectorIN5memdb9OperationENS_9allocatorIS2_EEE31__annotate_contiguous_containerEPKvS7_S7_S7_, symObjAddr: 0x76F4, symBinAddr: 0x10000A0C8, symSize: 0x9C }
  - { offsetInCU: 0x1A468, offset: 0x1A468, size: 0x8, addend: 0x0, symName: __ZNKSt3__16vectorIN5memdb9OperationENS_9allocatorIS2_EEE4dataB8ue170006Ev, symObjAddr: 0x7790, symBinAddr: 0x10000A164, symSize: 0xB0 }
  - { offsetInCU: 0x1A48E, offset: 0x1A48E, size: 0x8, addend: 0x0, symName: __ZNKSt3__16vectorIN5memdb9OperationENS_9allocatorIS2_EEE8capacityB8ue170006Ev, symObjAddr: 0x7840, symBinAddr: 0x10000A214, symSize: 0x144 }
  - { offsetInCU: 0x1A4B4, offset: 0x1A4B4, size: 0x8, addend: 0x0, symName: __ZNKSt3__16vectorIN5memdb9OperationENS_9allocatorIS2_EEE9__end_capB8ue170006Ev, symObjAddr: 0x7998, symBinAddr: 0x10000A36C, symSize: 0x100 }
  - { offsetInCU: 0x1A4DA, offset: 0x1A4DA, size: 0x8, addend: 0x0, symName: __ZNKSt3__117__compressed_pairIPN5memdb9OperationENS_9allocatorIS2_EEE5firstB8ue170006Ev, symObjAddr: 0x7A98, symBinAddr: 0x10000A46C, symSize: 0x124 }
  - { offsetInCU: 0x1A500, offset: 0x1A500, size: 0x8, addend: 0x0, symName: __ZNKSt3__122__compressed_pair_elemIPN5memdb9OperationELi0ELb0EE5__getB8ue170006Ev, symObjAddr: 0x7BBC, symBinAddr: 0x10000A590, symSize: 0xAC }
  - { offsetInCU: 0x1A53F, offset: 0x1A53F, size: 0x8, addend: 0x0, symName: __ZNSt3__16vectorIN5memdb9OperationENS_9allocatorIS2_EEE21_ConstructTransactionC1B8ue170006ERS5_m, symObjAddr: 0x7C68, symBinAddr: 0x10000A63C, symSize: 0x88 }
  - { offsetInCU: 0x1A587, offset: 0x1A587, size: 0x8, addend: 0x0, symName: __ZNSt3__16vectorIN5memdb9OperationENS_9allocatorIS2_EEE21_ConstructTransactionD1B8ue170006Ev, symObjAddr: 0x8024, symBinAddr: 0x10000A9F8, symSize: 0x78 }
  - { offsetInCU: 0x1A5B1, offset: 0x1A5B1, size: 0x8, addend: 0x0, symName: __ZNSt3__16vectorIN5memdb9OperationENS_9allocatorIS2_EEE21_ConstructTransactionC2B8ue170006ERS5_m, symObjAddr: 0x809C, symBinAddr: 0x10000AA70, symSize: 0x3D8 }
  - { offsetInCU: 0x1A5F9, offset: 0x1A5F9, size: 0x8, addend: 0x0, symName: __ZNKSt3__16vectorIN5memdb9OperationENS_9allocatorIS2_EEE19__annotate_increaseB8ue170006Em, symObjAddr: 0x8474, symBinAddr: 0x10000AE48, symSize: 0x44C }
  - { offsetInCU: 0x1A62E, offset: 0x1A62E, size: 0x8, addend: 0x0, symName: __ZNKSt3__16vectorIN5memdb9OperationENS_9allocatorIS2_EEE4sizeB8ue170006Ev, symObjAddr: 0x88C0, symBinAddr: 0x10000B294, symSize: 0xF8 }
  - { offsetInCU: 0x1A672, offset: 0x1A672, size: 0x8, addend: 0x0, symName: __ZNSt3__119__unwrap_range_implIPKN5memdb9OperationES4_E8__unwrapB8ue170006ES4_S4_, symObjAddr: 0x8C80, symBinAddr: 0x10000B654, symSize: 0x30C }
  - { offsetInCU: 0x1A6AA, offset: 0x1A6AA, size: 0x8, addend: 0x0, symName: __ZNSt3__14pairIPKN5memdb9OperationES4_EC1B8ue170006IS4_S4_LPv0EEEOT_OT0_, symObjAddr: 0x8FB0, symBinAddr: 0x10000B984, symSize: 0x88 }
  - { offsetInCU: 0x1A708, offset: 0x1A708, size: 0x8, addend: 0x0, symName: __ZNSt3__118__unwrap_iter_implIPKN5memdb9OperationELb1EE8__unwrapB8ue170006ES4_, symObjAddr: 0x9038, symBinAddr: 0x10000BA0C, symSize: 0x24 }
  - { offsetInCU: 0x1A72B, offset: 0x1A72B, size: 0x8, addend: 0x0, symName: __ZNSt3__14pairIPKN5memdb9OperationES4_EC2B8ue170006IS4_S4_LPv0EEEOT_OT0_, symObjAddr: 0x9070, symBinAddr: 0x10000BA44, symSize: 0x210 }
  - { offsetInCU: 0x1A7B1, offset: 0x1A7B1, size: 0x8, addend: 0x0, symName: __ZNKSt3__114__copy_trivialclB8ue170006IKN5memdb9OperationES3_Li0EEENS_4pairIPT_PT0_EES7_S7_S9_, symObjAddr: 0x9FC0, symBinAddr: 0x10000C994, symSize: 0x25C }
  - { offsetInCU: 0x1A827, offset: 0x1A827, size: 0x8, addend: 0x0, symName: __ZNSt3__14pairIPKN5memdb9OperationEPS2_EC1B8ue170006IRS4_S5_LPv0EEEOT_OT0_, symObjAddr: 0xAC6C, symBinAddr: 0x10000D640, symSize: 0x88 }
  - { offsetInCU: 0x1A885, offset: 0x1A885, size: 0x8, addend: 0x0, symName: __ZNSt3__14pairIPKN5memdb9OperationEPS2_EC2B8ue170006IRS4_S5_LPv0EEEOT_OT0_, symObjAddr: 0xACF4, symBinAddr: 0x10000D6C8, symSize: 0x210 }
  - { offsetInCU: 0x1A8E3, offset: 0x1A8E3, size: 0x8, addend: 0x0, symName: __ZNSt3__14pairIPKN5memdb9OperationEPS2_EC1B8ue170006IS4_S5_LPv0EEEOT_OT0_, symObjAddr: 0xAF04, symBinAddr: 0x10000D8D8, symSize: 0x88 }
  - { offsetInCU: 0x1A941, offset: 0x1A941, size: 0x8, addend: 0x0, symName: __ZNSt3__14pairIPKN5memdb9OperationEPS2_EC2B8ue170006IS4_S5_LPv0EEEOT_OT0_, symObjAddr: 0xAF8C, symBinAddr: 0x10000D960, symSize: 0x210 }
  - { offsetInCU: 0x1A99F, offset: 0x1A99F, size: 0x8, addend: 0x0, symName: __ZNSt3__119__unwrap_range_implIPKN5memdb9OperationES4_E8__rewrapB8ue170006ES4_S4_, symObjAddr: 0xB19C, symBinAddr: 0x10000DB70, symSize: 0x2C }
  - { offsetInCU: 0x1A9D0, offset: 0x1A9D0, size: 0x8, addend: 0x0, symName: __ZNSt3__118__unwrap_iter_implIPKN5memdb9OperationELb1EE8__rewrapB8ue170006ES4_S4_, symObjAddr: 0xB210, symBinAddr: 0x10000DBE4, symSize: 0x13C }
  - { offsetInCU: 0x1AA01, offset: 0x1AA01, size: 0x8, addend: 0x0, symName: __ZNSt3__118__unwrap_iter_implIPN5memdb9OperationELb1EE8__unwrapB8ue170006ES3_, symObjAddr: 0xB34C, symBinAddr: 0x10000DD20, symSize: 0x24 }
  - { offsetInCU: 0x1AA24, offset: 0x1AA24, size: 0x8, addend: 0x0, symName: __ZNSt3__118__unwrap_iter_implIPN5memdb9OperationELb1EE8__rewrapB8ue170006ES3_S3_, symObjAddr: 0xB370, symBinAddr: 0x10000DD44, symSize: 0x13C }
  - { offsetInCU: 0x1AA55, offset: 0x1AA55, size: 0x8, addend: 0x0, symName: __ZNSt3__16vectorIN5memdb9OperationENS_9allocatorIS2_EEE21_ConstructTransactionD2B8ue170006Ev, symObjAddr: 0xB4AC, symBinAddr: 0x10000DE80, symSize: 0x390 }
  - { offsetInCU: 0x1AA7F, offset: 0x1AA7F, size: 0x8, addend: 0x0, symName: __ZNKSt3__16vectorIN5memdb9OperationENS_9allocatorIS2_EEE17__annotate_shrinkB8ue170006Em, symObjAddr: 0xB83C, symBinAddr: 0x10000E210, symSize: 0x360 }
  - { offsetInCU: 0x1AAB4, offset: 0x1AAB4, size: 0x8, addend: 0x0, symName: __ZNSt3__128__exception_guard_exceptionsINS_6vectorIN5memdb9OperationENS_9allocatorIS3_EEE16__destroy_vectorEED2B8ue170006Ev, symObjAddr: 0xBB9C, symBinAddr: 0x10000E570, symSize: 0x17C }
  - { offsetInCU: 0x1AADE, offset: 0x1AADE, size: 0x8, addend: 0x0, symName: __ZNSt3__16vectorIN5memdb9OperationENS_9allocatorIS2_EEE16__destroy_vectorclB8ue170006Ev, symObjAddr: 0xBD18, symBinAddr: 0x10000E6EC, symSize: 0x43C }
  - { offsetInCU: 0x1AB04, offset: 0x1AB04, size: 0x8, addend: 0x0, symName: __ZNSt3__16vectorIN5memdb9OperationENS_9allocatorIS2_EEE7__clearB8ue170006Ev, symObjAddr: 0xC154, symBinAddr: 0x10000EB28, symSize: 0xB0 }
  - { offsetInCU: 0x1AB2A, offset: 0x1AB2A, size: 0x8, addend: 0x0, symName: __ZNKSt3__16vectorIN5memdb9OperationENS_9allocatorIS2_EEE17__annotate_deleteB8ue170006Ev, symObjAddr: 0xC204, symBinAddr: 0x10000EBD8, symSize: 0x370 }
  - { offsetInCU: 0x1AB50, offset: 0x1AB50, size: 0x8, addend: 0x0, symName: __ZNSt3__116allocator_traitsINS_9allocatorIN5memdb9OperationEEEE10deallocateB8ue170006ERS4_PS3_m, symObjAddr: 0xC574, symBinAddr: 0x10000EF48, symSize: 0x34 }
  - { offsetInCU: 0x1AB92, offset: 0x1AB92, size: 0x8, addend: 0x0, symName: __ZNSt3__16vectorIN5memdb9OperationENS_9allocatorIS2_EEE22__base_destruct_at_endB8ue170006EPS2_, symObjAddr: 0xC5A8, symBinAddr: 0x10000EF7C, symSize: 0x1FC }
  - { offsetInCU: 0x1ABD6, offset: 0x1ABD6, size: 0x8, addend: 0x0, symName: __ZNSt3__116allocator_traitsINS_9allocatorIN5memdb9OperationEEEE7destroyB8ue170006IS3_vvEEvRS4_PT_, symObjAddr: 0xC7A4, symBinAddr: 0x10000F178, symSize: 0x28 }
  - { offsetInCU: 0x1AC10, offset: 0x1AC10, size: 0x8, addend: 0x0, symName: __ZNSt3__19allocatorIN5memdb9OperationEE10deallocateB8ue170006EPS2_m, symObjAddr: 0xC800, symBinAddr: 0x10000F1D4, symSize: 0x78 }
  - { offsetInCU: 0x1AC52, offset: 0x1AC52, size: 0x8, addend: 0x0, symName: __ZNSt3__16vectorIN5memdb9OperationENS_9allocatorIS2_EEED2B8ue170006Ev, symObjAddr: 0xC980, symBinAddr: 0x10000F354, symSize: 0x294 }
  - { offsetInCU: 0x1AC7D, offset: 0x1AC7D, size: 0x8, addend: 0x0, symName: __ZNKSt3__111__wrap_iterIPN5memdb9OperationEE4baseB8ue170006Ev, symObjAddr: 0xCCB0, symBinAddr: 0x10000F684, symSize: 0xAC }
  - { offsetInCU: 0x1ACA3, offset: 0x1ACA3, size: 0x8, addend: 0x0, symName: __ZNSt3__118__unwrap_iter_implINS_11__wrap_iterIPN5memdb9OperationEEELb1EE8__rewrapB8ue170006ES5_S4_, symObjAddr: 0xD594, symBinAddr: 0x10000FF68, symSize: 0x2D4 }
  - { offsetInCU: 0x1ACD9, offset: 0x1ACD9, size: 0x8, addend: 0x0, symName: __ZNKSt3__111__wrap_iterIPN5memdb9OperationEEplB8ue170006El, symObjAddr: 0xD868, symBinAddr: 0x10001023C, symSize: 0x258 }
  - { offsetInCU: 0x1AD21, offset: 0x1AD21, size: 0x8, addend: 0x0, symName: __ZNSt3__111__wrap_iterIPN5memdb9OperationEEpLB8ue170006El, symObjAddr: 0xDB2C, symBinAddr: 0x100010500, symSize: 0x228 }
  - { offsetInCU: 0x1AD5F, offset: 0x1AD5F, size: 0x8, addend: 0x0, symName: __ZNSt3__119__to_address_helperINS_11__wrap_iterIPN5memdb9OperationEEEvE6__callB8ue170006ERKS5_, symObjAddr: 0xDD54, symBinAddr: 0x100010728, symSize: 0x200 }
  - { offsetInCU: 0x1AD83, offset: 0x1AD83, size: 0x8, addend: 0x0, symName: __ZNSt3__114pointer_traitsINS_11__wrap_iterIPN5memdb9OperationEEEE10to_addressB8ue170006ES5_, symObjAddr: 0xDF54, symBinAddr: 0x100010928, symSize: 0x1F4 }
  - { offsetInCU: 0x1ADB4, offset: 0x1ADB4, size: 0x8, addend: 0x0, symName: __ZNKSt3__110__identityclB8ue170006IRN5memdb9OperationEEEOT_S6_, symObjAddr: 0xE230, symBinAddr: 0x100010C04, symSize: 0x98 }
  - { offsetInCU: 0x1ADF1, offset: 0x1ADF1, size: 0x8, addend: 0x0, symName: __ZNSt3__118__unwrap_iter_implINS_11__wrap_iterIPN5memdb9OperationEEELb1EE8__unwrapB8ue170006ES5_, symObjAddr: 0xE2C8, symBinAddr: 0x100010C9C, symSize: 0x1F0 }
  - { offsetInCU: 0x1AE18, offset: 0x1AE18, size: 0x8, addend: 0x0, symName: __ZNSt3__16vectorIN5memdb9OperationENS_9allocatorIS2_EEE11__make_iterB8ue170006EPS2_, symObjAddr: 0xE4B8, symBinAddr: 0x100010E8C, symSize: 0x244 }
  - { offsetInCU: 0x1AE4F, offset: 0x1AE4F, size: 0x8, addend: 0x0, symName: __ZNSt3__111__wrap_iterIPN5memdb9OperationEEC1B8ue170006ES3_, symObjAddr: 0xE6FC, symBinAddr: 0x1000110D0, symSize: 0x80 }
  - { offsetInCU: 0x1AE87, offset: 0x1AE87, size: 0x8, addend: 0x0, symName: __ZNSt3__111__wrap_iterIPN5memdb9OperationEEC2B8ue170006ES3_, symObjAddr: 0xE77C, symBinAddr: 0x100011150, symSize: 0xC8 }
  - { offsetInCU: 0x1AEBF, offset: 0x1AEBF, size: 0x8, addend: 0x0, symName: __ZN5memdb8DbType_sINSt3__112basic_stringIcNS1_11char_traitsIcEENS1_9allocatorIcEEEEEC2Ev, symObjAddr: 0xE844, symBinAddr: 0x100011218, symSize: 0x138 }
  - { offsetInCU: 0x1AEEC, offset: 0x1AEEC, size: 0x8, addend: 0x0, symName: __ZN5memdb12DbTypeMassoPINSt3__112basic_stringIcNS1_11char_traitsIcEENS1_9allocatorIcEEEEEC2Ev, symObjAddr: 0xE97C, symBinAddr: 0x100011350, symSize: 0xCC }
  - { offsetInCU: 0x1AF18, offset: 0x1AF18, size: 0x8, addend: 0x0, symName: __ZNSt3__113unordered_mapIlNS_12basic_stringIcNS_11char_traitsIcEENS_9allocatorIcEEEENS_4hashIlEENS_8equal_toIlEENS4_INS_4pairIKlS6_EEEEEC1B8ue170006Ev, symObjAddr: 0xEA48, symBinAddr: 0x10001141C, symSize: 0x78 }
  - { offsetInCU: 0x1AF42, offset: 0x1AF42, size: 0x8, addend: 0x0, symName: __ZNSt3__112forward_listIlNS_9allocatorIlEEEC1B8ue170006Ev, symObjAddr: 0xEAC0, symBinAddr: 0x100011494, symSize: 0x78 }
  - { offsetInCU: 0x1AF6C, offset: 0x1AF6C, size: 0x8, addend: 0x0, symName: __ZNSt3__113unordered_mapIlNS_23__forward_list_iteratorIPNS_19__forward_list_nodeIlPvEEEENS_4hashIlEENS_8equal_toIlEENS_9allocatorINS_4pairIKlS6_EEEEEC1B8ue170006Ev, symObjAddr: 0xEB38, symBinAddr: 0x10001150C, symSize: 0x78 }
  - { offsetInCU: 0x1AF96, offset: 0x1AF96, size: 0x8, addend: 0x0, symName: __ZN5memdb8DbType_sINSt3__112basic_stringIcNS1_11char_traitsIcEENS1_9allocatorIcEEEEE3getENS1_6vectorIlNS5_IlEEEERNS9_IS7_NS5_IS7_EEEE, symObjAddr: 0xEBB0, symBinAddr: 0x100011584, symSize: 0x698 }
  - { offsetInCU: 0x1B03D, offset: 0x1B03D, size: 0x8, addend: 0x0, symName: __ZN5memdb8DbType_sINSt3__112basic_stringIcNS1_11char_traitsIcEENS1_9allocatorIcEEEEE3getERNS1_6vectorIbNS5_IbEEEERNS9_IS7_NS5_IS7_EEEE, symObjAddr: 0xF248, symBinAddr: 0x100011C1C, symSize: 0x5CC }
  - { offsetInCU: 0x1B0A2, offset: 0x1B0A2, size: 0x8, addend: 0x0, symName: __ZN5memdb8DbType_sINSt3__112basic_stringIcNS1_11char_traitsIcEENS1_9allocatorIcEEEEE12getIndsWhereERNS1_6vectorIlNS5_IlEEEERNS9_INS1_8functionIFbRS7_EEENS5_ISG_EEEE, symObjAddr: 0xF814, symBinAddr: 0x1000121E8, symSize: 0xB64 }
  - { offsetInCU: 0x1B1CF, offset: 0x1B1CF, size: 0x8, addend: 0x0, symName: __ZN5memdb8DbType_sINSt3__112basic_stringIcNS1_11char_traitsIcEENS1_9allocatorIcEEEEE12getValsWhereERNS1_6vectorIlNS5_IlEEEERNS9_INS1_8functionIFbRS7_EEENS5_ISG_EEEERNS9_IS7_NS5_IS7_EEEE, symObjAddr: 0x10378, symBinAddr: 0x100012D4C, symSize: 0xBD8 }
  - { offsetInCU: 0x1B2E9, offset: 0x1B2E9, size: 0x8, addend: 0x0, symName: __ZN5memdb8DbType_sINSt3__112basic_stringIcNS1_11char_traitsIcEENS1_9allocatorIcEEEEE3delENS1_6vectorIlNS5_IlEEEE, symObjAddr: 0x10F50, symBinAddr: 0x100013924, symSize: 0x4E0 }
  - { offsetInCU: 0x1B37D, offset: 0x1B37D, size: 0x8, addend: 0x0, symName: __ZN5memdb8DbType_sINSt3__112basic_stringIcNS1_11char_traitsIcEENS1_9allocatorIcEEEEE8delWhereERNS1_6vectorIlNS5_IlEEEERNS9_INS1_8functionIFbRS7_EEENS5_ISG_EEEE, symObjAddr: 0x11430, symBinAddr: 0x100013E04, symSize: 0xABC }
  - { offsetInCU: 0x1B487, offset: 0x1B487, size: 0x8, addend: 0x0, symName: __ZNSt3__113unordered_mapIlNS_12basic_stringIcNS_11char_traitsIcEENS_9allocatorIcEEEENS_4hashIlEENS_8equal_toIlEENS4_INS_4pairIKlS6_EEEEEC2B8ue170006Ev, symObjAddr: 0x11EEC, symBinAddr: 0x1000148C0, symSize: 0x78 }
  - { offsetInCU: 0x1B4B1, offset: 0x1B4B1, size: 0x8, addend: 0x0, symName: __ZNSt3__112__hash_tableINS_17__hash_value_typeIlNS_12basic_stringIcNS_11char_traitsIcEENS_9allocatorIcEEEEEENS_22__unordered_map_hasherIlS8_NS_4hashIlEENS_8equal_toIlEELb1EEENS_21__unordered_map_equalIlS8_SD_SB_Lb1EEENS5_IS8_EEEC1Ev, symObjAddr: 0x11F64, symBinAddr: 0x100014938, symSize: 0x78 }
  - { offsetInCU: 0x1B4DD, offset: 0x1B4DD, size: 0x8, addend: 0x0, symName: __ZNSt3__112__hash_tableINS_17__hash_value_typeIlNS_12basic_stringIcNS_11char_traitsIcEENS_9allocatorIcEEEEEENS_22__unordered_map_hasherIlS8_NS_4hashIlEENS_8equal_toIlEELb1EEENS_21__unordered_map_equalIlS8_SD_SB_Lb1EEENS5_IS8_EEEC2Ev, symObjAddr: 0x11FDC, symBinAddr: 0x1000149B0, symSize: 0x3E0 }
  - { offsetInCU: 0x1B50A, offset: 0x1B50A, size: 0x8, addend: 0x0, symName: __ZNSt3__110unique_ptrIA_PNS_16__hash_node_baseIPNS_11__hash_nodeINS_17__hash_value_typeIlNS_12basic_stringIcNS_11char_traitsIcEENS_9allocatorIcEEEEEEPvEEEENS_25__bucket_list_deallocatorINS7_ISF_EEEEEC1B8ue170006ILb1EvEEv, symObjAddr: 0x123BC, symBinAddr: 0x100014D90, symSize: 0x78 }
  - { offsetInCU: 0x1B53F, offset: 0x1B53F, size: 0x8, addend: 0x0, symName: __ZNSt3__117__compressed_pairINS_16__hash_node_baseIPNS_11__hash_nodeINS_17__hash_value_typeIlNS_12basic_stringIcNS_11char_traitsIcEENS_9allocatorIcEEEEEEPvEEEENS7_ISC_EEEC1B8ue170006ILb1EvEEv, symObjAddr: 0x12434, symBinAddr: 0x100014E08, symSize: 0x78 }
  - { offsetInCU: 0x1B579, offset: 0x1B579, size: 0x8, addend: 0x0, symName: __ZNSt3__117__compressed_pairImNS_22__unordered_map_hasherIlNS_17__hash_value_typeIlNS_12basic_stringIcNS_11char_traitsIcEENS_9allocatorIcEEEEEENS_4hashIlEENS_8equal_toIlEELb1EEEEC1B8ue170006IiNS_18__default_init_tagEEEOT_OT0_, symObjAddr: 0x124AC, symBinAddr: 0x100014E80, symSize: 0x88 }
  - { offsetInCU: 0x1B5D6, offset: 0x1B5D6, size: 0x8, addend: 0x0, symName: __ZNSt3__117__compressed_pairIfNS_21__unordered_map_equalIlNS_17__hash_value_typeIlNS_12basic_stringIcNS_11char_traitsIcEENS_9allocatorIcEEEEEENS_8equal_toIlEENS_4hashIlEELb1EEEEC1B8ue170006IfNS_18__default_init_tagEEEOT_OT0_, symObjAddr: 0x12534, symBinAddr: 0x100014F08, symSize: 0x88 }
  - { offsetInCU: 0x1B62E, offset: 0x1B62E, size: 0x8, addend: 0x0, symName: __ZNSt3__110unique_ptrIA_PNS_16__hash_node_baseIPNS_11__hash_nodeINS_17__hash_value_typeIlNS_12basic_stringIcNS_11char_traitsIcEENS_9allocatorIcEEEEEEPvEEEENS_25__bucket_list_deallocatorINS7_ISF_EEEEEC2B8ue170006ILb1EvEEv, symObjAddr: 0x125BC, symBinAddr: 0x100014F90, symSize: 0x268 }
  - { offsetInCU: 0x1B669, offset: 0x1B669, size: 0x8, addend: 0x0, symName: __ZNSt3__117__compressed_pairIPPNS_16__hash_node_baseIPNS_11__hash_nodeINS_17__hash_value_typeIlNS_12basic_stringIcNS_11char_traitsIcEENS_9allocatorIcEEEEEEPvEEEENS_25__bucket_list_deallocatorINS7_ISF_EEEEEC1B8ue170006INS_16__value_init_tagESM_EEOT_OT0_, symObjAddr: 0x12824, symBinAddr: 0x1000151F8, symSize: 0x88 }
  - { offsetInCU: 0x1B6C1, offset: 0x1B6C1, size: 0x8, addend: 0x0, symName: __ZNSt3__117__compressed_pairIPPNS_16__hash_node_baseIPNS_11__hash_nodeINS_17__hash_value_typeIlNS_12basic_stringIcNS_11char_traitsIcEENS_9allocatorIcEEEEEEPvEEEENS_25__bucket_list_deallocatorINS7_ISF_EEEEEC2B8ue170006INS_16__value_init_tagESM_EEOT_OT0_, symObjAddr: 0x128AC, symBinAddr: 0x100015280, symSize: 0x118 }
  - { offsetInCU: 0x1B719, offset: 0x1B719, size: 0x8, addend: 0x0, symName: __ZNSt3__122__compressed_pair_elemIPPNS_16__hash_node_baseIPNS_11__hash_nodeINS_17__hash_value_typeIlNS_12basic_stringIcNS_11char_traitsIcEENS_9allocatorIcEEEEEEPvEEEELi0ELb0EEC2B8ue170006ENS_16__value_init_tagE, symObjAddr: 0x129C4, symBinAddr: 0x100015398, symSize: 0xB8 }
  - { offsetInCU: 0x1B74D, offset: 0x1B74D, size: 0x8, addend: 0x0, symName: __ZNSt3__122__compressed_pair_elemINS_25__bucket_list_deallocatorINS_9allocatorIPNS_16__hash_node_baseIPNS_11__hash_nodeINS_17__hash_value_typeIlNS_12basic_stringIcNS_11char_traitsIcEENS2_IcEEEEEEPvEEEEEEEELi1ELb0EEC2B8ue170006ENS_16__value_init_tagE, symObjAddr: 0x12A7C, symBinAddr: 0x100015450, symSize: 0x78 }
  - { offsetInCU: 0x1B781, offset: 0x1B781, size: 0x8, addend: 0x0, symName: __ZNSt3__125__bucket_list_deallocatorINS_9allocatorIPNS_16__hash_node_baseIPNS_11__hash_nodeINS_17__hash_value_typeIlNS_12basic_stringIcNS_11char_traitsIcEENS1_IcEEEEEEPvEEEEEEEC1B8ue170006Ev, symObjAddr: 0x12AF4, symBinAddr: 0x1000154C8, symSize: 0x78 }
  - { offsetInCU: 0x1B7AB, offset: 0x1B7AB, size: 0x8, addend: 0x0, symName: __ZNSt3__125__bucket_list_deallocatorINS_9allocatorIPNS_16__hash_node_baseIPNS_11__hash_nodeINS_17__hash_value_typeIlNS_12basic_stringIcNS_11char_traitsIcEENS1_IcEEEEEEPvEEEEEEEC2B8ue170006Ev, symObjAddr: 0x12B6C, symBinAddr: 0x100015540, symSize: 0x2CC }
  - { offsetInCU: 0x1B7D6, offset: 0x1B7D6, size: 0x8, addend: 0x0, symName: __ZNSt3__117__compressed_pairImNS_9allocatorIPNS_16__hash_node_baseIPNS_11__hash_nodeINS_17__hash_value_typeIlNS_12basic_stringIcNS_11char_traitsIcEENS1_IcEEEEEEPvEEEEEEEC1B8ue170006IiNS_18__default_init_tagEEEOT_OT0_, symObjAddr: 0x12E38, symBinAddr: 0x10001580C, symSize: 0x88 }
  - { offsetInCU: 0x1B82E, offset: 0x1B82E, size: 0x8, addend: 0x0, symName: __ZNSt3__117__compressed_pairImNS_9allocatorIPNS_16__hash_node_baseIPNS_11__hash_nodeINS_17__hash_value_typeIlNS_12basic_stringIcNS_11char_traitsIcEENS1_IcEEEEEEPvEEEEEEEC2B8ue170006IiNS_18__default_init_tagEEEOT_OT0_, symObjAddr: 0x12EC0, symBinAddr: 0x100015894, symSize: 0x140 }
  - { offsetInCU: 0x1B886, offset: 0x1B886, size: 0x8, addend: 0x0, symName: __ZNSt3__122__compressed_pair_elemImLi0ELb0EEC2B8ue170006IivEEOT_, symObjAddr: 0x13000, symBinAddr: 0x1000159D4, symSize: 0x16C }
  - { offsetInCU: 0x1B8C8, offset: 0x1B8C8, size: 0x8, addend: 0x0, symName: __ZNSt3__122__compressed_pair_elemINS_9allocatorIPNS_16__hash_node_baseIPNS_11__hash_nodeINS_17__hash_value_typeIlNS_12basic_stringIcNS_11char_traitsIcEENS1_IcEEEEEEPvEEEEEELi1ELb1EEC2B8ue170006ENS_18__default_init_tagE, symObjAddr: 0x1316C, symBinAddr: 0x100015B40, symSize: 0x84 }
  - { offsetInCU: 0x1B8FC, offset: 0x1B8FC, size: 0x8, addend: 0x0, symName: __ZNSt3__19allocatorIPNS_16__hash_node_baseIPNS_11__hash_nodeINS_17__hash_value_typeIlNS_12basic_stringIcNS_11char_traitsIcEENS0_IcEEEEEEPvEEEEEC2B8ue170006Ev, symObjAddr: 0x131F0, symBinAddr: 0x100015BC4, symSize: 0x84 }
  - { offsetInCU: 0x1B926, offset: 0x1B926, size: 0x8, addend: 0x0, symName: __ZNSt3__116__non_trivial_ifILb1ENS_9allocatorIPNS_16__hash_node_baseIPNS_11__hash_nodeINS_17__hash_value_typeIlNS_12basic_stringIcNS_11char_traitsIcEENS1_IcEEEEEEPvEEEEEEEC2B8ue170006Ev, symObjAddr: 0x13274, symBinAddr: 0x100015C48, symSize: 0x54 }
  - { offsetInCU: 0x1B950, offset: 0x1B950, size: 0x8, addend: 0x0, symName: __ZNSt3__117__compressed_pairINS_16__hash_node_baseIPNS_11__hash_nodeINS_17__hash_value_typeIlNS_12basic_stringIcNS_11char_traitsIcEENS_9allocatorIcEEEEEEPvEEEENS7_ISC_EEEC2B8ue170006ILb1EvEEv, symObjAddr: 0x132C8, symBinAddr: 0x100015C9C, symSize: 0xEC }
  - { offsetInCU: 0x1B985, offset: 0x1B985, size: 0x8, addend: 0x0, symName: __ZNSt3__122__compressed_pair_elemINS_16__hash_node_baseIPNS_11__hash_nodeINS_17__hash_value_typeIlNS_12basic_stringIcNS_11char_traitsIcEENS_9allocatorIcEEEEEEPvEEEELi0ELb0EEC2B8ue170006ENS_16__value_init_tagE, symObjAddr: 0x133B4, symBinAddr: 0x100015D88, symSize: 0x78 }
  - { offsetInCU: 0x1B9B9, offset: 0x1B9B9, size: 0x8, addend: 0x0, symName: __ZNSt3__122__compressed_pair_elemINS_9allocatorINS_11__hash_nodeINS_17__hash_value_typeIlNS_12basic_stringIcNS_11char_traitsIcEENS1_IcEEEEEEPvEEEELi1ELb1EEC2B8ue170006ENS_16__value_init_tagE, symObjAddr: 0x1342C, symBinAddr: 0x100015E00, symSize: 0x84 }
  - { offsetInCU: 0x1B9ED, offset: 0x1B9ED, size: 0x8, addend: 0x0, symName: __ZNSt3__116__hash_node_baseIPNS_11__hash_nodeINS_17__hash_value_typeIlNS_12basic_stringIcNS_11char_traitsIcEENS_9allocatorIcEEEEEEPvEEEC1B8ue170006Ev, symObjAddr: 0x134B0, symBinAddr: 0x100015E84, symSize: 0x78 }
  - { offsetInCU: 0x1BA17, offset: 0x1BA17, size: 0x8, addend: 0x0, symName: __ZNSt3__116__hash_node_baseIPNS_11__hash_nodeINS_17__hash_value_typeIlNS_12basic_stringIcNS_11char_traitsIcEENS_9allocatorIcEEEEEEPvEEEC2B8ue170006Ev, symObjAddr: 0x13528, symBinAddr: 0x100015EFC, symSize: 0xB8 }
  - { offsetInCU: 0x1BA41, offset: 0x1BA41, size: 0x8, addend: 0x0, symName: __ZNSt3__19allocatorINS_11__hash_nodeINS_17__hash_value_typeIlNS_12basic_stringIcNS_11char_traitsIcEENS0_IcEEEEEEPvEEEC2B8ue170006Ev, symObjAddr: 0x135E0, symBinAddr: 0x100015FB4, symSize: 0x84 }
  - { offsetInCU: 0x1BA6B, offset: 0x1BA6B, size: 0x8, addend: 0x0, symName: __ZNSt3__116__non_trivial_ifILb1ENS_9allocatorINS_11__hash_nodeINS_17__hash_value_typeIlNS_12basic_stringIcNS_11char_traitsIcEENS1_IcEEEEEEPvEEEEEC2B8ue170006Ev, symObjAddr: 0x13664, symBinAddr: 0x100016038, symSize: 0x54 }
  - { offsetInCU: 0x1BA95, offset: 0x1BA95, size: 0x8, addend: 0x0, symName: __ZNSt3__117__compressed_pairImNS_22__unordered_map_hasherIlNS_17__hash_value_typeIlNS_12basic_stringIcNS_11char_traitsIcEENS_9allocatorIcEEEEEENS_4hashIlEENS_8equal_toIlEELb1EEEEC2B8ue170006IiNS_18__default_init_tagEEEOT_OT0_, symObjAddr: 0x136B8, symBinAddr: 0x10001608C, symSize: 0x140 }
  - { offsetInCU: 0x1BAED, offset: 0x1BAED, size: 0x8, addend: 0x0, symName: __ZNSt3__122__compressed_pair_elemINS_22__unordered_map_hasherIlNS_17__hash_value_typeIlNS_12basic_stringIcNS_11char_traitsIcEENS_9allocatorIcEEEEEENS_4hashIlEENS_8equal_toIlEELb1EEELi1ELb1EEC2B8ue170006ENS_18__default_init_tagE, symObjAddr: 0x137F8, symBinAddr: 0x1000161CC, symSize: 0x84 }
  - { offsetInCU: 0x1BB21, offset: 0x1BB21, size: 0x8, addend: 0x0, symName: __ZNSt3__122__unordered_map_hasherIlNS_17__hash_value_typeIlNS_12basic_stringIcNS_11char_traitsIcEENS_9allocatorIcEEEEEENS_4hashIlEENS_8equal_toIlEELb1EEC2B8ue170006Ev, symObjAddr: 0x1387C, symBinAddr: 0x100016250, symSize: 0x54 }
  - { offsetInCU: 0x1BB4B, offset: 0x1BB4B, size: 0x8, addend: 0x0, symName: __ZNSt3__117__compressed_pairIfNS_21__unordered_map_equalIlNS_17__hash_value_typeIlNS_12basic_stringIcNS_11char_traitsIcEENS_9allocatorIcEEEEEENS_8equal_toIlEENS_4hashIlEELb1EEEEC2B8ue170006IfNS_18__default_init_tagEEEOT_OT0_, symObjAddr: 0x138D0, symBinAddr: 0x1000162A4, symSize: 0x140 }
  - { offsetInCU: 0x1BBA3, offset: 0x1BBA3, size: 0x8, addend: 0x0, symName: __ZNSt3__122__compressed_pair_elemIfLi0ELb0EEC2B8ue170006IfvEEOT_, symObjAddr: 0x13A10, symBinAddr: 0x1000163E4, symSize: 0x194 }
  - { offsetInCU: 0x1BBE5, offset: 0x1BBE5, size: 0x8, addend: 0x0, symName: __ZNSt3__122__compressed_pair_elemINS_21__unordered_map_equalIlNS_17__hash_value_typeIlNS_12basic_stringIcNS_11char_traitsIcEENS_9allocatorIcEEEEEENS_8equal_toIlEENS_4hashIlEELb1EEELi1ELb1EEC2B8ue170006ENS_18__default_init_tagE, symObjAddr: 0x13BA4, symBinAddr: 0x100016578, symSize: 0x84 }
  - { offsetInCU: 0x1BC19, offset: 0x1BC19, size: 0x8, addend: 0x0, symName: __ZNSt3__121__unordered_map_equalIlNS_17__hash_value_typeIlNS_12basic_stringIcNS_11char_traitsIcEENS_9allocatorIcEEEEEENS_8equal_toIlEENS_4hashIlEELb1EEC2B8ue170006Ev, symObjAddr: 0x13C28, symBinAddr: 0x1000165FC, symSize: 0x54 }
  - { offsetInCU: 0x1BC43, offset: 0x1BC43, size: 0x8, addend: 0x0, symName: __ZNSt3__112forward_listIlNS_9allocatorIlEEEC2B8ue170006Ev, symObjAddr: 0x13C7C, symBinAddr: 0x100016650, symSize: 0xBC }
  - { offsetInCU: 0x1BC6D, offset: 0x1BC6D, size: 0x8, addend: 0x0, symName: __ZNSt3__119__forward_list_baseIlNS_9allocatorIlEEEC2B8ue170006Ev, symObjAddr: 0x13D38, symBinAddr: 0x10001670C, symSize: 0x2A0 }
  - { offsetInCU: 0x1BC98, offset: 0x1BC98, size: 0x8, addend: 0x0, symName: __ZNSt3__120__forward_begin_nodeIPNS_19__forward_list_nodeIlPvEEEC1B8ue170006Ev, symObjAddr: 0x13FD8, symBinAddr: 0x1000169AC, symSize: 0x78 }
  - { offsetInCU: 0x1BCC7, offset: 0x1BCC7, size: 0x8, addend: 0x0, symName: __ZNSt3__117__compressed_pairINS_20__forward_begin_nodeIPNS_19__forward_list_nodeIlPvEEEENS_9allocatorIS4_EEEC1B8ue170006IS6_NS_18__default_init_tagEEEOT_OT0_, symObjAddr: 0x14050, symBinAddr: 0x100016A24, symSize: 0x88 }
  - { offsetInCU: 0x1BD1F, offset: 0x1BD1F, size: 0x8, addend: 0x0, symName: __ZNSt3__120__forward_begin_nodeIPNS_19__forward_list_nodeIlPvEEEC2B8ue170006Ev, symObjAddr: 0x140D8, symBinAddr: 0x100016AAC, symSize: 0xB8 }
  - { offsetInCU: 0x1BD49, offset: 0x1BD49, size: 0x8, addend: 0x0, symName: __ZNSt3__117__compressed_pairINS_20__forward_begin_nodeIPNS_19__forward_list_nodeIlPvEEEENS_9allocatorIS4_EEEC2B8ue170006IS6_NS_18__default_init_tagEEEOT_OT0_, symObjAddr: 0x14190, symBinAddr: 0x100016B64, symSize: 0x140 }
  - { offsetInCU: 0x1BDA1, offset: 0x1BDA1, size: 0x8, addend: 0x0, symName: __ZNSt3__122__compressed_pair_elemINS_20__forward_begin_nodeIPNS_19__forward_list_nodeIlPvEEEELi0ELb0EEC2B8ue170006IS6_vEEOT_, symObjAddr: 0x142D0, symBinAddr: 0x100016CA4, symSize: 0x84 }
  - { offsetInCU: 0x1BDE3, offset: 0x1BDE3, size: 0x8, addend: 0x0, symName: __ZNSt3__122__compressed_pair_elemINS_9allocatorINS_19__forward_list_nodeIlPvEEEELi1ELb1EEC2B8ue170006ENS_18__default_init_tagE, symObjAddr: 0x14354, symBinAddr: 0x100016D28, symSize: 0x84 }
  - { offsetInCU: 0x1BE17, offset: 0x1BE17, size: 0x8, addend: 0x0, symName: __ZNSt3__19allocatorINS_19__forward_list_nodeIlPvEEEC2B8ue170006Ev, symObjAddr: 0x143D8, symBinAddr: 0x100016DAC, symSize: 0x84 }
  - { offsetInCU: 0x1BE41, offset: 0x1BE41, size: 0x8, addend: 0x0, symName: __ZNSt3__116__non_trivial_ifILb1ENS_9allocatorINS_19__forward_list_nodeIlPvEEEEEC2B8ue170006Ev, symObjAddr: 0x1445C, symBinAddr: 0x100016E30, symSize: 0x54 }
  - { offsetInCU: 0x1BE6B, offset: 0x1BE6B, size: 0x8, addend: 0x0, symName: __ZNSt3__113unordered_mapIlNS_23__forward_list_iteratorIPNS_19__forward_list_nodeIlPvEEEENS_4hashIlEENS_8equal_toIlEENS_9allocatorINS_4pairIKlS6_EEEEEC2B8ue170006Ev, symObjAddr: 0x144B0, symBinAddr: 0x100016E84, symSize: 0x78 }
  - { offsetInCU: 0x1BE95, offset: 0x1BE95, size: 0x8, addend: 0x0, symName: __ZNSt3__112__hash_tableINS_17__hash_value_typeIlNS_23__forward_list_iteratorIPNS_19__forward_list_nodeIlPvEEEEEENS_22__unordered_map_hasherIlS8_NS_4hashIlEENS_8equal_toIlEELb1EEENS_21__unordered_map_equalIlS8_SD_SB_Lb1EEENS_9allocatorIS8_EEEC1Ev, symObjAddr: 0x14528, symBinAddr: 0x100016EFC, symSize: 0x78 }
  - { offsetInCU: 0x1BEC1, offset: 0x1BEC1, size: 0x8, addend: 0x0, symName: __ZNSt3__112__hash_tableINS_17__hash_value_typeIlNS_23__forward_list_iteratorIPNS_19__forward_list_nodeIlPvEEEEEENS_22__unordered_map_hasherIlS8_NS_4hashIlEENS_8equal_toIlEELb1EEENS_21__unordered_map_equalIlS8_SD_SB_Lb1EEENS_9allocatorIS8_EEEC2Ev, symObjAddr: 0x145A0, symBinAddr: 0x100016F74, symSize: 0x3E0 }
  - { offsetInCU: 0x1BEEE, offset: 0x1BEEE, size: 0x8, addend: 0x0, symName: __ZNSt3__110unique_ptrIA_PNS_16__hash_node_baseIPNS_11__hash_nodeINS_17__hash_value_typeIlNS_23__forward_list_iteratorIPNS_19__forward_list_nodeIlPvEEEEEES6_EEEENS_25__bucket_list_deallocatorINS_9allocatorISE_EEEEEC1B8ue170006ILb1EvEEv, symObjAddr: 0x14980, symBinAddr: 0x100017354, symSize: 0x78 }
  - { offsetInCU: 0x1BF23, offset: 0x1BF23, size: 0x8, addend: 0x0, symName: __ZNSt3__117__compressed_pairINS_16__hash_node_baseIPNS_11__hash_nodeINS_17__hash_value_typeIlNS_23__forward_list_iteratorIPNS_19__forward_list_nodeIlPvEEEEEES6_EEEENS_9allocatorISB_EEEC1B8ue170006ILb1EvEEv, symObjAddr: 0x149F8, symBinAddr: 0x1000173CC, symSize: 0x78 }
  - { offsetInCU: 0x1BF58, offset: 0x1BF58, size: 0x8, addend: 0x0, symName: __ZNSt3__117__compressed_pairImNS_22__unordered_map_hasherIlNS_17__hash_value_typeIlNS_23__forward_list_iteratorIPNS_19__forward_list_nodeIlPvEEEEEENS_4hashIlEENS_8equal_toIlEELb1EEEEC1B8ue170006IiNS_18__default_init_tagEEEOT_OT0_, symObjAddr: 0x14A70, symBinAddr: 0x100017444, symSize: 0x88 }
  - { offsetInCU: 0x1BFB0, offset: 0x1BFB0, size: 0x8, addend: 0x0, symName: __ZNSt3__117__compressed_pairIfNS_21__unordered_map_equalIlNS_17__hash_value_typeIlNS_23__forward_list_iteratorIPNS_19__forward_list_nodeIlPvEEEEEENS_8equal_toIlEENS_4hashIlEELb1EEEEC1B8ue170006IfNS_18__default_init_tagEEEOT_OT0_, symObjAddr: 0x14AF8, symBinAddr: 0x1000174CC, symSize: 0x88 }
  - { offsetInCU: 0x1C008, offset: 0x1C008, size: 0x8, addend: 0x0, symName: __ZNSt3__110unique_ptrIA_PNS_16__hash_node_baseIPNS_11__hash_nodeINS_17__hash_value_typeIlNS_23__forward_list_iteratorIPNS_19__forward_list_nodeIlPvEEEEEES6_EEEENS_25__bucket_list_deallocatorINS_9allocatorISE_EEEEEC2B8ue170006ILb1EvEEv, symObjAddr: 0x14B80, symBinAddr: 0x100017554, symSize: 0x268 }
  - { offsetInCU: 0x1C03E, offset: 0x1C03E, size: 0x8, addend: 0x0, symName: __ZNSt3__117__compressed_pairIPPNS_16__hash_node_baseIPNS_11__hash_nodeINS_17__hash_value_typeIlNS_23__forward_list_iteratorIPNS_19__forward_list_nodeIlPvEEEEEES6_EEEENS_25__bucket_list_deallocatorINS_9allocatorISE_EEEEEC1B8ue170006INS_16__value_init_tagESM_EEOT_OT0_, symObjAddr: 0x14DE8, symBinAddr: 0x1000177BC, symSize: 0x88 }
  - { offsetInCU: 0x1C096, offset: 0x1C096, size: 0x8, addend: 0x0, symName: __ZNSt3__117__compressed_pairIPPNS_16__hash_node_baseIPNS_11__hash_nodeINS_17__hash_value_typeIlNS_23__forward_list_iteratorIPNS_19__forward_list_nodeIlPvEEEEEES6_EEEENS_25__bucket_list_deallocatorINS_9allocatorISE_EEEEEC2B8ue170006INS_16__value_init_tagESM_EEOT_OT0_, symObjAddr: 0x14E70, symBinAddr: 0x100017844, symSize: 0x118 }
  - { offsetInCU: 0x1C0EE, offset: 0x1C0EE, size: 0x8, addend: 0x0, symName: __ZNSt3__122__compressed_pair_elemIPPNS_16__hash_node_baseIPNS_11__hash_nodeINS_17__hash_value_typeIlNS_23__forward_list_iteratorIPNS_19__forward_list_nodeIlPvEEEEEES6_EEEELi0ELb0EEC2B8ue170006ENS_16__value_init_tagE, symObjAddr: 0x14F88, symBinAddr: 0x10001795C, symSize: 0xB8 }
  - { offsetInCU: 0x1C122, offset: 0x1C122, size: 0x8, addend: 0x0, symName: __ZNSt3__122__compressed_pair_elemINS_25__bucket_list_deallocatorINS_9allocatorIPNS_16__hash_node_baseIPNS_11__hash_nodeINS_17__hash_value_typeIlNS_23__forward_list_iteratorIPNS_19__forward_list_nodeIlPvEEEEEES8_EEEEEEEELi1ELb0EEC2B8ue170006ENS_16__value_init_tagE, symObjAddr: 0x15040, symBinAddr: 0x100017A14, symSize: 0x78 }
  - { offsetInCU: 0x1C156, offset: 0x1C156, size: 0x8, addend: 0x0, symName: __ZNSt3__125__bucket_list_deallocatorINS_9allocatorIPNS_16__hash_node_baseIPNS_11__hash_nodeINS_17__hash_value_typeIlNS_23__forward_list_iteratorIPNS_19__forward_list_nodeIlPvEEEEEES7_EEEEEEEC1B8ue170006Ev, symObjAddr: 0x150B8, symBinAddr: 0x100017A8C, symSize: 0x78 }
  - { offsetInCU: 0x1C180, offset: 0x1C180, size: 0x8, addend: 0x0, symName: __ZNSt3__125__bucket_list_deallocatorINS_9allocatorIPNS_16__hash_node_baseIPNS_11__hash_nodeINS_17__hash_value_typeIlNS_23__forward_list_iteratorIPNS_19__forward_list_nodeIlPvEEEEEES7_EEEEEEEC2B8ue170006Ev, symObjAddr: 0x15130, symBinAddr: 0x100017B04, symSize: 0x2CC }
  - { offsetInCU: 0x1C1AB, offset: 0x1C1AB, size: 0x8, addend: 0x0, symName: __ZNSt3__117__compressed_pairImNS_9allocatorIPNS_16__hash_node_baseIPNS_11__hash_nodeINS_17__hash_value_typeIlNS_23__forward_list_iteratorIPNS_19__forward_list_nodeIlPvEEEEEES7_EEEEEEEC1B8ue170006IiNS_18__default_init_tagEEEOT_OT0_, symObjAddr: 0x153FC, symBinAddr: 0x100017DD0, symSize: 0x88 }
  - { offsetInCU: 0x1C203, offset: 0x1C203, size: 0x8, addend: 0x0, symName: __ZNSt3__117__compressed_pairImNS_9allocatorIPNS_16__hash_node_baseIPNS_11__hash_nodeINS_17__hash_value_typeIlNS_23__forward_list_iteratorIPNS_19__forward_list_nodeIlPvEEEEEES7_EEEEEEEC2B8ue170006IiNS_18__default_init_tagEEEOT_OT0_, symObjAddr: 0x15484, symBinAddr: 0x100017E58, symSize: 0x140 }
  - { offsetInCU: 0x1C25B, offset: 0x1C25B, size: 0x8, addend: 0x0, symName: __ZNSt3__122__compressed_pair_elemINS_9allocatorIPNS_16__hash_node_baseIPNS_11__hash_nodeINS_17__hash_value_typeIlNS_23__forward_list_iteratorIPNS_19__forward_list_nodeIlPvEEEEEES7_EEEEEELi1ELb1EEC2B8ue170006ENS_18__default_init_tagE, symObjAddr: 0x155C4, symBinAddr: 0x100017F98, symSize: 0x84 }
  - { offsetInCU: 0x1C28F, offset: 0x1C28F, size: 0x8, addend: 0x0, symName: __ZNSt3__19allocatorIPNS_16__hash_node_baseIPNS_11__hash_nodeINS_17__hash_value_typeIlNS_23__forward_list_iteratorIPNS_19__forward_list_nodeIlPvEEEEEES6_EEEEEC2B8ue170006Ev, symObjAddr: 0x15648, symBinAddr: 0x10001801C, symSize: 0x84 }
  - { offsetInCU: 0x1C2B9, offset: 0x1C2B9, size: 0x8, addend: 0x0, symName: __ZNSt3__116__non_trivial_ifILb1ENS_9allocatorIPNS_16__hash_node_baseIPNS_11__hash_nodeINS_17__hash_value_typeIlNS_23__forward_list_iteratorIPNS_19__forward_list_nodeIlPvEEEEEES7_EEEEEEEC2B8ue170006Ev, symObjAddr: 0x156CC, symBinAddr: 0x1000180A0, symSize: 0x54 }
  - { offsetInCU: 0x1C2E3, offset: 0x1C2E3, size: 0x8, addend: 0x0, symName: __ZNSt3__117__compressed_pairINS_16__hash_node_baseIPNS_11__hash_nodeINS_17__hash_value_typeIlNS_23__forward_list_iteratorIPNS_19__forward_list_nodeIlPvEEEEEES6_EEEENS_9allocatorISB_EEEC2B8ue170006ILb1EvEEv, symObjAddr: 0x15720, symBinAddr: 0x1000180F4, symSize: 0xEC }
  - { offsetInCU: 0x1C318, offset: 0x1C318, size: 0x8, addend: 0x0, symName: __ZNSt3__122__compressed_pair_elemINS_16__hash_node_baseIPNS_11__hash_nodeINS_17__hash_value_typeIlNS_23__forward_list_iteratorIPNS_19__forward_list_nodeIlPvEEEEEES6_EEEELi0ELb0EEC2B8ue170006ENS_16__value_init_tagE, symObjAddr: 0x1580C, symBinAddr: 0x1000181E0, symSize: 0x78 }
  - { offsetInCU: 0x1C34C, offset: 0x1C34C, size: 0x8, addend: 0x0, symName: __ZNSt3__122__compressed_pair_elemINS_9allocatorINS_11__hash_nodeINS_17__hash_value_typeIlNS_23__forward_list_iteratorIPNS_19__forward_list_nodeIlPvEEEEEES6_EEEELi1ELb1EEC2B8ue170006ENS_16__value_init_tagE, symObjAddr: 0x15884, symBinAddr: 0x100018258, symSize: 0x84 }
  - { offsetInCU: 0x1C380, offset: 0x1C380, size: 0x8, addend: 0x0, symName: __ZNSt3__116__hash_node_baseIPNS_11__hash_nodeINS_17__hash_value_typeIlNS_23__forward_list_iteratorIPNS_19__forward_list_nodeIlPvEEEEEES5_EEEC1B8ue170006Ev, symObjAddr: 0x15908, symBinAddr: 0x1000182DC, symSize: 0x78 }
  - { offsetInCU: 0x1C3AA, offset: 0x1C3AA, size: 0x8, addend: 0x0, symName: __ZNSt3__116__hash_node_baseIPNS_11__hash_nodeINS_17__hash_value_typeIlNS_23__forward_list_iteratorIPNS_19__forward_list_nodeIlPvEEEEEES5_EEEC2B8ue170006Ev, symObjAddr: 0x15980, symBinAddr: 0x100018354, symSize: 0xB8 }
  - { offsetInCU: 0x1C3D4, offset: 0x1C3D4, size: 0x8, addend: 0x0, symName: __ZNSt3__19allocatorINS_11__hash_nodeINS_17__hash_value_typeIlNS_23__forward_list_iteratorIPNS_19__forward_list_nodeIlPvEEEEEES5_EEEC2B8ue170006Ev, symObjAddr: 0x15A38, symBinAddr: 0x10001840C, symSize: 0x84 }
  - { offsetInCU: 0x1C3FE, offset: 0x1C3FE, size: 0x8, addend: 0x0, symName: __ZNSt3__116__non_trivial_ifILb1ENS_9allocatorINS_11__hash_nodeINS_17__hash_value_typeIlNS_23__forward_list_iteratorIPNS_19__forward_list_nodeIlPvEEEEEES6_EEEEEC2B8ue170006Ev, symObjAddr: 0x15ABC, symBinAddr: 0x100018490, symSize: 0x54 }
  - { offsetInCU: 0x1C428, offset: 0x1C428, size: 0x8, addend: 0x0, symName: __ZNSt3__117__compressed_pairImNS_22__unordered_map_hasherIlNS_17__hash_value_typeIlNS_23__forward_list_iteratorIPNS_19__forward_list_nodeIlPvEEEEEENS_4hashIlEENS_8equal_toIlEELb1EEEEC2B8ue170006IiNS_18__default_init_tagEEEOT_OT0_, symObjAddr: 0x15B10, symBinAddr: 0x1000184E4, symSize: 0x140 }
  - { offsetInCU: 0x1C480, offset: 0x1C480, size: 0x8, addend: 0x0, symName: __ZNSt3__122__compressed_pair_elemINS_22__unordered_map_hasherIlNS_17__hash_value_typeIlNS_23__forward_list_iteratorIPNS_19__forward_list_nodeIlPvEEEEEENS_4hashIlEENS_8equal_toIlEELb1EEELi1ELb1EEC2B8ue170006ENS_18__default_init_tagE, symObjAddr: 0x15C50, symBinAddr: 0x100018624, symSize: 0x84 }
  - { offsetInCU: 0x1C4B4, offset: 0x1C4B4, size: 0x8, addend: 0x0, symName: __ZNSt3__122__unordered_map_hasherIlNS_17__hash_value_typeIlNS_23__forward_list_iteratorIPNS_19__forward_list_nodeIlPvEEEEEENS_4hashIlEENS_8equal_toIlEELb1EEC2B8ue170006Ev, symObjAddr: 0x15CD4, symBinAddr: 0x1000186A8, symSize: 0x54 }
  - { offsetInCU: 0x1C4DE, offset: 0x1C4DE, size: 0x8, addend: 0x0, symName: __ZNSt3__117__compressed_pairIfNS_21__unordered_map_equalIlNS_17__hash_value_typeIlNS_23__forward_list_iteratorIPNS_19__forward_list_nodeIlPvEEEEEENS_8equal_toIlEENS_4hashIlEELb1EEEEC2B8ue170006IfNS_18__default_init_tagEEEOT_OT0_, symObjAddr: 0x15D28, symBinAddr: 0x1000186FC, symSize: 0x140 }
  - { offsetInCU: 0x1C536, offset: 0x1C536, size: 0x8, addend: 0x0, symName: __ZNSt3__122__compressed_pair_elemINS_21__unordered_map_equalIlNS_17__hash_value_typeIlNS_23__forward_list_iteratorIPNS_19__forward_list_nodeIlPvEEEEEENS_8equal_toIlEENS_4hashIlEELb1EEELi1ELb1EEC2B8ue170006ENS_18__default_init_tagE, symObjAddr: 0x15E68, symBinAddr: 0x10001883C, symSize: 0x84 }
  - { offsetInCU: 0x1C56A, offset: 0x1C56A, size: 0x8, addend: 0x0, symName: __ZNSt3__121__unordered_map_equalIlNS_17__hash_value_typeIlNS_23__forward_list_iteratorIPNS_19__forward_list_nodeIlPvEEEEEENS_8equal_toIlEENS_4hashIlEELb1EEC2B8ue170006Ev, symObjAddr: 0x15EEC, symBinAddr: 0x1000188C0, symSize: 0x54 }
  - { offsetInCU: 0x1C594, offset: 0x1C594, size: 0x8, addend: 0x0, symName: __ZNSt3__16vectorINS_12basic_stringIcNS_11char_traitsIcEENS_9allocatorIcEEEENS4_IS6_EEE7reserveEm, symObjAddr: 0x15F40, symBinAddr: 0x100018914, symSize: 0x41C }
  - { offsetInCU: 0x1C5F7, offset: 0x1C5F7, size: 0x8, addend: 0x0, symName: __ZNKSt3__16vectorIlNS_9allocatorIlEEE4sizeB8ue170006Ev, symObjAddr: 0x1635C, symBinAddr: 0x100018D30, symSize: 0xF8 }
  - { offsetInCU: 0x1C61D, offset: 0x1C61D, size: 0x8, addend: 0x0, symName: __ZNSt3__16vectorIlNS_9allocatorIlEEE5beginB8ue170006Ev, symObjAddr: 0x16454, symBinAddr: 0x100018E28, symSize: 0x2B0 }
  - { offsetInCU: 0x1C646, offset: 0x1C646, size: 0x8, addend: 0x0, symName: __ZNSt3__16vectorIlNS_9allocatorIlEEE3endB8ue170006Ev, symObjAddr: 0x16704, symBinAddr: 0x1000190D8, symSize: 0x2B4 }
  - { offsetInCU: 0x1C66F, offset: 0x1C66F, size: 0x8, addend: 0x0, symName: __ZNKSt3__111__wrap_iterIPlEdeB8ue170006Ev, symObjAddr: 0x16A7C, symBinAddr: 0x100019450, symSize: 0xF4 }
  - { offsetInCU: 0x1C695, offset: 0x1C695, size: 0x8, addend: 0x0, symName: __ZNSt3__16vectorINS_12basic_stringIcNS_11char_traitsIcEENS_9allocatorIcEEEENS4_IS6_EEE12emplace_backIJRS6_EEESA_DpOT_, symObjAddr: 0x16B70, symBinAddr: 0x100019544, symSize: 0x24C }
  - { offsetInCU: 0x1C6D7, offset: 0x1C6D7, size: 0x8, addend: 0x0, symName: __ZNSt3__113unordered_mapIlNS_12basic_stringIcNS_11char_traitsIcEENS_9allocatorIcEEEENS_4hashIlEENS_8equal_toIlEENS4_INS_4pairIKlS6_EEEEEixERSC_, symObjAddr: 0x16DBC, symBinAddr: 0x100019790, symSize: 0x4F8 }
  - { offsetInCU: 0x1C710, offset: 0x1C710, size: 0x8, addend: 0x0, symName: __ZNSt3__111__wrap_iterIPlEppB8ue170006Ev, symObjAddr: 0x172B4, symBinAddr: 0x100019C88, symSize: 0x1A8 }
  - { offsetInCU: 0x1C736, offset: 0x1C736, size: 0x8, addend: 0x0, symName: __ZNKSt3__16vectorINS_12basic_stringIcNS_11char_traitsIcEENS_9allocatorIcEEEENS4_IS6_EEE8capacityB8ue170006Ev, symObjAddr: 0x1745C, symBinAddr: 0x100019E30, symSize: 0x144 }
  - { offsetInCU: 0x1C75C, offset: 0x1C75C, size: 0x8, addend: 0x0, symName: __ZNKSt3__16vectorINS_12basic_stringIcNS_11char_traitsIcEENS_9allocatorIcEEEENS4_IS6_EEE8max_sizeEv, symObjAddr: 0x175A0, symBinAddr: 0x100019F74, symSize: 0x3B8 }
  - { offsetInCU: 0x1C785, offset: 0x1C785, size: 0x8, addend: 0x0, symName: __ZNKSt3__16vectorINS_12basic_stringIcNS_11char_traitsIcEENS_9allocatorIcEEEENS4_IS6_EEE20__throw_length_errorB8ue170006Ev, symObjAddr: 0x17958, symBinAddr: 0x10001A32C, symSize: 0x80 }
  - { offsetInCU: 0x1C7AB, offset: 0x1C7AB, size: 0x8, addend: 0x0, symName: __ZNSt3__16vectorINS_12basic_stringIcNS_11char_traitsIcEENS_9allocatorIcEEEENS4_IS6_EEE7__allocB8ue170006Ev, symObjAddr: 0x179D8, symBinAddr: 0x10001A3AC, symSize: 0xE4 }
  - { offsetInCU: 0x1C7D1, offset: 0x1C7D1, size: 0x8, addend: 0x0, symName: __ZNKSt3__16vectorINS_12basic_stringIcNS_11char_traitsIcEENS_9allocatorIcEEEENS4_IS6_EEE4sizeB8ue170006Ev, symObjAddr: 0x17ABC, symBinAddr: 0x10001A490, symSize: 0xF8 }
  - { offsetInCU: 0x1C7F7, offset: 0x1C7F7, size: 0x8, addend: 0x0, symName: __ZNSt3__114__split_bufferINS_12basic_stringIcNS_11char_traitsIcEENS_9allocatorIcEEEERNS4_IS6_EEEC1EmmS8_, symObjAddr: 0x17BB4, symBinAddr: 0x10001A588, symSize: 0x90 }
  - { offsetInCU: 0x1C84D, offset: 0x1C84D, size: 0x8, addend: 0x0, symName: __ZNSt3__114__split_bufferINS_12basic_stringIcNS_11char_traitsIcEENS_9allocatorIcEEEERNS4_IS6_EEED1Ev, symObjAddr: 0x184A0, symBinAddr: 0x10001AE74, symSize: 0x78 }
  - { offsetInCU: 0x1C879, offset: 0x1C879, size: 0x8, addend: 0x0, symName: __ZNKSt3__16vectorINS_12basic_stringIcNS_11char_traitsIcEENS_9allocatorIcEEEENS4_IS6_EEE9__end_capB8ue170006Ev, symObjAddr: 0x18518, symBinAddr: 0x10001AEEC, symSize: 0x100 }
  - { offsetInCU: 0x1C89F, offset: 0x1C89F, size: 0x8, addend: 0x0, symName: __ZNKSt3__117__compressed_pairIPNS_12basic_stringIcNS_11char_traitsIcEENS_9allocatorIcEEEENS4_IS6_EEE5firstB8ue170006Ev, symObjAddr: 0x18618, symBinAddr: 0x10001AFEC, symSize: 0x124 }
  - { offsetInCU: 0x1C8C5, offset: 0x1C8C5, size: 0x8, addend: 0x0, symName: __ZNKSt3__122__compressed_pair_elemIPNS_12basic_stringIcNS_11char_traitsIcEENS_9allocatorIcEEEELi0ELb0EE5__getB8ue170006Ev, symObjAddr: 0x1873C, symBinAddr: 0x10001B110, symSize: 0xAC }
  - { offsetInCU: 0x1C8F5, offset: 0x1C8F5, size: 0x8, addend: 0x0, symName: __ZNSt3__116allocator_traitsINS_9allocatorINS_12basic_stringIcNS_11char_traitsIcEENS1_IcEEEEEEE8max_sizeB8ue170006IS7_vvEEmRKS7_, symObjAddr: 0x187E8, symBinAddr: 0x10001B1BC, symSize: 0x54 }
  - { offsetInCU: 0x1C920, offset: 0x1C920, size: 0x8, addend: 0x0, symName: __ZNKSt3__16vectorINS_12basic_stringIcNS_11char_traitsIcEENS_9allocatorIcEEEENS4_IS6_EEE7__allocB8ue170006Ev, symObjAddr: 0x1883C, symBinAddr: 0x10001B210, symSize: 0xE4 }
  - { offsetInCU: 0x1C946, offset: 0x1C946, size: 0x8, addend: 0x0, symName: __ZNKSt3__117__compressed_pairIPNS_12basic_stringIcNS_11char_traitsIcEENS_9allocatorIcEEEENS4_IS6_EEE6secondB8ue170006Ev, symObjAddr: 0x18920, symBinAddr: 0x10001B2F4, symSize: 0x108 }
  - { offsetInCU: 0x1C96C, offset: 0x1C96C, size: 0x8, addend: 0x0, symName: __ZNKSt3__122__compressed_pair_elemINS_9allocatorINS_12basic_stringIcNS_11char_traitsIcEENS1_IcEEEEEELi1ELb1EE5__getB8ue170006Ev, symObjAddr: 0x18A28, symBinAddr: 0x10001B3FC, symSize: 0x74 }
  - { offsetInCU: 0x1C992, offset: 0x1C992, size: 0x8, addend: 0x0, symName: __ZNSt3__117__compressed_pairIPNS_12basic_stringIcNS_11char_traitsIcEENS_9allocatorIcEEEENS4_IS6_EEE6secondB8ue170006Ev, symObjAddr: 0x18A9C, symBinAddr: 0x10001B470, symSize: 0x108 }
  - { offsetInCU: 0x1C9B8, offset: 0x1C9B8, size: 0x8, addend: 0x0, symName: __ZNSt3__122__compressed_pair_elemINS_9allocatorINS_12basic_stringIcNS_11char_traitsIcEENS1_IcEEEEEELi1ELb1EE5__getB8ue170006Ev, symObjAddr: 0x18BA4, symBinAddr: 0x10001B578, symSize: 0x74 }
  - { offsetInCU: 0x1C9DE, offset: 0x1C9DE, size: 0x8, addend: 0x0, symName: __ZNSt3__114__split_bufferINS_12basic_stringIcNS_11char_traitsIcEENS_9allocatorIcEEEERNS4_IS6_EEEC2EmmS8_, symObjAddr: 0x18C18, symBinAddr: 0x10001B5EC, symSize: 0x7E8 }
  - { offsetInCU: 0x1CA59, offset: 0x1CA59, size: 0x8, addend: 0x0, symName: __ZNSt3__117__compressed_pairIPNS_12basic_stringIcNS_11char_traitsIcEENS_9allocatorIcEEEERNS4_IS6_EEEC1B8ue170006IDnS9_EEOT_OT0_, symObjAddr: 0x19400, symBinAddr: 0x10001BDD4, symSize: 0x88 }
  - { offsetInCU: 0x1CAB1, offset: 0x1CAB1, size: 0x8, addend: 0x0, symName: __ZNSt3__114__split_bufferINS_12basic_stringIcNS_11char_traitsIcEENS_9allocatorIcEEEERNS4_IS6_EEE7__allocB8ue170006Ev, symObjAddr: 0x196D8, symBinAddr: 0x10001C0AC, symSize: 0xE4 }
  - { offsetInCU: 0x1CAD7, offset: 0x1CAD7, size: 0x8, addend: 0x0, symName: __ZNSt3__114__split_bufferINS_12basic_stringIcNS_11char_traitsIcEENS_9allocatorIcEEEERNS4_IS6_EEE9__end_capB8ue170006Ev, symObjAddr: 0x197BC, symBinAddr: 0x10001C190, symSize: 0x100 }
  - { offsetInCU: 0x1CAFD, offset: 0x1CAFD, size: 0x8, addend: 0x0, symName: __ZNSt3__117__compressed_pairIPNS_12basic_stringIcNS_11char_traitsIcEENS_9allocatorIcEEEERNS4_IS6_EEEC2B8ue170006IDnS9_EEOT_OT0_, symObjAddr: 0x198BC, symBinAddr: 0x10001C290, symSize: 0x198 }
  - { offsetInCU: 0x1CB55, offset: 0x1CB55, size: 0x8, addend: 0x0, symName: __ZNSt3__122__compressed_pair_elemIPNS_12basic_stringIcNS_11char_traitsIcEENS_9allocatorIcEEEELi0ELb0EEC2B8ue170006IDnvEEOT_, symObjAddr: 0x19A54, symBinAddr: 0x10001C428, symSize: 0xBC }
  - { offsetInCU: 0x1CB97, offset: 0x1CB97, size: 0x8, addend: 0x0, symName: __ZNSt3__122__compressed_pair_elemIRNS_9allocatorINS_12basic_stringIcNS_11char_traitsIcEENS1_IcEEEEEELi1ELb0EEC2B8ue170006IS8_vEEOT_, symObjAddr: 0x19B10, symBinAddr: 0x10001C4E4, symSize: 0xEC }
  - { offsetInCU: 0x1CBD9, offset: 0x1CBD9, size: 0x8, addend: 0x0, symName: __ZNSt3__19allocatorINS_12basic_stringIcNS_11char_traitsIcEENS0_IcEEEEE17allocate_at_leastB8ue170006Em, symObjAddr: 0x19E20, symBinAddr: 0x10001C7F4, symSize: 0x2B8 }
  - { offsetInCU: 0x1CC0F, offset: 0x1CC0F, size: 0x8, addend: 0x0, symName: __ZNSt3__19allocatorINS_12basic_stringIcNS_11char_traitsIcEENS0_IcEEEEE8allocateB8ue170006Em, symObjAddr: 0x1A0D8, symBinAddr: 0x10001CAAC, symSize: 0xD0 }
  - { offsetInCU: 0x1CC43, offset: 0x1CC43, size: 0x8, addend: 0x0, symName: __ZNSt3__117__compressed_pairIPNS_12basic_stringIcNS_11char_traitsIcEENS_9allocatorIcEEEERNS4_IS6_EEE6secondB8ue170006Ev, symObjAddr: 0x1A1A8, symBinAddr: 0x10001CB7C, symSize: 0x110 }
  - { offsetInCU: 0x1CC69, offset: 0x1CC69, size: 0x8, addend: 0x0, symName: __ZNSt3__122__compressed_pair_elemIRNS_9allocatorINS_12basic_stringIcNS_11char_traitsIcEENS1_IcEEEEEELi1ELb0EE5__getB8ue170006Ev, symObjAddr: 0x1A2B8, symBinAddr: 0x10001CC8C, symSize: 0xD8 }
  - { offsetInCU: 0x1CC8F, offset: 0x1CC8F, size: 0x8, addend: 0x0, symName: __ZNSt3__117__compressed_pairIPNS_12basic_stringIcNS_11char_traitsIcEENS_9allocatorIcEEEERNS4_IS6_EEE5firstB8ue170006Ev, symObjAddr: 0x1A390, symBinAddr: 0x10001CD64, symSize: 0x124 }
  - { offsetInCU: 0x1CCB5, offset: 0x1CCB5, size: 0x8, addend: 0x0, symName: __ZNSt3__122__compressed_pair_elemIPNS_12basic_stringIcNS_11char_traitsIcEENS_9allocatorIcEEEELi0ELb0EE5__getB8ue170006Ev, symObjAddr: 0x1A4B4, symBinAddr: 0x10001CE88, symSize: 0xAC }
  - { offsetInCU: 0x1CCDB, offset: 0x1CCDB, size: 0x8, addend: 0x0, symName: __ZNKSt3__16vectorINS_12basic_stringIcNS_11char_traitsIcEENS_9allocatorIcEEEENS4_IS6_EEE17__annotate_deleteB8ue170006Ev, symObjAddr: 0x1A560, symBinAddr: 0x10001CF34, symSize: 0x388 }
  - { offsetInCU: 0x1CD01, offset: 0x1CD01, size: 0x8, addend: 0x0, symName: __ZNSt3__116reverse_iteratorIPNS_12basic_stringIcNS_11char_traitsIcEENS_9allocatorIcEEEEEC1B8ue170006ES7_, symObjAddr: 0x1AEC0, symBinAddr: 0x10001D894, symSize: 0x80 }
  - { offsetInCU: 0x1CD39, offset: 0x1CD39, size: 0x8, addend: 0x0, symName: __ZNKSt3__116reverse_iteratorIPNS_12basic_stringIcNS_11char_traitsIcEENS_9allocatorIcEEEEE4baseB8ue170006Ev, symObjAddr: 0x1AF40, symBinAddr: 0x10001D914, symSize: 0xB0 }
  - { offsetInCU: 0x1CD5F, offset: 0x1CD5F, size: 0x8, addend: 0x0, symName: __ZNSt3__16vectorINS_12basic_stringIcNS_11char_traitsIcEENS_9allocatorIcEEEENS4_IS6_EEE9__end_capB8ue170006Ev, symObjAddr: 0x1B1B0, symBinAddr: 0x10001DB84, symSize: 0x100 }
  - { offsetInCU: 0x1CD85, offset: 0x1CD85, size: 0x8, addend: 0x0, symName: __ZNKSt3__16vectorINS_12basic_stringIcNS_11char_traitsIcEENS_9allocatorIcEEEENS4_IS6_EEE14__annotate_newB8ue170006Em, symObjAddr: 0x1B2B0, symBinAddr: 0x10001DC84, symSize: 0x378 }
  - { offsetInCU: 0x1CDBA, offset: 0x1CDBA, size: 0x8, addend: 0x0, symName: __ZNKSt3__16vectorINS_12basic_stringIcNS_11char_traitsIcEENS_9allocatorIcEEEENS4_IS6_EEE31__annotate_contiguous_containerEPKvSA_SA_SA_, symObjAddr: 0x1B628, symBinAddr: 0x10001DFFC, symSize: 0x9C }
  - { offsetInCU: 0x1CE1C, offset: 0x1CE1C, size: 0x8, addend: 0x0, symName: __ZNKSt3__16vectorINS_12basic_stringIcNS_11char_traitsIcEENS_9allocatorIcEEEENS4_IS6_EEE4dataB8ue170006Ev, symObjAddr: 0x1B6C4, symBinAddr: 0x10001E098, symSize: 0xB0 }
  - { offsetInCU: 0x1CE42, offset: 0x1CE42, size: 0x8, addend: 0x0, symName: __ZNSt3__129_AllocatorDestroyRangeReverseINS_9allocatorINS_12basic_stringIcNS_11char_traitsIcEENS1_IcEEEEEENS_16reverse_iteratorIPS6_EEEC1B8ue170006ERS7_RSA_SD_, symObjAddr: 0x1B9C4, symBinAddr: 0x10001E398, symSize: 0x90 }
  - { offsetInCU: 0x1CE9E, offset: 0x1CE9E, size: 0x8, addend: 0x0, symName: __ZNSt3__116allocator_traitsINS_9allocatorINS_12basic_stringIcNS_11char_traitsIcEENS1_IcEEEEEEE9constructB8ue170006IS6_JS6_EvvEEvRS7_PT_DpOT0_, symObjAddr: 0x1BAF0, symBinAddr: 0x10001E4C4, symSize: 0x80 }
  - { offsetInCU: 0x1CEF2, offset: 0x1CEF2, size: 0x8, addend: 0x0, symName: __ZNKSt3__116reverse_iteratorIPNS_12basic_stringIcNS_11char_traitsIcEENS_9allocatorIcEEEEEdeB8ue170006Ev, symObjAddr: 0x1BBDC, symBinAddr: 0x10001E5B0, symSize: 0x184 }
  - { offsetInCU: 0x1CF26, offset: 0x1CF26, size: 0x8, addend: 0x0, symName: __ZNSt3__116reverse_iteratorIPNS_12basic_stringIcNS_11char_traitsIcEENS_9allocatorIcEEEEEppB8ue170006Ev, symObjAddr: 0x1BD60, symBinAddr: 0x10001E734, symSize: 0x1B0 }
  - { offsetInCU: 0x1CF4C, offset: 0x1CF4C, size: 0x8, addend: 0x0, symName: __ZNSt3__128__exception_guard_exceptionsINS_29_AllocatorDestroyRangeReverseINS_9allocatorINS_12basic_stringIcNS_11char_traitsIcEENS2_IcEEEEEENS_16reverse_iteratorIPS7_EEEEE10__completeB8ue170006Ev, symObjAddr: 0x1BF10, symBinAddr: 0x10001E8E4, symSize: 0xD8 }
  - { offsetInCU: 0x1CF72, offset: 0x1CF72, size: 0x8, addend: 0x0, symName: __ZNSt3__128__exception_guard_exceptionsINS_29_AllocatorDestroyRangeReverseINS_9allocatorINS_12basic_stringIcNS_11char_traitsIcEENS2_IcEEEEEENS_16reverse_iteratorIPS7_EEEEED1B8ue170006Ev, symObjAddr: 0x1BFE8, symBinAddr: 0x10001E9BC, symSize: 0x78 }
  - { offsetInCU: 0x1CF9C, offset: 0x1CF9C, size: 0x8, addend: 0x0, symName: __ZNSt3__128__exception_guard_exceptionsINS_29_AllocatorDestroyRangeReverseINS_9allocatorINS_12basic_stringIcNS_11char_traitsIcEENS2_IcEEEEEENS_16reverse_iteratorIPS7_EEEEEC1B8ue170006ESC_, symObjAddr: 0x1C060, symBinAddr: 0x10001EA34, symSize: 0x84 }
  - { offsetInCU: 0x1CFD5, offset: 0x1CFD5, size: 0x8, addend: 0x0, symName: __ZNSt3__128__exception_guard_exceptionsINS_29_AllocatorDestroyRangeReverseINS_9allocatorINS_12basic_stringIcNS_11char_traitsIcEENS2_IcEEEEEENS_16reverse_iteratorIPS7_EEEEEC2B8ue170006ESC_, symObjAddr: 0x1C0E4, symBinAddr: 0x10001EAB8, symSize: 0xF8 }
  - { offsetInCU: 0x1D00E, offset: 0x1D00E, size: 0x8, addend: 0x0, symName: __ZNSt3__129_AllocatorDestroyRangeReverseINS_9allocatorINS_12basic_stringIcNS_11char_traitsIcEENS1_IcEEEEEENS_16reverse_iteratorIPS6_EEEC2B8ue170006ERS7_RSA_SD_, symObjAddr: 0x1C1DC, symBinAddr: 0x10001EBB0, symSize: 0x20C }
  - { offsetInCU: 0x1D065, offset: 0x1D065, size: 0x8, addend: 0x0, symName: __ZNSt3__112basic_stringIcNS_11char_traitsIcEENS_9allocatorIcEEEC1B8ue170006EOS5_, symObjAddr: 0x1C4F8, symBinAddr: 0x10001EECC, symSize: 0x80 }
  - { offsetInCU: 0x1D09E, offset: 0x1D09E, size: 0x8, addend: 0x0, symName: __ZNSt3__112basic_stringIcNS_11char_traitsIcEENS_9allocatorIcEEEC2B8ue170006EOS5_, symObjAddr: 0x1C578, symBinAddr: 0x10001EF4C, symSize: 0xCC }
  - { offsetInCU: 0x1D0D7, offset: 0x1D0D7, size: 0x8, addend: 0x0, symName: __ZNSt3__112basic_stringIcNS_11char_traitsIcEENS_9allocatorIcEEE14__default_initB8ue170006Ev, symObjAddr: 0x1C644, symBinAddr: 0x10001F018, symSize: 0x2B4 }
  - { offsetInCU: 0x1D0FE, offset: 0x1D0FE, size: 0x8, addend: 0x0, symName: __ZNSt3__117__compressed_pairINS_12basic_stringIcNS_11char_traitsIcEENS_9allocatorIcEEE5__repES5_E5firstB8ue170006Ev, symObjAddr: 0x1C8F8, symBinAddr: 0x10001F2CC, symSize: 0x124 }
  - { offsetInCU: 0x1D124, offset: 0x1D124, size: 0x8, addend: 0x0, symName: __ZNSt3__122__compressed_pair_elemINS_12basic_stringIcNS_11char_traitsIcEENS_9allocatorIcEEE5__repELi0ELb0EE5__getB8ue170006Ev, symObjAddr: 0x1CA1C, symBinAddr: 0x10001F3F0, symSize: 0xAC }
  - { offsetInCU: 0x1D14F, offset: 0x1D14F, size: 0x8, addend: 0x0, symName: __ZNSt3__119__to_address_helperINS_16reverse_iteratorIPNS_12basic_stringIcNS_11char_traitsIcEENS_9allocatorIcEEEEEEvE6__callB8ue170006ERKS9_, symObjAddr: 0x1CAC8, symBinAddr: 0x10001F49C, symSize: 0x70 }
  - { offsetInCU: 0x1D172, offset: 0x1D172, size: 0x8, addend: 0x0, symName: __ZNKSt3__116reverse_iteratorIPNS_12basic_stringIcNS_11char_traitsIcEENS_9allocatorIcEEEEEptB8ue170006Ev, symObjAddr: 0x1CB38, symBinAddr: 0x10001F50C, symSize: 0xB8 }
  - { offsetInCU: 0x1D198, offset: 0x1D198, size: 0x8, addend: 0x0, symName: __ZNSt3__128__exception_guard_exceptionsINS_29_AllocatorDestroyRangeReverseINS_9allocatorINS_12basic_stringIcNS_11char_traitsIcEENS2_IcEEEEEENS_16reverse_iteratorIPS7_EEEEED2B8ue170006Ev, symObjAddr: 0x1D098, symBinAddr: 0x10001FA6C, symSize: 0x17C }
  - { offsetInCU: 0x1D1C2, offset: 0x1D1C2, size: 0x8, addend: 0x0, symName: __ZNKSt3__129_AllocatorDestroyRangeReverseINS_9allocatorINS_12basic_stringIcNS_11char_traitsIcEENS1_IcEEEEEENS_16reverse_iteratorIPS6_EEEclB8ue170006Ev, symObjAddr: 0x1D214, symBinAddr: 0x10001FBE8, symSize: 0x418 }
  - { offsetInCU: 0x1D1E9, offset: 0x1D1E9, size: 0x8, addend: 0x0, symName: __ZNSt3__116reverse_iteratorINS0_IPNS_12basic_stringIcNS_11char_traitsIcEENS_9allocatorIcEEEEEEEC1B8ue170006ES8_, symObjAddr: 0x1D7D0, symBinAddr: 0x1000201A4, symSize: 0x29C }
  - { offsetInCU: 0x1D226, offset: 0x1D226, size: 0x8, addend: 0x0, symName: __ZNSt3__116allocator_traitsINS_9allocatorINS_12basic_stringIcNS_11char_traitsIcEENS1_IcEEEEEEE7destroyB8ue170006IS6_vvEEvRS7_PT_, symObjAddr: 0x1DD90, symBinAddr: 0x100020764, symSize: 0x28 }
  - { offsetInCU: 0x1D260, offset: 0x1D260, size: 0x8, addend: 0x0, symName: __ZNSt3__116reverse_iteratorINS0_IPNS_12basic_stringIcNS_11char_traitsIcEENS_9allocatorIcEEEEEEEppB8ue170006Ev, symObjAddr: 0x1DE24, symBinAddr: 0x1000207F8, symSize: 0x100 }
  - { offsetInCU: 0x1D286, offset: 0x1D286, size: 0x8, addend: 0x0, symName: __ZNKSt3__116reverse_iteratorINS0_IPNS_12basic_stringIcNS_11char_traitsIcEENS_9allocatorIcEEEEEEE4baseB8ue170006Ev, symObjAddr: 0x1DF24, symBinAddr: 0x1000208F8, symSize: 0x258 }
  - { offsetInCU: 0x1D2B2, offset: 0x1D2B2, size: 0x8, addend: 0x0, symName: __ZNSt3__119__to_address_helperINS_16reverse_iteratorINS1_IPNS_12basic_stringIcNS_11char_traitsIcEENS_9allocatorIcEEEEEEEEvE6__callB8ue170006ERKSA_, symObjAddr: 0x1E20C, symBinAddr: 0x100020BE0, symSize: 0x70 }
  - { offsetInCU: 0x1D2D5, offset: 0x1D2D5, size: 0x8, addend: 0x0, symName: __ZNKSt3__116reverse_iteratorINS0_IPNS_12basic_stringIcNS_11char_traitsIcEENS_9allocatorIcEEEEEEEptB8ue170006Ev, symObjAddr: 0x1E27C, symBinAddr: 0x100020C50, symSize: 0x2F0 }
  - { offsetInCU: 0x1D2FC, offset: 0x1D2FC, size: 0x8, addend: 0x0, symName: __ZNSt3__116reverse_iteratorIPNS_12basic_stringIcNS_11char_traitsIcEENS_9allocatorIcEEEEEpLB8ue170006El, symObjAddr: 0x1E92C, symBinAddr: 0x100021300, symSize: 0x240 }
  - { offsetInCU: 0x1D330, offset: 0x1D330, size: 0x8, addend: 0x0, symName: __ZNSt3__116reverse_iteratorIPNS_12basic_stringIcNS_11char_traitsIcEENS_9allocatorIcEEEEEmmB8ue170006Ev, symObjAddr: 0x1EB6C, symBinAddr: 0x100021540, symSize: 0x1B0 }
  - { offsetInCU: 0x1D356, offset: 0x1D356, size: 0x8, addend: 0x0, symName: __ZNSt3__116reverse_iteratorINS0_IPNS_12basic_stringIcNS_11char_traitsIcEENS_9allocatorIcEEEEEEEC2B8ue170006ES8_, symObjAddr: 0x1ED1C, symBinAddr: 0x1000216F0, symSize: 0x284 }
  - { offsetInCU: 0x1D393, offset: 0x1D393, size: 0x8, addend: 0x0, symName: __ZNSt3__116reverse_iteratorIPNS_12basic_stringIcNS_11char_traitsIcEENS_9allocatorIcEEEEEC2B8ue170006ES7_, symObjAddr: 0x1EFA0, symBinAddr: 0x100021974, symSize: 0x10C }
  - { offsetInCU: 0x1D3CB, offset: 0x1D3CB, size: 0x8, addend: 0x0, symName: __ZNSt3__117__compressed_pairIPNS_12basic_stringIcNS_11char_traitsIcEENS_9allocatorIcEEEENS4_IS6_EEE5firstB8ue170006Ev, symObjAddr: 0x1F0AC, symBinAddr: 0x100021A80, symSize: 0x124 }
  - { offsetInCU: 0x1D3F1, offset: 0x1D3F1, size: 0x8, addend: 0x0, symName: __ZNSt3__114__split_bufferINS_12basic_stringIcNS_11char_traitsIcEENS_9allocatorIcEEEERNS4_IS6_EEED2Ev, symObjAddr: 0x1F1D0, symBinAddr: 0x100021BA4, symSize: 0x16C }
  - { offsetInCU: 0x1D41D, offset: 0x1D41D, size: 0x8, addend: 0x0, symName: __ZNSt3__114__split_bufferINS_12basic_stringIcNS_11char_traitsIcEENS_9allocatorIcEEEERNS4_IS6_EEE5clearB8ue170006Ev, symObjAddr: 0x1F33C, symBinAddr: 0x100021D10, symSize: 0xB4 }
  - { offsetInCU: 0x1D443, offset: 0x1D443, size: 0x8, addend: 0x0, symName: __ZNSt3__116allocator_traitsINS_9allocatorINS_12basic_stringIcNS_11char_traitsIcEENS1_IcEEEEEEE10deallocateB8ue170006ERS7_PS6_m, symObjAddr: 0x1F3F0, symBinAddr: 0x100021DC4, symSize: 0x34 }
  - { offsetInCU: 0x1D485, offset: 0x1D485, size: 0x8, addend: 0x0, symName: __ZNKSt3__114__split_bufferINS_12basic_stringIcNS_11char_traitsIcEENS_9allocatorIcEEEERNS4_IS6_EEE8capacityB8ue170006Ev, symObjAddr: 0x1F424, symBinAddr: 0x100021DF8, symSize: 0x144 }
  - { offsetInCU: 0x1D4AB, offset: 0x1D4AB, size: 0x8, addend: 0x0, symName: __ZNSt3__114__split_bufferINS_12basic_stringIcNS_11char_traitsIcEENS_9allocatorIcEEEERNS4_IS6_EEE17__destruct_at_endB8ue170006EPS6_, symObjAddr: 0x1F568, symBinAddr: 0x100021F3C, symSize: 0x74 }
  - { offsetInCU: 0x1D4DF, offset: 0x1D4DF, size: 0x8, addend: 0x0, symName: __ZNSt3__114__split_bufferINS_12basic_stringIcNS_11char_traitsIcEENS_9allocatorIcEEEERNS4_IS6_EEE17__destruct_at_endB8ue170006EPS6_NS_17integral_constantIbLb0EEE, symObjAddr: 0x1F5DC, symBinAddr: 0x100021FB0, symSize: 0x224 }
  - { offsetInCU: 0x1D51F, offset: 0x1D51F, size: 0x8, addend: 0x0, symName: __ZNSt3__19allocatorINS_12basic_stringIcNS_11char_traitsIcEENS0_IcEEEEE10deallocateB8ue170006EPS5_m, symObjAddr: 0x1F800, symBinAddr: 0x1000221D4, symSize: 0x7C }
  - { offsetInCU: 0x1D561, offset: 0x1D561, size: 0x8, addend: 0x0, symName: __ZNKSt3__114__split_bufferINS_12basic_stringIcNS_11char_traitsIcEENS_9allocatorIcEEEERNS4_IS6_EEE9__end_capB8ue170006Ev, symObjAddr: 0x1F87C, symBinAddr: 0x100022250, symSize: 0x100 }
  - { offsetInCU: 0x1D587, offset: 0x1D587, size: 0x8, addend: 0x0, symName: __ZNKSt3__117__compressed_pairIPNS_12basic_stringIcNS_11char_traitsIcEENS_9allocatorIcEEEERNS4_IS6_EEE5firstB8ue170006Ev, symObjAddr: 0x1F97C, symBinAddr: 0x100022350, symSize: 0x124 }
  - { offsetInCU: 0x1D5AD, offset: 0x1D5AD, size: 0x8, addend: 0x0, symName: __ZNSt3__16vectorIlNS_9allocatorIlEEE11__make_iterB8ue170006EPl, symObjAddr: 0x1FAA0, symBinAddr: 0x100022474, symSize: 0x244 }
  - { offsetInCU: 0x1D5E4, offset: 0x1D5E4, size: 0x8, addend: 0x0, symName: __ZNSt3__111__wrap_iterIPlEC1B8ue170006ES1_, symObjAddr: 0x1FCE4, symBinAddr: 0x1000226B8, symSize: 0x80 }
  - { offsetInCU: 0x1D61C, offset: 0x1D61C, size: 0x8, addend: 0x0, symName: __ZNSt3__111__wrap_iterIPlEC2B8ue170006ES1_, symObjAddr: 0x1FD64, symBinAddr: 0x100022738, symSize: 0xC8 }
  - { offsetInCU: 0x1D654, offset: 0x1D654, size: 0x8, addend: 0x0, symName: __ZNKSt3__111__wrap_iterIPlE4baseB8ue170006Ev, symObjAddr: 0x1FEC8, symBinAddr: 0x10002289C, symSize: 0xAC }
  - { offsetInCU: 0x1D67A, offset: 0x1D67A, size: 0x8, addend: 0x0, symName: __ZNSt3__16vectorINS_12basic_stringIcNS_11char_traitsIcEENS_9allocatorIcEEEENS4_IS6_EEE22__construct_one_at_endB8ue170006IJRS6_EEEvDpOT_, symObjAddr: 0x1FF74, symBinAddr: 0x100022948, symSize: 0x550 }
  - { offsetInCU: 0x1D6CF, offset: 0x1D6CF, size: 0x8, addend: 0x0, symName: __ZNSt3__16vectorINS_12basic_stringIcNS_11char_traitsIcEENS_9allocatorIcEEEENS4_IS6_EEE24__emplace_back_slow_pathIJRS6_EEEvDpOT_, symObjAddr: 0x204C4, symBinAddr: 0x100022E98, symSize: 0x5B0 }
  - { offsetInCU: 0x1D736, offset: 0x1D736, size: 0x8, addend: 0x0, symName: __ZNSt3__16vectorINS_12basic_stringIcNS_11char_traitsIcEENS_9allocatorIcEEEENS4_IS6_EEE4backB8ue170006Ev, symObjAddr: 0x20A74, symBinAddr: 0x100023448, symSize: 0x18C }
  - { offsetInCU: 0x1D775, offset: 0x1D775, size: 0x8, addend: 0x0, symName: __ZNSt3__16vectorINS_12basic_stringIcNS_11char_traitsIcEENS_9allocatorIcEEEENS4_IS6_EEE21_ConstructTransactionC1B8ue170006ERS8_m, symObjAddr: 0x20C00, symBinAddr: 0x1000235D4, symSize: 0x88 }
  - { offsetInCU: 0x1D7BD, offset: 0x1D7BD, size: 0x8, addend: 0x0, symName: __ZNSt3__116allocator_traitsINS_9allocatorINS_12basic_stringIcNS_11char_traitsIcEENS1_IcEEEEEEE9constructB8ue170006IS6_JRS6_EvvEEvRS7_PT_DpOT0_, symObjAddr: 0x20C88, symBinAddr: 0x10002365C, symSize: 0x80 }
  - { offsetInCU: 0x1D811, offset: 0x1D811, size: 0x8, addend: 0x0, symName: __ZNSt3__16vectorINS_12basic_stringIcNS_11char_traitsIcEENS_9allocatorIcEEEENS4_IS6_EEE21_ConstructTransactionD1B8ue170006Ev, symObjAddr: 0x20D08, symBinAddr: 0x1000236DC, symSize: 0x78 }
  - { offsetInCU: 0x1D83B, offset: 0x1D83B, size: 0x8, addend: 0x0, symName: __ZNSt3__16vectorINS_12basic_stringIcNS_11char_traitsIcEENS_9allocatorIcEEEENS4_IS6_EEE21_ConstructTransactionC2B8ue170006ERS8_m, symObjAddr: 0x20D80, symBinAddr: 0x100023754, symSize: 0x3E0 }
  - { offsetInCU: 0x1D883, offset: 0x1D883, size: 0x8, addend: 0x0, symName: __ZNKSt3__16vectorINS_12basic_stringIcNS_11char_traitsIcEENS_9allocatorIcEEEENS4_IS6_EEE19__annotate_increaseB8ue170006Em, symObjAddr: 0x21160, symBinAddr: 0x100023B34, symSize: 0x46C }
  - { offsetInCU: 0x1D8B8, offset: 0x1D8B8, size: 0x8, addend: 0x0, symName: __ZNSt3__16vectorINS_12basic_stringIcNS_11char_traitsIcEENS_9allocatorIcEEEENS4_IS6_EEE21_ConstructTransactionD2B8ue170006Ev, symObjAddr: 0x216DC, symBinAddr: 0x1000240B0, symSize: 0x390 }
  - { offsetInCU: 0x1D8E2, offset: 0x1D8E2, size: 0x8, addend: 0x0, symName: __ZNKSt3__16vectorINS_12basic_stringIcNS_11char_traitsIcEENS_9allocatorIcEEEENS4_IS6_EEE17__annotate_shrinkB8ue170006Em, symObjAddr: 0x21A6C, symBinAddr: 0x100024440, symSize: 0x378 }
  - { offsetInCU: 0x1D917, offset: 0x1D917, size: 0x8, addend: 0x0, symName: __ZNKSt3__16vectorINS_12basic_stringIcNS_11char_traitsIcEENS_9allocatorIcEEEENS4_IS6_EEE11__recommendB8ue170006Em, symObjAddr: 0x21DE4, symBinAddr: 0x1000247B8, symSize: 0x45C }
  - { offsetInCU: 0x1D996, offset: 0x1D996, size: 0x8, addend: 0x0, symName: __ZNSt3__112__hash_tableINS_17__hash_value_typeIlNS_12basic_stringIcNS_11char_traitsIcEENS_9allocatorIcEEEEEENS_22__unordered_map_hasherIlS8_NS_4hashIlEENS_8equal_toIlEELb1EEENS_21__unordered_map_equalIlS8_SD_SB_Lb1EEENS5_IS8_EEE25__emplace_unique_key_argsIlJRKNS_21piecewise_construct_tENS_5tupleIJRKlEEENSN_IJEEEEEENS_4pairINS_15__hash_iteratorIPNS_11__hash_nodeIS8_PvEEEEbEERKT_DpOT0_, symObjAddr: 0x22604, symBinAddr: 0x100024FD8, symSize: 0x1DD0 }
  - { offsetInCU: 0x1DAAB, offset: 0x1DAAB, size: 0x8, addend: 0x0, symName: __ZNKSt3__115__hash_iteratorIPNS_11__hash_nodeINS_17__hash_value_typeIlNS_12basic_stringIcNS_11char_traitsIcEENS_9allocatorIcEEEEEEPvEEEptB8ue170006Ev, symObjAddr: 0x2461C, symBinAddr: 0x100026FF0, symSize: 0x190 }
  - { offsetInCU: 0x1DAD1, offset: 0x1DAD1, size: 0x8, addend: 0x0, symName: __ZNSt3__117__hash_value_typeIlNS_12basic_stringIcNS_11char_traitsIcEENS_9allocatorIcEEEEE11__get_valueB8ue170006Ev, symObjAddr: 0x247AC, symBinAddr: 0x100027180, symSize: 0xB4 }
  - { offsetInCU: 0x1DAF7, offset: 0x1DAF7, size: 0x8, addend: 0x0, symName: __ZNSt3__112__hash_tableINS_17__hash_value_typeIlNS_12basic_stringIcNS_11char_traitsIcEENS_9allocatorIcEEEEEENS_22__unordered_map_hasherIlS8_NS_4hashIlEENS_8equal_toIlEELb1EEENS_21__unordered_map_equalIlS8_SD_SB_Lb1EEENS5_IS8_EEE13hash_functionB8ue170006Ev, symObjAddr: 0x24860, symBinAddr: 0x100027234, symSize: 0xE4 }
  - { offsetInCU: 0x1DB1D, offset: 0x1DB1D, size: 0x8, addend: 0x0, symName: __ZNKSt3__122__unordered_map_hasherIlNS_17__hash_value_typeIlNS_12basic_stringIcNS_11char_traitsIcEENS_9allocatorIcEEEEEENS_4hashIlEENS_8equal_toIlEELb1EEclB8ue170006ERKl, symObjAddr: 0x24944, symBinAddr: 0x100027318, symSize: 0xC8 }
  - { offsetInCU: 0x1DB52, offset: 0x1DB52, size: 0x8, addend: 0x0, symName: __ZNKSt3__112__hash_tableINS_17__hash_value_typeIlNS_12basic_stringIcNS_11char_traitsIcEENS_9allocatorIcEEEEEENS_22__unordered_map_hasherIlS8_NS_4hashIlEENS_8equal_toIlEELb1EEENS_21__unordered_map_equalIlS8_SD_SB_Lb1EEENS5_IS8_EEE12bucket_countB8ue170006Ev, symObjAddr: 0x24A0C, symBinAddr: 0x1000273E0, symSize: 0xFC }
  - { offsetInCU: 0x1DB78, offset: 0x1DB78, size: 0x8, addend: 0x0, symName: __ZNKSt3__110unique_ptrIA_PNS_16__hash_node_baseIPNS_11__hash_nodeINS_17__hash_value_typeIlNS_12basic_stringIcNS_11char_traitsIcEENS_9allocatorIcEEEEEEPvEEEENS_25__bucket_list_deallocatorINS7_ISF_EEEEEixB8ue170006Em, symObjAddr: 0x24BE4, symBinAddr: 0x1000275B8, symSize: 0x25C }
  - { offsetInCU: 0x1DBAD, offset: 0x1DBAD, size: 0x8, addend: 0x0, symName: __ZNKSt3__116__hash_node_baseIPNS_11__hash_nodeINS_17__hash_value_typeIlNS_12basic_stringIcNS_11char_traitsIcEENS_9allocatorIcEEEEEEPvEEE6__hashB8ue170006Ev, symObjAddr: 0x24E40, symBinAddr: 0x100027814, symSize: 0x180 }
  - { offsetInCU: 0x1DBD3, offset: 0x1DBD3, size: 0x8, addend: 0x0, symName: __ZNSt3__112__hash_tableINS_17__hash_value_typeIlNS_12basic_stringIcNS_11char_traitsIcEENS_9allocatorIcEEEEEENS_22__unordered_map_hasherIlS8_NS_4hashIlEENS_8equal_toIlEELb1EEENS_21__unordered_map_equalIlS8_SD_SB_Lb1EEENS5_IS8_EEE6key_eqB8ue170006Ev, symObjAddr: 0x24FC0, symBinAddr: 0x100027994, symSize: 0xE4 }
  - { offsetInCU: 0x1DBF9, offset: 0x1DBF9, size: 0x8, addend: 0x0, symName: __ZNKSt3__121__unordered_map_equalIlNS_17__hash_value_typeIlNS_12basic_stringIcNS_11char_traitsIcEENS_9allocatorIcEEEEEENS_8equal_toIlEENS_4hashIlEELb1EEclB8ue170006ERKS8_RKl, symObjAddr: 0x250A4, symBinAddr: 0x100027A78, symSize: 0x190 }
  - { offsetInCU: 0x1DC3D, offset: 0x1DC3D, size: 0x8, addend: 0x0, symName: __ZNSt3__116__hash_node_baseIPNS_11__hash_nodeINS_17__hash_value_typeIlNS_12basic_stringIcNS_11char_traitsIcEENS_9allocatorIcEEEEEEPvEEE8__upcastB8ue170006Ev, symObjAddr: 0x25234, symBinAddr: 0x100027C08, symSize: 0xF8 }
  - { offsetInCU: 0x1DC63, offset: 0x1DC63, size: 0x8, addend: 0x0, symName: __ZNSt3__112__hash_tableINS_17__hash_value_typeIlNS_12basic_stringIcNS_11char_traitsIcEENS_9allocatorIcEEEEEENS_22__unordered_map_hasherIlS8_NS_4hashIlEENS_8equal_toIlEELb1EEENS_21__unordered_map_equalIlS8_SD_SB_Lb1EEENS5_IS8_EEE21__construct_node_hashIRKNS_21piecewise_construct_tEJNS_5tupleIJRKlEEENSN_IJEEEEEENS_10unique_ptrINS_11__hash_nodeIS8_PvEENS_22__hash_node_destructorINS5_ISV_EEEEEEmOT_DpOT0_, symObjAddr: 0x2532C, symBinAddr: 0x100027D00, symSize: 0x948 }
  - { offsetInCU: 0x1DD06, offset: 0x1DD06, size: 0x8, addend: 0x0, symName: __ZNSt3__112__hash_tableINS_17__hash_value_typeIlNS_12basic_stringIcNS_11char_traitsIcEENS_9allocatorIcEEEEEENS_22__unordered_map_hasherIlS8_NS_4hashIlEENS_8equal_toIlEELb1EEENS_21__unordered_map_equalIlS8_SD_SB_Lb1EEENS5_IS8_EEE4sizeB8ue170006Ev, symObjAddr: 0x25C74, symBinAddr: 0x100028648, symSize: 0x100 }
  - { offsetInCU: 0x1DD2C, offset: 0x1DD2C, size: 0x8, addend: 0x0, symName: __ZNSt3__112__hash_tableINS_17__hash_value_typeIlNS_12basic_stringIcNS_11char_traitsIcEENS_9allocatorIcEEEEEENS_22__unordered_map_hasherIlS8_NS_4hashIlEENS_8equal_toIlEELb1EEENS_21__unordered_map_equalIlS8_SD_SB_Lb1EEENS5_IS8_EEE15max_load_factorB8ue170006Ev, symObjAddr: 0x25D74, symBinAddr: 0x100028748, symSize: 0x100 }
  - { offsetInCU: 0x1DD52, offset: 0x1DD52, size: 0x8, addend: 0x0, symName: __ZNSt3__112__hash_tableINS_17__hash_value_typeIlNS_12basic_stringIcNS_11char_traitsIcEENS_9allocatorIcEEEEEENS_22__unordered_map_hasherIlS8_NS_4hashIlEENS_8equal_toIlEELb1EEENS_21__unordered_map_equalIlS8_SD_SB_Lb1EEENS5_IS8_EEE15__rehash_uniqueB8ue170006Em, symObjAddr: 0x25E74, symBinAddr: 0x100028848, symSize: 0x74 }
  - { offsetInCU: 0x1DD86, offset: 0x1DD86, size: 0x8, addend: 0x0, symName: __Z4ceilB8ue170006f, symObjAddr: 0x25F38, symBinAddr: 0x10002890C, symSize: 0x18 }
  - { offsetInCU: 0x1DDB5, offset: 0x1DDB5, size: 0x8, addend: 0x0, symName: __ZNSt3__117__compressed_pairINS_16__hash_node_baseIPNS_11__hash_nodeINS_17__hash_value_typeIlNS_12basic_stringIcNS_11char_traitsIcEENS_9allocatorIcEEEEEEPvEEEENS7_ISC_EEE5firstB8ue170006Ev, symObjAddr: 0x25F50, symBinAddr: 0x100028924, symSize: 0x124 }
  - { offsetInCU: 0x1DDDB, offset: 0x1DDDB, size: 0x8, addend: 0x0, symName: __ZNSt3__116__hash_node_baseIPNS_11__hash_nodeINS_17__hash_value_typeIlNS_12basic_stringIcNS_11char_traitsIcEENS_9allocatorIcEEEEEEPvEEE5__ptrB8ue170006Ev, symObjAddr: 0x26074, symBinAddr: 0x100028A48, symSize: 0xB0 }
  - { offsetInCU: 0x1DE01, offset: 0x1DE01, size: 0x8, addend: 0x0, symName: __ZNKSt3__110unique_ptrINS_11__hash_nodeINS_17__hash_value_typeIlNS_12basic_stringIcNS_11char_traitsIcEENS_9allocatorIcEEEEEEPvEENS_22__hash_node_destructorINS6_ISB_EEEEEptB8ue170006Ev, symObjAddr: 0x26124, symBinAddr: 0x100028AF8, symSize: 0x13C }
  - { offsetInCU: 0x1DE27, offset: 0x1DE27, size: 0x8, addend: 0x0, symName: __ZNKSt3__110unique_ptrINS_11__hash_nodeINS_17__hash_value_typeIlNS_12basic_stringIcNS_11char_traitsIcEENS_9allocatorIcEEEEEEPvEENS_22__hash_node_destructorINS6_ISB_EEEEE3getB8ue170006Ev, symObjAddr: 0x26260, symBinAddr: 0x100028C34, symSize: 0x13C }
  - { offsetInCU: 0x1DE4D, offset: 0x1DE4D, size: 0x8, addend: 0x0, symName: __ZNSt3__110unique_ptrINS_11__hash_nodeINS_17__hash_value_typeIlNS_12basic_stringIcNS_11char_traitsIcEENS_9allocatorIcEEEEEEPvEENS_22__hash_node_destructorINS6_ISB_EEEEE7releaseB8ue170006Ev, symObjAddr: 0x2639C, symBinAddr: 0x100028D70, symSize: 0x20C }
  - { offsetInCU: 0x1DE82, offset: 0x1DE82, size: 0x8, addend: 0x0, symName: __ZNSt3__110unique_ptrINS_11__hash_nodeINS_17__hash_value_typeIlNS_12basic_stringIcNS_11char_traitsIcEENS_9allocatorIcEEEEEEPvEENS_22__hash_node_destructorINS6_ISB_EEEEED1B8ue170006Ev, symObjAddr: 0x265A8, symBinAddr: 0x100028F7C, symSize: 0x78 }
  - { offsetInCU: 0x1DEAC, offset: 0x1DEAC, size: 0x8, addend: 0x0, symName: __ZNSt3__115__hash_iteratorIPNS_11__hash_nodeINS_17__hash_value_typeIlNS_12basic_stringIcNS_11char_traitsIcEENS_9allocatorIcEEEEEEPvEEEC1B8ue170006EPNS_16__hash_node_baseISC_EE, symObjAddr: 0x26620, symBinAddr: 0x100028FF4, symSize: 0x80 }
  - { offsetInCU: 0x1DEEF, offset: 0x1DEEF, size: 0x8, addend: 0x0, symName: __ZNSt3__14pairINS_15__hash_iteratorIPNS_11__hash_nodeINS_17__hash_value_typeIlNS_12basic_stringIcNS_11char_traitsIcEENS_9allocatorIcEEEEEEPvEEEEbEC1B8ue170006ISE_RbLSB_0EEEOT_OT0_, symObjAddr: 0x266A0, symBinAddr: 0x100029074, symSize: 0x88 }
  - { offsetInCU: 0x1DF4D, offset: 0x1DF4D, size: 0x8, addend: 0x0, symName: __ZNSt3__117__compressed_pairImNS_22__unordered_map_hasherIlNS_17__hash_value_typeIlNS_12basic_stringIcNS_11char_traitsIcEENS_9allocatorIcEEEEEENS_4hashIlEENS_8equal_toIlEELb1EEEE6secondB8ue170006Ev, symObjAddr: 0x26728, symBinAddr: 0x1000290FC, symSize: 0x108 }
  - { offsetInCU: 0x1DF73, offset: 0x1DF73, size: 0x8, addend: 0x0, symName: __ZNSt3__122__compressed_pair_elemINS_22__unordered_map_hasherIlNS_17__hash_value_typeIlNS_12basic_stringIcNS_11char_traitsIcEENS_9allocatorIcEEEEEENS_4hashIlEENS_8equal_toIlEELb1EEELi1ELb1EE5__getB8ue170006Ev, symObjAddr: 0x26830, symBinAddr: 0x100029204, symSize: 0x74 }
  - { offsetInCU: 0x1DF99, offset: 0x1DF99, size: 0x8, addend: 0x0, symName: __ZNKSt3__14hashIlEclB8ue170006El, symObjAddr: 0x268A4, symBinAddr: 0x100029278, symSize: 0x50 }
  - { offsetInCU: 0x1DFCE, offset: 0x1DFCE, size: 0x8, addend: 0x0, symName: __ZNKSt3__110unique_ptrIA_PNS_16__hash_node_baseIPNS_11__hash_nodeINS_17__hash_value_typeIlNS_12basic_stringIcNS_11char_traitsIcEENS_9allocatorIcEEEEEEPvEEEENS_25__bucket_list_deallocatorINS7_ISF_EEEEE11get_deleterB8ue170006Ev, symObjAddr: 0x268F4, symBinAddr: 0x1000292C8, symSize: 0xF8 }
  - { offsetInCU: 0x1DFF4, offset: 0x1DFF4, size: 0x8, addend: 0x0, symName: __ZNKSt3__125__bucket_list_deallocatorINS_9allocatorIPNS_16__hash_node_baseIPNS_11__hash_nodeINS_17__hash_value_typeIlNS_12basic_stringIcNS_11char_traitsIcEENS1_IcEEEEEEPvEEEEEEE4sizeB8ue170006Ev, symObjAddr: 0x269EC, symBinAddr: 0x1000293C0, symSize: 0x13C }
  - { offsetInCU: 0x1E01A, offset: 0x1E01A, size: 0x8, addend: 0x0, symName: __ZNKSt3__117__compressed_pairIPPNS_16__hash_node_baseIPNS_11__hash_nodeINS_17__hash_value_typeIlNS_12basic_stringIcNS_11char_traitsIcEENS_9allocatorIcEEEEEEPvEEEENS_25__bucket_list_deallocatorINS7_ISF_EEEEE6secondB8ue170006Ev, symObjAddr: 0x26B28, symBinAddr: 0x1000294FC, symSize: 0x12C }
  - { offsetInCU: 0x1E040, offset: 0x1E040, size: 0x8, addend: 0x0, symName: __ZNKSt3__122__compressed_pair_elemINS_25__bucket_list_deallocatorINS_9allocatorIPNS_16__hash_node_baseIPNS_11__hash_nodeINS_17__hash_value_typeIlNS_12basic_stringIcNS_11char_traitsIcEENS2_IcEEEEEEPvEEEEEEEELi1ELb0EE5__getB8ue170006Ev, symObjAddr: 0x26C54, symBinAddr: 0x100029628, symSize: 0xAC }
  - { offsetInCU: 0x1E066, offset: 0x1E066, size: 0x8, addend: 0x0, symName: __ZNKSt3__117__compressed_pairImNS_9allocatorIPNS_16__hash_node_baseIPNS_11__hash_nodeINS_17__hash_value_typeIlNS_12basic_stringIcNS_11char_traitsIcEENS1_IcEEEEEEPvEEEEEEE5firstB8ue170006Ev, symObjAddr: 0x26D00, symBinAddr: 0x1000296D4, symSize: 0x124 }
  - { offsetInCU: 0x1E08C, offset: 0x1E08C, size: 0x8, addend: 0x0, symName: __ZNKSt3__122__compressed_pair_elemImLi0ELb0EE5__getB8ue170006Ev, symObjAddr: 0x26E24, symBinAddr: 0x1000297F8, symSize: 0xAC }
  - { offsetInCU: 0x1E0B2, offset: 0x1E0B2, size: 0x8, addend: 0x0, symName: __ZNKSt3__117__compressed_pairIPPNS_16__hash_node_baseIPNS_11__hash_nodeINS_17__hash_value_typeIlNS_12basic_stringIcNS_11char_traitsIcEENS_9allocatorIcEEEEEEPvEEEENS_25__bucket_list_deallocatorINS7_ISF_EEEEE5firstB8ue170006Ev, symObjAddr: 0x26ED0, symBinAddr: 0x1000298A4, symSize: 0x124 }
  - { offsetInCU: 0x1E0D8, offset: 0x1E0D8, size: 0x8, addend: 0x0, symName: __ZNKSt3__122__compressed_pair_elemIPPNS_16__hash_node_baseIPNS_11__hash_nodeINS_17__hash_value_typeIlNS_12basic_stringIcNS_11char_traitsIcEENS_9allocatorIcEEEEEEPvEEEELi0ELb0EE5__getB8ue170006Ev, symObjAddr: 0x26FF4, symBinAddr: 0x1000299C8, symSize: 0xAC }
  - { offsetInCU: 0x1E0FE, offset: 0x1E0FE, size: 0x8, addend: 0x0, symName: __ZNSt3__117__compressed_pairIfNS_21__unordered_map_equalIlNS_17__hash_value_typeIlNS_12basic_stringIcNS_11char_traitsIcEENS_9allocatorIcEEEEEENS_8equal_toIlEENS_4hashIlEELb1EEEE6secondB8ue170006Ev, symObjAddr: 0x270A0, symBinAddr: 0x100029A74, symSize: 0x108 }
  - { offsetInCU: 0x1E124, offset: 0x1E124, size: 0x8, addend: 0x0, symName: __ZNSt3__122__compressed_pair_elemINS_21__unordered_map_equalIlNS_17__hash_value_typeIlNS_12basic_stringIcNS_11char_traitsIcEENS_9allocatorIcEEEEEENS_8equal_toIlEENS_4hashIlEELb1EEELi1ELb1EE5__getB8ue170006Ev, symObjAddr: 0x271A8, symBinAddr: 0x100029B7C, symSize: 0x74 }
  - { offsetInCU: 0x1E14A, offset: 0x1E14A, size: 0x8, addend: 0x0, symName: __ZNKSt3__18equal_toIlEclB8ue170006ERKlS3_, symObjAddr: 0x2721C, symBinAddr: 0x100029BF0, symSize: 0xEC }
  - { offsetInCU: 0x1E18E, offset: 0x1E18E, size: 0x8, addend: 0x0, symName: __ZNKSt3__117__hash_value_typeIlNS_12basic_stringIcNS_11char_traitsIcEENS_9allocatorIcEEEEE11__get_valueB8ue170006Ev, symObjAddr: 0x27308, symBinAddr: 0x100029CDC, symSize: 0xB4 }
  - { offsetInCU: 0x1E1B4, offset: 0x1E1B4, size: 0x8, addend: 0x0, symName: __ZNSt3__114pointer_traitsIPNS_16__hash_node_baseIPNS_11__hash_nodeINS_17__hash_value_typeIlNS_12basic_stringIcNS_11char_traitsIcEENS_9allocatorIcEEEEEEPvEEEEE10pointer_toB8ue170006ERSE_, symObjAddr: 0x273F4, symBinAddr: 0x100029DC8, symSize: 0x14 }
  - { offsetInCU: 0x1E1D7, offset: 0x1E1D7, size: 0x8, addend: 0x0, symName: __ZNSt3__112__hash_tableINS_17__hash_value_typeIlNS_12basic_stringIcNS_11char_traitsIcEENS_9allocatorIcEEEEEENS_22__unordered_map_hasherIlS8_NS_4hashIlEENS_8equal_toIlEELb1EEENS_21__unordered_map_equalIlS8_SD_SB_Lb1EEENS5_IS8_EEE12__node_allocB8ue170006Ev, symObjAddr: 0x27408, symBinAddr: 0x100029DDC, symSize: 0xE4 }
  - { offsetInCU: 0x1E1FD, offset: 0x1E1FD, size: 0x8, addend: 0x0, symName: __ZNSt3__116allocator_traitsINS_9allocatorINS_11__hash_nodeINS_17__hash_value_typeIlNS_12basic_stringIcNS_11char_traitsIcEENS1_IcEEEEEEPvEEEEE8allocateB8ue170006ERSC_m, symObjAddr: 0x274EC, symBinAddr: 0x100029EC0, symSize: 0x2C }
  - { offsetInCU: 0x1E230, offset: 0x1E230, size: 0x8, addend: 0x0, symName: __ZNSt3__122__hash_node_destructorINS_9allocatorINS_11__hash_nodeINS_17__hash_value_typeIlNS_12basic_stringIcNS_11char_traitsIcEENS1_IcEEEEEEPvEEEEEC1B8ue170006ERSC_b, symObjAddr: 0x27518, symBinAddr: 0x100029EEC, symSize: 0xCC }
  - { offsetInCU: 0x1E27D, offset: 0x1E27D, size: 0x8, addend: 0x0, symName: __ZNSt3__110unique_ptrINS_11__hash_nodeINS_17__hash_value_typeIlNS_12basic_stringIcNS_11char_traitsIcEENS_9allocatorIcEEEEEEPvEENS_22__hash_node_destructorINS6_ISB_EEEEEC1B8ue170006ILb1EvEEPSB_NS_16__dependent_typeINS_27__unique_ptr_deleter_sfinaeISE_EEXT_EE20__good_rval_ref_typeE, symObjAddr: 0x275E4, symBinAddr: 0x100029FB8, symSize: 0x88 }
  - { offsetInCU: 0x1E2CE, offset: 0x1E2CE, size: 0x8, addend: 0x0, symName: __ZNSt3__116allocator_traitsINS_9allocatorINS_11__hash_nodeINS_17__hash_value_typeIlNS_12basic_stringIcNS_11char_traitsIcEENS1_IcEEEEEEPvEEEEE9constructB8ue170006INS_4pairIKlS8_EEJRKNS_21piecewise_construct_tENS_5tupleIJRSG_EEENSL_IJEEEEvvEEvRSC_PT_DpOT0_, symObjAddr: 0x2766C, symBinAddr: 0x10002A040, symSize: 0xE8 }
  - { offsetInCU: 0x1E34A, offset: 0x1E34A, size: 0x8, addend: 0x0, symName: __ZNSt3__122__hash_key_value_typesINS_17__hash_value_typeIlNS_12basic_stringIcNS_11char_traitsIcEENS_9allocatorIcEEEEEEE9__get_ptrB8ue170006ERS8_, symObjAddr: 0x27754, symBinAddr: 0x10002A128, symSize: 0x50 }
  - { offsetInCU: 0x1E36D, offset: 0x1E36D, size: 0x8, addend: 0x0, symName: __ZNSt3__110unique_ptrINS_11__hash_nodeINS_17__hash_value_typeIlNS_12basic_stringIcNS_11char_traitsIcEENS_9allocatorIcEEEEEEPvEENS_22__hash_node_destructorINS6_ISB_EEEEE11get_deleterB8ue170006Ev, symObjAddr: 0x277A4, symBinAddr: 0x10002A178, symSize: 0xF8 }
  - { offsetInCU: 0x1E393, offset: 0x1E393, size: 0x8, addend: 0x0, symName: __ZNSt3__117__compressed_pairINS_16__hash_node_baseIPNS_11__hash_nodeINS_17__hash_value_typeIlNS_12basic_stringIcNS_11char_traitsIcEENS_9allocatorIcEEEEEEPvEEEENS7_ISC_EEE6secondB8ue170006Ev, symObjAddr: 0x2789C, symBinAddr: 0x10002A270, symSize: 0x108 }
  - { offsetInCU: 0x1E3B9, offset: 0x1E3B9, size: 0x8, addend: 0x0, symName: __ZNSt3__122__compressed_pair_elemINS_9allocatorINS_11__hash_nodeINS_17__hash_value_typeIlNS_12basic_stringIcNS_11char_traitsIcEENS1_IcEEEEEEPvEEEELi1ELb1EE5__getB8ue170006Ev, symObjAddr: 0x279A4, symBinAddr: 0x10002A378, symSize: 0x74 }
  - { offsetInCU: 0x1E3DF, offset: 0x1E3DF, size: 0x8, addend: 0x0, symName: __ZNSt3__19allocatorINS_11__hash_nodeINS_17__hash_value_typeIlNS_12basic_stringIcNS_11char_traitsIcEENS0_IcEEEEEEPvEEE8allocateB8ue170006Em, symObjAddr: 0x27A18, symBinAddr: 0x10002A3EC, symSize: 0xD0 }
  - { offsetInCU: 0x1E41D, offset: 0x1E41D, size: 0x8, addend: 0x0, symName: __ZNSt3__116allocator_traitsINS_9allocatorINS_11__hash_nodeINS_17__hash_value_typeIlNS_12basic_stringIcNS_11char_traitsIcEENS1_IcEEEEEEPvEEEEE8max_sizeB8ue170006ISC_vvEEmRKSC_, symObjAddr: 0x27AE8, symBinAddr: 0x10002A4BC, symSize: 0x54 }
  - { offsetInCU: 0x1E448, offset: 0x1E448, size: 0x8, addend: 0x0, symName: __ZNSt3__122__hash_node_destructorINS_9allocatorINS_11__hash_nodeINS_17__hash_value_typeIlNS_12basic_stringIcNS_11char_traitsIcEENS1_IcEEEEEEPvEEEEEC2B8ue170006ERSC_b, symObjAddr: 0x27B3C, symBinAddr: 0x10002A510, symSize: 0x1A0 }
  - { offsetInCU: 0x1E490, offset: 0x1E490, size: 0x8, addend: 0x0, symName: __ZNSt3__110unique_ptrINS_11__hash_nodeINS_17__hash_value_typeIlNS_12basic_stringIcNS_11char_traitsIcEENS_9allocatorIcEEEEEEPvEENS_22__hash_node_destructorINS6_ISB_EEEEEC2B8ue170006ILb1EvEEPSB_NS_16__dependent_typeINS_27__unique_ptr_deleter_sfinaeISE_EEXT_EE20__good_rval_ref_typeE, symObjAddr: 0x27CDC, symBinAddr: 0x10002A6B0, symSize: 0x2BC }
  - { offsetInCU: 0x1E4E7, offset: 0x1E4E7, size: 0x8, addend: 0x0, symName: __ZNSt3__117__compressed_pairIPNS_11__hash_nodeINS_17__hash_value_typeIlNS_12basic_stringIcNS_11char_traitsIcEENS_9allocatorIcEEEEEEPvEENS_22__hash_node_destructorINS6_ISB_EEEEEC1B8ue170006IRSC_SF_EEOT_OT0_, symObjAddr: 0x27F98, symBinAddr: 0x10002A96C, symSize: 0x88 }
  - { offsetInCU: 0x1E53F, offset: 0x1E53F, size: 0x8, addend: 0x0, symName: __ZNSt3__117__compressed_pairIPNS_11__hash_nodeINS_17__hash_value_typeIlNS_12basic_stringIcNS_11char_traitsIcEENS_9allocatorIcEEEEEEPvEENS_22__hash_node_destructorINS6_ISB_EEEEEC2B8ue170006IRSC_SF_EEOT_OT0_, symObjAddr: 0x28020, symBinAddr: 0x10002A9F4, symSize: 0x1B4 }
  - { offsetInCU: 0x1E597, offset: 0x1E597, size: 0x8, addend: 0x0, symName: __ZNSt3__122__compressed_pair_elemIPNS_11__hash_nodeINS_17__hash_value_typeIlNS_12basic_stringIcNS_11char_traitsIcEENS_9allocatorIcEEEEEEPvEELi0ELb0EEC2B8ue170006IRSC_vEEOT_, symObjAddr: 0x281D4, symBinAddr: 0x10002ABA8, symSize: 0x144 }
  - { offsetInCU: 0x1E5D9, offset: 0x1E5D9, size: 0x8, addend: 0x0, symName: __ZNSt3__122__compressed_pair_elemINS_22__hash_node_destructorINS_9allocatorINS_11__hash_nodeINS_17__hash_value_typeIlNS_12basic_stringIcNS_11char_traitsIcEENS2_IcEEEEEEPvEEEEEELi1ELb0EEC2B8ue170006ISE_vEEOT_, symObjAddr: 0x28318, symBinAddr: 0x10002ACEC, symSize: 0x84 }
  - { offsetInCU: 0x1E61B, offset: 0x1E61B, size: 0x8, addend: 0x0, symName: __ZNSt3__14pairIKlNS_12basic_stringIcNS_11char_traitsIcEENS_9allocatorIcEEEEEC1B8ue170006IJRS1_EJEEENS_21piecewise_construct_tENS_5tupleIJDpT_EEENSC_IJDpT0_EEE, symObjAddr: 0x28644, symBinAddr: 0x10002B018, symSize: 0x2A0 }
  - { offsetInCU: 0x1E68C, offset: 0x1E68C, size: 0x8, addend: 0x0, symName: __ZNSt3__14pairIKlNS_12basic_stringIcNS_11char_traitsIcEENS_9allocatorIcEEEEEC1B8ue170006IJRS1_EJEJLm0EEJEEENS_21piecewise_construct_tERNS_5tupleIJDpT_EEERNSC_IJDpT0_EEENS_15__tuple_indicesIJXspT1_EEEENSL_IJXspT2_EEEE, symObjAddr: 0x288E4, symBinAddr: 0x10002B2B8, symSize: 0x88 }
  - { offsetInCU: 0x1E719, offset: 0x1E719, size: 0x8, addend: 0x0, symName: __ZNSt3__14pairIKlNS_12basic_stringIcNS_11char_traitsIcEENS_9allocatorIcEEEEEC2B8ue170006IJRS1_EJEJLm0EEJEEENS_21piecewise_construct_tERNS_5tupleIJDpT_EEERNSC_IJDpT0_EEENS_15__tuple_indicesIJXspT1_EEEENSL_IJXspT2_EEEE, symObjAddr: 0x2896C, symBinAddr: 0x10002B340, symSize: 0x19C }
  - { offsetInCU: 0x1E7A6, offset: 0x1E7A6, size: 0x8, addend: 0x0, symName: __ZNSt3__112basic_stringIcNS_11char_traitsIcEENS_9allocatorIcEEEC1B8ue170006Ev, symObjAddr: 0x28BE8, symBinAddr: 0x10002B5BC, symSize: 0x78 }
  - { offsetInCU: 0x1E7D0, offset: 0x1E7D0, size: 0x8, addend: 0x0, symName: __ZNSt3__112__tuple_leafILm0ERKlLb0EE3getB8ue170006Ev, symObjAddr: 0x28C60, symBinAddr: 0x10002B634, symSize: 0xF4 }
  - { offsetInCU: 0x1E7F6, offset: 0x1E7F6, size: 0x8, addend: 0x0, symName: __ZNSt3__112basic_stringIcNS_11char_traitsIcEENS_9allocatorIcEEEC2B8ue170006Ev, symObjAddr: 0x28D54, symBinAddr: 0x10002B728, symSize: 0x270 }
  - { offsetInCU: 0x1E821, offset: 0x1E821, size: 0x8, addend: 0x0, symName: __ZNSt3__117__compressed_pairINS_12basic_stringIcNS_11char_traitsIcEENS_9allocatorIcEEE5__repES5_EC1B8ue170006INS_18__default_init_tagESA_EEOT_OT0_, symObjAddr: 0x28FC4, symBinAddr: 0x10002B998, symSize: 0x88 }
  - { offsetInCU: 0x1E879, offset: 0x1E879, size: 0x8, addend: 0x0, symName: __ZNSt3__117__compressed_pairINS_12basic_stringIcNS_11char_traitsIcEENS_9allocatorIcEEE5__repES5_EC2B8ue170006INS_18__default_init_tagESA_EEOT_OT0_, symObjAddr: 0x2904C, symBinAddr: 0x10002BA20, symSize: 0xF4 }
  - { offsetInCU: 0x1E8D1, offset: 0x1E8D1, size: 0x8, addend: 0x0, symName: __ZNSt3__122__compressed_pair_elemINS_12basic_stringIcNS_11char_traitsIcEENS_9allocatorIcEEE5__repELi0ELb0EEC2B8ue170006ENS_18__default_init_tagE, symObjAddr: 0x29140, symBinAddr: 0x10002BB14, symSize: 0x6C }
  - { offsetInCU: 0x1E905, offset: 0x1E905, size: 0x8, addend: 0x0, symName: __ZNSt3__122__compressed_pair_elemINS_9allocatorIcEELi1ELb1EEC2B8ue170006ENS_18__default_init_tagE, symObjAddr: 0x291AC, symBinAddr: 0x10002BB80, symSize: 0x84 }
  - { offsetInCU: 0x1E939, offset: 0x1E939, size: 0x8, addend: 0x0, symName: __ZNSt3__19allocatorIcEC2B8ue170006Ev, symObjAddr: 0x29230, symBinAddr: 0x10002BC04, symSize: 0x84 }
  - { offsetInCU: 0x1E963, offset: 0x1E963, size: 0x8, addend: 0x0, symName: __ZNSt3__116__non_trivial_ifILb1ENS_9allocatorIcEEEC2B8ue170006Ev, symObjAddr: 0x292B4, symBinAddr: 0x10002BC88, symSize: 0x54 }
  - { offsetInCU: 0x1E98D, offset: 0x1E98D, size: 0x8, addend: 0x0, symName: __ZNSt3__117__compressed_pairIPNS_11__hash_nodeINS_17__hash_value_typeIlNS_12basic_stringIcNS_11char_traitsIcEENS_9allocatorIcEEEEEEPvEENS_22__hash_node_destructorINS6_ISB_EEEEE6secondB8ue170006Ev, symObjAddr: 0x29308, symBinAddr: 0x10002BCDC, symSize: 0x12C }
  - { offsetInCU: 0x1E9B3, offset: 0x1E9B3, size: 0x8, addend: 0x0, symName: __ZNSt3__122__compressed_pair_elemINS_22__hash_node_destructorINS_9allocatorINS_11__hash_nodeINS_17__hash_value_typeIlNS_12basic_stringIcNS_11char_traitsIcEENS2_IcEEEEEEPvEEEEEELi1ELb0EE5__getB8ue170006Ev, symObjAddr: 0x29434, symBinAddr: 0x10002BE08, symSize: 0xAC }
  - { offsetInCU: 0x1E9D9, offset: 0x1E9D9, size: 0x8, addend: 0x0, symName: __ZNSt3__117__compressed_pairImNS_22__unordered_map_hasherIlNS_17__hash_value_typeIlNS_12basic_stringIcNS_11char_traitsIcEENS_9allocatorIcEEEEEENS_4hashIlEENS_8equal_toIlEELb1EEEE5firstB8ue170006Ev, symObjAddr: 0x294E0, symBinAddr: 0x10002BEB4, symSize: 0x124 }
  - { offsetInCU: 0x1E9FF, offset: 0x1E9FF, size: 0x8, addend: 0x0, symName: __ZNSt3__122__compressed_pair_elemImLi0ELb0EE5__getB8ue170006Ev, symObjAddr: 0x29604, symBinAddr: 0x10002BFD8, symSize: 0xAC }
  - { offsetInCU: 0x1EA25, offset: 0x1EA25, size: 0x8, addend: 0x0, symName: __ZNSt3__117__compressed_pairIfNS_21__unordered_map_equalIlNS_17__hash_value_typeIlNS_12basic_stringIcNS_11char_traitsIcEENS_9allocatorIcEEEEEENS_8equal_toIlEENS_4hashIlEELb1EEEE5firstB8ue170006Ev, symObjAddr: 0x296B0, symBinAddr: 0x10002C084, symSize: 0x124 }
  - { offsetInCU: 0x1EA4B, offset: 0x1EA4B, size: 0x8, addend: 0x0, symName: __ZNSt3__122__compressed_pair_elemIfLi0ELb0EE5__getB8ue170006Ev, symObjAddr: 0x297D4, symBinAddr: 0x10002C1A8, symSize: 0xAC }
  - { offsetInCU: 0x1EA71, offset: 0x1EA71, size: 0x8, addend: 0x0, symName: __ZNSt3__112__hash_tableINS_17__hash_value_typeIlNS_12basic_stringIcNS_11char_traitsIcEENS_9allocatorIcEEEEEENS_22__unordered_map_hasherIlS8_NS_4hashIlEENS_8equal_toIlEELb1EEENS_21__unordered_map_equalIlS8_SD_SB_Lb1EEENS5_IS8_EEE8__rehashILb1EEEvm, symObjAddr: 0x29880, symBinAddr: 0x10002C254, symSize: 0x9CC }
  - { offsetInCU: 0x1EAC7, offset: 0x1EAC7, size: 0x8, addend: 0x0, symName: __ZNSt3__112__hash_tableINS_17__hash_value_typeIlNS_12basic_stringIcNS_11char_traitsIcEENS_9allocatorIcEEEEEENS_22__unordered_map_hasherIlS8_NS_4hashIlEENS_8equal_toIlEELb1EEENS_21__unordered_map_equalIlS8_SD_SB_Lb1EEENS5_IS8_EEE11__do_rehashILb1EEEvm, symObjAddr: 0x2A24C, symBinAddr: 0x10002CC20, symSize: 0x1084 }
  - { offsetInCU: 0x1EBAC, offset: 0x1EBAC, size: 0x8, addend: 0x0, symName: __ZNSt3__110unique_ptrIA_PNS_16__hash_node_baseIPNS_11__hash_nodeINS_17__hash_value_typeIlNS_12basic_stringIcNS_11char_traitsIcEENS_9allocatorIcEEEEEEPvEEEENS_25__bucket_list_deallocatorINS7_ISF_EEEEE11get_deleterB8ue170006Ev, symObjAddr: 0x2B39C, symBinAddr: 0x10002DD70, symSize: 0xF8 }
  - { offsetInCU: 0x1EBD2, offset: 0x1EBD2, size: 0x8, addend: 0x0, symName: __ZNSt3__125__bucket_list_deallocatorINS_9allocatorIPNS_16__hash_node_baseIPNS_11__hash_nodeINS_17__hash_value_typeIlNS_12basic_stringIcNS_11char_traitsIcEENS1_IcEEEEEEPvEEEEEEE7__allocB8ue170006Ev, symObjAddr: 0x2B494, symBinAddr: 0x10002DE68, symSize: 0xDC }
  - { offsetInCU: 0x1EBF8, offset: 0x1EBF8, size: 0x8, addend: 0x0, symName: __ZNSt3__110unique_ptrIA_PNS_16__hash_node_baseIPNS_11__hash_nodeINS_17__hash_value_typeIlNS_12basic_stringIcNS_11char_traitsIcEENS_9allocatorIcEEEEEEPvEEEENS_25__bucket_list_deallocatorINS7_ISF_EEEEE5resetB8ue170006IPSF_EENS_9enable_ifIXsr28_CheckArrayPointerConversionIT_EE5valueEvE4typeESO_, symObjAddr: 0x2B570, symBinAddr: 0x10002DF44, symSize: 0x2CC }
  - { offsetInCU: 0x1EC45, offset: 0x1EC45, size: 0x8, addend: 0x0, symName: __ZNSt3__116allocator_traitsINS_9allocatorIPNS_16__hash_node_baseIPNS_11__hash_nodeINS_17__hash_value_typeIlNS_12basic_stringIcNS_11char_traitsIcEENS1_IcEEEEEEPvEEEEEEE8allocateB8ue170006ERSG_m, symObjAddr: 0x2B83C, symBinAddr: 0x10002E210, symSize: 0x2C }
  - { offsetInCU: 0x1EC78, offset: 0x1EC78, size: 0x8, addend: 0x0, symName: __ZNSt3__125__bucket_list_deallocatorINS_9allocatorIPNS_16__hash_node_baseIPNS_11__hash_nodeINS_17__hash_value_typeIlNS_12basic_stringIcNS_11char_traitsIcEENS1_IcEEEEEEPvEEEEEEE4sizeB8ue170006Ev, symObjAddr: 0x2B868, symBinAddr: 0x10002E23C, symSize: 0xF8 }
  - { offsetInCU: 0x1EC9E, offset: 0x1EC9E, size: 0x8, addend: 0x0, symName: __ZNSt3__117__compressed_pairIPPNS_16__hash_node_baseIPNS_11__hash_nodeINS_17__hash_value_typeIlNS_12basic_stringIcNS_11char_traitsIcEENS_9allocatorIcEEEEEEPvEEEENS_25__bucket_list_deallocatorINS7_ISF_EEEEE6secondB8ue170006Ev, symObjAddr: 0x2B960, symBinAddr: 0x10002E334, symSize: 0x12C }
  - { offsetInCU: 0x1ECC4, offset: 0x1ECC4, size: 0x8, addend: 0x0, symName: __ZNSt3__122__compressed_pair_elemINS_25__bucket_list_deallocatorINS_9allocatorIPNS_16__hash_node_baseIPNS_11__hash_nodeINS_17__hash_value_typeIlNS_12basic_stringIcNS_11char_traitsIcEENS2_IcEEEEEEPvEEEEEEEELi1ELb0EE5__getB8ue170006Ev, symObjAddr: 0x2BA8C, symBinAddr: 0x10002E460, symSize: 0xAC }
  - { offsetInCU: 0x1ECEA, offset: 0x1ECEA, size: 0x8, addend: 0x0, symName: __ZNSt3__117__compressed_pairImNS_9allocatorIPNS_16__hash_node_baseIPNS_11__hash_nodeINS_17__hash_value_typeIlNS_12basic_stringIcNS_11char_traitsIcEENS1_IcEEEEEEPvEEEEEEE6secondB8ue170006Ev, symObjAddr: 0x2BB38, symBinAddr: 0x10002E50C, symSize: 0x108 }
  - { offsetInCU: 0x1ED10, offset: 0x1ED10, size: 0x8, addend: 0x0, symName: __ZNSt3__122__compressed_pair_elemINS_9allocatorIPNS_16__hash_node_baseIPNS_11__hash_nodeINS_17__hash_value_typeIlNS_12basic_stringIcNS_11char_traitsIcEENS1_IcEEEEEEPvEEEEEELi1ELb1EE5__getB8ue170006Ev, symObjAddr: 0x2BC40, symBinAddr: 0x10002E614, symSize: 0x74 }
  - { offsetInCU: 0x1ED36, offset: 0x1ED36, size: 0x8, addend: 0x0, symName: __ZNSt3__117__compressed_pairIPPNS_16__hash_node_baseIPNS_11__hash_nodeINS_17__hash_value_typeIlNS_12basic_stringIcNS_11char_traitsIcEENS_9allocatorIcEEEEEEPvEEEENS_25__bucket_list_deallocatorINS7_ISF_EEEEE5firstB8ue170006Ev, symObjAddr: 0x2BCB4, symBinAddr: 0x10002E688, symSize: 0x124 }
  - { offsetInCU: 0x1ED5C, offset: 0x1ED5C, size: 0x8, addend: 0x0, symName: __ZNSt3__125__bucket_list_deallocatorINS_9allocatorIPNS_16__hash_node_baseIPNS_11__hash_nodeINS_17__hash_value_typeIlNS_12basic_stringIcNS_11char_traitsIcEENS1_IcEEEEEEPvEEEEEEEclB8ue170006EPSF_, symObjAddr: 0x2BDD8, symBinAddr: 0x10002E7AC, symSize: 0x140 }
  - { offsetInCU: 0x1ED91, offset: 0x1ED91, size: 0x8, addend: 0x0, symName: __ZNSt3__122__compressed_pair_elemIPPNS_16__hash_node_baseIPNS_11__hash_nodeINS_17__hash_value_typeIlNS_12basic_stringIcNS_11char_traitsIcEENS_9allocatorIcEEEEEEPvEEEELi0ELb0EE5__getB8ue170006Ev, symObjAddr: 0x2BF18, symBinAddr: 0x10002E8EC, symSize: 0xAC }
  - { offsetInCU: 0x1EDB7, offset: 0x1EDB7, size: 0x8, addend: 0x0, symName: __ZNSt3__116allocator_traitsINS_9allocatorIPNS_16__hash_node_baseIPNS_11__hash_nodeINS_17__hash_value_typeIlNS_12basic_stringIcNS_11char_traitsIcEENS1_IcEEEEEEPvEEEEEEE10deallocateB8ue170006ERSG_PSF_m, symObjAddr: 0x2BFC4, symBinAddr: 0x10002E998, symSize: 0x34 }
  - { offsetInCU: 0x1EDF9, offset: 0x1EDF9, size: 0x8, addend: 0x0, symName: __ZNSt3__19allocatorIPNS_16__hash_node_baseIPNS_11__hash_nodeINS_17__hash_value_typeIlNS_12basic_stringIcNS_11char_traitsIcEENS0_IcEEEEEEPvEEEEE10deallocateB8ue170006EPSE_m, symObjAddr: 0x2BFF8, symBinAddr: 0x10002E9CC, symSize: 0x78 }
  - { offsetInCU: 0x1EE3B, offset: 0x1EE3B, size: 0x8, addend: 0x0, symName: __ZNSt3__19allocatorIPNS_16__hash_node_baseIPNS_11__hash_nodeINS_17__hash_value_typeIlNS_12basic_stringIcNS_11char_traitsIcEENS0_IcEEEEEEPvEEEEE8allocateB8ue170006Em, symObjAddr: 0x2C070, symBinAddr: 0x10002EA44, symSize: 0xCC }
  - { offsetInCU: 0x1EE79, offset: 0x1EE79, size: 0x8, addend: 0x0, symName: __ZNSt3__116allocator_traitsINS_9allocatorIPNS_16__hash_node_baseIPNS_11__hash_nodeINS_17__hash_value_typeIlNS_12basic_stringIcNS_11char_traitsIcEENS1_IcEEEEEEPvEEEEEEE8max_sizeB8ue170006ISG_vvEEmRKSG_, symObjAddr: 0x2C13C, symBinAddr: 0x10002EB10, symSize: 0x54 }
  - { offsetInCU: 0x1EEA4, offset: 0x1EEA4, size: 0x8, addend: 0x0, symName: __ZNSt3__117__compressed_pairImNS_9allocatorIPNS_16__hash_node_baseIPNS_11__hash_nodeINS_17__hash_value_typeIlNS_12basic_stringIcNS_11char_traitsIcEENS1_IcEEEEEEPvEEEEEEE5firstB8ue170006Ev, symObjAddr: 0x2C190, symBinAddr: 0x10002EB64, symSize: 0x124 }
  - { offsetInCU: 0x1EECA, offset: 0x1EECA, size: 0x8, addend: 0x0, symName: __ZNSt3__122__compressed_pair_elemINS_16__hash_node_baseIPNS_11__hash_nodeINS_17__hash_value_typeIlNS_12basic_stringIcNS_11char_traitsIcEENS_9allocatorIcEEEEEEPvEEEELi0ELb0EE5__getB8ue170006Ev, symObjAddr: 0x2C2D0, symBinAddr: 0x10002ECA4, symSize: 0xAC }
  - { offsetInCU: 0x1EEF0, offset: 0x1EEF0, size: 0x8, addend: 0x0, symName: __ZNKSt3__117__compressed_pairIPNS_11__hash_nodeINS_17__hash_value_typeIlNS_12basic_stringIcNS_11char_traitsIcEENS_9allocatorIcEEEEEEPvEENS_22__hash_node_destructorINS6_ISB_EEEEE5firstB8ue170006Ev, symObjAddr: 0x2C37C, symBinAddr: 0x10002ED50, symSize: 0x124 }
  - { offsetInCU: 0x1EF16, offset: 0x1EF16, size: 0x8, addend: 0x0, symName: __ZNKSt3__122__compressed_pair_elemIPNS_11__hash_nodeINS_17__hash_value_typeIlNS_12basic_stringIcNS_11char_traitsIcEENS_9allocatorIcEEEEEEPvEELi0ELb0EE5__getB8ue170006Ev, symObjAddr: 0x2C4A0, symBinAddr: 0x10002EE74, symSize: 0xAC }
  - { offsetInCU: 0x1EF3C, offset: 0x1EF3C, size: 0x8, addend: 0x0, symName: __ZNSt3__117__compressed_pairIPNS_11__hash_nodeINS_17__hash_value_typeIlNS_12basic_stringIcNS_11char_traitsIcEENS_9allocatorIcEEEEEEPvEENS_22__hash_node_destructorINS6_ISB_EEEEE5firstB8ue170006Ev, symObjAddr: 0x2C54C, symBinAddr: 0x10002EF20, symSize: 0x124 }
  - { offsetInCU: 0x1EF62, offset: 0x1EF62, size: 0x8, addend: 0x0, symName: __ZNSt3__122__compressed_pair_elemIPNS_11__hash_nodeINS_17__hash_value_typeIlNS_12basic_stringIcNS_11char_traitsIcEENS_9allocatorIcEEEEEEPvEELi0ELb0EE5__getB8ue170006Ev, symObjAddr: 0x2C670, symBinAddr: 0x10002F044, symSize: 0xAC }
  - { offsetInCU: 0x1EF88, offset: 0x1EF88, size: 0x8, addend: 0x0, symName: __ZNSt3__110unique_ptrINS_11__hash_nodeINS_17__hash_value_typeIlNS_12basic_stringIcNS_11char_traitsIcEENS_9allocatorIcEEEEEEPvEENS_22__hash_node_destructorINS6_ISB_EEEEED2B8ue170006Ev, symObjAddr: 0x2C71C, symBinAddr: 0x10002F0F0, symSize: 0x7C }
  - { offsetInCU: 0x1EFB2, offset: 0x1EFB2, size: 0x8, addend: 0x0, symName: __ZNSt3__110unique_ptrINS_11__hash_nodeINS_17__hash_value_typeIlNS_12basic_stringIcNS_11char_traitsIcEENS_9allocatorIcEEEEEEPvEENS_22__hash_node_destructorINS6_ISB_EEEEE5resetB8ue170006EPSB_, symObjAddr: 0x2C798, symBinAddr: 0x10002F16C, symSize: 0x2CC }
  - { offsetInCU: 0x1EFF6, offset: 0x1EFF6, size: 0x8, addend: 0x0, symName: __ZNSt3__122__hash_node_destructorINS_9allocatorINS_11__hash_nodeINS_17__hash_value_typeIlNS_12basic_stringIcNS_11char_traitsIcEENS1_IcEEEEEEPvEEEEEclB8ue170006EPSB_, symObjAddr: 0x2CA64, symBinAddr: 0x10002F438, symSize: 0x2C0 }
  - { offsetInCU: 0x1F02B, offset: 0x1F02B, size: 0x8, addend: 0x0, symName: __ZNSt3__116allocator_traitsINS_9allocatorINS_11__hash_nodeINS_17__hash_value_typeIlNS_12basic_stringIcNS_11char_traitsIcEENS1_IcEEEEEEPvEEEEE7destroyB8ue170006INS_4pairIKlS8_EEvvEEvRSC_PT_, symObjAddr: 0x2CD24, symBinAddr: 0x10002F6F8, symSize: 0x28 }
  - { offsetInCU: 0x1F065, offset: 0x1F065, size: 0x8, addend: 0x0, symName: __ZNSt3__116allocator_traitsINS_9allocatorINS_11__hash_nodeINS_17__hash_value_typeIlNS_12basic_stringIcNS_11char_traitsIcEENS1_IcEEEEEEPvEEEEE10deallocateB8ue170006ERSC_PSB_m, symObjAddr: 0x2CD4C, symBinAddr: 0x10002F720, symSize: 0x34 }
  - { offsetInCU: 0x1F0A7, offset: 0x1F0A7, size: 0x8, addend: 0x0, symName: __ZNSt3__14pairIKlNS_12basic_stringIcNS_11char_traitsIcEENS_9allocatorIcEEEEED1Ev, symObjAddr: 0x2CE10, symBinAddr: 0x10002F7E4, symSize: 0x78 }
  - { offsetInCU: 0x1F0D3, offset: 0x1F0D3, size: 0x8, addend: 0x0, symName: __ZNSt3__14pairIKlNS_12basic_stringIcNS_11char_traitsIcEENS_9allocatorIcEEEEED2Ev, symObjAddr: 0x2CE88, symBinAddr: 0x10002F85C, symSize: 0x7C }
  - { offsetInCU: 0x1F0FF, offset: 0x1F0FF, size: 0x8, addend: 0x0, symName: __ZNSt3__19allocatorINS_11__hash_nodeINS_17__hash_value_typeIlNS_12basic_stringIcNS_11char_traitsIcEENS0_IcEEEEEEPvEEE10deallocateB8ue170006EPSA_m, symObjAddr: 0x2CF04, symBinAddr: 0x10002F8D8, symSize: 0x7C }
  - { offsetInCU: 0x1F141, offset: 0x1F141, size: 0x8, addend: 0x0, symName: __ZNSt3__115__hash_iteratorIPNS_11__hash_nodeINS_17__hash_value_typeIlNS_12basic_stringIcNS_11char_traitsIcEENS_9allocatorIcEEEEEEPvEEEC2B8ue170006EPNS_16__hash_node_baseISC_EE, symObjAddr: 0x2CF80, symBinAddr: 0x10002F954, symSize: 0xC8 }
  - { offsetInCU: 0x1F17A, offset: 0x1F17A, size: 0x8, addend: 0x0, symName: __ZNSt3__14pairINS_15__hash_iteratorIPNS_11__hash_nodeINS_17__hash_value_typeIlNS_12basic_stringIcNS_11char_traitsIcEENS_9allocatorIcEEEEEEPvEEEEbEC2B8ue170006ISE_RbLSB_0EEEOT_OT0_, symObjAddr: 0x2D048, symBinAddr: 0x10002FA1C, symSize: 0x1C8 }
  - { offsetInCU: 0x1F1D8, offset: 0x1F1D8, size: 0x8, addend: 0x0, symName: __ZNSt3__15tupleIJRKlEEC1B8ue170006INS_4_AndELi0EEES2_, symObjAddr: 0x2D210, symBinAddr: 0x10002FBE4, symSize: 0x80 }
  - { offsetInCU: 0x1F220, offset: 0x1F220, size: 0x8, addend: 0x0, symName: __ZNSt3__15tupleIJRKlEEC2B8ue170006INS_4_AndELi0EEES2_, symObjAddr: 0x2D290, symBinAddr: 0x10002FC64, symSize: 0xC8 }
  - { offsetInCU: 0x1F268, offset: 0x1F268, size: 0x8, addend: 0x0, symName: __ZNSt3__112__tuple_implINS_15__tuple_indicesIJLm0EEEEJRKlEEC1B8ue170006IJLm0EEJS4_EJEJEJS4_EEENS1_IJXspT_EEEENS_13__tuple_typesIJDpT0_EEENS1_IJXspT1_EEEENS8_IJDpT2_EEEDpOT3_, symObjAddr: 0x2D358, symBinAddr: 0x10002FD2C, symSize: 0x80 }
  - { offsetInCU: 0x1F2F9, offset: 0x1F2F9, size: 0x8, addend: 0x0, symName: __ZNSt3__112__tuple_implINS_15__tuple_indicesIJLm0EEEEJRKlEEC2B8ue170006IJLm0EEJS4_EJEJEJS4_EEENS1_IJXspT_EEEENS_13__tuple_typesIJDpT0_EEENS1_IJXspT1_EEEENS8_IJDpT2_EEEDpOT3_, symObjAddr: 0x2D3D8, symBinAddr: 0x10002FDAC, symSize: 0x10C }
  - { offsetInCU: 0x1F38A, offset: 0x1F38A, size: 0x8, addend: 0x0, symName: __ZNSt3__112__tuple_leafILm0ERKlLb0EEC2B8ue170006IS2_vEEOT_, symObjAddr: 0x2D4E4, symBinAddr: 0x10002FEB8, symSize: 0x108 }
  - { offsetInCU: 0x1F3CD, offset: 0x1F3CD, size: 0x8, addend: 0x0, symName: __ZNSt3__114pointer_traitsIPNS_17__hash_value_typeIlNS_12basic_stringIcNS_11char_traitsIcEENS_9allocatorIcEEEEEEE10pointer_toB8ue170006ERS8_, symObjAddr: 0x2D5EC, symBinAddr: 0x10002FFC0, symSize: 0x14 }
  - { offsetInCU: 0x1F3F0, offset: 0x1F3F0, size: 0x8, addend: 0x0, symName: __ZNSt3__16vectorIbNS_9allocatorIbEEEixB8ue170006Em, symObjAddr: 0x2D638, symBinAddr: 0x10003000C, symSize: 0x26C }
  - { offsetInCU: 0x1F427, offset: 0x1F427, size: 0x8, addend: 0x0, symName: __ZNKSt3__115__bit_referenceINS_6vectorIbNS_9allocatorIbEEEELb1EEcvbB8ue170006Ev, symObjAddr: 0x2D8A4, symBinAddr: 0x100030278, symSize: 0x178 }
  - { offsetInCU: 0x1F44D, offset: 0x1F44D, size: 0x8, addend: 0x0, symName: __ZNSt3__113unordered_mapIlNS_12basic_stringIcNS_11char_traitsIcEENS_9allocatorIcEEEENS_4hashIlEENS_8equal_toIlEENS4_INS_4pairIKlS6_EEEEEixEOl, symObjAddr: 0x2DA1C, symBinAddr: 0x1000303F0, symSize: 0x4F8 }
  - { offsetInCU: 0x1F486, offset: 0x1F486, size: 0x8, addend: 0x0, symName: __ZNSt3__16vectorIbNS_9allocatorIbEEE10__make_refB8ue170006Em, symObjAddr: 0x2DF14, symBinAddr: 0x1000308E8, symSize: 0x414 }
  - { offsetInCU: 0x1F4BD, offset: 0x1F4BD, size: 0x8, addend: 0x0, symName: __ZNSt3__115__bit_referenceINS_6vectorIbNS_9allocatorIbEEEELb1EEC1B8ue170006EPmm, symObjAddr: 0x2E328, symBinAddr: 0x100030CFC, symSize: 0x88 }
  - { offsetInCU: 0x1F503, offset: 0x1F503, size: 0x8, addend: 0x0, symName: __ZNSt3__115__bit_referenceINS_6vectorIbNS_9allocatorIbEEEELb1EEC2B8ue170006EPmm, symObjAddr: 0x2E3B0, symBinAddr: 0x100030D84, symSize: 0x110 }
  - { offsetInCU: 0x1F549, offset: 0x1F549, size: 0x8, addend: 0x0, symName: __ZNSt3__112__hash_tableINS_17__hash_value_typeIlNS_12basic_stringIcNS_11char_traitsIcEENS_9allocatorIcEEEEEENS_22__unordered_map_hasherIlS8_NS_4hashIlEENS_8equal_toIlEELb1EEENS_21__unordered_map_equalIlS8_SD_SB_Lb1EEENS5_IS8_EEE25__emplace_unique_key_argsIlJRKNS_21piecewise_construct_tENS_5tupleIJOlEEENSN_IJEEEEEENS_4pairINS_15__hash_iteratorIPNS_11__hash_nodeIS8_PvEEEEbEERKT_DpOT0_, symObjAddr: 0x2E4C0, symBinAddr: 0x100030E94, symSize: 0x1D60 }
  - { offsetInCU: 0x1F65E, offset: 0x1F65E, size: 0x8, addend: 0x0, symName: __ZNSt3__112__hash_tableINS_17__hash_value_typeIlNS_12basic_stringIcNS_11char_traitsIcEENS_9allocatorIcEEEEEENS_22__unordered_map_hasherIlS8_NS_4hashIlEENS_8equal_toIlEELb1EEENS_21__unordered_map_equalIlS8_SD_SB_Lb1EEENS5_IS8_EEE21__construct_node_hashIRKNS_21piecewise_construct_tEJNS_5tupleIJOlEEENSN_IJEEEEEENS_10unique_ptrINS_11__hash_nodeIS8_PvEENS_22__hash_node_destructorINS5_ISU_EEEEEEmOT_DpOT0_, symObjAddr: 0x30464, symBinAddr: 0x100032E38, symSize: 0x948 }
  - { offsetInCU: 0x1F701, offset: 0x1F701, size: 0x8, addend: 0x0, symName: __ZNSt3__116allocator_traitsINS_9allocatorINS_11__hash_nodeINS_17__hash_value_typeIlNS_12basic_stringIcNS_11char_traitsIcEENS1_IcEEEEEEPvEEEEE9constructB8ue170006INS_4pairIKlS8_EEJRKNS_21piecewise_construct_tENS_5tupleIJOlEEENSL_IJEEEEvvEEvRSC_PT_DpOT0_, symObjAddr: 0x30DAC, symBinAddr: 0x100033780, symSize: 0xE8 }
  - { offsetInCU: 0x1F77D, offset: 0x1F77D, size: 0x8, addend: 0x0, symName: __ZNSt3__14pairIKlNS_12basic_stringIcNS_11char_traitsIcEENS_9allocatorIcEEEEEC1B8ue170006IJOlEJEEENS_21piecewise_construct_tENS_5tupleIJDpT_EEENSC_IJDpT0_EEE, symObjAddr: 0x3113C, symBinAddr: 0x100033B10, symSize: 0x2A0 }
  - { offsetInCU: 0x1F7EE, offset: 0x1F7EE, size: 0x8, addend: 0x0, symName: __ZNSt3__14pairIKlNS_12basic_stringIcNS_11char_traitsIcEENS_9allocatorIcEEEEEC1B8ue170006IJOlEJEJLm0EEJEEENS_21piecewise_construct_tERNS_5tupleIJDpT_EEERNSC_IJDpT0_EEENS_15__tuple_indicesIJXspT1_EEEENSL_IJXspT2_EEEE, symObjAddr: 0x313DC, symBinAddr: 0x100033DB0, symSize: 0x88 }
  - { offsetInCU: 0x1F87B, offset: 0x1F87B, size: 0x8, addend: 0x0, symName: __ZNSt3__14pairIKlNS_12basic_stringIcNS_11char_traitsIcEENS_9allocatorIcEEEEEC2B8ue170006IJOlEJEJLm0EEJEEENS_21piecewise_construct_tERNS_5tupleIJDpT_EEERNSC_IJDpT0_EEENS_15__tuple_indicesIJXspT1_EEEENSL_IJXspT2_EEEE, symObjAddr: 0x31464, symBinAddr: 0x100033E38, symSize: 0x19C }
  - { offsetInCU: 0x1F908, offset: 0x1F908, size: 0x8, addend: 0x0, symName: __ZNSt3__112__tuple_leafILm0EOlLb0EE3getB8ue170006Ev, symObjAddr: 0x316E0, symBinAddr: 0x1000340B4, symSize: 0xF4 }
  - { offsetInCU: 0x1F92E, offset: 0x1F92E, size: 0x8, addend: 0x0, symName: __ZNSt3__15tupleIJOlEEC1B8ue170006IJlELi0EEEDpOT_, symObjAddr: 0x317D4, symBinAddr: 0x1000341A8, symSize: 0x80 }
  - { offsetInCU: 0x1F978, offset: 0x1F978, size: 0x8, addend: 0x0, symName: __ZNSt3__15tupleIJOlEEC2B8ue170006IJlELi0EEEDpOT_, symObjAddr: 0x31854, symBinAddr: 0x100034228, symSize: 0xC8 }
  - { offsetInCU: 0x1F9C2, offset: 0x1F9C2, size: 0x8, addend: 0x0, symName: __ZNSt3__112__tuple_implINS_15__tuple_indicesIJLm0EEEEJOlEEC1B8ue170006IJLm0EEJS3_EJEJEJlEEENS1_IJXspT_EEEENS_13__tuple_typesIJDpT0_EEENS1_IJXspT1_EEEENS7_IJDpT2_EEEDpOT3_, symObjAddr: 0x3191C, symBinAddr: 0x1000342F0, symSize: 0x80 }
  - { offsetInCU: 0x1FA53, offset: 0x1FA53, size: 0x8, addend: 0x0, symName: __ZNSt3__112__tuple_implINS_15__tuple_indicesIJLm0EEEEJOlEEC2B8ue170006IJLm0EEJS3_EJEJEJlEEENS1_IJXspT_EEEENS_13__tuple_typesIJDpT0_EEENS1_IJXspT1_EEEENS7_IJDpT2_EEEDpOT3_, symObjAddr: 0x3199C, symBinAddr: 0x100034370, symSize: 0x10C }
  - { offsetInCU: 0x1FAE4, offset: 0x1FAE4, size: 0x8, addend: 0x0, symName: __ZNSt3__112__tuple_leafILm0EOlLb0EEC2B8ue170006IlvEEOT_, symObjAddr: 0x31AA8, symBinAddr: 0x10003447C, symSize: 0x108 }
  - { offsetInCU: 0x1FB27, offset: 0x1FB27, size: 0x8, addend: 0x0, symName: __ZNSt3__16vectorIlNS_9allocatorIlEEEC1B8ue170006Ev, symObjAddr: 0x31BB0, symBinAddr: 0x100034584, symSize: 0x78 }
  - { offsetInCU: 0x1FB51, offset: 0x1FB51, size: 0x8, addend: 0x0, symName: __ZNSt3__16vectorIlNS_9allocatorIlEEE7reserveEm, symObjAddr: 0x31C28, symBinAddr: 0x1000345FC, symSize: 0x41C }
  - { offsetInCU: 0x1FBB4, offset: 0x1FBB4, size: 0x8, addend: 0x0, symName: __ZNSt3__16vectorINS_8functionIFbRNS_12basic_stringIcNS_11char_traitsIcEENS_9allocatorIcEEEEEEENS5_ISA_EEE5beginB8ue170006Ev, symObjAddr: 0x32044, symBinAddr: 0x100034A18, symSize: 0x2B0 }
  - { offsetInCU: 0x1FBDD, offset: 0x1FBDD, size: 0x8, addend: 0x0, symName: __ZNSt3__16vectorINS_8functionIFbRNS_12basic_stringIcNS_11char_traitsIcEENS_9allocatorIcEEEEEEENS5_ISA_EEE3endB8ue170006Ev, symObjAddr: 0x322F4, symBinAddr: 0x100034CC8, symSize: 0x2B4 }
  - { offsetInCU: 0x1FC06, offset: 0x1FC06, size: 0x8, addend: 0x0, symName: __ZNKSt3__111__wrap_iterIPNS_8functionIFbRNS_12basic_stringIcNS_11char_traitsIcEENS_9allocatorIcEEEEEEEEdeB8ue170006Ev, symObjAddr: 0x3266C, symBinAddr: 0x100035040, symSize: 0xF4 }
  - { offsetInCU: 0x1FC2C, offset: 0x1FC2C, size: 0x8, addend: 0x0, symName: __ZNSt3__18functionIFbRNS_12basic_stringIcNS_11char_traitsIcEENS_9allocatorIcEEEEEEC1ERKS9_, symObjAddr: 0x32760, symBinAddr: 0x100035134, symSize: 0x80 }
  - { offsetInCU: 0x1FC67, offset: 0x1FC67, size: 0x8, addend: 0x0, symName: __ZNKSt3__18functionIFbRNS_12basic_stringIcNS_11char_traitsIcEENS_9allocatorIcEEEEEEclES7_, symObjAddr: 0x327E0, symBinAddr: 0x1000351B4, symSize: 0x104 }
  - { offsetInCU: 0x1FC9E, offset: 0x1FC9E, size: 0x8, addend: 0x0, symName: __ZNSt3__18functionIFbRNS_12basic_stringIcNS_11char_traitsIcEENS_9allocatorIcEEEEEED1Ev, symObjAddr: 0x328E4, symBinAddr: 0x1000352B8, symSize: 0x78 }
  - { offsetInCU: 0x1FCCA, offset: 0x1FCCA, size: 0x8, addend: 0x0, symName: __ZNSt3__111__wrap_iterIPNS_8functionIFbRNS_12basic_stringIcNS_11char_traitsIcEENS_9allocatorIcEEEEEEEEppB8ue170006Ev, symObjAddr: 0x3295C, symBinAddr: 0x100035330, symSize: 0x1A8 }
  - { offsetInCU: 0x1FCF0, offset: 0x1FCF0, size: 0x8, addend: 0x0, symName: __ZNSt3__16vectorIlNS_9allocatorIlEEE12emplace_backIJRlEEES5_DpOT_, symObjAddr: 0x32B04, symBinAddr: 0x1000354D8, symSize: 0x24C }
  - { offsetInCU: 0x1FD32, offset: 0x1FD32, size: 0x8, addend: 0x0, symName: __ZNSt3__16vectorIlNS_9allocatorIlEEED1B8ue170006Ev, symObjAddr: 0x32DF0, symBinAddr: 0x1000357C4, symSize: 0x78 }
  - { offsetInCU: 0x1FD5C, offset: 0x1FD5C, size: 0x8, addend: 0x0, symName: __ZNSt3__16vectorIlNS_9allocatorIlEEEC2B8ue170006Ev, symObjAddr: 0x32E68, symBinAddr: 0x10003583C, symSize: 0x340 }
  - { offsetInCU: 0x1FD87, offset: 0x1FD87, size: 0x8, addend: 0x0, symName: __ZNSt3__117__compressed_pairIPlNS_9allocatorIlEEEC1B8ue170006IDnNS_18__default_init_tagEEEOT_OT0_, symObjAddr: 0x331A8, symBinAddr: 0x100035B7C, symSize: 0x88 }
  - { offsetInCU: 0x1FDDF, offset: 0x1FDDF, size: 0x8, addend: 0x0, symName: __ZNSt3__117__compressed_pairIPlNS_9allocatorIlEEEC2B8ue170006IDnNS_18__default_init_tagEEEOT_OT0_, symObjAddr: 0x33230, symBinAddr: 0x100035C04, symSize: 0x140 }
  - { offsetInCU: 0x1FE37, offset: 0x1FE37, size: 0x8, addend: 0x0, symName: __ZNSt3__122__compressed_pair_elemIPlLi0ELb0EEC2B8ue170006IDnvEEOT_, symObjAddr: 0x33370, symBinAddr: 0x100035D44, symSize: 0xBC }
  - { offsetInCU: 0x1FE79, offset: 0x1FE79, size: 0x8, addend: 0x0, symName: __ZNSt3__122__compressed_pair_elemINS_9allocatorIlEELi1ELb1EEC2B8ue170006ENS_18__default_init_tagE, symObjAddr: 0x3342C, symBinAddr: 0x100035E00, symSize: 0x84 }
  - { offsetInCU: 0x1FEAD, offset: 0x1FEAD, size: 0x8, addend: 0x0, symName: __ZNSt3__19allocatorIlEC2B8ue170006Ev, symObjAddr: 0x334B0, symBinAddr: 0x100035E84, symSize: 0x84 }
  - { offsetInCU: 0x1FED7, offset: 0x1FED7, size: 0x8, addend: 0x0, symName: __ZNSt3__116__non_trivial_ifILb1ENS_9allocatorIlEEEC2B8ue170006Ev, symObjAddr: 0x33534, symBinAddr: 0x100035F08, symSize: 0x54 }
  - { offsetInCU: 0x1FF01, offset: 0x1FF01, size: 0x8, addend: 0x0, symName: __ZNKSt3__16vectorIlNS_9allocatorIlEEE8capacityB8ue170006Ev, symObjAddr: 0x33588, symBinAddr: 0x100035F5C, symSize: 0x144 }
  - { offsetInCU: 0x1FF27, offset: 0x1FF27, size: 0x8, addend: 0x0, symName: __ZNKSt3__16vectorIlNS_9allocatorIlEEE8max_sizeEv, symObjAddr: 0x336CC, symBinAddr: 0x1000360A0, symSize: 0x3B8 }
  - { offsetInCU: 0x1FF50, offset: 0x1FF50, size: 0x8, addend: 0x0, symName: __ZNKSt3__16vectorIlNS_9allocatorIlEEE20__throw_length_errorB8ue170006Ev, symObjAddr: 0x33A84, symBinAddr: 0x100036458, symSize: 0x80 }
  - { offsetInCU: 0x1FF76, offset: 0x1FF76, size: 0x8, addend: 0x0, symName: __ZNSt3__16vectorIlNS_9allocatorIlEEE7__allocB8ue170006Ev, symObjAddr: 0x33B04, symBinAddr: 0x1000364D8, symSize: 0xE4 }
  - { offsetInCU: 0x1FF9C, offset: 0x1FF9C, size: 0x8, addend: 0x0, symName: __ZNSt3__114__split_bufferIlRNS_9allocatorIlEEEC1EmmS3_, symObjAddr: 0x33BE8, symBinAddr: 0x1000365BC, symSize: 0x90 }
  - { offsetInCU: 0x1FFF2, offset: 0x1FFF2, size: 0x8, addend: 0x0, symName: __ZNSt3__114__split_bufferIlRNS_9allocatorIlEEED1Ev, symObjAddr: 0x344D4, symBinAddr: 0x100036EA8, symSize: 0x78 }
  - { offsetInCU: 0x2001E, offset: 0x2001E, size: 0x8, addend: 0x0, symName: __ZNKSt3__16vectorIlNS_9allocatorIlEEE9__end_capB8ue170006Ev, symObjAddr: 0x3454C, symBinAddr: 0x100036F20, symSize: 0x100 }
  - { offsetInCU: 0x20044, offset: 0x20044, size: 0x8, addend: 0x0, symName: __ZNKSt3__117__compressed_pairIPlNS_9allocatorIlEEE5firstB8ue170006Ev, symObjAddr: 0x3464C, symBinAddr: 0x100037020, symSize: 0x124 }
  - { offsetInCU: 0x2006A, offset: 0x2006A, size: 0x8, addend: 0x0, symName: __ZNKSt3__122__compressed_pair_elemIPlLi0ELb0EE5__getB8ue170006Ev, symObjAddr: 0x34770, symBinAddr: 0x100037144, symSize: 0xAC }
  - { offsetInCU: 0x2009A, offset: 0x2009A, size: 0x8, addend: 0x0, symName: __ZNSt3__116allocator_traitsINS_9allocatorIlEEE8max_sizeB8ue170006IS2_vvEEmRKS2_, symObjAddr: 0x3481C, symBinAddr: 0x1000371F0, symSize: 0x54 }
  - { offsetInCU: 0x200C5, offset: 0x200C5, size: 0x8, addend: 0x0, symName: __ZNKSt3__16vectorIlNS_9allocatorIlEEE7__allocB8ue170006Ev, symObjAddr: 0x34870, symBinAddr: 0x100037244, symSize: 0xE4 }
  - { offsetInCU: 0x200EB, offset: 0x200EB, size: 0x8, addend: 0x0, symName: __ZNKSt3__117__compressed_pairIPlNS_9allocatorIlEEE6secondB8ue170006Ev, symObjAddr: 0x34954, symBinAddr: 0x100037328, symSize: 0x108 }
  - { offsetInCU: 0x20111, offset: 0x20111, size: 0x8, addend: 0x0, symName: __ZNKSt3__122__compressed_pair_elemINS_9allocatorIlEELi1ELb1EE5__getB8ue170006Ev, symObjAddr: 0x34A5C, symBinAddr: 0x100037430, symSize: 0x74 }
  - { offsetInCU: 0x20137, offset: 0x20137, size: 0x8, addend: 0x0, symName: __ZNSt3__117__compressed_pairIPlNS_9allocatorIlEEE6secondB8ue170006Ev, symObjAddr: 0x34AD0, symBinAddr: 0x1000374A4, symSize: 0x108 }
  - { offsetInCU: 0x2015D, offset: 0x2015D, size: 0x8, addend: 0x0, symName: __ZNSt3__122__compressed_pair_elemINS_9allocatorIlEELi1ELb1EE5__getB8ue170006Ev, symObjAddr: 0x34BD8, symBinAddr: 0x1000375AC, symSize: 0x74 }
  - { offsetInCU: 0x20183, offset: 0x20183, size: 0x8, addend: 0x0, symName: __ZNSt3__114__split_bufferIlRNS_9allocatorIlEEEC2EmmS3_, symObjAddr: 0x34C4C, symBinAddr: 0x100037620, symSize: 0x7D8 }
  - { offsetInCU: 0x201FE, offset: 0x201FE, size: 0x8, addend: 0x0, symName: __ZNSt3__117__compressed_pairIPlRNS_9allocatorIlEEEC1B8ue170006IDnS4_EEOT_OT0_, symObjAddr: 0x35424, symBinAddr: 0x100037DF8, symSize: 0x88 }
  - { offsetInCU: 0x20256, offset: 0x20256, size: 0x8, addend: 0x0, symName: __ZNSt3__114__split_bufferIlRNS_9allocatorIlEEE7__allocB8ue170006Ev, symObjAddr: 0x356FC, symBinAddr: 0x1000380D0, symSize: 0xE4 }
  - { offsetInCU: 0x2027C, offset: 0x2027C, size: 0x8, addend: 0x0, symName: __ZNSt3__114__split_bufferIlRNS_9allocatorIlEEE9__end_capB8ue170006Ev, symObjAddr: 0x357E0, symBinAddr: 0x1000381B4, symSize: 0x100 }
  - { offsetInCU: 0x202A2, offset: 0x202A2, size: 0x8, addend: 0x0, symName: __ZNSt3__117__compressed_pairIPlRNS_9allocatorIlEEEC2B8ue170006IDnS4_EEOT_OT0_, symObjAddr: 0x358E0, symBinAddr: 0x1000382B4, symSize: 0x198 }
  - { offsetInCU: 0x202FA, offset: 0x202FA, size: 0x8, addend: 0x0, symName: __ZNSt3__122__compressed_pair_elemIRNS_9allocatorIlEELi1ELb0EEC2B8ue170006IS3_vEEOT_, symObjAddr: 0x35A78, symBinAddr: 0x10003844C, symSize: 0xEC }
  - { offsetInCU: 0x2033C, offset: 0x2033C, size: 0x8, addend: 0x0, symName: __ZNSt3__19allocatorIlE17allocate_at_leastB8ue170006Em, symObjAddr: 0x35D88, symBinAddr: 0x10003875C, symSize: 0x2B8 }
  - { offsetInCU: 0x20372, offset: 0x20372, size: 0x8, addend: 0x0, symName: __ZNSt3__19allocatorIlE8allocateB8ue170006Em, symObjAddr: 0x36040, symBinAddr: 0x100038A14, symSize: 0xCC }
  - { offsetInCU: 0x203A6, offset: 0x203A6, size: 0x8, addend: 0x0, symName: __ZNSt3__117__compressed_pairIPlRNS_9allocatorIlEEE6secondB8ue170006Ev, symObjAddr: 0x3610C, symBinAddr: 0x100038AE0, symSize: 0x110 }
  - { offsetInCU: 0x203CC, offset: 0x203CC, size: 0x8, addend: 0x0, symName: __ZNSt3__122__compressed_pair_elemIRNS_9allocatorIlEELi1ELb0EE5__getB8ue170006Ev, symObjAddr: 0x3621C, symBinAddr: 0x100038BF0, symSize: 0xD8 }
  - { offsetInCU: 0x203F2, offset: 0x203F2, size: 0x8, addend: 0x0, symName: __ZNSt3__117__compressed_pairIPlRNS_9allocatorIlEEE5firstB8ue170006Ev, symObjAddr: 0x362F4, symBinAddr: 0x100038CC8, symSize: 0x124 }
  - { offsetInCU: 0x20418, offset: 0x20418, size: 0x8, addend: 0x0, symName: __ZNSt3__122__compressed_pair_elemIPlLi0ELb0EE5__getB8ue170006Ev, symObjAddr: 0x36418, symBinAddr: 0x100038DEC, symSize: 0xAC }
  - { offsetInCU: 0x2043E, offset: 0x2043E, size: 0x8, addend: 0x0, symName: __ZNKSt3__16vectorIlNS_9allocatorIlEEE17__annotate_deleteB8ue170006Ev, symObjAddr: 0x364C4, symBinAddr: 0x100038E98, symSize: 0x370 }
  - { offsetInCU: 0x20464, offset: 0x20464, size: 0x8, addend: 0x0, symName: __ZNSt3__116reverse_iteratorIPlEC1B8ue170006ES1_, symObjAddr: 0x36CDC, symBinAddr: 0x1000396B0, symSize: 0x80 }
  - { offsetInCU: 0x2049C, offset: 0x2049C, size: 0x8, addend: 0x0, symName: __ZNKSt3__116reverse_iteratorIPlE4baseB8ue170006Ev, symObjAddr: 0x36D5C, symBinAddr: 0x100039730, symSize: 0xB0 }
  - { offsetInCU: 0x204C2, offset: 0x204C2, size: 0x8, addend: 0x0, symName: __ZNSt3__16vectorIlNS_9allocatorIlEEE9__end_capB8ue170006Ev, symObjAddr: 0x36FCC, symBinAddr: 0x1000399A0, symSize: 0x100 }
  - { offsetInCU: 0x204E8, offset: 0x204E8, size: 0x8, addend: 0x0, symName: __ZNKSt3__16vectorIlNS_9allocatorIlEEE14__annotate_newB8ue170006Em, symObjAddr: 0x370CC, symBinAddr: 0x100039AA0, symSize: 0x360 }
  - { offsetInCU: 0x2051D, offset: 0x2051D, size: 0x8, addend: 0x0, symName: __ZNKSt3__16vectorIlNS_9allocatorIlEEE31__annotate_contiguous_containerEPKvS5_S5_S5_, symObjAddr: 0x3742C, symBinAddr: 0x100039E00, symSize: 0x9C }
  - { offsetInCU: 0x2057F, offset: 0x2057F, size: 0x8, addend: 0x0, symName: __ZNKSt3__16vectorIlNS_9allocatorIlEEE4dataB8ue170006Ev, symObjAddr: 0x374C8, symBinAddr: 0x100039E9C, symSize: 0xB0 }
  - { offsetInCU: 0x205CD, offset: 0x205CD, size: 0x8, addend: 0x0, symName: __ZNKSt3__111__move_loopINS_17_ClassicAlgPolicyEEclB8ue170006INS_16reverse_iteratorIPlEES6_S6_EENS_4pairIT_T1_EES8_T0_S9_, symObjAddr: 0x38E60, symBinAddr: 0x10003B834, symSize: 0x45C }
  - { offsetInCU: 0x20645, offset: 0x20645, size: 0x8, addend: 0x0, symName: __ZNSt3__119__unwrap_range_implINS_16reverse_iteratorIPlEES3_E8__unwrapB8ue170006ES3_S3_, symObjAddr: 0x39E6C, symBinAddr: 0x10003C840, symSize: 0x490 }
  - { offsetInCU: 0x20683, offset: 0x20683, size: 0x8, addend: 0x0, symName: __ZNSt3__14pairINS_16reverse_iteratorIPlEES3_EC1B8ue170006IS3_S3_LPv0EEEOT_OT0_, symObjAddr: 0x3A2FC, symBinAddr: 0x10003CCD0, symSize: 0x88 }
  - { offsetInCU: 0x206E1, offset: 0x206E1, size: 0x8, addend: 0x0, symName: __ZNSt3__14pairINS_16reverse_iteratorIPlEES3_EC2B8ue170006IS3_S3_LPv0EEEOT_OT0_, symObjAddr: 0x3A384, symBinAddr: 0x10003CD58, symSize: 0xA0 }
  - { offsetInCU: 0x2073F, offset: 0x2073F, size: 0x8, addend: 0x0, symName: __ZNSt3__18_IterOpsINS_17_ClassicAlgPolicyEE11__iter_moveB8ue170006IRNS_16reverse_iteratorIPlEEEENS_9enable_ifIXsr12is_referenceIDTdeclsr3stdE7declvalIRT_EEEEE5valueEDTclsr3stdE4movedeclsr3stdE7declvalISA_EEEEE4typeEOS9_, symObjAddr: 0x3A4C0, symBinAddr: 0x10003CE94, symSize: 0xB8 }
  - { offsetInCU: 0x2076B, offset: 0x2076B, size: 0x8, addend: 0x0, symName: __ZNKSt3__116reverse_iteratorIPlEdeB8ue170006Ev, symObjAddr: 0x3A578, symBinAddr: 0x10003CF4C, symSize: 0x184 }
  - { offsetInCU: 0x2079F, offset: 0x2079F, size: 0x8, addend: 0x0, symName: __ZNSt3__116reverse_iteratorIPlEppB8ue170006Ev, symObjAddr: 0x3A6FC, symBinAddr: 0x10003D0D0, symSize: 0x1B0 }
  - { offsetInCU: 0x207C5, offset: 0x207C5, size: 0x8, addend: 0x0, symName: __ZNSt3__18_IterOpsINS_17_ClassicAlgPolicyEE25__validate_iter_referenceB8ue170006IRNS_16reverse_iteratorIPlEEEEvv, symObjAddr: 0x3A8AC, symBinAddr: 0x10003D280, symSize: 0x4 }
  - { offsetInCU: 0x207E3, offset: 0x207E3, size: 0x8, addend: 0x0, symName: __ZNSt3__118__unwrap_iter_implINS_16reverse_iteratorIPlEELb0EE8__unwrapB8ue170006ES3_, symObjAddr: 0x3A8B0, symBinAddr: 0x10003D284, symSize: 0x274 }
  - { offsetInCU: 0x2080A, offset: 0x2080A, size: 0x8, addend: 0x0, symName: __ZNSt3__119__unwrap_range_implINS_16reverse_iteratorIPlEES3_E8__rewrapB8ue170006ES3_S3_, symObjAddr: 0x3AB24, symBinAddr: 0x10003D4F8, symSize: 0x3D4 }
  - { offsetInCU: 0x20843, offset: 0x20843, size: 0x8, addend: 0x0, symName: __ZNSt3__118__unwrap_iter_implINS_16reverse_iteratorIPlEELb0EE8__rewrapB8ue170006ES3_S3_, symObjAddr: 0x3AEF8, symBinAddr: 0x10003D8CC, symSize: 0x2E0 }
  - { offsetInCU: 0x20878, offset: 0x20878, size: 0x8, addend: 0x0, symName: __ZNSt3__116reverse_iteratorIPlEC2B8ue170006ES1_, symObjAddr: 0x3B1D8, symBinAddr: 0x10003DBAC, symSize: 0x10C }
  - { offsetInCU: 0x208B0, offset: 0x208B0, size: 0x8, addend: 0x0, symName: __ZNSt3__117__compressed_pairIPlNS_9allocatorIlEEE5firstB8ue170006Ev, symObjAddr: 0x3B2E4, symBinAddr: 0x10003DCB8, symSize: 0x124 }
  - { offsetInCU: 0x208D6, offset: 0x208D6, size: 0x8, addend: 0x0, symName: __ZNSt3__114__split_bufferIlRNS_9allocatorIlEEED2Ev, symObjAddr: 0x3B408, symBinAddr: 0x10003DDDC, symSize: 0x16C }
  - { offsetInCU: 0x20902, offset: 0x20902, size: 0x8, addend: 0x0, symName: __ZNSt3__114__split_bufferIlRNS_9allocatorIlEEE5clearB8ue170006Ev, symObjAddr: 0x3B574, symBinAddr: 0x10003DF48, symSize: 0xB4 }
  - { offsetInCU: 0x20928, offset: 0x20928, size: 0x8, addend: 0x0, symName: __ZNSt3__116allocator_traitsINS_9allocatorIlEEE10deallocateB8ue170006ERS2_Plm, symObjAddr: 0x3B628, symBinAddr: 0x10003DFFC, symSize: 0x34 }
  - { offsetInCU: 0x2096A, offset: 0x2096A, size: 0x8, addend: 0x0, symName: __ZNKSt3__114__split_bufferIlRNS_9allocatorIlEEE8capacityB8ue170006Ev, symObjAddr: 0x3B65C, symBinAddr: 0x10003E030, symSize: 0x144 }
  - { offsetInCU: 0x20990, offset: 0x20990, size: 0x8, addend: 0x0, symName: __ZNSt3__114__split_bufferIlRNS_9allocatorIlEEE17__destruct_at_endB8ue170006EPl, symObjAddr: 0x3B7A0, symBinAddr: 0x10003E174, symSize: 0x74 }
  - { offsetInCU: 0x209C4, offset: 0x209C4, size: 0x8, addend: 0x0, symName: __ZNSt3__114__split_bufferIlRNS_9allocatorIlEEE17__destruct_at_endB8ue170006EPlNS_17integral_constantIbLb0EEE, symObjAddr: 0x3B814, symBinAddr: 0x10003E1E8, symSize: 0x224 }
  - { offsetInCU: 0x20A04, offset: 0x20A04, size: 0x8, addend: 0x0, symName: __ZNSt3__116allocator_traitsINS_9allocatorIlEEE7destroyB8ue170006IlvvEEvRS2_PT_, symObjAddr: 0x3BA38, symBinAddr: 0x10003E40C, symSize: 0x28 }
  - { offsetInCU: 0x20A3E, offset: 0x20A3E, size: 0x8, addend: 0x0, symName: __ZNSt3__19allocatorIlE10deallocateB8ue170006EPlm, symObjAddr: 0x3BA94, symBinAddr: 0x10003E468, symSize: 0x78 }
  - { offsetInCU: 0x20A80, offset: 0x20A80, size: 0x8, addend: 0x0, symName: __ZNKSt3__114__split_bufferIlRNS_9allocatorIlEEE9__end_capB8ue170006Ev, symObjAddr: 0x3BB0C, symBinAddr: 0x10003E4E0, symSize: 0x100 }
  - { offsetInCU: 0x20AA6, offset: 0x20AA6, size: 0x8, addend: 0x0, symName: __ZNKSt3__117__compressed_pairIPlRNS_9allocatorIlEEE5firstB8ue170006Ev, symObjAddr: 0x3BC0C, symBinAddr: 0x10003E5E0, symSize: 0x124 }
  - { offsetInCU: 0x20ACC, offset: 0x20ACC, size: 0x8, addend: 0x0, symName: __ZNSt3__16vectorINS_8functionIFbRNS_12basic_stringIcNS_11char_traitsIcEENS_9allocatorIcEEEEEEENS5_ISA_EEE11__make_iterB8ue170006EPSA_, symObjAddr: 0x3BD30, symBinAddr: 0x10003E704, symSize: 0x244 }
  - { offsetInCU: 0x20B03, offset: 0x20B03, size: 0x8, addend: 0x0, symName: __ZNSt3__111__wrap_iterIPNS_8functionIFbRNS_12basic_stringIcNS_11char_traitsIcEENS_9allocatorIcEEEEEEEEC1B8ue170006ESB_, symObjAddr: 0x3BF74, symBinAddr: 0x10003E948, symSize: 0x80 }
  - { offsetInCU: 0x20B3B, offset: 0x20B3B, size: 0x8, addend: 0x0, symName: __ZNSt3__111__wrap_iterIPNS_8functionIFbRNS_12basic_stringIcNS_11char_traitsIcEENS_9allocatorIcEEEEEEEEC2B8ue170006ESB_, symObjAddr: 0x3BFF4, symBinAddr: 0x10003E9C8, symSize: 0xC8 }
  - { offsetInCU: 0x20B73, offset: 0x20B73, size: 0x8, addend: 0x0, symName: __ZNKSt3__111__wrap_iterIPNS_8functionIFbRNS_12basic_stringIcNS_11char_traitsIcEENS_9allocatorIcEEEEEEEE4baseB8ue170006Ev, symObjAddr: 0x3C158, symBinAddr: 0x10003EB2C, symSize: 0xAC }
  - { offsetInCU: 0x20B99, offset: 0x20B99, size: 0x8, addend: 0x0, symName: __ZNSt3__18functionIFbRNS_12basic_stringIcNS_11char_traitsIcEENS_9allocatorIcEEEEEEC2ERKS9_, symObjAddr: 0x3C204, symBinAddr: 0x10003EBD8, symSize: 0xC8 }
  - { offsetInCU: 0x20BD4, offset: 0x20BD4, size: 0x8, addend: 0x0, symName: __ZNSt3__110__function12__value_funcIFbRNS_12basic_stringIcNS_11char_traitsIcEENS_9allocatorIcEEEEEEC1B8ue170006ERKSA_, symObjAddr: 0x3C2CC, symBinAddr: 0x10003ECA0, symSize: 0x80 }
  - { offsetInCU: 0x20C0D, offset: 0x20C0D, size: 0x8, addend: 0x0, symName: __ZNSt3__110__function12__value_funcIFbRNS_12basic_stringIcNS_11char_traitsIcEENS_9allocatorIcEEEEEEC2B8ue170006ERKSA_, symObjAddr: 0x3C34C, symBinAddr: 0x10003ED20, symSize: 0x640 }
  - { offsetInCU: 0x20C46, offset: 0x20C46, size: 0x8, addend: 0x0, symName: __ZNSt3__110__function12__value_funcIFbRNS_12basic_stringIcNS_11char_traitsIcEENS_9allocatorIcEEEEEE9__as_baseB8ue170006EPv, symObjAddr: 0x3C98C, symBinAddr: 0x10003F360, symSize: 0x14 }
  - { offsetInCU: 0x20C6A, offset: 0x20C6A, size: 0x8, addend: 0x0, symName: __ZNKSt3__110__function12__value_funcIFbRNS_12basic_stringIcNS_11char_traitsIcEENS_9allocatorIcEEEEEEclB8ue170006ES8_, symObjAddr: 0x3C9A0, symBinAddr: 0x10003F374, symSize: 0x2D8 }
  - { offsetInCU: 0x20CA4, offset: 0x20CA4, size: 0x8, addend: 0x0, symName: __ZNSt3__117bad_function_callC1Ev, symObjAddr: 0x3CD08, symBinAddr: 0x10003F6DC, symSize: 0x78 }
  - { offsetInCU: 0x20CD0, offset: 0x20CD0, size: 0x8, addend: 0x0, symName: __ZNSt3__117bad_function_callD1Ev, symObjAddr: 0x3CD80, symBinAddr: 0x10003F754, symSize: 0x78 }
  - { offsetInCU: 0x20CFA, offset: 0x20CFA, size: 0x8, addend: 0x0, symName: __ZNSt3__117bad_function_callC2Ev, symObjAddr: 0x3CDF8, symBinAddr: 0x10003F7CC, symSize: 0x118 }
  - { offsetInCU: 0x20D26, offset: 0x20D26, size: 0x8, addend: 0x0, symName: __ZNSt9exceptionC2B8ue170006Ev, symObjAddr: 0x3CF10, symBinAddr: 0x10003F8E4, symSize: 0xCC }
  - { offsetInCU: 0x20D50, offset: 0x20D50, size: 0x8, addend: 0x0, symName: __ZNSt3__117bad_function_callD0Ev, symObjAddr: 0x3CFDC, symBinAddr: 0x10003F9B0, symSize: 0x74 }
  - { offsetInCU: 0x20D7A, offset: 0x20D7A, size: 0x8, addend: 0x0, symName: __ZNSt3__117bad_function_callD2Ev, symObjAddr: 0x3D050, symBinAddr: 0x10003FA24, symSize: 0x78 }
  - { offsetInCU: 0x20DA4, offset: 0x20DA4, size: 0x8, addend: 0x0, symName: __ZNSt3__18functionIFbRNS_12basic_stringIcNS_11char_traitsIcEENS_9allocatorIcEEEEEED2Ev, symObjAddr: 0x3D0C8, symBinAddr: 0x10003FA9C, symSize: 0x78 }
  - { offsetInCU: 0x20DD0, offset: 0x20DD0, size: 0x8, addend: 0x0, symName: __ZNSt3__110__function12__value_funcIFbRNS_12basic_stringIcNS_11char_traitsIcEENS_9allocatorIcEEEEEED1B8ue170006Ev, symObjAddr: 0x3D140, symBinAddr: 0x10003FB14, symSize: 0x78 }
  - { offsetInCU: 0x20DFA, offset: 0x20DFA, size: 0x8, addend: 0x0, symName: __ZNSt3__110__function12__value_funcIFbRNS_12basic_stringIcNS_11char_traitsIcEENS_9allocatorIcEEEEEED2B8ue170006Ev, symObjAddr: 0x3D1B8, symBinAddr: 0x10003FB8C, symSize: 0x44C }
  - { offsetInCU: 0x20E24, offset: 0x20E24, size: 0x8, addend: 0x0, symName: __ZNSt3__16vectorIlNS_9allocatorIlEEE22__construct_one_at_endB8ue170006IJRlEEEvDpOT_, symObjAddr: 0x3D604, symBinAddr: 0x10003FFD8, symSize: 0x550 }
  - { offsetInCU: 0x20E79, offset: 0x20E79, size: 0x8, addend: 0x0, symName: __ZNSt3__16vectorIlNS_9allocatorIlEEE24__emplace_back_slow_pathIJRlEEEvDpOT_, symObjAddr: 0x3DB54, symBinAddr: 0x100040528, symSize: 0x5B0 }
  - { offsetInCU: 0x20EE0, offset: 0x20EE0, size: 0x8, addend: 0x0, symName: __ZNSt3__16vectorIlNS_9allocatorIlEEE4backB8ue170006Ev, symObjAddr: 0x3E104, symBinAddr: 0x100040AD8, symSize: 0x18C }
  - { offsetInCU: 0x20F1F, offset: 0x20F1F, size: 0x8, addend: 0x0, symName: __ZNSt3__16vectorIlNS_9allocatorIlEEE21_ConstructTransactionC1B8ue170006ERS3_m, symObjAddr: 0x3E290, symBinAddr: 0x100040C64, symSize: 0x88 }
  - { offsetInCU: 0x20F67, offset: 0x20F67, size: 0x8, addend: 0x0, symName: __ZNSt3__116allocator_traitsINS_9allocatorIlEEE9constructB8ue170006IlJRlEvvEEvRS2_PT_DpOT0_, symObjAddr: 0x3E318, symBinAddr: 0x100040CEC, symSize: 0x80 }
  - { offsetInCU: 0x20FBB, offset: 0x20FBB, size: 0x8, addend: 0x0, symName: __ZNSt3__16vectorIlNS_9allocatorIlEEE21_ConstructTransactionD1B8ue170006Ev, symObjAddr: 0x3E398, symBinAddr: 0x100040D6C, symSize: 0x78 }
  - { offsetInCU: 0x20FE5, offset: 0x20FE5, size: 0x8, addend: 0x0, symName: __ZNSt3__16vectorIlNS_9allocatorIlEEE21_ConstructTransactionC2B8ue170006ERS3_m, symObjAddr: 0x3E410, symBinAddr: 0x100040DE4, symSize: 0x3D8 }
  - { offsetInCU: 0x2102D, offset: 0x2102D, size: 0x8, addend: 0x0, symName: __ZNKSt3__16vectorIlNS_9allocatorIlEEE19__annotate_increaseB8ue170006Em, symObjAddr: 0x3E7E8, symBinAddr: 0x1000411BC, symSize: 0x44C }
  - { offsetInCU: 0x21062, offset: 0x21062, size: 0x8, addend: 0x0, symName: __ZNSt3__16vectorIlNS_9allocatorIlEEE21_ConstructTransactionD2B8ue170006Ev, symObjAddr: 0x3EDBC, symBinAddr: 0x100041790, symSize: 0x390 }
  - { offsetInCU: 0x2108C, offset: 0x2108C, size: 0x8, addend: 0x0, symName: __ZNKSt3__16vectorIlNS_9allocatorIlEEE17__annotate_shrinkB8ue170006Em, symObjAddr: 0x3F14C, symBinAddr: 0x100041B20, symSize: 0x360 }
  - { offsetInCU: 0x210C1, offset: 0x210C1, size: 0x8, addend: 0x0, symName: __ZNKSt3__16vectorIlNS_9allocatorIlEEE11__recommendB8ue170006Em, symObjAddr: 0x3F4AC, symBinAddr: 0x100041E80, symSize: 0x45C }
  - { offsetInCU: 0x2111D, offset: 0x2111D, size: 0x8, addend: 0x0, symName: __ZNSt3__16vectorIlNS_9allocatorIlEEE4swapERS3_, symObjAddr: 0x3F908, symBinAddr: 0x1000422DC, symSize: 0x30C }
  - { offsetInCU: 0x21154, offset: 0x21154, size: 0x8, addend: 0x0, symName: __ZNSt3__16vectorIlNS_9allocatorIlEEED2B8ue170006Ev, symObjAddr: 0x3FC28, symBinAddr: 0x1000425FC, symSize: 0x298 }
  - { offsetInCU: 0x2117F, offset: 0x2117F, size: 0x8, addend: 0x0, symName: __ZNSt3__16vectorIlNS_9allocatorIlEEE16__destroy_vectorC1B8ue170006ERS3_, symObjAddr: 0x3FEC0, symBinAddr: 0x100042894, symSize: 0x80 }
  - { offsetInCU: 0x211B8, offset: 0x211B8, size: 0x8, addend: 0x0, symName: __ZNSt3__16vectorIlNS_9allocatorIlEEE16__destroy_vectorclB8ue170006Ev, symObjAddr: 0x3FF40, symBinAddr: 0x100042914, symSize: 0x43C }
  - { offsetInCU: 0x211DE, offset: 0x211DE, size: 0x8, addend: 0x0, symName: __ZNSt3__16vectorIlNS_9allocatorIlEEE16__destroy_vectorC2B8ue170006ERS3_, symObjAddr: 0x4037C, symBinAddr: 0x100042D50, symSize: 0x108 }
  - { offsetInCU: 0x21217, offset: 0x21217, size: 0x8, addend: 0x0, symName: __ZNSt3__16vectorIlNS_9allocatorIlEEE7__clearB8ue170006Ev, symObjAddr: 0x40484, symBinAddr: 0x100042E58, symSize: 0xB0 }
  - { offsetInCU: 0x2123D, offset: 0x2123D, size: 0x8, addend: 0x0, symName: __ZNSt3__16vectorIlNS_9allocatorIlEEE22__base_destruct_at_endB8ue170006EPl, symObjAddr: 0x40534, symBinAddr: 0x100042F08, symSize: 0x1FC }
  - { offsetInCU: 0x21281, offset: 0x21281, size: 0x8, addend: 0x0, symName: __ZN5memdb8DbType_sINSt3__112basic_stringIcNS1_11char_traitsIcEENS1_9allocatorIcEEEEE3delEi, symObjAddr: 0x40730, symBinAddr: 0x100043104, symSize: 0x7A4 }
  - { offsetInCU: 0x212B8, offset: 0x212B8, size: 0x8, addend: 0x0, symName: __ZNSt3__113unordered_mapIlNS_12basic_stringIcNS_11char_traitsIcEENS_9allocatorIcEEEENS_4hashIlEENS_8equal_toIlEENS4_INS_4pairIKlS6_EEEEE5eraseB8ue170006ERSC_, symObjAddr: 0x40ED4, symBinAddr: 0x1000438A8, symSize: 0x100 }
  - { offsetInCU: 0x212ED, offset: 0x212ED, size: 0x8, addend: 0x0, symName: __ZNSt3__112forward_listIlNS_9allocatorIlEEE11erase_afterENS_29__forward_list_const_iteratorIPNS_19__forward_list_nodeIlPvEEEE, symObjAddr: 0x40FD4, symBinAddr: 0x1000439A8, symSize: 0x738 }
  - { offsetInCU: 0x21359, offset: 0x21359, size: 0x8, addend: 0x0, symName: __ZNSt3__113unordered_mapIlNS_23__forward_list_iteratorIPNS_19__forward_list_nodeIlPvEEEENS_4hashIlEENS_8equal_toIlEENS_9allocatorINS_4pairIKlS6_EEEEEixEOl, symObjAddr: 0x4170C, symBinAddr: 0x1000440E0, symSize: 0x4F8 }
  - { offsetInCU: 0x21392, offset: 0x21392, size: 0x8, addend: 0x0, symName: __ZNSt3__129__forward_list_const_iteratorIPNS_19__forward_list_nodeIlPvEEEC1B8ue170006ENS_23__forward_list_iteratorIS4_EE, symObjAddr: 0x41C04, symBinAddr: 0x1000445D8, symSize: 0x28C }
  - { offsetInCU: 0x213D0, offset: 0x213D0, size: 0x8, addend: 0x0, symName: __ZNSt3__113unordered_mapIlNS_23__forward_list_iteratorIPNS_19__forward_list_nodeIlPvEEEENS_4hashIlEENS_8equal_toIlEENS_9allocatorINS_4pairIKlS6_EEEEE5eraseB8ue170006ERSD_, symObjAddr: 0x41E90, symBinAddr: 0x100044864, symSize: 0x100 }
  - { offsetInCU: 0x21405, offset: 0x21405, size: 0x8, addend: 0x0, symName: __ZNSt3__112__hash_tableINS_17__hash_value_typeIlNS_12basic_stringIcNS_11char_traitsIcEENS_9allocatorIcEEEEEENS_22__unordered_map_hasherIlS8_NS_4hashIlEENS_8equal_toIlEELb1EEENS_21__unordered_map_equalIlS8_SD_SB_Lb1EEENS5_IS8_EEE14__erase_uniqueIlEEmRKT_, symObjAddr: 0x41F90, symBinAddr: 0x100044964, symSize: 0x460 }
  - { offsetInCU: 0x2145A, offset: 0x2145A, size: 0x8, addend: 0x0, symName: __ZNSt3__112__hash_tableINS_17__hash_value_typeIlNS_12basic_stringIcNS_11char_traitsIcEENS_9allocatorIcEEEEEENS_22__unordered_map_hasherIlS8_NS_4hashIlEENS_8equal_toIlEELb1EEENS_21__unordered_map_equalIlS8_SD_SB_Lb1EEENS5_IS8_EEE4findIlEENS_15__hash_iteratorIPNS_11__hash_nodeIS8_PvEEEERKT_, symObjAddr: 0x423F0, symBinAddr: 0x100044DC4, symSize: 0x8E8 }
  - { offsetInCU: 0x214E3, offset: 0x214E3, size: 0x8, addend: 0x0, symName: __ZNSt3__112__hash_tableINS_17__hash_value_typeIlNS_12basic_stringIcNS_11char_traitsIcEENS_9allocatorIcEEEEEENS_22__unordered_map_hasherIlS8_NS_4hashIlEENS_8equal_toIlEELb1EEENS_21__unordered_map_equalIlS8_SD_SB_Lb1EEENS5_IS8_EEE3endEv, symObjAddr: 0x42DEC, symBinAddr: 0x1000457C0, symSize: 0x240 }
  - { offsetInCU: 0x2150C, offset: 0x2150C, size: 0x8, addend: 0x0, symName: __ZNSt3__112__hash_tableINS_17__hash_value_typeIlNS_12basic_stringIcNS_11char_traitsIcEENS_9allocatorIcEEEEEENS_22__unordered_map_hasherIlS8_NS_4hashIlEENS_8equal_toIlEELb1EEENS_21__unordered_map_equalIlS8_SD_SB_Lb1EEENS5_IS8_EEE5eraseENS_21__hash_const_iteratorIPNS_11__hash_nodeIS8_PvEEEE, symObjAddr: 0x4302C, symBinAddr: 0x100045A00, symSize: 0x3BC }
  - { offsetInCU: 0x2156B, offset: 0x2156B, size: 0x8, addend: 0x0, symName: __ZNSt3__121__hash_const_iteratorIPNS_11__hash_nodeINS_17__hash_value_typeIlNS_12basic_stringIcNS_11char_traitsIcEENS_9allocatorIcEEEEEEPvEEEC1B8ue170006ERKNS_15__hash_iteratorISC_EE, symObjAddr: 0x433E8, symBinAddr: 0x100045DBC, symSize: 0x80 }
  - { offsetInCU: 0x215A4, offset: 0x215A4, size: 0x8, addend: 0x0, symName: __ZNSt3__115__hash_iteratorIPNS_11__hash_nodeINS_17__hash_value_typeIlNS_12basic_stringIcNS_11char_traitsIcEENS_9allocatorIcEEEEEEPvEEEppB8ue170006Ev, symObjAddr: 0x43468, symBinAddr: 0x100045E3C, symSize: 0x1F0 }
  - { offsetInCU: 0x215CA, offset: 0x215CA, size: 0x8, addend: 0x0, symName: __ZNSt3__112__hash_tableINS_17__hash_value_typeIlNS_12basic_stringIcNS_11char_traitsIcEENS_9allocatorIcEEEEEENS_22__unordered_map_hasherIlS8_NS_4hashIlEENS_8equal_toIlEELb1EEENS_21__unordered_map_equalIlS8_SD_SB_Lb1EEENS5_IS8_EEE6removeENS_21__hash_const_iteratorIPNS_11__hash_nodeIS8_PvEEEE, symObjAddr: 0x43658, symBinAddr: 0x10004602C, symSize: 0x101C }
  - { offsetInCU: 0x21664, offset: 0x21664, size: 0x8, addend: 0x0, symName: __ZNSt3__121__hash_const_iteratorIPNS_11__hash_nodeINS_17__hash_value_typeIlNS_12basic_stringIcNS_11char_traitsIcEENS_9allocatorIcEEEEEEPvEEEC2B8ue170006ERKNS_15__hash_iteratorISC_EE, symObjAddr: 0x44674, symBinAddr: 0x100047048, symSize: 0x12C }
  - { offsetInCU: 0x2169D, offset: 0x2169D, size: 0x8, addend: 0x0, symName: __ZNKSt3__129__forward_list_const_iteratorIPNS_19__forward_list_nodeIlPvEEE11__get_beginB8ue170006Ev, symObjAddr: 0x447A0, symBinAddr: 0x100047174, symSize: 0xAC }
  - { offsetInCU: 0x216C3, offset: 0x216C3, size: 0x8, addend: 0x0, symName: __ZNSt3__119__forward_list_baseIlNS_9allocatorIlEEE7__allocB8ue170006Ev, symObjAddr: 0x4484C, symBinAddr: 0x100047220, symSize: 0xDC }
  - { offsetInCU: 0x216EE, offset: 0x216EE, size: 0x8, addend: 0x0, symName: __ZNSt3__116allocator_traitsINS_9allocatorINS_19__forward_list_nodeIlPvEEEEE7destroyB8ue170006IlvvEEvRS5_PT_, symObjAddr: 0x44928, symBinAddr: 0x1000472FC, symSize: 0x28 }
  - { offsetInCU: 0x21728, offset: 0x21728, size: 0x8, addend: 0x0, symName: __ZNSt3__116allocator_traitsINS_9allocatorINS_19__forward_list_nodeIlPvEEEEE10deallocateB8ue170006ERS5_PS4_m, symObjAddr: 0x44950, symBinAddr: 0x100047324, symSize: 0x34 }
  - { offsetInCU: 0x2176A, offset: 0x2176A, size: 0x8, addend: 0x0, symName: __ZNSt3__123__forward_list_iteratorIPNS_19__forward_list_nodeIlPvEEEC1B8ue170006ES4_, symObjAddr: 0x44984, symBinAddr: 0x100047358, symSize: 0x80 }
  - { offsetInCU: 0x217A3, offset: 0x217A3, size: 0x8, addend: 0x0, symName: __ZNSt3__117__compressed_pairINS_20__forward_begin_nodeIPNS_19__forward_list_nodeIlPvEEEENS_9allocatorIS4_EEE6secondB8ue170006Ev, symObjAddr: 0x44A04, symBinAddr: 0x1000473D8, symSize: 0x108 }
  - { offsetInCU: 0x217C9, offset: 0x217C9, size: 0x8, addend: 0x0, symName: __ZNSt3__122__compressed_pair_elemINS_9allocatorINS_19__forward_list_nodeIlPvEEEELi1ELb1EE5__getB8ue170006Ev, symObjAddr: 0x44B0C, symBinAddr: 0x1000474E0, symSize: 0x74 }
  - { offsetInCU: 0x217EF, offset: 0x217EF, size: 0x8, addend: 0x0, symName: __ZNSt3__19allocatorINS_19__forward_list_nodeIlPvEEE10deallocateB8ue170006EPS3_m, symObjAddr: 0x44B80, symBinAddr: 0x100047554, symSize: 0x78 }
  - { offsetInCU: 0x21831, offset: 0x21831, size: 0x8, addend: 0x0, symName: __ZNSt3__123__forward_list_iteratorIPNS_19__forward_list_nodeIlPvEEEC2B8ue170006ES4_, symObjAddr: 0x44BF8, symBinAddr: 0x1000475CC, symSize: 0xE0 }
  - { offsetInCU: 0x2186A, offset: 0x2186A, size: 0x8, addend: 0x0, symName: __ZNSt3__121__forward_node_traitsIPNS_19__forward_list_nodeIlPvEEE14__as_iter_nodeB8ue170006ES4_, symObjAddr: 0x44CD8, symBinAddr: 0x1000476AC, symSize: 0x14 }
  - { offsetInCU: 0x2188E, offset: 0x2188E, size: 0x8, addend: 0x0, symName: __ZNSt3__112__hash_tableINS_17__hash_value_typeIlNS_23__forward_list_iteratorIPNS_19__forward_list_nodeIlPvEEEEEENS_22__unordered_map_hasherIlS8_NS_4hashIlEENS_8equal_toIlEELb1EEENS_21__unordered_map_equalIlS8_SD_SB_Lb1EEENS_9allocatorIS8_EEE25__emplace_unique_key_argsIlJRKNS_21piecewise_construct_tENS_5tupleIJOlEEENSO_IJEEEEEENS_4pairINS_15__hash_iteratorIPNS_11__hash_nodeIS8_S4_EEEEbEERKT_DpOT0_, symObjAddr: 0x44CEC, symBinAddr: 0x1000476C0, symSize: 0x1D84 }
  - { offsetInCU: 0x219A3, offset: 0x219A3, size: 0x8, addend: 0x0, symName: __ZNKSt3__115__hash_iteratorIPNS_11__hash_nodeINS_17__hash_value_typeIlNS_23__forward_list_iteratorIPNS_19__forward_list_nodeIlPvEEEEEES5_EEEptB8ue170006Ev, symObjAddr: 0x46A70, symBinAddr: 0x100049444, symSize: 0x190 }
  - { offsetInCU: 0x219C9, offset: 0x219C9, size: 0x8, addend: 0x0, symName: __ZNSt3__117__hash_value_typeIlNS_23__forward_list_iteratorIPNS_19__forward_list_nodeIlPvEEEEE11__get_valueB8ue170006Ev, symObjAddr: 0x46C00, symBinAddr: 0x1000495D4, symSize: 0xB4 }
  - { offsetInCU: 0x219EF, offset: 0x219EF, size: 0x8, addend: 0x0, symName: __ZNSt3__112__hash_tableINS_17__hash_value_typeIlNS_23__forward_list_iteratorIPNS_19__forward_list_nodeIlPvEEEEEENS_22__unordered_map_hasherIlS8_NS_4hashIlEENS_8equal_toIlEELb1EEENS_21__unordered_map_equalIlS8_SD_SB_Lb1EEENS_9allocatorIS8_EEE13hash_functionB8ue170006Ev, symObjAddr: 0x46CB4, symBinAddr: 0x100049688, symSize: 0xE4 }
  - { offsetInCU: 0x21A15, offset: 0x21A15, size: 0x8, addend: 0x0, symName: __ZNKSt3__122__unordered_map_hasherIlNS_17__hash_value_typeIlNS_23__forward_list_iteratorIPNS_19__forward_list_nodeIlPvEEEEEENS_4hashIlEENS_8equal_toIlEELb1EEclB8ue170006ERKl, symObjAddr: 0x46D98, symBinAddr: 0x10004976C, symSize: 0xC8 }
  - { offsetInCU: 0x21A4A, offset: 0x21A4A, size: 0x8, addend: 0x0, symName: __ZNKSt3__112__hash_tableINS_17__hash_value_typeIlNS_23__forward_list_iteratorIPNS_19__forward_list_nodeIlPvEEEEEENS_22__unordered_map_hasherIlS8_NS_4hashIlEENS_8equal_toIlEELb1EEENS_21__unordered_map_equalIlS8_SD_SB_Lb1EEENS_9allocatorIS8_EEE12bucket_countB8ue170006Ev, symObjAddr: 0x46E60, symBinAddr: 0x100049834, symSize: 0xFC }
  - { offsetInCU: 0x21A70, offset: 0x21A70, size: 0x8, addend: 0x0, symName: __ZNKSt3__110unique_ptrIA_PNS_16__hash_node_baseIPNS_11__hash_nodeINS_17__hash_value_typeIlNS_23__forward_list_iteratorIPNS_19__forward_list_nodeIlPvEEEEEES6_EEEENS_25__bucket_list_deallocatorINS_9allocatorISE_EEEEEixB8ue170006Em, symObjAddr: 0x46F5C, symBinAddr: 0x100049930, symSize: 0x25C }
  - { offsetInCU: 0x21AA5, offset: 0x21AA5, size: 0x8, addend: 0x0, symName: __ZNKSt3__116__hash_node_baseIPNS_11__hash_nodeINS_17__hash_value_typeIlNS_23__forward_list_iteratorIPNS_19__forward_list_nodeIlPvEEEEEES5_EEE6__hashB8ue170006Ev, symObjAddr: 0x471B8, symBinAddr: 0x100049B8C, symSize: 0x180 }
  - { offsetInCU: 0x21ACB, offset: 0x21ACB, size: 0x8, addend: 0x0, symName: __ZNSt3__112__hash_tableINS_17__hash_value_typeIlNS_23__forward_list_iteratorIPNS_19__forward_list_nodeIlPvEEEEEENS_22__unordered_map_hasherIlS8_NS_4hashIlEENS_8equal_toIlEELb1EEENS_21__unordered_map_equalIlS8_SD_SB_Lb1EEENS_9allocatorIS8_EEE6key_eqB8ue170006Ev, symObjAddr: 0x47338, symBinAddr: 0x100049D0C, symSize: 0xE4 }
  - { offsetInCU: 0x21AF1, offset: 0x21AF1, size: 0x8, addend: 0x0, symName: __ZNKSt3__121__unordered_map_equalIlNS_17__hash_value_typeIlNS_23__forward_list_iteratorIPNS_19__forward_list_nodeIlPvEEEEEENS_8equal_toIlEENS_4hashIlEELb1EEclB8ue170006ERKS8_RKl, symObjAddr: 0x4741C, symBinAddr: 0x100049DF0, symSize: 0x190 }
  - { offsetInCU: 0x21B35, offset: 0x21B35, size: 0x8, addend: 0x0, symName: __ZNSt3__116__hash_node_baseIPNS_11__hash_nodeINS_17__hash_value_typeIlNS_23__forward_list_iteratorIPNS_19__forward_list_nodeIlPvEEEEEES5_EEE8__upcastB8ue170006Ev, symObjAddr: 0x475AC, symBinAddr: 0x100049F80, symSize: 0xF8 }
  - { offsetInCU: 0x21B5B, offset: 0x21B5B, size: 0x8, addend: 0x0, symName: __ZNSt3__112__hash_tableINS_17__hash_value_typeIlNS_23__forward_list_iteratorIPNS_19__forward_list_nodeIlPvEEEEEENS_22__unordered_map_hasherIlS8_NS_4hashIlEENS_8equal_toIlEELb1EEENS_21__unordered_map_equalIlS8_SD_SB_Lb1EEENS_9allocatorIS8_EEE21__construct_node_hashIRKNS_21piecewise_construct_tEJNS_5tupleIJOlEEENSO_IJEEEEEENS_10unique_ptrINS_11__hash_nodeIS8_S4_EENS_22__hash_node_destructorINSH_ISU_EEEEEEmOT_DpOT0_, symObjAddr: 0x476A4, symBinAddr: 0x10004A078, symSize: 0x948 }
  - { offsetInCU: 0x21BFE, offset: 0x21BFE, size: 0x8, addend: 0x0, symName: __ZNSt3__112__hash_tableINS_17__hash_value_typeIlNS_23__forward_list_iteratorIPNS_19__forward_list_nodeIlPvEEEEEENS_22__unordered_map_hasherIlS8_NS_4hashIlEENS_8equal_toIlEELb1EEENS_21__unordered_map_equalIlS8_SD_SB_Lb1EEENS_9allocatorIS8_EEE4sizeB8ue170006Ev, symObjAddr: 0x47FEC, symBinAddr: 0x10004A9C0, symSize: 0x100 }
  - { offsetInCU: 0x21C24, offset: 0x21C24, size: 0x8, addend: 0x0, symName: __ZNSt3__112__hash_tableINS_17__hash_value_typeIlNS_23__forward_list_iteratorIPNS_19__forward_list_nodeIlPvEEEEEENS_22__unordered_map_hasherIlS8_NS_4hashIlEENS_8equal_toIlEELb1EEENS_21__unordered_map_equalIlS8_SD_SB_Lb1EEENS_9allocatorIS8_EEE15max_load_factorB8ue170006Ev, symObjAddr: 0x480EC, symBinAddr: 0x10004AAC0, symSize: 0x100 }
  - { offsetInCU: 0x21C4A, offset: 0x21C4A, size: 0x8, addend: 0x0, symName: __ZNSt3__112__hash_tableINS_17__hash_value_typeIlNS_23__forward_list_iteratorIPNS_19__forward_list_nodeIlPvEEEEEENS_22__unordered_map_hasherIlS8_NS_4hashIlEENS_8equal_toIlEELb1EEENS_21__unordered_map_equalIlS8_SD_SB_Lb1EEENS_9allocatorIS8_EEE15__rehash_uniqueB8ue170006Em, symObjAddr: 0x481EC, symBinAddr: 0x10004ABC0, symSize: 0x74 }
  - { offsetInCU: 0x21C7F, offset: 0x21C7F, size: 0x8, addend: 0x0, symName: __ZNSt3__117__compressed_pairINS_16__hash_node_baseIPNS_11__hash_nodeINS_17__hash_value_typeIlNS_23__forward_list_iteratorIPNS_19__forward_list_nodeIlPvEEEEEES6_EEEENS_9allocatorISB_EEE5firstB8ue170006Ev, symObjAddr: 0x48260, symBinAddr: 0x10004AC34, symSize: 0x124 }
  - { offsetInCU: 0x21CA5, offset: 0x21CA5, size: 0x8, addend: 0x0, symName: __ZNSt3__116__hash_node_baseIPNS_11__hash_nodeINS_17__hash_value_typeIlNS_23__forward_list_iteratorIPNS_19__forward_list_nodeIlPvEEEEEES5_EEE5__ptrB8ue170006Ev, symObjAddr: 0x48384, symBinAddr: 0x10004AD58, symSize: 0xB0 }
  - { offsetInCU: 0x21CCB, offset: 0x21CCB, size: 0x8, addend: 0x0, symName: __ZNKSt3__110unique_ptrINS_11__hash_nodeINS_17__hash_value_typeIlNS_23__forward_list_iteratorIPNS_19__forward_list_nodeIlPvEEEEEES5_EENS_22__hash_node_destructorINS_9allocatorISA_EEEEEptB8ue170006Ev, symObjAddr: 0x48434, symBinAddr: 0x10004AE08, symSize: 0x13C }
  - { offsetInCU: 0x21CF1, offset: 0x21CF1, size: 0x8, addend: 0x0, symName: __ZNKSt3__110unique_ptrINS_11__hash_nodeINS_17__hash_value_typeIlNS_23__forward_list_iteratorIPNS_19__forward_list_nodeIlPvEEEEEES5_EENS_22__hash_node_destructorINS_9allocatorISA_EEEEE3getB8ue170006Ev, symObjAddr: 0x48570, symBinAddr: 0x10004AF44, symSize: 0x13C }
  - { offsetInCU: 0x21D17, offset: 0x21D17, size: 0x8, addend: 0x0, symName: __ZNSt3__110unique_ptrINS_11__hash_nodeINS_17__hash_value_typeIlNS_23__forward_list_iteratorIPNS_19__forward_list_nodeIlPvEEEEEES5_EENS_22__hash_node_destructorINS_9allocatorISA_EEEEE7releaseB8ue170006Ev, symObjAddr: 0x486AC, symBinAddr: 0x10004B080, symSize: 0x20C }
  - { offsetInCU: 0x21D4C, offset: 0x21D4C, size: 0x8, addend: 0x0, symName: __ZNSt3__110unique_ptrINS_11__hash_nodeINS_17__hash_value_typeIlNS_23__forward_list_iteratorIPNS_19__forward_list_nodeIlPvEEEEEES5_EENS_22__hash_node_destructorINS_9allocatorISA_EEEEED1B8ue170006Ev, symObjAddr: 0x488B8, symBinAddr: 0x10004B28C, symSize: 0x78 }
  - { offsetInCU: 0x21D76, offset: 0x21D76, size: 0x8, addend: 0x0, symName: __ZNSt3__115__hash_iteratorIPNS_11__hash_nodeINS_17__hash_value_typeIlNS_23__forward_list_iteratorIPNS_19__forward_list_nodeIlPvEEEEEES5_EEEC1B8ue170006EPNS_16__hash_node_baseISB_EE, symObjAddr: 0x48930, symBinAddr: 0x10004B304, symSize: 0x80 }
  - { offsetInCU: 0x21DB4, offset: 0x21DB4, size: 0x8, addend: 0x0, symName: __ZNSt3__14pairINS_15__hash_iteratorIPNS_11__hash_nodeINS_17__hash_value_typeIlNS_23__forward_list_iteratorIPNS_19__forward_list_nodeIlPvEEEEEES6_EEEEbEC1B8ue170006ISD_RbLS6_0EEEOT_OT0_, symObjAddr: 0x489B0, symBinAddr: 0x10004B384, symSize: 0x88 }
  - { offsetInCU: 0x21E12, offset: 0x21E12, size: 0x8, addend: 0x0, symName: __ZNSt3__117__compressed_pairImNS_22__unordered_map_hasherIlNS_17__hash_value_typeIlNS_23__forward_list_iteratorIPNS_19__forward_list_nodeIlPvEEEEEENS_4hashIlEENS_8equal_toIlEELb1EEEE6secondB8ue170006Ev, symObjAddr: 0x48A38, symBinAddr: 0x10004B40C, symSize: 0x108 }
  - { offsetInCU: 0x21E38, offset: 0x21E38, size: 0x8, addend: 0x0, symName: __ZNSt3__122__compressed_pair_elemINS_22__unordered_map_hasherIlNS_17__hash_value_typeIlNS_23__forward_list_iteratorIPNS_19__forward_list_nodeIlPvEEEEEENS_4hashIlEENS_8equal_toIlEELb1EEELi1ELb1EE5__getB8ue170006Ev, symObjAddr: 0x48B40, symBinAddr: 0x10004B514, symSize: 0x74 }
  - { offsetInCU: 0x21E5E, offset: 0x21E5E, size: 0x8, addend: 0x0, symName: __ZNKSt3__110unique_ptrIA_PNS_16__hash_node_baseIPNS_11__hash_nodeINS_17__hash_value_typeIlNS_23__forward_list_iteratorIPNS_19__forward_list_nodeIlPvEEEEEES6_EEEENS_25__bucket_list_deallocatorINS_9allocatorISE_EEEEE11get_deleterB8ue170006Ev, symObjAddr: 0x48BB4, symBinAddr: 0x10004B588, symSize: 0xF8 }
  - { offsetInCU: 0x21E84, offset: 0x21E84, size: 0x8, addend: 0x0, symName: __ZNKSt3__125__bucket_list_deallocatorINS_9allocatorIPNS_16__hash_node_baseIPNS_11__hash_nodeINS_17__hash_value_typeIlNS_23__forward_list_iteratorIPNS_19__forward_list_nodeIlPvEEEEEES7_EEEEEEE4sizeB8ue170006Ev, symObjAddr: 0x48CAC, symBinAddr: 0x10004B680, symSize: 0x13C }
  - { offsetInCU: 0x21EAA, offset: 0x21EAA, size: 0x8, addend: 0x0, symName: __ZNKSt3__117__compressed_pairIPPNS_16__hash_node_baseIPNS_11__hash_nodeINS_17__hash_value_typeIlNS_23__forward_list_iteratorIPNS_19__forward_list_nodeIlPvEEEEEES6_EEEENS_25__bucket_list_deallocatorINS_9allocatorISE_EEEEE6secondB8ue170006Ev, symObjAddr: 0x48DE8, symBinAddr: 0x10004B7BC, symSize: 0x12C }
  - { offsetInCU: 0x21ED0, offset: 0x21ED0, size: 0x8, addend: 0x0, symName: __ZNKSt3__122__compressed_pair_elemINS_25__bucket_list_deallocatorINS_9allocatorIPNS_16__hash_node_baseIPNS_11__hash_nodeINS_17__hash_value_typeIlNS_23__forward_list_iteratorIPNS_19__forward_list_nodeIlPvEEEEEES8_EEEEEEEELi1ELb0EE5__getB8ue170006Ev, symObjAddr: 0x48F14, symBinAddr: 0x10004B8E8, symSize: 0xAC }
  - { offsetInCU: 0x21EF6, offset: 0x21EF6, size: 0x8, addend: 0x0, symName: __ZNKSt3__117__compressed_pairImNS_9allocatorIPNS_16__hash_node_baseIPNS_11__hash_nodeINS_17__hash_value_typeIlNS_23__forward_list_iteratorIPNS_19__forward_list_nodeIlPvEEEEEES7_EEEEEEE5firstB8ue170006Ev, symObjAddr: 0x48FC0, symBinAddr: 0x10004B994, symSize: 0x124 }
  - { offsetInCU: 0x21F1C, offset: 0x21F1C, size: 0x8, addend: 0x0, symName: __ZNKSt3__117__compressed_pairIPPNS_16__hash_node_baseIPNS_11__hash_nodeINS_17__hash_value_typeIlNS_23__forward_list_iteratorIPNS_19__forward_list_nodeIlPvEEEEEES6_EEEENS_25__bucket_list_deallocatorINS_9allocatorISE_EEEEE5firstB8ue170006Ev, symObjAddr: 0x490E4, symBinAddr: 0x10004BAB8, symSize: 0x124 }
  - { offsetInCU: 0x21F42, offset: 0x21F42, size: 0x8, addend: 0x0, symName: __ZNKSt3__122__compressed_pair_elemIPPNS_16__hash_node_baseIPNS_11__hash_nodeINS_17__hash_value_typeIlNS_23__forward_list_iteratorIPNS_19__forward_list_nodeIlPvEEEEEES6_EEEELi0ELb0EE5__getB8ue170006Ev, symObjAddr: 0x49208, symBinAddr: 0x10004BBDC, symSize: 0xAC }
  - { offsetInCU: 0x21F68, offset: 0x21F68, size: 0x8, addend: 0x0, symName: __ZNSt3__117__compressed_pairIfNS_21__unordered_map_equalIlNS_17__hash_value_typeIlNS_23__forward_list_iteratorIPNS_19__forward_list_nodeIlPvEEEEEENS_8equal_toIlEENS_4hashIlEELb1EEEE6secondB8ue170006Ev, symObjAddr: 0x492B4, symBinAddr: 0x10004BC88, symSize: 0x108 }
  - { offsetInCU: 0x21F8E, offset: 0x21F8E, size: 0x8, addend: 0x0, symName: __ZNSt3__122__compressed_pair_elemINS_21__unordered_map_equalIlNS_17__hash_value_typeIlNS_23__forward_list_iteratorIPNS_19__forward_list_nodeIlPvEEEEEENS_8equal_toIlEENS_4hashIlEELb1EEELi1ELb1EE5__getB8ue170006Ev, symObjAddr: 0x493BC, symBinAddr: 0x10004BD90, symSize: 0x74 }
  - { offsetInCU: 0x21FB4, offset: 0x21FB4, size: 0x8, addend: 0x0, symName: __ZNKSt3__117__hash_value_typeIlNS_23__forward_list_iteratorIPNS_19__forward_list_nodeIlPvEEEEE11__get_valueB8ue170006Ev, symObjAddr: 0x49430, symBinAddr: 0x10004BE04, symSize: 0xB4 }
  - { offsetInCU: 0x21FDA, offset: 0x21FDA, size: 0x8, addend: 0x0, symName: __ZNSt3__114pointer_traitsIPNS_16__hash_node_baseIPNS_11__hash_nodeINS_17__hash_value_typeIlNS_23__forward_list_iteratorIPNS_19__forward_list_nodeIlPvEEEEEES6_EEEEE10pointer_toB8ue170006ERSD_, symObjAddr: 0x4951C, symBinAddr: 0x10004BEF0, symSize: 0x14 }
  - { offsetInCU: 0x21FFD, offset: 0x21FFD, size: 0x8, addend: 0x0, symName: __ZNSt3__112__hash_tableINS_17__hash_value_typeIlNS_23__forward_list_iteratorIPNS_19__forward_list_nodeIlPvEEEEEENS_22__unordered_map_hasherIlS8_NS_4hashIlEENS_8equal_toIlEELb1EEENS_21__unordered_map_equalIlS8_SD_SB_Lb1EEENS_9allocatorIS8_EEE12__node_allocB8ue170006Ev, symObjAddr: 0x49530, symBinAddr: 0x10004BF04, symSize: 0xE4 }
  - { offsetInCU: 0x22023, offset: 0x22023, size: 0x8, addend: 0x0, symName: __ZNSt3__116allocator_traitsINS_9allocatorINS_11__hash_nodeINS_17__hash_value_typeIlNS_23__forward_list_iteratorIPNS_19__forward_list_nodeIlPvEEEEEES6_EEEEE8allocateB8ue170006ERSC_m, symObjAddr: 0x49614, symBinAddr: 0x10004BFE8, symSize: 0x2C }
  - { offsetInCU: 0x22056, offset: 0x22056, size: 0x8, addend: 0x0, symName: __ZNSt3__122__hash_node_destructorINS_9allocatorINS_11__hash_nodeINS_17__hash_value_typeIlNS_23__forward_list_iteratorIPNS_19__forward_list_nodeIlPvEEEEEES6_EEEEEC1B8ue170006ERSC_b, symObjAddr: 0x49640, symBinAddr: 0x10004C014, symSize: 0xCC }
  - { offsetInCU: 0x220A3, offset: 0x220A3, size: 0x8, addend: 0x0, symName: __ZNSt3__110unique_ptrINS_11__hash_nodeINS_17__hash_value_typeIlNS_23__forward_list_iteratorIPNS_19__forward_list_nodeIlPvEEEEEES5_EENS_22__hash_node_destructorINS_9allocatorISA_EEEEEC1B8ue170006ILb1EvEEPSA_NS_16__dependent_typeINS_27__unique_ptr_deleter_sfinaeISE_EEXT_EE20__good_rval_ref_typeE, symObjAddr: 0x4970C, symBinAddr: 0x10004C0E0, symSize: 0x88 }
  - { offsetInCU: 0x220F4, offset: 0x220F4, size: 0x8, addend: 0x0, symName: __ZNSt3__116allocator_traitsINS_9allocatorINS_11__hash_nodeINS_17__hash_value_typeIlNS_23__forward_list_iteratorIPNS_19__forward_list_nodeIlPvEEEEEES6_EEEEE9constructB8ue170006INS_4pairIKlS9_EEJRKNS_21piecewise_construct_tENS_5tupleIJOlEEENSL_IJEEEEvvEEvRSC_PT_DpOT0_, symObjAddr: 0x49794, symBinAddr: 0x10004C168, symSize: 0xE8 }
  - { offsetInCU: 0x22170, offset: 0x22170, size: 0x8, addend: 0x0, symName: __ZNSt3__122__hash_key_value_typesINS_17__hash_value_typeIlNS_23__forward_list_iteratorIPNS_19__forward_list_nodeIlPvEEEEEEE9__get_ptrB8ue170006ERS8_, symObjAddr: 0x4987C, symBinAddr: 0x10004C250, symSize: 0x50 }
  - { offsetInCU: 0x22193, offset: 0x22193, size: 0x8, addend: 0x0, symName: __ZNSt3__110unique_ptrINS_11__hash_nodeINS_17__hash_value_typeIlNS_23__forward_list_iteratorIPNS_19__forward_list_nodeIlPvEEEEEES5_EENS_22__hash_node_destructorINS_9allocatorISA_EEEEE11get_deleterB8ue170006Ev, symObjAddr: 0x498CC, symBinAddr: 0x10004C2A0, symSize: 0xF8 }
  - { offsetInCU: 0x221B9, offset: 0x221B9, size: 0x8, addend: 0x0, symName: __ZNSt3__117__compressed_pairINS_16__hash_node_baseIPNS_11__hash_nodeINS_17__hash_value_typeIlNS_23__forward_list_iteratorIPNS_19__forward_list_nodeIlPvEEEEEES6_EEEENS_9allocatorISB_EEE6secondB8ue170006Ev, symObjAddr: 0x499C4, symBinAddr: 0x10004C398, symSize: 0x108 }
  - { offsetInCU: 0x221DF, offset: 0x221DF, size: 0x8, addend: 0x0, symName: __ZNSt3__122__compressed_pair_elemINS_9allocatorINS_11__hash_nodeINS_17__hash_value_typeIlNS_23__forward_list_iteratorIPNS_19__forward_list_nodeIlPvEEEEEES6_EEEELi1ELb1EE5__getB8ue170006Ev, symObjAddr: 0x49ACC, symBinAddr: 0x10004C4A0, symSize: 0x74 }
  - { offsetInCU: 0x22205, offset: 0x22205, size: 0x8, addend: 0x0, symName: __ZNSt3__19allocatorINS_11__hash_nodeINS_17__hash_value_typeIlNS_23__forward_list_iteratorIPNS_19__forward_list_nodeIlPvEEEEEES5_EEE8allocateB8ue170006Em, symObjAddr: 0x49B40, symBinAddr: 0x10004C514, symSize: 0xCC }
  - { offsetInCU: 0x22243, offset: 0x22243, size: 0x8, addend: 0x0, symName: __ZNSt3__116allocator_traitsINS_9allocatorINS_11__hash_nodeINS_17__hash_value_typeIlNS_23__forward_list_iteratorIPNS_19__forward_list_nodeIlPvEEEEEES6_EEEEE8max_sizeB8ue170006ISC_vvEEmRKSC_, symObjAddr: 0x49C0C, symBinAddr: 0x10004C5E0, symSize: 0x54 }
  - { offsetInCU: 0x2226E, offset: 0x2226E, size: 0x8, addend: 0x0, symName: __ZNSt3__122__hash_node_destructorINS_9allocatorINS_11__hash_nodeINS_17__hash_value_typeIlNS_23__forward_list_iteratorIPNS_19__forward_list_nodeIlPvEEEEEES6_EEEEEC2B8ue170006ERSC_b, symObjAddr: 0x49C60, symBinAddr: 0x10004C634, symSize: 0x1A0 }
  - { offsetInCU: 0x222B6, offset: 0x222B6, size: 0x8, addend: 0x0, symName: __ZNSt3__110unique_ptrINS_11__hash_nodeINS_17__hash_value_typeIlNS_23__forward_list_iteratorIPNS_19__forward_list_nodeIlPvEEEEEES5_EENS_22__hash_node_destructorINS_9allocatorISA_EEEEEC2B8ue170006ILb1EvEEPSA_NS_16__dependent_typeINS_27__unique_ptr_deleter_sfinaeISE_EEXT_EE20__good_rval_ref_typeE, symObjAddr: 0x49E00, symBinAddr: 0x10004C7D4, symSize: 0x2BC }
  - { offsetInCU: 0x2230D, offset: 0x2230D, size: 0x8, addend: 0x0, symName: __ZNSt3__117__compressed_pairIPNS_11__hash_nodeINS_17__hash_value_typeIlNS_23__forward_list_iteratorIPNS_19__forward_list_nodeIlPvEEEEEES5_EENS_22__hash_node_destructorINS_9allocatorISA_EEEEEC1B8ue170006IRSB_SF_EEOT_OT0_, symObjAddr: 0x4A0BC, symBinAddr: 0x10004CA90, symSize: 0x88 }
  - { offsetInCU: 0x22365, offset: 0x22365, size: 0x8, addend: 0x0, symName: __ZNSt3__117__compressed_pairIPNS_11__hash_nodeINS_17__hash_value_typeIlNS_23__forward_list_iteratorIPNS_19__forward_list_nodeIlPvEEEEEES5_EENS_22__hash_node_destructorINS_9allocatorISA_EEEEEC2B8ue170006IRSB_SF_EEOT_OT0_, symObjAddr: 0x4A144, symBinAddr: 0x10004CB18, symSize: 0x1B4 }
  - { offsetInCU: 0x223BD, offset: 0x223BD, size: 0x8, addend: 0x0, symName: __ZNSt3__122__compressed_pair_elemIPNS_11__hash_nodeINS_17__hash_value_typeIlNS_23__forward_list_iteratorIPNS_19__forward_list_nodeIlPvEEEEEES5_EELi0ELb0EEC2B8ue170006IRSB_vEEOT_, symObjAddr: 0x4A2F8, symBinAddr: 0x10004CCCC, symSize: 0x144 }
  - { offsetInCU: 0x223FF, offset: 0x223FF, size: 0x8, addend: 0x0, symName: __ZNSt3__122__compressed_pair_elemINS_22__hash_node_destructorINS_9allocatorINS_11__hash_nodeINS_17__hash_value_typeIlNS_23__forward_list_iteratorIPNS_19__forward_list_nodeIlPvEEEEEES7_EEEEEELi1ELb0EEC2B8ue170006ISE_vEEOT_, symObjAddr: 0x4A43C, symBinAddr: 0x10004CE10, symSize: 0x84 }
  - { offsetInCU: 0x22441, offset: 0x22441, size: 0x8, addend: 0x0, symName: __ZNSt3__14pairIKlNS_23__forward_list_iteratorIPNS_19__forward_list_nodeIlPvEEEEEC1B8ue170006IJOlEJEEENS_21piecewise_construct_tENS_5tupleIJDpT_EEENSC_IJDpT0_EEE, symObjAddr: 0x4A768, symBinAddr: 0x10004D13C, symSize: 0x2A0 }
  - { offsetInCU: 0x224B2, offset: 0x224B2, size: 0x8, addend: 0x0, symName: __ZNSt3__14pairIKlNS_23__forward_list_iteratorIPNS_19__forward_list_nodeIlPvEEEEEC1B8ue170006IJOlEJEJLm0EEJEEENS_21piecewise_construct_tERNS_5tupleIJDpT_EEERNSC_IJDpT0_EEENS_15__tuple_indicesIJXspT1_EEEENSL_IJXspT2_EEEE, symObjAddr: 0x4AA08, symBinAddr: 0x10004D3DC, symSize: 0x88 }
  - { offsetInCU: 0x2253F, offset: 0x2253F, size: 0x8, addend: 0x0, symName: __ZNSt3__14pairIKlNS_23__forward_list_iteratorIPNS_19__forward_list_nodeIlPvEEEEEC2B8ue170006IJOlEJEJLm0EEJEEENS_21piecewise_construct_tERNS_5tupleIJDpT_EEERNSC_IJDpT0_EEENS_15__tuple_indicesIJXspT1_EEEENSL_IJXspT2_EEEE, symObjAddr: 0x4AA90, symBinAddr: 0x10004D464, symSize: 0x19C }
  - { offsetInCU: 0x225CC, offset: 0x225CC, size: 0x8, addend: 0x0, symName: __ZNSt3__123__forward_list_iteratorIPNS_19__forward_list_nodeIlPvEEEC1B8ue170006Ev, symObjAddr: 0x4AC2C, symBinAddr: 0x10004D600, symSize: 0x78 }
  - { offsetInCU: 0x225F6, offset: 0x225F6, size: 0x8, addend: 0x0, symName: __ZNSt3__123__forward_list_iteratorIPNS_19__forward_list_nodeIlPvEEEC2B8ue170006Ev, symObjAddr: 0x4ACA4, symBinAddr: 0x10004D678, symSize: 0xB8 }
  - { offsetInCU: 0x22620, offset: 0x22620, size: 0x8, addend: 0x0, symName: __ZNSt3__117__compressed_pairIPNS_11__hash_nodeINS_17__hash_value_typeIlNS_23__forward_list_iteratorIPNS_19__forward_list_nodeIlPvEEEEEES5_EENS_22__hash_node_destructorINS_9allocatorISA_EEEEE6secondB8ue170006Ev, symObjAddr: 0x4AD5C, symBinAddr: 0x10004D730, symSize: 0x12C }
  - { offsetInCU: 0x22646, offset: 0x22646, size: 0x8, addend: 0x0, symName: __ZNSt3__122__compressed_pair_elemINS_22__hash_node_destructorINS_9allocatorINS_11__hash_nodeINS_17__hash_value_typeIlNS_23__forward_list_iteratorIPNS_19__forward_list_nodeIlPvEEEEEES7_EEEEEELi1ELb0EE5__getB8ue170006Ev, symObjAddr: 0x4AE88, symBinAddr: 0x10004D85C, symSize: 0xAC }
  - { offsetInCU: 0x2266C, offset: 0x2266C, size: 0x8, addend: 0x0, symName: __ZNSt3__117__compressed_pairImNS_22__unordered_map_hasherIlNS_17__hash_value_typeIlNS_23__forward_list_iteratorIPNS_19__forward_list_nodeIlPvEEEEEENS_4hashIlEENS_8equal_toIlEELb1EEEE5firstB8ue170006Ev, symObjAddr: 0x4AF34, symBinAddr: 0x10004D908, symSize: 0x124 }
  - { offsetInCU: 0x22692, offset: 0x22692, size: 0x8, addend: 0x0, symName: __ZNSt3__117__compressed_pairIfNS_21__unordered_map_equalIlNS_17__hash_value_typeIlNS_23__forward_list_iteratorIPNS_19__forward_list_nodeIlPvEEEEEENS_8equal_toIlEENS_4hashIlEELb1EEEE5firstB8ue170006Ev, symObjAddr: 0x4B058, symBinAddr: 0x10004DA2C, symSize: 0x124 }
  - { offsetInCU: 0x226B8, offset: 0x226B8, size: 0x8, addend: 0x0, symName: __ZNSt3__112__hash_tableINS_17__hash_value_typeIlNS_23__forward_list_iteratorIPNS_19__forward_list_nodeIlPvEEEEEENS_22__unordered_map_hasherIlS8_NS_4hashIlEENS_8equal_toIlEELb1EEENS_21__unordered_map_equalIlS8_SD_SB_Lb1EEENS_9allocatorIS8_EEE8__rehashILb1EEEvm, symObjAddr: 0x4B17C, symBinAddr: 0x10004DB50, symSize: 0x9CC }
  - { offsetInCU: 0x2270E, offset: 0x2270E, size: 0x8, addend: 0x0, symName: __ZNSt3__112__hash_tableINS_17__hash_value_typeIlNS_23__forward_list_iteratorIPNS_19__forward_list_nodeIlPvEEEEEENS_22__unordered_map_hasherIlS8_NS_4hashIlEENS_8equal_toIlEELb1EEENS_21__unordered_map_equalIlS8_SD_SB_Lb1EEENS_9allocatorIS8_EEE11__do_rehashILb1EEEvm, symObjAddr: 0x4BB48, symBinAddr: 0x10004E51C, symSize: 0x1084 }
  - { offsetInCU: 0x227F3, offset: 0x227F3, size: 0x8, addend: 0x0, symName: __ZNSt3__110unique_ptrIA_PNS_16__hash_node_baseIPNS_11__hash_nodeINS_17__hash_value_typeIlNS_23__forward_list_iteratorIPNS_19__forward_list_nodeIlPvEEEEEES6_EEEENS_25__bucket_list_deallocatorINS_9allocatorISE_EEEEE11get_deleterB8ue170006Ev, symObjAddr: 0x4CBCC, symBinAddr: 0x10004F5A0, symSize: 0xF8 }
  - { offsetInCU: 0x22819, offset: 0x22819, size: 0x8, addend: 0x0, symName: __ZNSt3__125__bucket_list_deallocatorINS_9allocatorIPNS_16__hash_node_baseIPNS_11__hash_nodeINS_17__hash_value_typeIlNS_23__forward_list_iteratorIPNS_19__forward_list_nodeIlPvEEEEEES7_EEEEEEE7__allocB8ue170006Ev, symObjAddr: 0x4CCC4, symBinAddr: 0x10004F698, symSize: 0xDC }
  - { offsetInCU: 0x2283F, offset: 0x2283F, size: 0x8, addend: 0x0, symName: __ZNSt3__110unique_ptrIA_PNS_16__hash_node_baseIPNS_11__hash_nodeINS_17__hash_value_typeIlNS_23__forward_list_iteratorIPNS_19__forward_list_nodeIlPvEEEEEES6_EEEENS_25__bucket_list_deallocatorINS_9allocatorISE_EEEEE5resetB8ue170006IPSE_EENS_9enable_ifIXsr28_CheckArrayPointerConversionIT_EE5valueEvE4typeESO_, symObjAddr: 0x4CDA0, symBinAddr: 0x10004F774, symSize: 0x2CC }
  - { offsetInCU: 0x2288C, offset: 0x2288C, size: 0x8, addend: 0x0, symName: __ZNSt3__116allocator_traitsINS_9allocatorIPNS_16__hash_node_baseIPNS_11__hash_nodeINS_17__hash_value_typeIlNS_23__forward_list_iteratorIPNS_19__forward_list_nodeIlPvEEEEEES7_EEEEEEE8allocateB8ue170006ERSG_m, symObjAddr: 0x4D06C, symBinAddr: 0x10004FA40, symSize: 0x2C }
  - { offsetInCU: 0x228BF, offset: 0x228BF, size: 0x8, addend: 0x0, symName: __ZNSt3__125__bucket_list_deallocatorINS_9allocatorIPNS_16__hash_node_baseIPNS_11__hash_nodeINS_17__hash_value_typeIlNS_23__forward_list_iteratorIPNS_19__forward_list_nodeIlPvEEEEEES7_EEEEEEE4sizeB8ue170006Ev, symObjAddr: 0x4D098, symBinAddr: 0x10004FA6C, symSize: 0xF8 }
  - { offsetInCU: 0x228E5, offset: 0x228E5, size: 0x8, addend: 0x0, symName: __ZNSt3__117__compressed_pairIPPNS_16__hash_node_baseIPNS_11__hash_nodeINS_17__hash_value_typeIlNS_23__forward_list_iteratorIPNS_19__forward_list_nodeIlPvEEEEEES6_EEEENS_25__bucket_list_deallocatorINS_9allocatorISE_EEEEE6secondB8ue170006Ev, symObjAddr: 0x4D190, symBinAddr: 0x10004FB64, symSize: 0x12C }
  - { offsetInCU: 0x2290B, offset: 0x2290B, size: 0x8, addend: 0x0, symName: __ZNSt3__122__compressed_pair_elemINS_25__bucket_list_deallocatorINS_9allocatorIPNS_16__hash_node_baseIPNS_11__hash_nodeINS_17__hash_value_typeIlNS_23__forward_list_iteratorIPNS_19__forward_list_nodeIlPvEEEEEES8_EEEEEEEELi1ELb0EE5__getB8ue170006Ev, symObjAddr: 0x4D2BC, symBinAddr: 0x10004FC90, symSize: 0xAC }
  - { offsetInCU: 0x22931, offset: 0x22931, size: 0x8, addend: 0x0, symName: __ZNSt3__117__compressed_pairImNS_9allocatorIPNS_16__hash_node_baseIPNS_11__hash_nodeINS_17__hash_value_typeIlNS_23__forward_list_iteratorIPNS_19__forward_list_nodeIlPvEEEEEES7_EEEEEEE6secondB8ue170006Ev, symObjAddr: 0x4D368, symBinAddr: 0x10004FD3C, symSize: 0x108 }
  - { offsetInCU: 0x22957, offset: 0x22957, size: 0x8, addend: 0x0, symName: __ZNSt3__122__compressed_pair_elemINS_9allocatorIPNS_16__hash_node_baseIPNS_11__hash_nodeINS_17__hash_value_typeIlNS_23__forward_list_iteratorIPNS_19__forward_list_nodeIlPvEEEEEES7_EEEEEELi1ELb1EE5__getB8ue170006Ev, symObjAddr: 0x4D470, symBinAddr: 0x10004FE44, symSize: 0x74 }
  - { offsetInCU: 0x2297D, offset: 0x2297D, size: 0x8, addend: 0x0, symName: __ZNSt3__117__compressed_pairIPPNS_16__hash_node_baseIPNS_11__hash_nodeINS_17__hash_value_typeIlNS_23__forward_list_iteratorIPNS_19__forward_list_nodeIlPvEEEEEES6_EEEENS_25__bucket_list_deallocatorINS_9allocatorISE_EEEEE5firstB8ue170006Ev, symObjAddr: 0x4D4E4, symBinAddr: 0x10004FEB8, symSize: 0x124 }
  - { offsetInCU: 0x229A3, offset: 0x229A3, size: 0x8, addend: 0x0, symName: __ZNSt3__125__bucket_list_deallocatorINS_9allocatorIPNS_16__hash_node_baseIPNS_11__hash_nodeINS_17__hash_value_typeIlNS_23__forward_list_iteratorIPNS_19__forward_list_nodeIlPvEEEEEES7_EEEEEEEclB8ue170006EPSF_, symObjAddr: 0x4D608, symBinAddr: 0x10004FFDC, symSize: 0x140 }
  - { offsetInCU: 0x229D8, offset: 0x229D8, size: 0x8, addend: 0x0, symName: __ZNSt3__122__compressed_pair_elemIPPNS_16__hash_node_baseIPNS_11__hash_nodeINS_17__hash_value_typeIlNS_23__forward_list_iteratorIPNS_19__forward_list_nodeIlPvEEEEEES6_EEEELi0ELb0EE5__getB8ue170006Ev, symObjAddr: 0x4D748, symBinAddr: 0x10005011C, symSize: 0xAC }
  - { offsetInCU: 0x229FE, offset: 0x229FE, size: 0x8, addend: 0x0, symName: __ZNSt3__116allocator_traitsINS_9allocatorIPNS_16__hash_node_baseIPNS_11__hash_nodeINS_17__hash_value_typeIlNS_23__forward_list_iteratorIPNS_19__forward_list_nodeIlPvEEEEEES7_EEEEEEE10deallocateB8ue170006ERSG_PSF_m, symObjAddr: 0x4D7F4, symBinAddr: 0x1000501C8, symSize: 0x34 }
  - { offsetInCU: 0x22A40, offset: 0x22A40, size: 0x8, addend: 0x0, symName: __ZNSt3__19allocatorIPNS_16__hash_node_baseIPNS_11__hash_nodeINS_17__hash_value_typeIlNS_23__forward_list_iteratorIPNS_19__forward_list_nodeIlPvEEEEEES6_EEEEE10deallocateB8ue170006EPSE_m, symObjAddr: 0x4D828, symBinAddr: 0x1000501FC, symSize: 0x78 }
  - { offsetInCU: 0x22A82, offset: 0x22A82, size: 0x8, addend: 0x0, symName: __ZNSt3__19allocatorIPNS_16__hash_node_baseIPNS_11__hash_nodeINS_17__hash_value_typeIlNS_23__forward_list_iteratorIPNS_19__forward_list_nodeIlPvEEEEEES6_EEEEE8allocateB8ue170006Em, symObjAddr: 0x4D8A0, symBinAddr: 0x100050274, symSize: 0xCC }
  - { offsetInCU: 0x22AC0, offset: 0x22AC0, size: 0x8, addend: 0x0, symName: __ZNSt3__116allocator_traitsINS_9allocatorIPNS_16__hash_node_baseIPNS_11__hash_nodeINS_17__hash_value_typeIlNS_23__forward_list_iteratorIPNS_19__forward_list_nodeIlPvEEEEEES7_EEEEEEE8max_sizeB8ue170006ISG_vvEEmRKSG_, symObjAddr: 0x4D96C, symBinAddr: 0x100050340, symSize: 0x54 }
  - { offsetInCU: 0x22AEB, offset: 0x22AEB, size: 0x8, addend: 0x0, symName: __ZNSt3__117__compressed_pairImNS_9allocatorIPNS_16__hash_node_baseIPNS_11__hash_nodeINS_17__hash_value_typeIlNS_23__forward_list_iteratorIPNS_19__forward_list_nodeIlPvEEEEEES7_EEEEEEE5firstB8ue170006Ev, symObjAddr: 0x4D9C0, symBinAddr: 0x100050394, symSize: 0x124 }
  - { offsetInCU: 0x22B11, offset: 0x22B11, size: 0x8, addend: 0x0, symName: __ZNSt3__122__compressed_pair_elemINS_16__hash_node_baseIPNS_11__hash_nodeINS_17__hash_value_typeIlNS_23__forward_list_iteratorIPNS_19__forward_list_nodeIlPvEEEEEES6_EEEELi0ELb0EE5__getB8ue170006Ev, symObjAddr: 0x4DAE4, symBinAddr: 0x1000504B8, symSize: 0xAC }
  - { offsetInCU: 0x22B37, offset: 0x22B37, size: 0x8, addend: 0x0, symName: __ZNKSt3__117__compressed_pairIPNS_11__hash_nodeINS_17__hash_value_typeIlNS_23__forward_list_iteratorIPNS_19__forward_list_nodeIlPvEEEEEES5_EENS_22__hash_node_destructorINS_9allocatorISA_EEEEE5firstB8ue170006Ev, symObjAddr: 0x4DB90, symBinAddr: 0x100050564, symSize: 0x124 }
  - { offsetInCU: 0x22B5D, offset: 0x22B5D, size: 0x8, addend: 0x0, symName: __ZNKSt3__122__compressed_pair_elemIPNS_11__hash_nodeINS_17__hash_value_typeIlNS_23__forward_list_iteratorIPNS_19__forward_list_nodeIlPvEEEEEES5_EELi0ELb0EE5__getB8ue170006Ev, symObjAddr: 0x4DCB4, symBinAddr: 0x100050688, symSize: 0xAC }
  - { offsetInCU: 0x22B83, offset: 0x22B83, size: 0x8, addend: 0x0, symName: __ZNSt3__117__compressed_pairIPNS_11__hash_nodeINS_17__hash_value_typeIlNS_23__forward_list_iteratorIPNS_19__forward_list_nodeIlPvEEEEEES5_EENS_22__hash_node_destructorINS_9allocatorISA_EEEEE5firstB8ue170006Ev, symObjAddr: 0x4DD60, symBinAddr: 0x100050734, symSize: 0x124 }
  - { offsetInCU: 0x22BA9, offset: 0x22BA9, size: 0x8, addend: 0x0, symName: __ZNSt3__122__compressed_pair_elemIPNS_11__hash_nodeINS_17__hash_value_typeIlNS_23__forward_list_iteratorIPNS_19__forward_list_nodeIlPvEEEEEES5_EELi0ELb0EE5__getB8ue170006Ev, symObjAddr: 0x4DE84, symBinAddr: 0x100050858, symSize: 0xAC }
  - { offsetInCU: 0x22BCF, offset: 0x22BCF, size: 0x8, addend: 0x0, symName: __ZNSt3__110unique_ptrINS_11__hash_nodeINS_17__hash_value_typeIlNS_23__forward_list_iteratorIPNS_19__forward_list_nodeIlPvEEEEEES5_EENS_22__hash_node_destructorINS_9allocatorISA_EEEEED2B8ue170006Ev, symObjAddr: 0x4DF30, symBinAddr: 0x100050904, symSize: 0x7C }
  - { offsetInCU: 0x22BF9, offset: 0x22BF9, size: 0x8, addend: 0x0, symName: __ZNSt3__110unique_ptrINS_11__hash_nodeINS_17__hash_value_typeIlNS_23__forward_list_iteratorIPNS_19__forward_list_nodeIlPvEEEEEES5_EENS_22__hash_node_destructorINS_9allocatorISA_EEEEE5resetB8ue170006EPSA_, symObjAddr: 0x4DFAC, symBinAddr: 0x100050980, symSize: 0x2CC }
  - { offsetInCU: 0x22C3D, offset: 0x22C3D, size: 0x8, addend: 0x0, symName: __ZNSt3__122__hash_node_destructorINS_9allocatorINS_11__hash_nodeINS_17__hash_value_typeIlNS_23__forward_list_iteratorIPNS_19__forward_list_nodeIlPvEEEEEES6_EEEEEclB8ue170006EPSB_, symObjAddr: 0x4E278, symBinAddr: 0x100050C4C, symSize: 0x2C0 }
  - { offsetInCU: 0x22C72, offset: 0x22C72, size: 0x8, addend: 0x0, symName: __ZNSt3__116allocator_traitsINS_9allocatorINS_11__hash_nodeINS_17__hash_value_typeIlNS_23__forward_list_iteratorIPNS_19__forward_list_nodeIlPvEEEEEES6_EEEEE7destroyB8ue170006INS_4pairIKlS9_EEvvEEvRSC_PT_, symObjAddr: 0x4E538, symBinAddr: 0x100050F0C, symSize: 0x28 }
  - { offsetInCU: 0x22CAC, offset: 0x22CAC, size: 0x8, addend: 0x0, symName: __ZNSt3__116allocator_traitsINS_9allocatorINS_11__hash_nodeINS_17__hash_value_typeIlNS_23__forward_list_iteratorIPNS_19__forward_list_nodeIlPvEEEEEES6_EEEEE10deallocateB8ue170006ERSC_PSB_m, symObjAddr: 0x4E560, symBinAddr: 0x100050F34, symSize: 0x34 }
  - { offsetInCU: 0x22CEE, offset: 0x22CEE, size: 0x8, addend: 0x0, symName: __ZNSt3__19allocatorINS_11__hash_nodeINS_17__hash_value_typeIlNS_23__forward_list_iteratorIPNS_19__forward_list_nodeIlPvEEEEEES5_EEE10deallocateB8ue170006EPSA_m, symObjAddr: 0x4E5C8, symBinAddr: 0x100050F9C, symSize: 0x78 }
  - { offsetInCU: 0x22D30, offset: 0x22D30, size: 0x8, addend: 0x0, symName: __ZNSt3__115__hash_iteratorIPNS_11__hash_nodeINS_17__hash_value_typeIlNS_23__forward_list_iteratorIPNS_19__forward_list_nodeIlPvEEEEEES5_EEEC2B8ue170006EPNS_16__hash_node_baseISB_EE, symObjAddr: 0x4E640, symBinAddr: 0x100051014, symSize: 0xC8 }
  - { offsetInCU: 0x22D69, offset: 0x22D69, size: 0x8, addend: 0x0, symName: __ZNSt3__14pairINS_15__hash_iteratorIPNS_11__hash_nodeINS_17__hash_value_typeIlNS_23__forward_list_iteratorIPNS_19__forward_list_nodeIlPvEEEEEES6_EEEEbEC2B8ue170006ISD_RbLS6_0EEEOT_OT0_, symObjAddr: 0x4E708, symBinAddr: 0x1000510DC, symSize: 0x1C8 }
  - { offsetInCU: 0x22DC7, offset: 0x22DC7, size: 0x8, addend: 0x0, symName: __ZNSt3__114pointer_traitsIPNS_17__hash_value_typeIlNS_23__forward_list_iteratorIPNS_19__forward_list_nodeIlPvEEEEEEE10pointer_toB8ue170006ERS8_, symObjAddr: 0x4E8D0, symBinAddr: 0x1000512A4, symSize: 0x14 }
  - { offsetInCU: 0x22DEA, offset: 0x22DEA, size: 0x8, addend: 0x0, symName: __ZNSt3__129__forward_list_const_iteratorIPNS_19__forward_list_nodeIlPvEEEC2B8ue170006ENS_23__forward_list_iteratorIS4_EE, symObjAddr: 0x4E91C, symBinAddr: 0x1000512F0, symSize: 0x2C4 }
  - { offsetInCU: 0x22E28, offset: 0x22E28, size: 0x8, addend: 0x0, symName: __ZNSt3__112__hash_tableINS_17__hash_value_typeIlNS_23__forward_list_iteratorIPNS_19__forward_list_nodeIlPvEEEEEENS_22__unordered_map_hasherIlS8_NS_4hashIlEENS_8equal_toIlEELb1EEENS_21__unordered_map_equalIlS8_SD_SB_Lb1EEENS_9allocatorIS8_EEE14__erase_uniqueIlEEmRKT_, symObjAddr: 0x4EBE0, symBinAddr: 0x1000515B4, symSize: 0x460 }
  - { offsetInCU: 0x22E7D, offset: 0x22E7D, size: 0x8, addend: 0x0, symName: __ZNSt3__112__hash_tableINS_17__hash_value_typeIlNS_23__forward_list_iteratorIPNS_19__forward_list_nodeIlPvEEEEEENS_22__unordered_map_hasherIlS8_NS_4hashIlEENS_8equal_toIlEELb1EEENS_21__unordered_map_equalIlS8_SD_SB_Lb1EEENS_9allocatorIS8_EEE4findIlEENS_15__hash_iteratorIPNS_11__hash_nodeIS8_S4_EEEERKT_, symObjAddr: 0x4F040, symBinAddr: 0x100051A14, symSize: 0x8E8 }
  - { offsetInCU: 0x22F06, offset: 0x22F06, size: 0x8, addend: 0x0, symName: __ZNSt3__112__hash_tableINS_17__hash_value_typeIlNS_23__forward_list_iteratorIPNS_19__forward_list_nodeIlPvEEEEEENS_22__unordered_map_hasherIlS8_NS_4hashIlEENS_8equal_toIlEELb1EEENS_21__unordered_map_equalIlS8_SD_SB_Lb1EEENS_9allocatorIS8_EEE3endEv, symObjAddr: 0x4FA3C, symBinAddr: 0x100052410, symSize: 0x240 }
  - { offsetInCU: 0x22F2F, offset: 0x22F2F, size: 0x8, addend: 0x0, symName: __ZNSt3__112__hash_tableINS_17__hash_value_typeIlNS_23__forward_list_iteratorIPNS_19__forward_list_nodeIlPvEEEEEENS_22__unordered_map_hasherIlS8_NS_4hashIlEENS_8equal_toIlEELb1EEENS_21__unordered_map_equalIlS8_SD_SB_Lb1EEENS_9allocatorIS8_EEE5eraseENS_21__hash_const_iteratorIPNS_11__hash_nodeIS8_S4_EEEE, symObjAddr: 0x4FC7C, symBinAddr: 0x100052650, symSize: 0x3BC }
  - { offsetInCU: 0x22F8E, offset: 0x22F8E, size: 0x8, addend: 0x0, symName: __ZNSt3__121__hash_const_iteratorIPNS_11__hash_nodeINS_17__hash_value_typeIlNS_23__forward_list_iteratorIPNS_19__forward_list_nodeIlPvEEEEEES5_EEEC1B8ue170006ERKNS_15__hash_iteratorISB_EE, symObjAddr: 0x50038, symBinAddr: 0x100052A0C, symSize: 0x80 }
  - { offsetInCU: 0x22FC7, offset: 0x22FC7, size: 0x8, addend: 0x0, symName: __ZNSt3__115__hash_iteratorIPNS_11__hash_nodeINS_17__hash_value_typeIlNS_23__forward_list_iteratorIPNS_19__forward_list_nodeIlPvEEEEEES5_EEEppB8ue170006Ev, symObjAddr: 0x500B8, symBinAddr: 0x100052A8C, symSize: 0x1F0 }
  - { offsetInCU: 0x22FED, offset: 0x22FED, size: 0x8, addend: 0x0, symName: __ZNSt3__112__hash_tableINS_17__hash_value_typeIlNS_23__forward_list_iteratorIPNS_19__forward_list_nodeIlPvEEEEEENS_22__unordered_map_hasherIlS8_NS_4hashIlEENS_8equal_toIlEELb1EEENS_21__unordered_map_equalIlS8_SD_SB_Lb1EEENS_9allocatorIS8_EEE6removeENS_21__hash_const_iteratorIPNS_11__hash_nodeIS8_S4_EEEE, symObjAddr: 0x502A8, symBinAddr: 0x100052C7C, symSize: 0x101C }
  - { offsetInCU: 0x23087, offset: 0x23087, size: 0x8, addend: 0x0, symName: __ZNSt3__121__hash_const_iteratorIPNS_11__hash_nodeINS_17__hash_value_typeIlNS_23__forward_list_iteratorIPNS_19__forward_list_nodeIlPvEEEEEES5_EEEC2B8ue170006ERKNS_15__hash_iteratorISB_EE, symObjAddr: 0x512C4, symBinAddr: 0x100053C98, symSize: 0x12C }
  - { offsetInCU: 0x230C0, offset: 0x230C0, size: 0x8, addend: 0x0, symName: __ZN5memdb8DbType_sINSt3__112basic_stringIcNS1_11char_traitsIcEENS1_9allocatorIcEEEEED2Ev, symObjAddr: 0x513F0, symBinAddr: 0x100053DC4, symSize: 0xEC }
  - { offsetInCU: 0x230EA, offset: 0x230EA, size: 0x8, addend: 0x0, symName: __ZNSt3__113unordered_mapIlNS_23__forward_list_iteratorIPNS_19__forward_list_nodeIlPvEEEENS_4hashIlEENS_8equal_toIlEENS_9allocatorINS_4pairIKlS6_EEEEED1B8ue170006Ev, symObjAddr: 0x514DC, symBinAddr: 0x100053EB0, symSize: 0x78 }
  - { offsetInCU: 0x23114, offset: 0x23114, size: 0x8, addend: 0x0, symName: __ZNSt3__112forward_listIlNS_9allocatorIlEEED1Ev, symObjAddr: 0x51554, symBinAddr: 0x100053F28, symSize: 0x78 }
  - { offsetInCU: 0x23141, offset: 0x23141, size: 0x8, addend: 0x0, symName: __ZNSt3__113unordered_mapIlNS_12basic_stringIcNS_11char_traitsIcEENS_9allocatorIcEEEENS_4hashIlEENS_8equal_toIlEENS4_INS_4pairIKlS6_EEEEED1B8ue170006Ev, symObjAddr: 0x515CC, symBinAddr: 0x100053FA0, symSize: 0x78 }
  - { offsetInCU: 0x2316B, offset: 0x2316B, size: 0x8, addend: 0x0, symName: __ZNSt3__113unordered_mapIlNS_23__forward_list_iteratorIPNS_19__forward_list_nodeIlPvEEEENS_4hashIlEENS_8equal_toIlEENS_9allocatorINS_4pairIKlS6_EEEEED2B8ue170006Ev, symObjAddr: 0x51644, symBinAddr: 0x100054018, symSize: 0x78 }
  - { offsetInCU: 0x23195, offset: 0x23195, size: 0x8, addend: 0x0, symName: __ZNSt3__112__hash_tableINS_17__hash_value_typeIlNS_23__forward_list_iteratorIPNS_19__forward_list_nodeIlPvEEEEEENS_22__unordered_map_hasherIlS8_NS_4hashIlEENS_8equal_toIlEELb1EEENS_21__unordered_map_equalIlS8_SD_SB_Lb1EEENS_9allocatorIS8_EEED1Ev, symObjAddr: 0x516BC, symBinAddr: 0x100054090, symSize: 0x78 }
  - { offsetInCU: 0x231C1, offset: 0x231C1, size: 0x8, addend: 0x0, symName: __ZNSt3__112__hash_tableINS_17__hash_value_typeIlNS_23__forward_list_iteratorIPNS_19__forward_list_nodeIlPvEEEEEENS_22__unordered_map_hasherIlS8_NS_4hashIlEENS_8equal_toIlEELb1EEENS_21__unordered_map_equalIlS8_SD_SB_Lb1EEENS_9allocatorIS8_EEED2Ev, symObjAddr: 0x51734, symBinAddr: 0x100054108, symSize: 0x1A4 }
  - { offsetInCU: 0x231ED, offset: 0x231ED, size: 0x8, addend: 0x0, symName: __ZNSt3__112__hash_tableINS_17__hash_value_typeIlNS_23__forward_list_iteratorIPNS_19__forward_list_nodeIlPvEEEEEENS_22__unordered_map_hasherIlS8_NS_4hashIlEENS_8equal_toIlEELb1EEENS_21__unordered_map_equalIlS8_SD_SB_Lb1EEENS_9allocatorIS8_EEE17__deallocate_nodeEPNS_16__hash_node_baseIPNS_11__hash_nodeIS8_S4_EEEE, symObjAddr: 0x518D8, symBinAddr: 0x1000542AC, symSize: 0x31C }
  - { offsetInCU: 0x23258, offset: 0x23258, size: 0x8, addend: 0x0, symName: __ZNSt3__110unique_ptrIA_PNS_16__hash_node_baseIPNS_11__hash_nodeINS_17__hash_value_typeIlNS_23__forward_list_iteratorIPNS_19__forward_list_nodeIlPvEEEEEES6_EEEENS_25__bucket_list_deallocatorINS_9allocatorISE_EEEEED1B8ue170006Ev, symObjAddr: 0x51BF4, symBinAddr: 0x1000545C8, symSize: 0x78 }
  - { offsetInCU: 0x23282, offset: 0x23282, size: 0x8, addend: 0x0, symName: __ZNSt3__110unique_ptrIA_PNS_16__hash_node_baseIPNS_11__hash_nodeINS_17__hash_value_typeIlNS_23__forward_list_iteratorIPNS_19__forward_list_nodeIlPvEEEEEES6_EEEENS_25__bucket_list_deallocatorINS_9allocatorISE_EEEEED2B8ue170006Ev, symObjAddr: 0x51C6C, symBinAddr: 0x100054640, symSize: 0x7C }
  - { offsetInCU: 0x232AC, offset: 0x232AC, size: 0x8, addend: 0x0, symName: __ZNSt3__110unique_ptrIA_PNS_16__hash_node_baseIPNS_11__hash_nodeINS_17__hash_value_typeIlNS_23__forward_list_iteratorIPNS_19__forward_list_nodeIlPvEEEEEES6_EEEENS_25__bucket_list_deallocatorINS_9allocatorISE_EEEEE5resetB8ue170006EDn, symObjAddr: 0x51CE8, symBinAddr: 0x1000546BC, symSize: 0x2C0 }
  - { offsetInCU: 0x232EC, offset: 0x232EC, size: 0x8, addend: 0x0, symName: __ZNSt3__112forward_listIlNS_9allocatorIlEEED2Ev, symObjAddr: 0x51FA8, symBinAddr: 0x10005497C, symSize: 0x78 }
  - { offsetInCU: 0x23319, offset: 0x23319, size: 0x8, addend: 0x0, symName: __ZNSt3__119__forward_list_baseIlNS_9allocatorIlEEED2Ev, symObjAddr: 0x52020, symBinAddr: 0x1000549F4, symSize: 0x78 }
  - { offsetInCU: 0x23345, offset: 0x23345, size: 0x8, addend: 0x0, symName: __ZNSt3__119__forward_list_baseIlNS_9allocatorIlEEE5clearEv, symObjAddr: 0x52098, symBinAddr: 0x100054A6C, symSize: 0x430 }
  - { offsetInCU: 0x233A8, offset: 0x233A8, size: 0x8, addend: 0x0, symName: __ZNSt3__119__forward_list_baseIlNS_9allocatorIlEEE14__before_beginB8ue170006Ev, symObjAddr: 0x524C8, symBinAddr: 0x100054E9C, symSize: 0xFC }
  - { offsetInCU: 0x233CE, offset: 0x233CE, size: 0x8, addend: 0x0, symName: __ZNSt3__114pointer_traitsIPNS_20__forward_begin_nodeIPNS_19__forward_list_nodeIlPvEEEEE10pointer_toB8ue170006ERS6_, symObjAddr: 0x525C4, symBinAddr: 0x100054F98, symSize: 0x14 }
  - { offsetInCU: 0x233F1, offset: 0x233F1, size: 0x8, addend: 0x0, symName: __ZNSt3__117__compressed_pairINS_20__forward_begin_nodeIPNS_19__forward_list_nodeIlPvEEEENS_9allocatorIS4_EEE5firstB8ue170006Ev, symObjAddr: 0x525D8, symBinAddr: 0x100054FAC, symSize: 0x124 }
  - { offsetInCU: 0x23417, offset: 0x23417, size: 0x8, addend: 0x0, symName: __ZNSt3__122__compressed_pair_elemINS_20__forward_begin_nodeIPNS_19__forward_list_nodeIlPvEEEELi0ELb0EE5__getB8ue170006Ev, symObjAddr: 0x526FC, symBinAddr: 0x1000550D0, symSize: 0xAC }
  - { offsetInCU: 0x2343D, offset: 0x2343D, size: 0x8, addend: 0x0, symName: __ZNSt3__113unordered_mapIlNS_12basic_stringIcNS_11char_traitsIcEENS_9allocatorIcEEEENS_4hashIlEENS_8equal_toIlEENS4_INS_4pairIKlS6_EEEEED2B8ue170006Ev, symObjAddr: 0x527A8, symBinAddr: 0x10005517C, symSize: 0x78 }
  - { offsetInCU: 0x23467, offset: 0x23467, size: 0x8, addend: 0x0, symName: __ZNSt3__112__hash_tableINS_17__hash_value_typeIlNS_12basic_stringIcNS_11char_traitsIcEENS_9allocatorIcEEEEEENS_22__unordered_map_hasherIlS8_NS_4hashIlEENS_8equal_toIlEELb1EEENS_21__unordered_map_equalIlS8_SD_SB_Lb1EEENS5_IS8_EEED1Ev, symObjAddr: 0x52820, symBinAddr: 0x1000551F4, symSize: 0x78 }
  - { offsetInCU: 0x23493, offset: 0x23493, size: 0x8, addend: 0x0, symName: __ZNSt3__112__hash_tableINS_17__hash_value_typeIlNS_12basic_stringIcNS_11char_traitsIcEENS_9allocatorIcEEEEEENS_22__unordered_map_hasherIlS8_NS_4hashIlEENS_8equal_toIlEELb1EEENS_21__unordered_map_equalIlS8_SD_SB_Lb1EEENS5_IS8_EEED2Ev, symObjAddr: 0x52898, symBinAddr: 0x10005526C, symSize: 0x1A4 }
  - { offsetInCU: 0x234BF, offset: 0x234BF, size: 0x8, addend: 0x0, symName: __ZNSt3__112__hash_tableINS_17__hash_value_typeIlNS_12basic_stringIcNS_11char_traitsIcEENS_9allocatorIcEEEEEENS_22__unordered_map_hasherIlS8_NS_4hashIlEENS_8equal_toIlEELb1EEENS_21__unordered_map_equalIlS8_SD_SB_Lb1EEENS5_IS8_EEE17__deallocate_nodeEPNS_16__hash_node_baseIPNS_11__hash_nodeIS8_PvEEEE, symObjAddr: 0x52A3C, symBinAddr: 0x100055410, symSize: 0x31C }
  - { offsetInCU: 0x2352A, offset: 0x2352A, size: 0x8, addend: 0x0, symName: __ZNSt3__110unique_ptrIA_PNS_16__hash_node_baseIPNS_11__hash_nodeINS_17__hash_value_typeIlNS_12basic_stringIcNS_11char_traitsIcEENS_9allocatorIcEEEEEEPvEEEENS_25__bucket_list_deallocatorINS7_ISF_EEEEED1B8ue170006Ev, symObjAddr: 0x52D58, symBinAddr: 0x10005572C, symSize: 0x78 }
  - { offsetInCU: 0x23554, offset: 0x23554, size: 0x8, addend: 0x0, symName: __ZNSt3__110unique_ptrIA_PNS_16__hash_node_baseIPNS_11__hash_nodeINS_17__hash_value_typeIlNS_12basic_stringIcNS_11char_traitsIcEENS_9allocatorIcEEEEEEPvEEEENS_25__bucket_list_deallocatorINS7_ISF_EEEEED2B8ue170006Ev, symObjAddr: 0x52DD0, symBinAddr: 0x1000557A4, symSize: 0x7C }
  - { offsetInCU: 0x2357E, offset: 0x2357E, size: 0x8, addend: 0x0, symName: __ZNSt3__110unique_ptrIA_PNS_16__hash_node_baseIPNS_11__hash_nodeINS_17__hash_value_typeIlNS_12basic_stringIcNS_11char_traitsIcEENS_9allocatorIcEEEEEEPvEEEENS_25__bucket_list_deallocatorINS7_ISF_EEEEE5resetB8ue170006EDn, symObjAddr: 0x52E4C, symBinAddr: 0x100055820, symSize: 0x2C0 }
  - { offsetInCU: 0x235BE, offset: 0x235BE, size: 0x8, addend: 0x0, symName: __ZNSt3__112forward_listIlNS_9allocatorIlEEE5beginB8ue170006Ev, symObjAddr: 0x5310C, symBinAddr: 0x100055AE0, symSize: 0x334 }
...
