---
triple:          'arm64-apple-darwin'
binary-path:     '/Users/lehatrutenb/Desktop/prog/memdb/memdb/internal/dataBase/db'
relocations:
  - { offsetInCU: 0x38, offset: 0x38, size: 0x8, addend: 0x0, symName: __ZN5memdb8IsBoolOpENS_9OperationE, symObjAddr: 0x0, symBinAddr: 0x100003D54, symSize: 0x83C }
  - { offsetInCU: 0x61, offset: 0x61, size: 0x8, addend: 0x0, symName: __ZZN5memdb8IsBoolOpENS_9OperationEE4bOps, symObjAddr: 0x92A080, symBinAddr: 0x1004A8CE0, symSize: 0x0 }
  - { offsetInCU: 0xEA, offset: 0xEA, size: 0x8, addend: 0x0, symName: __ZN5memdb8IsMathOpENS_9OperationE, symObjAddr: 0x1670, symBinAddr: 0x1000053C4, symSize: 0x6C0 }
  - { offsetInCU: 0x113, offset: 0x113, size: 0x8, addend: 0x0, symName: __ZZN5memdb8IsMathOpENS_9OperationEE4mOps, symObjAddr: 0x92A0E0, symBinAddr: 0x1004A8D40, symSize: 0x0 }
  - { offsetInCU: 0x12F, offset: 0x12F, size: 0x8, addend: 0x0, symName: __ZN5memdb7IsCmpOpENS_9OperationE, symObjAddr: 0x1D30, symBinAddr: 0x100005A84, symSize: 0x6BC }
  - { offsetInCU: 0x158, offset: 0x158, size: 0x8, addend: 0x0, symName: __ZZN5memdb7IsCmpOpENS_9OperationEE4cOps, symObjAddr: 0x92A140, symBinAddr: 0x1004A8DA0, symSize: 0x0 }
  - { offsetInCU: 0x174, offset: 0x174, size: 0x8, addend: 0x0, symName: __ZN5memdb13IsNonDefCmpOpENS_9OperationE, symObjAddr: 0x23EC, symBinAddr: 0x100006140, symSize: 0x83C }
  - { offsetInCU: 0x19D, offset: 0x19D, size: 0x8, addend: 0x0, symName: __ZZN5memdb13IsNonDefCmpOpENS_9OperationEE4cOps, symObjAddr: 0x92A1A0, symBinAddr: 0x1004A8E00, symSize: 0x0 }
  - { offsetInCU: 0x1CA, offset: 0x1CA, size: 0x8, addend: 0x0, symName: __ZN5memdb5lexer3s2cE, symObjAddr: 0x92A240, symBinAddr: 0x1004A8EA0, symSize: 0x0 }
  - { offsetInCU: 0x214, offset: 0x214, size: 0x8, addend: 0x0, symName: __ZN5memdb5lexer4s2scE, symObjAddr: 0x92A280, symBinAddr: 0x1004A8EE0, symSize: 0x0 }
  - { offsetInCU: 0x26A, offset: 0x26A, size: 0x8, addend: 0x0, symName: __ZN5memdb5lexer3s2aE, symObjAddr: 0x92A2C0, symBinAddr: 0x1004A8F20, symSize: 0x0 }
  - { offsetInCU: 0x2AE, offset: 0x2AE, size: 0x8, addend: 0x0, symName: __ZN5memdb5lexer4s2opE, symObjAddr: 0x92A300, symBinAddr: 0x1004A8F60, symSize: 0x0 }
  - { offsetInCU: 0x2C7, offset: 0x2C7, size: 0x8, addend: 0x0, symName: __ZN5memdb5lexer4s2brE, symObjAddr: 0x92A340, symBinAddr: 0x1004A8FA0, symSize: 0x0 }
  - { offsetInCU: 0x31D, offset: 0x31D, size: 0x8, addend: 0x0, symName: __ZN5memdb5lexer4s2ctE, symObjAddr: 0x92A380, symBinAddr: 0x1004A8FE0, symSize: 0x0 }
  - { offsetInCU: 0x336, offset: 0x336, size: 0x8, addend: 0x0, symName: __ZN5memdb5lexer5s2othE, symObjAddr: 0x92A3C0, symBinAddr: 0x1004A9020, symSize: 0x0 }
  - { offsetInCU: 0x35C, offset: 0x35C, size: 0x8, addend: 0x0, symName: __ZN5memdb5lexer8AddSpaceERKNSt3__117basic_string_viewIcNS1_11char_traitsIcEEEERiRbS9_, symObjAddr: 0x4C74, symBinAddr: 0x1000089C8, symSize: 0x139C }
  - { offsetInCU: 0x3CF, offset: 0x3CF, size: 0x8, addend: 0x0, symName: __ZN5memdb5lexer9IsCommandERNSt3__16vectorINS1_12basic_stringIcNS1_11char_traitsIcEENS1_9allocatorIcEEEENS6_IS8_EEEEi, symObjAddr: 0x63F4, symBinAddr: 0x10000A148, symSize: 0x7F0 }
  - { offsetInCU: 0x40B, offset: 0x40B, size: 0x8, addend: 0x0, symName: __ZN5memdb5lexer12IsSubCommandERNSt3__16vectorINS1_12basic_stringIcNS1_11char_traitsIcEENS1_9allocatorIcEEEENS6_IS8_EEEEi, symObjAddr: 0x7DBC, symBinAddr: 0x10000BB10, symSize: 0x7F0 }
  - { offsetInCU: 0x447, offset: 0x447, size: 0x8, addend: 0x0, symName: __ZN5memdb5lexer11IsAttributeERNSt3__16vectorINS1_12basic_stringIcNS1_11char_traitsIcEENS1_9allocatorIcEEEENS6_IS8_EEEEi, symObjAddr: 0x9344, symBinAddr: 0x10000D098, symSize: 0x7F0 }
  - { offsetInCU: 0x483, offset: 0x483, size: 0x8, addend: 0x0, symName: __ZN5memdb5lexer11IsOperationERNSt3__16vectorINS1_12basic_stringIcNS1_11char_traitsIcEENS1_9allocatorIcEEEENS6_IS8_EEEEi, symObjAddr: 0xA8CC, symBinAddr: 0x10000E620, symSize: 0x7F0 }
  - { offsetInCU: 0x4BF, offset: 0x4BF, size: 0x8, addend: 0x0, symName: __ZN5memdb5lexer7IsOtherERNSt3__16vectorINS1_12basic_stringIcNS1_11char_traitsIcEENS1_9allocatorIcEEEENS6_IS8_EEEEi, symObjAddr: 0xBE54, symBinAddr: 0x10000FBA8, symSize: 0x7F0 }
  - { offsetInCU: 0x4FB, offset: 0x4FB, size: 0x8, addend: 0x0, symName: __ZN5memdb5lexer9IsBracketERNSt3__16vectorINS1_12basic_stringIcNS1_11char_traitsIcEENS1_9allocatorIcEEEENS6_IS8_EEEEi, symObjAddr: 0xD3DC, symBinAddr: 0x100011130, symSize: 0x11DC }
  - { offsetInCU: 0x537, offset: 0x537, size: 0x8, addend: 0x0, symName: __ZN5memdb5lexer5IsIntERNSt3__16vectorINS1_12basic_stringIcNS1_11char_traitsIcEENS1_9allocatorIcEEEENS6_IS8_EEEEi, symObjAddr: 0xFBA8, symBinAddr: 0x1000138FC, symSize: 0x82C }
  - { offsetInCU: 0x590, offset: 0x590, size: 0x8, addend: 0x0, symName: __ZN5memdb5lexer12IsColumnTypeERNSt3__16vectorINS1_12basic_stringIcNS1_11char_traitsIcEENS1_9allocatorIcEEEENS6_IS8_EEEEi, symObjAddr: 0x10DEC, symBinAddr: 0x100014B40, symSize: 0x173C }
  - { offsetInCU: 0x5E5, offset: 0x5E5, size: 0x8, addend: 0x0, symName: __ZN5memdb5lexer8IsStringERNSt3__16vectorINS1_12basic_stringIcNS1_11char_traitsIcEENS1_9allocatorIcEEEENS6_IS8_EEEEi, symObjAddr: 0x13340, symBinAddr: 0x100017094, symSize: 0x83C }
  - { offsetInCU: 0x621, offset: 0x621, size: 0x8, addend: 0x0, symName: __ZN5memdb5lexer7IsBytesERNSt3__16vectorINS1_12basic_stringIcNS1_11char_traitsIcEENS1_9allocatorIcEEEENS6_IS8_EEEEi, symObjAddr: 0x1422C, symBinAddr: 0x100017F80, symSize: 0x1584 }
  - { offsetInCU: 0x69A, offset: 0x69A, size: 0x8, addend: 0x0, symName: __ZN5memdb5lexer6IsBoolERNSt3__16vectorINS1_12basic_stringIcNS1_11char_traitsIcEENS1_9allocatorIcEEEENS6_IS8_EEEEi, symObjAddr: 0x15D50, symBinAddr: 0x100019AA4, symSize: 0x6E4 }
  - { offsetInCU: 0x9B1, offset: 0x9B1, size: 0x8, addend: 0x0, symName: __ZN5memdb6parserL7ParsersE, symObjAddr: 0x92A200, symBinAddr: 0x1004A8E60, symSize: 0x0 }
  - { offsetInCU: 0xC0E, offset: 0xC0E, size: 0x8, addend: 0x0, symName: __ZN5memdb6parser16ParseTableColumnERKNSt3__112basic_stringIcNS1_11char_traitsIcEENS1_9allocatorIcEEEE, symObjAddr: 0x167B8, symBinAddr: 0x10001A50C, symSize: 0x6C4 }
  - { offsetInCU: 0xC4D, offset: 0xC4D, size: 0x8, addend: 0x0, symName: __ZN5memdb6parserL15getSharedParserINS0_17CreateTableParserEEENSt3__110shared_ptrINS0_9CmdParserEEEv, symObjAddr: 0x17410, symBinAddr: 0x10001B164, symSize: 0x10C }
  - { offsetInCU: 0xC83, offset: 0xC83, size: 0x8, addend: 0x0, symName: __ZN5memdb6parserL15getSharedParserINS0_12InsertParserEEENSt3__110shared_ptrINS0_9CmdParserEEEv, symObjAddr: 0x1751C, symBinAddr: 0x10001B270, symSize: 0x10C }
  - { offsetInCU: 0xCB9, offset: 0xCB9, size: 0x8, addend: 0x0, symName: __ZN5memdb6parserL15getSharedParserINS0_12SelectParserEEENSt3__110shared_ptrINS0_9CmdParserEEEv, symObjAddr: 0x17628, symBinAddr: 0x10001B37C, symSize: 0x10C }
  - { offsetInCU: 0xCEF, offset: 0xCEF, size: 0x8, addend: 0x0, symName: __ZN5memdb6parserL15getSharedParserINS0_12UpdateParserEEENSt3__110shared_ptrINS0_9CmdParserEEEv, symObjAddr: 0x17734, symBinAddr: 0x10001B488, symSize: 0x10C }
  - { offsetInCU: 0xD25, offset: 0xD25, size: 0x8, addend: 0x0, symName: __ZN5memdb6parserL15getSharedParserINS0_12DeleteParserEEENSt3__110shared_ptrINS0_9CmdParserEEEv, symObjAddr: 0x17840, symBinAddr: 0x10001B594, symSize: 0x10C }
  - { offsetInCU: 0xD5B, offset: 0xD5B, size: 0x8, addend: 0x0, symName: __ZN5memdb6parserL15getSharedParserINS0_10JoinParserEEENSt3__110shared_ptrINS0_9CmdParserEEEv, symObjAddr: 0x1794C, symBinAddr: 0x10001B6A0, symSize: 0x10C }
  - { offsetInCU: 0xD91, offset: 0xD91, size: 0x8, addend: 0x0, symName: __ZN5memdb6parserL15getSharedParserINS0_16CrateIndexParserEEENSt3__110shared_ptrINS0_9CmdParserEEEv, symObjAddr: 0x17A58, symBinAddr: 0x10001B7AC, symSize: 0x10C }
  - { offsetInCU: 0xF57, offset: 0xF57, size: 0x8, addend: 0x0, symName: __ZN5memdb6parser8getValueINS_9Tokenizer7StringTENSt3__112basic_stringIcNS4_11char_traitsIcEENS4_9allocatorIcEEEEEET0_NS4_10shared_ptrINS2_5TokenEEE, symObjAddr: 0x57A28, symBinAddr: 0x10005B77C, symSize: 0x308 }
  - { offsetInCU: 0x116B, offset: 0x116B, size: 0x8, addend: 0x0, symName: __ZN5memdb6parser8getValueINS_9Tokenizer8CommandTENS_5lexer7CommandEEET0_NSt3__110shared_ptrINS2_5TokenEEE, symObjAddr: 0xC2998, symBinAddr: 0x1000C66EC, symSize: 0x320 }
  - { offsetInCU: 0x11AC, offset: 0x11AC, size: 0x8, addend: 0x0, symName: __ZN5memdb6parser8getValueINS_9Tokenizer11SubCommandTENS_5lexer10SubCommandEEET0_NSt3__110shared_ptrINS2_5TokenEEE, symObjAddr: 0xC33AC, symBinAddr: 0x1000C7100, symSize: 0x320 }
  - { offsetInCU: 0x11ED, offset: 0x11ED, size: 0x8, addend: 0x0, symName: __ZN5memdb6parser8getValueINS_9Tokenizer8BracketTENS_5lexer7BracketEEET0_NSt3__110shared_ptrINS2_5TokenEEE, symObjAddr: 0xFAB98, symBinAddr: 0x1000FE8EC, symSize: 0x320 }
  - { offsetInCU: 0x122E, offset: 0x122E, size: 0x8, addend: 0x0, symName: __ZN5memdb6parser8getValueINS_9Tokenizer6OtherTENS_5lexer5OtherEEET0_NSt3__110shared_ptrINS2_5TokenEEE, symObjAddr: 0x111C68, symBinAddr: 0x1001159BC, symSize: 0x320 }
  - { offsetInCU: 0x126F, offset: 0x126F, size: 0x8, addend: 0x0, symName: __ZN5memdb6parser8getValueINS_9Tokenizer10AttributeTENS_5lexer9AttributeEEET0_NSt3__110shared_ptrINS2_5TokenEEE, symObjAddr: 0x111F88, symBinAddr: 0x100115CDC, symSize: 0x320 }
  - { offsetInCU: 0x12B0, offset: 0x12B0, size: 0x8, addend: 0x0, symName: __ZN5memdb6parser8getValueINS_9Tokenizer11ColumnTypeTENS_10ColumnTypeEEET0_NSt3__110shared_ptrINS2_5TokenEEE, symObjAddr: 0x11A4DC, symBinAddr: 0x10011E230, symSize: 0x4D0 }
  - { offsetInCU: 0x12F2, offset: 0x12F2, size: 0x8, addend: 0x0, symName: __ZN5memdb6parser8getValueINS_9Tokenizer10OperationTENS_9OperationEEET0_NSt3__110shared_ptrINS2_5TokenEEE, symObjAddr: 0x11B0A8, symBinAddr: 0x10011EDFC, symSize: 0x320 }
  - { offsetInCU: 0x1333, offset: 0x1333, size: 0x8, addend: 0x0, symName: __ZN5memdb6parser8getValueINS_9Tokenizer7DBTypeTENSt3__110shared_ptrINS_6DbTypeEEEEET0_NS5_INS2_5TokenEEE, symObjAddr: 0x11B3C8, symBinAddr: 0x10011F11C, symSize: 0x308 }
  - { offsetInCU: 0x1374, offset: 0x1374, size: 0x8, addend: 0x0, symName: __ZN5memdb6parser12getNextTokenINS_9Tokenizer6OtherTENS_5lexer5OtherEEEiRKNSt3__16vectorINS6_10shared_ptrINS2_5TokenEEENS6_9allocatorISA_EEEEllNS2_6TokenTET0_, symObjAddr: 0x254E14, symBinAddr: 0x100258B68, symSize: 0x56C }
  - { offsetInCU: 0x386D, offset: 0x386D, size: 0x8, addend: 0x0, symName: __ZN5memdb8getValueINS_6DbBoolEbEET0_NSt3__110shared_ptrINS_6DbTypeEEE, symObjAddr: 0x2193E4, symBinAddr: 0x10021D138, symSize: 0x350 }
  - { offsetInCU: 0x38AE, offset: 0x38AE, size: 0x8, addend: 0x0, symName: __ZN5memdbL4DoOpENS_9OperationENSt3__110shared_ptrINS_6DbTypeEEES4_, symObjAddr: 0x23E110, symBinAddr: 0x100241E64, symSize: 0x27A4 }
  - { offsetInCU: 0x4245A, offset: 0x4245A, size: 0x8, addend: 0x0, symName: __ZNSt3__119piecewise_constructE, symObjAddr: 0x32AE9A, symBinAddr: 0x10033073A, symSize: 0x0 }
  - { offsetInCU: 0x4248A, offset: 0x4248A, size: 0x8, addend: 0x0, symName: __ZNSt3__18in_placeE, symObjAddr: 0x33C8BC, symBinAddr: 0x10034215C, symSize: 0x0 }
  - { offsetInCU: 0x42694, offset: 0x42694, size: 0x8, addend: 0x0, symName: __ZNSt3__16copy_nB8ue170006IPKcmPcEENS_9enable_ifIXsr37__has_random_access_iterator_categoryIT_EE5valueET1_E4typeES5_T0_S6_, symObjAddr: 0x2D520, symBinAddr: 0x100031274, symSize: 0x13C }
  - { offsetInCU: 0x43968, offset: 0x43968, size: 0x8, addend: 0x0, symName: __ZNSt3__17advanceB8ue170006IPNS_6vectorIN5memdb9OperationENS_9allocatorIS3_EEEEllvEEvRT_T0_, symObjAddr: 0x4803C, symBinAddr: 0x10004BD90, symSize: 0x80 }
  - { offsetInCU: 0x43DD2, offset: 0x43DD2, size: 0x8, addend: 0x0, symName: __ZNSt3__17advanceB8ue170006IPNS_10shared_ptrIN5memdb6parser9CmdParserEEEllvEEvRT_T0_, symObjAddr: 0x52508, symBinAddr: 0x10005625C, symSize: 0x80 }
  - { offsetInCU: 0x4419B, offset: 0x4419B, size: 0x8, addend: 0x0, symName: __ZNSt3__17advanceB8ue170006IPNS_12basic_stringIcNS_11char_traitsIcEENS_9allocatorIcEEEEllvEEvRT_T0_, symObjAddr: 0x6D45C, symBinAddr: 0x1000711B0, symSize: 0x80 }
  - { offsetInCU: 0x4441B, offset: 0x4441B, size: 0x8, addend: 0x0, symName: __ZNSt3__17advanceB8ue170006INS_16reverse_iteratorIPNS_12basic_stringIcNS_11char_traitsIcEENS_9allocatorIcEEEEEEllvEEvRT_T0_, symObjAddr: 0x6EE18, symBinAddr: 0x100072B6C, symSize: 0x80 }
  - { offsetInCU: 0x44885, offset: 0x44885, size: 0x8, addend: 0x0, symName: __ZNSt3__17advanceB8ue170006IPNS_10shared_ptrIN5memdb9Tokenizer5TokenEEEllvEEvRT_T0_, symObjAddr: 0xB34B8, symBinAddr: 0x1000B720C, symSize: 0x80 }
  - { offsetInCU: 0x44C47, offset: 0x44C47, size: 0x8, addend: 0x0, symName: __ZNSt3__17advanceB8ue170006INS_16reverse_iteratorIPNS_10shared_ptrIN5memdb9Tokenizer5TokenEEEEEllvEEvRT_T0_, symObjAddr: 0xBB5A0, symBinAddr: 0x1000BF2F4, symSize: 0x80 }
  - { offsetInCU: 0x47701, offset: 0x47701, size: 0x8, addend: 0x0, symName: __ZNSt3__17advanceB8ue170006IPN5memdb21ColumnFullDescriptionEllvEEvRT_T0_, symObjAddr: 0x10B60C, symBinAddr: 0x10010F360, symSize: 0x80 }
  - { offsetInCU: 0x47981, offset: 0x47981, size: 0x8, addend: 0x0, symName: __ZNSt3__17advanceB8ue170006INS_16reverse_iteratorIPN5memdb21ColumnFullDescriptionEEEllvEEvRT_T0_, symObjAddr: 0x10CFC8, symBinAddr: 0x100110D1C, symSize: 0x80 }
  - { offsetInCU: 0x4969D, offset: 0x4969D, size: 0x8, addend: 0x0, symName: __ZNSt3__17advanceB8ue170006IPN5memdb5TableEllvEEvRT_T0_, symObjAddr: 0x12F4F0, symBinAddr: 0x100133244, symSize: 0x80 }
  - { offsetInCU: 0x4991D, offset: 0x4991D, size: 0x8, addend: 0x0, symName: __ZNSt3__17advanceB8ue170006INS_16reverse_iteratorIPN5memdb5TableEEEllvEEvRT_T0_, symObjAddr: 0x130EAC, symBinAddr: 0x100134C00, symSize: 0x80 }
  - { offsetInCU: 0x51735, offset: 0x51735, size: 0x8, addend: 0x0, symName: __ZNSt3__17advanceB8ue170006IPcllvEEvRT_T0_, symObjAddr: 0x1C41B8, symBinAddr: 0x1001C7F0C, symSize: 0x80 }
  - { offsetInCU: 0x51DFB, offset: 0x51DFB, size: 0x8, addend: 0x0, symName: __ZNSt3__17advanceB8ue170006IPNS_10shared_ptrIN5memdb6ColumnEEEllvEEvRT_T0_, symObjAddr: 0x1DBB64, symBinAddr: 0x1001DF8B8, symSize: 0x80 }
  - { offsetInCU: 0x5207B, offset: 0x5207B, size: 0x8, addend: 0x0, symName: __ZNSt3__17advanceB8ue170006INS_16reverse_iteratorIPNS_10shared_ptrIN5memdb6ColumnEEEEEllvEEvRT_T0_, symObjAddr: 0x1DD460, symBinAddr: 0x1001E11B4, symSize: 0x80 }
  - { offsetInCU: 0x52444, offset: 0x52444, size: 0x8, addend: 0x0, symName: __ZNSt3__17advanceB8ue170006IPN5memdb5Table5ValueEllvEEvRT_T0_, symObjAddr: 0x1E6C64, symBinAddr: 0x1001EA9B8, symSize: 0x80 }
  - { offsetInCU: 0x526C4, offset: 0x526C4, size: 0x8, addend: 0x0, symName: __ZNSt3__17advanceB8ue170006INS_16reverse_iteratorIPN5memdb5Table5ValueEEEllvEEvRT_T0_, symObjAddr: 0x1E8620, symBinAddr: 0x1001EC374, symSize: 0x80 }
  - { offsetInCU: 0x52E29, offset: 0x52E29, size: 0x8, addend: 0x0, symName: __ZNSt3__17advanceB8ue170006IPN5memdb11TableColumnEllvEEvRT_T0_, symObjAddr: 0x2002B0, symBinAddr: 0x100204004, symSize: 0x80 }
  - { offsetInCU: 0x530A9, offset: 0x530A9, size: 0x8, addend: 0x0, symName: __ZNSt3__17advanceB8ue170006INS_16reverse_iteratorIPN5memdb11TableColumnEEEllvEEvRT_T0_, symObjAddr: 0x201C6C, symBinAddr: 0x1002059C0, symSize: 0x80 }
  - { offsetInCU: 0x53504, offset: 0x53504, size: 0x8, addend: 0x0, symName: __ZNSt3__111__introsortINS_17_ClassicAlgPolicyERNS_6__lessIvvEEPN5memdb11TableColumnELb0EEEvT1_S8_T0_NS_15iterator_traitsIS8_E15difference_typeEb, symObjAddr: 0x21CFD0, symBinAddr: 0x100220D24, symSize: 0x2E48 }
  - { offsetInCU: 0x5363C, offset: 0x5363C, size: 0x8, addend: 0x0, symName: __ZNSt3__126__insertion_sort_unguardedB8ue170006INS_17_ClassicAlgPolicyERNS_6__lessIvvEEPN5memdb11TableColumnEEEvT1_S8_T0_, symObjAddr: 0x220D84, symBinAddr: 0x100224AD8, symSize: 0xBD4 }
  - { offsetInCU: 0x53726, offset: 0x53726, size: 0x8, addend: 0x0, symName: __ZNSt3__111__sift_downB8ue170006INS_17_ClassicAlgPolicyERNS_6__lessIvvEEPN5memdb11TableColumnEEEvT1_OT0_NS_15iterator_traitsIS8_E15difference_typeES8_, symObjAddr: 0x22B0F0, symBinAddr: 0x10022EE44, symSize: 0x1384 }
  - { offsetInCU: 0x537E3, offset: 0x537E3, size: 0x8, addend: 0x0, symName: __ZNSt3__117__floyd_sift_downB8ue170006INS_17_ClassicAlgPolicyERNS_6__lessIvvEEPN5memdb11TableColumnEEET1_S8_OT0_NS_15iterator_traitsIS8_E15difference_typeE, symObjAddr: 0x22CF68, symBinAddr: 0x100230CBC, symSize: 0x914 }
  - { offsetInCU: 0x53884, offset: 0x53884, size: 0x8, addend: 0x0, symName: __ZNSt3__131__partition_with_equals_on_leftB8ue170006INS_17_ClassicAlgPolicyEPN5memdb11TableColumnERNS_6__lessIvvEEEET0_S8_S8_T1_, symObjAddr: 0x222534, symBinAddr: 0x100226288, symSize: 0x1348 }
  - { offsetInCU: 0x53953, offset: 0x53953, size: 0x8, addend: 0x0, symName: __ZNSt3__118__bitset_partitionB8ue170006INS_17_ClassicAlgPolicyEPN5memdb11TableColumnERNS_6__lessIvvEEEENS_4pairIT0_bEES9_S9_T1_, symObjAddr: 0x22387C, symBinAddr: 0x1002275D0, symSize: 0x1AA0 }
  - { offsetInCU: 0x53A73, offset: 0x53A73, size: 0x8, addend: 0x0, symName: __ZNSt3__124__swap_bitmap_pos_withinB8ue170006INS_17_ClassicAlgPolicyEPN5memdb11TableColumnEEEvRT0_S6_RyS7_, symObjAddr: 0x22FF84, symBinAddr: 0x100233CD8, symSize: 0xCDC }
  - { offsetInCU: 0x53B4E, offset: 0x53B4E, size: 0x8, addend: 0x0, symName: __ZNSt3__132__partition_with_equals_on_rightB8ue170006INS_17_ClassicAlgPolicyEPN5memdb11TableColumnERNS_6__lessIvvEEEENS_4pairIT0_bEES9_S9_T1_, symObjAddr: 0x22531C, symBinAddr: 0x100229070, symSize: 0x1408 }
  - { offsetInCU: 0x53C32, offset: 0x53C32, size: 0x8, addend: 0x0, symName: __ZNSt3__127__insertion_sort_incompleteB8ue170006INS_17_ClassicAlgPolicyERNS_6__lessIvvEEPN5memdb11TableColumnEEEbT1_S8_T0_, symObjAddr: 0x226724, symBinAddr: 0x10022A478, symSize: 0x1B68 }
  - { offsetInCU: 0x547F5, offset: 0x547F5, size: 0x8, addend: 0x0, symName: __ZNSt3__17advanceB8ue170006IPN5memdb6parser11Assignments9ColumnExpEllvEEvRT_T0_, symObjAddr: 0x25D7FC, symBinAddr: 0x100261550, symSize: 0x80 }
  - { offsetInCU: 0x54A75, offset: 0x54A75, size: 0x8, addend: 0x0, symName: __ZNSt3__17advanceB8ue170006INS_16reverse_iteratorIPN5memdb6parser11Assignments9ColumnExpEEEllvEEvRT_T0_, symObjAddr: 0x25F1B8, symBinAddr: 0x100262F0C, symSize: 0x80 }
  - { offsetInCU: 0x5641A, offset: 0x5641A, size: 0x8, addend: 0x0, symName: __ZNSt3__17advanceB8ue170006IPNS_6vectorIN5memdb11TableColumnENS_9allocatorIS3_EEEEllvEEvRT_T0_, symObjAddr: 0x26B368, symBinAddr: 0x10026F0BC, symSize: 0x80 }
  - { offsetInCU: 0x5669A, offset: 0x5669A, size: 0x8, addend: 0x0, symName: __ZNSt3__17advanceB8ue170006INS_16reverse_iteratorIPNS_6vectorIN5memdb11TableColumnENS_9allocatorIS4_EEEEEEllvEEvRT_T0_, symObjAddr: 0x26CD24, symBinAddr: 0x100270A78, symSize: 0x80 }
  - { offsetInCU: 0x576D6, offset: 0x576D6, size: 0x8, addend: 0x0, symName: __ZNSt3__17advanceB8ue170006INS_21__tree_const_iteratorINS_12__value_typeINS_17basic_string_viewIcNS_11char_traitsIcEEEEN5memdb5lexer7CommandEEEPNS_11__tree_nodeISA_PvEElEEllvEEvRT_T0_, symObjAddr: 0x28107C, symBinAddr: 0x100284DD0, symSize: 0x80 }
  - { offsetInCU: 0x5775D, offset: 0x5775D, size: 0x8, addend: 0x0, symName: __ZNSt3__17advanceB8ue170006INS_21__tree_const_iteratorINS_12__value_typeINS_17basic_string_viewIcNS_11char_traitsIcEEEEN5memdb5lexer10SubCommandEEEPNS_11__tree_nodeISA_PvEElEEllvEEvRT_T0_, symObjAddr: 0x28D314, symBinAddr: 0x100291068, symSize: 0x80 }
  - { offsetInCU: 0x577E4, offset: 0x577E4, size: 0x8, addend: 0x0, symName: __ZNSt3__17advanceB8ue170006INS_21__tree_const_iteratorINS_12__value_typeINS_17basic_string_viewIcNS_11char_traitsIcEEEEN5memdb5lexer9AttributeEEEPNS_11__tree_nodeISA_PvEElEEllvEEvRT_T0_, symObjAddr: 0x299014, symBinAddr: 0x10029CD68, symSize: 0x80 }
  - { offsetInCU: 0x5786B, offset: 0x5786B, size: 0x8, addend: 0x0, symName: __ZNSt3__17advanceB8ue170006INS_21__tree_const_iteratorINS_12__value_typeINS_17basic_string_viewIcNS_11char_traitsIcEEEEN5memdb9OperationEEEPNS_11__tree_nodeIS9_PvEElEEllvEEvRT_T0_, symObjAddr: 0x2A4D14, symBinAddr: 0x1002A8A68, symSize: 0x80 }
  - { offsetInCU: 0x578F2, offset: 0x578F2, size: 0x8, addend: 0x0, symName: __ZNSt3__17advanceB8ue170006INS_21__tree_const_iteratorINS_12__value_typeINS_17basic_string_viewIcNS_11char_traitsIcEEEEN5memdb5lexer7BracketEEEPNS_11__tree_nodeISA_PvEElEEllvEEvRT_T0_, symObjAddr: 0x2B0A14, symBinAddr: 0x1002B4768, symSize: 0x80 }
  - { offsetInCU: 0x57979, offset: 0x57979, size: 0x8, addend: 0x0, symName: __ZNSt3__17advanceB8ue170006INS_21__tree_const_iteratorINS_12__value_typeINS_17basic_string_viewIcNS_11char_traitsIcEEEEN5memdb4TypeEEEPNS_11__tree_nodeIS9_PvEElEEllvEEvRT_T0_, symObjAddr: 0x2BC714, symBinAddr: 0x1002C0468, symSize: 0x80 }
  - { offsetInCU: 0x57A00, offset: 0x57A00, size: 0x8, addend: 0x0, symName: __ZNSt3__17advanceB8ue170006INS_21__tree_const_iteratorINS_12__value_typeINS_17basic_string_viewIcNS_11char_traitsIcEEEEN5memdb5lexer5OtherEEEPNS_11__tree_nodeISA_PvEElEEllvEEvRT_T0_, symObjAddr: 0x2C8414, symBinAddr: 0x1002CC168, symSize: 0x80 }
  - { offsetInCU: 0x58B64, offset: 0x58B64, size: 0x8, addend: 0x0, symName: __ZNSt3__1neB8ue170006IPN5memdb9OperationEEEbRKNS_11__wrap_iterIT_EES8_, symObjAddr: 0xB50, symBinAddr: 0x1000048A4, symSize: 0xC4 }
  - { offsetInCU: 0x58BA7, offset: 0x58BA7, size: 0x8, addend: 0x0, symName: __ZNSt3__14findB8ue170006INS_11__wrap_iterIPN5memdb9OperationEEES3_EET_S6_S6_RKT0_, symObjAddr: 0xC14, symBinAddr: 0x100004968, symSize: 0x4F8 }
  - { offsetInCU: 0x58C1D, offset: 0x58C1D, size: 0x8, addend: 0x0, symName: __ZNSt3__1eqB8ue170006ERKNS_14__map_iteratorINS_15__tree_iteratorINS_12__value_typeINS_17basic_string_viewIcNS_11char_traitsIcEEEEN5memdb5lexer7CommandEEEPNS_11__tree_nodeISA_PvEElEEEESI_, symObjAddr: 0x6BE4, symBinAddr: 0x10000A938, symSize: 0xC0 }
  - { offsetInCU: 0x58DAA, offset: 0x58DAA, size: 0x8, addend: 0x0, symName: __ZNSt3__1eqB8ue170006ERKNS_14__map_iteratorINS_15__tree_iteratorINS_12__value_typeINS_17basic_string_viewIcNS_11char_traitsIcEEEEN5memdb5lexer10SubCommandEEEPNS_11__tree_nodeISA_PvEElEEEESI_, symObjAddr: 0x85AC, symBinAddr: 0x10000C300, symSize: 0xC0 }
  - { offsetInCU: 0x58F37, offset: 0x58F37, size: 0x8, addend: 0x0, symName: __ZNSt3__1eqB8ue170006ERKNS_14__map_iteratorINS_15__tree_iteratorINS_12__value_typeINS_17basic_string_viewIcNS_11char_traitsIcEEEEN5memdb5lexer9AttributeEEEPNS_11__tree_nodeISA_PvEElEEEESI_, symObjAddr: 0x9B34, symBinAddr: 0x10000D888, symSize: 0xC0 }
  - { offsetInCU: 0x590C4, offset: 0x590C4, size: 0x8, addend: 0x0, symName: __ZNSt3__1eqB8ue170006ERKNS_14__map_iteratorINS_15__tree_iteratorINS_12__value_typeINS_17basic_string_viewIcNS_11char_traitsIcEEEEN5memdb9OperationEEEPNS_11__tree_nodeIS9_PvEElEEEESH_, symObjAddr: 0xB0BC, symBinAddr: 0x10000EE10, symSize: 0xC0 }
  - { offsetInCU: 0x59251, offset: 0x59251, size: 0x8, addend: 0x0, symName: __ZNSt3__1eqB8ue170006ERKNS_14__map_iteratorINS_15__tree_iteratorINS_12__value_typeINS_17basic_string_viewIcNS_11char_traitsIcEEEEN5memdb5lexer5OtherEEEPNS_11__tree_nodeISA_PvEElEEEESI_, symObjAddr: 0xC644, symBinAddr: 0x100010398, symSize: 0xC0 }
  - { offsetInCU: 0x593DE, offset: 0x593DE, size: 0x8, addend: 0x0, symName: __ZNSt3__1neB8ue170006ERKNS_14__map_iteratorINS_15__tree_iteratorINS_12__value_typeINS_17basic_string_viewIcNS_11char_traitsIcEEEEN5memdb5lexer7BracketEEEPNS_11__tree_nodeISA_PvEElEEEESI_, symObjAddr: 0xE6B0, symBinAddr: 0x100012404, symSize: 0xC0 }
  - { offsetInCU: 0x5941B, offset: 0x5941B, size: 0x8, addend: 0x0, symName: __ZNSt3__1plB8ue170006IcNS_11char_traitsIcEENS_9allocatorIcEEEENS_12basic_stringIT_T0_T1_EERKS9_SB_, symObjAddr: 0xEB00, symBinAddr: 0x100012854, symSize: 0x6A0 }
  - { offsetInCU: 0x59612, offset: 0x59612, size: 0x8, addend: 0x0, symName: __ZNSt3__1eqB8ue170006ERKNS_14__map_iteratorINS_15__tree_iteratorINS_12__value_typeINS_17basic_string_viewIcNS_11char_traitsIcEEEEN5memdb5lexer7BracketEEEPNS_11__tree_nodeISA_PvEElEEEESI_, symObjAddr: 0xFA60, symBinAddr: 0x1000137B4, symSize: 0xC0 }
  - { offsetInCU: 0x5964F, offset: 0x5964F, size: 0x8, addend: 0x0, symName: '__ZNSt3__16all_ofB8ue170006INS_11__wrap_iterIPcEEZN5memdb5lexer5IsIntERNS_6vectorINS_12basic_stringIcNS_11char_traitsIcEENS_9allocatorIcEEEENSA_ISC_EEEEiE3$_0EEbT_SH_T0_', symObjAddr: 0x103D4, symBinAddr: 0x100014128, symSize: 0x384 }
  - { offsetInCU: 0x597D6, offset: 0x597D6, size: 0x8, addend: 0x0, symName: __ZNSt3__1eqB8ue170006ERKNS_14__map_iteratorINS_15__tree_iteratorINS_12__value_typeINS_17basic_string_viewIcNS_11char_traitsIcEEEEN5memdb4TypeEEEPNS_11__tree_nodeIS9_PvEElEEEESH_, symObjAddr: 0x12528, symBinAddr: 0x10001627C, symSize: 0xC0 }
  - { offsetInCU: 0x59BBB, offset: 0x59BBB, size: 0x8, addend: 0x0, symName: __ZNSt3__1eqB8ue170006IcNS_11char_traitsIcEENS_9allocatorIcEEEEbRKNS_12basic_stringIT_T0_T1_EEPKS6_, symObjAddr: 0x16434, symBinAddr: 0x10001A188, symSize: 0x318 }
  - { offsetInCU: 0x5A42E, offset: 0x5A42E, size: 0x8, addend: 0x0, symName: __ZNSt3__122__make_exception_guardB8ue170006INS_6vectorIN5memdb9OperationENS_9allocatorIS3_EEE16__destroy_vectorEEENS_28__exception_guard_exceptionsIT_EES9_, symObjAddr: 0x1AFC8, symBinAddr: 0x10001ED1C, symSize: 0x2BC }
  - { offsetInCU: 0x5A467, offset: 0x5A467, size: 0x8, addend: 0x0, symName: __ZNSt3__119__allocate_at_leastB8ue170006INS_9allocatorIN5memdb9OperationEEEEEDaRT_m, symObjAddr: 0x1CFCC, symBinAddr: 0x100020D20, symSize: 0x250 }
  - { offsetInCU: 0x5A4AC, offset: 0x5A4AC, size: 0x8, addend: 0x0, symName: __ZNSt3__13minB8ue170006ImEERKT_S3_S3_, symObjAddr: 0x1D760, symBinAddr: 0x1000214B4, symSize: 0x104 }
  - { offsetInCU: 0x5A6D9, offset: 0x5A6D9, size: 0x8, addend: 0x0, symName: __ZNSt3__13minB8ue170006ImNS_6__lessIvvEEEERKT_S5_S5_T0_, symObjAddr: 0x1D9BC, symBinAddr: 0x100021710, symSize: 0x2C0 }
  - { offsetInCU: 0x5A7AF, offset: 0x5A7AF, size: 0x8, addend: 0x0, symName: __ZNSt3__120__throw_length_errorB8ue170006EPKc, symObjAddr: 0x1DF08, symBinAddr: 0x100021C5C, symSize: 0xB4 }
  - { offsetInCU: 0x5A7D9, offset: 0x5A7D9, size: 0x8, addend: 0x0, symName: __ZNSt3__117allocate_at_leastB8ue170006INS_9allocatorIN5memdb9OperationEEEEENS_17allocation_resultINS_16allocator_traitsIT_E7pointerEEERS7_m, symObjAddr: 0x1E164, symBinAddr: 0x100021EB8, symSize: 0x224 }
  - { offsetInCU: 0x5A81E, offset: 0x5A81E, size: 0x8, addend: 0x0, symName: __ZNSt3__117__libcpp_allocateB8ue170006Emm, symObjAddr: 0x1E788, symBinAddr: 0x1000224DC, symSize: 0x60 }
  - { offsetInCU: 0x5A878, offset: 0x5A878, size: 0x8, addend: 0x0, symName: __ZNSt3__124__is_overaligned_for_newB8ue170006Em, symObjAddr: 0x1E7E8, symBinAddr: 0x10002253C, symSize: 0x20 }
  - { offsetInCU: 0x5A8A6, offset: 0x5A8A6, size: 0x8, addend: 0x0, symName: __ZNSt3__121__libcpp_operator_newB8ue170006IJmSt11align_val_tEEEPvDpT_, symObjAddr: 0x1E808, symBinAddr: 0x10002255C, symSize: 0x6C }
  - { offsetInCU: 0x5A8F3, offset: 0x5A8F3, size: 0x8, addend: 0x0, symName: __ZNSt3__121__libcpp_operator_newB8ue170006IJmEEEPvDpT_, symObjAddr: 0x1E874, symBinAddr: 0x1000225C8, symSize: 0x24 }
  - { offsetInCU: 0x5A92D, offset: 0x5A92D, size: 0x8, addend: 0x0, symName: __ZNSt3__112__to_addressB8ue170006IN5memdb9OperationEEEPT_S4_, symObjAddr: 0x1EE74, symBinAddr: 0x100022BC8, symSize: 0x14 }
  - { offsetInCU: 0x5A961, offset: 0x5A961, size: 0x8, addend: 0x0, symName: __ZNSt3__130__uninitialized_allocator_copyB8ue170006INS_9allocatorIN5memdb9OperationEEEPKS3_S6_PS3_EET2_RT_T0_T1_S8_, symObjAddr: 0x1F1E0, symBinAddr: 0x100022F34, symSize: 0x334 }
  - { offsetInCU: 0x5AA07, offset: 0x5AA07, size: 0x8, addend: 0x0, symName: __ZNSt3__114__unwrap_rangeB8ue170006IPKN5memdb9OperationES4_EEDaT_T0_, symObjAddr: 0x1FEA8, symBinAddr: 0x100023BFC, symSize: 0x224 }
  - { offsetInCU: 0x5AA55, offset: 0x5AA55, size: 0x8, addend: 0x0, symName: __ZNSt3__135__uninitialized_allocator_copy_implB8ue170006INS_9allocatorIN5memdb9OperationEEEKS3_S3_S3_LPv0EEEPT2_RT_PT0_SC_S8_, symObjAddr: 0x200CC, symBinAddr: 0x100023E20, symSize: 0x38 }
  - { offsetInCU: 0x5AAD7, offset: 0x5AAD7, size: 0x8, addend: 0x0, symName: __ZNSt3__113__unwrap_iterB8ue170006IPN5memdb9OperationENS_18__unwrap_iter_implIS3_Lb1EEELi0EEEDTclsrT0_8__unwrapclsr3stdE7declvalIT_EEEES7_, symObjAddr: 0x20104, symBinAddr: 0x100023E58, symSize: 0x24 }
  - { offsetInCU: 0x5AB1B, offset: 0x5AB1B, size: 0x8, addend: 0x0, symName: __ZNSt3__113__rewrap_iterB8ue170006IPN5memdb9OperationES3_NS_18__unwrap_iter_implIS3_Lb1EEEEET_S6_T0_, symObjAddr: 0x20128, symBinAddr: 0x100023E7C, symSize: 0x48 }
  - { offsetInCU: 0x5ACD9, offset: 0x5ACD9, size: 0x8, addend: 0x0, symName: __ZNSt3__113__unwrap_iterB8ue170006IPKN5memdb9OperationENS_18__unwrap_iter_implIS4_Lb1EEELi0EEEDTclsrT0_8__unwrapclsr3stdE7declvalIT_EEEES8_, symObjAddr: 0x2047C, symBinAddr: 0x1000241D0, symSize: 0x24 }
  - { offsetInCU: 0x5AD71, offset: 0x5AD71, size: 0x8, addend: 0x0, symName: __ZNSt3__112__to_addressB8ue170006IKN5memdb9OperationEEEPT_S5_, symObjAddr: 0x2054C, symBinAddr: 0x1000242A0, symSize: 0x14 }
  - { offsetInCU: 0x5ADA5, offset: 0x5ADA5, size: 0x8, addend: 0x0, symName: __ZNSt3__14copyB8ue170006IPKN5memdb9OperationEPS2_EET0_T_S7_S6_, symObjAddr: 0x20770, symBinAddr: 0x1000244C4, symSize: 0x2B4 }
  - { offsetInCU: 0x5AE02, offset: 0x5AE02, size: 0x8, addend: 0x0, symName: __ZNSt3__16__copyB8ue170006INS_17_ClassicAlgPolicyEPKN5memdb9OperationES5_PS3_EENS_4pairIT0_T2_EES8_T1_S9_, symObjAddr: 0x20A24, symBinAddr: 0x100024778, symSize: 0x22C }
  - { offsetInCU: 0x5AE71, offset: 0x5AE71, size: 0x8, addend: 0x0, symName: __ZNSt3__123__dispatch_copy_or_moveB8ue170006INS_17_ClassicAlgPolicyENS_11__copy_loopIS1_EENS_14__copy_trivialEPKN5memdb9OperationES8_PS6_EENS_4pairIT2_T4_EESB_T3_SC_, symObjAddr: 0x20C50, symBinAddr: 0x1000249A4, symSize: 0x22C }
  - { offsetInCU: 0x5AEF2, offset: 0x5AEF2, size: 0x8, addend: 0x0, symName: __ZNSt3__121__unwrap_and_dispatchB8ue170006INS_10__overloadINS_11__copy_loopINS_17_ClassicAlgPolicyEEENS_14__copy_trivialEEEPKN5memdb9OperationESA_PS8_Li0EEENS_4pairIT0_T2_EESD_T1_SE_, symObjAddr: 0x20E7C, symBinAddr: 0x100024BD0, symSize: 0x634 }
  - { offsetInCU: 0x5B24D, offset: 0x5B24D, size: 0x8, addend: 0x0, symName: __ZNSt3__19make_pairB8ue170006IPKN5memdb9OperationEPS2_EENS_4pairINS_18__unwrap_ref_decayIT_E4typeENS7_IT0_E4typeEEEOS8_OSB_, symObjAddr: 0x2170C, symBinAddr: 0x100025460, symSize: 0x2A0 }
  - { offsetInCU: 0x5B29E, offset: 0x5B29E, size: 0x8, addend: 0x0, symName: __ZNSt3__114__rewrap_rangeB8ue170006IPKN5memdb9OperationES4_S4_EET0_S5_T1_, symObjAddr: 0x219AC, symBinAddr: 0x100025700, symSize: 0x2C }
  - { offsetInCU: 0x5B2F3, offset: 0x5B2F3, size: 0x8, addend: 0x0, symName: __ZNSt3__119__copy_trivial_implB8ue170006IKN5memdb9OperationES2_EENS_4pairIPT_PT0_EES6_S6_S8_, symObjAddr: 0x219D8, symBinAddr: 0x10002572C, symSize: 0x480 }
  - { offsetInCU: 0x5B362, offset: 0x5B362, size: 0x8, addend: 0x0, symName: __ZNSt3__119__constexpr_memmoveB8ue170006IN5memdb9OperationEKS2_Li0EEEPT_S5_PT0_NS_15__element_countE, symObjAddr: 0x21E58, symBinAddr: 0x100025BAC, symSize: 0x64 }
  - { offsetInCU: 0x5B3D0, offset: 0x5B3D0, size: 0x8, addend: 0x0, symName: __ZNSt3__19make_pairB8ue170006IRPKN5memdb9OperationEPS2_EENS_4pairINS_18__unwrap_ref_decayIT_E4typeENS8_IT0_E4typeEEEOS9_OSC_, symObjAddr: 0x21EBC, symBinAddr: 0x100025C10, symSize: 0x2A0 }
  - { offsetInCU: 0x5B421, offset: 0x5B421, size: 0x8, addend: 0x0, symName: __ZNSt3__113__rewrap_iterB8ue170006IPKN5memdb9OperationES4_NS_18__unwrap_iter_implIS4_Lb1EEEEET_S7_T0_, symObjAddr: 0x226B8, symBinAddr: 0x10002640C, symSize: 0x48 }
  - { offsetInCU: 0x5B4C9, offset: 0x5B4C9, size: 0x8, addend: 0x0, symName: __ZNSt3__110destroy_atB8ue170006IN5memdb9OperationELi0EEEvPT_, symObjAddr: 0x23CBC, symBinAddr: 0x100027A10, symSize: 0x24 }
  - { offsetInCU: 0x5B501, offset: 0x5B501, size: 0x8, addend: 0x0, symName: __ZNSt3__112__destroy_atB8ue170006IN5memdb9OperationELi0EEEvPT_, symObjAddr: 0x23CE0, symBinAddr: 0x100027A34, symSize: 0x10 }
  - { offsetInCU: 0x5B538, offset: 0x5B538, size: 0x8, addend: 0x0, symName: __ZNSt3__119__libcpp_deallocateB8ue170006EPvmm, symObjAddr: 0x23D68, symBinAddr: 0x100027ABC, symSize: 0x60 }
  - { offsetInCU: 0x5B59D, offset: 0x5B59D, size: 0x8, addend: 0x0, symName: __ZNSt3__127__do_deallocate_handle_sizeB8ue170006IJSt11align_val_tEEEvPvmDpT_, symObjAddr: 0x23DC8, symBinAddr: 0x100027B1C, symSize: 0x30 }
  - { offsetInCU: 0x5B5F0, offset: 0x5B5F0, size: 0x8, addend: 0x0, symName: __ZNSt3__127__do_deallocate_handle_sizeB8ue170006IJEEEvPvmDpT_, symObjAddr: 0x23DF8, symBinAddr: 0x100027B4C, symSize: 0x28 }
  - { offsetInCU: 0x5B62E, offset: 0x5B62E, size: 0x8, addend: 0x0, symName: __ZNSt3__124__libcpp_operator_deleteB8ue170006IJPvSt11align_val_tEEEvDpT_, symObjAddr: 0x23E20, symBinAddr: 0x100027B74, symSize: 0x2C }
  - { offsetInCU: 0x5B677, offset: 0x5B677, size: 0x8, addend: 0x0, symName: __ZNSt3__124__libcpp_operator_deleteB8ue170006IJPvEEEvDpT_, symObjAddr: 0x23E4C, symBinAddr: 0x100027BA0, symSize: 0x24 }
  - { offsetInCU: 0x5B6AC, offset: 0x5B6AC, size: 0x8, addend: 0x0, symName: __ZNSt3__1eqB8ue170006IPN5memdb9OperationEEEbRKNS_11__wrap_iterIT_EES8_, symObjAddr: 0x24104, symBinAddr: 0x100027E58, symSize: 0x9C }
  - { offsetInCU: 0x5B6EF, offset: 0x5B6EF, size: 0x8, addend: 0x0, symName: __ZNSt3__113__rewrap_iterB8ue170006INS_11__wrap_iterIPN5memdb9OperationEEES4_NS_18__unwrap_iter_implIS5_Lb1EEEEET_S8_T0_, symObjAddr: 0x2424C, symBinAddr: 0x100027FA0, symSize: 0x338 }
  - { offsetInCU: 0x5B749, offset: 0x5B749, size: 0x8, addend: 0x0, symName: __ZNSt3__111__find_implB8ue170006IPN5memdb9OperationES3_S2_NS_10__identityEEET_S5_T0_RKT1_RT2_, symObjAddr: 0x24584, symBinAddr: 0x1000282D8, symSize: 0x28C }
  - { offsetInCU: 0x5B7C3, offset: 0x5B7C3, size: 0x8, addend: 0x0, symName: __ZNSt3__113__unwrap_iterB8ue170006INS_11__wrap_iterIPN5memdb9OperationEEENS_18__unwrap_iter_implIS5_Lb1EEELi0EEEDTclsrT0_8__unwrapclsr3stdE7declvalIT_EEEES9_, symObjAddr: 0x24810, symBinAddr: 0x100028564, symSize: 0x274 }
  - { offsetInCU: 0x5B85E, offset: 0x5B85E, size: 0x8, addend: 0x0, symName: __ZNSt3__112__to_addressB8ue170006INS_11__wrap_iterIPN5memdb9OperationEEEvEEu7__decayIDTclsr19__to_address_helperIT_EE6__callclsr3stdE7declvalIRKS6_EEEEES8_, symObjAddr: 0x24FB0, symBinAddr: 0x100028D04, symSize: 0x6C }
  - { offsetInCU: 0x5B8FC, offset: 0x5B8FC, size: 0x8, addend: 0x0, symName: __ZNSt3__18__invokeB8ue170006IRNS_10__identityEJRN5memdb9OperationEEEEDTclclsr3stdE7declvalIT_EEspclsr3stdE7declvalIT0_EEEEOS6_DpOS7_, symObjAddr: 0x25638, symBinAddr: 0x10002938C, symSize: 0xE8 }
  - { offsetInCU: 0x5B97B, offset: 0x5B97B, size: 0x8, addend: 0x0, symName: __ZNSt3__112__to_addressB8ue170006IKcEEPT_S3_, symObjAddr: 0x28D68, symBinAddr: 0x10002CABC, symSize: 0x14 }
  - { offsetInCU: 0x5B9E3, offset: 0x5B9E3, size: 0x8, addend: 0x0, symName: __ZNSt3__112__to_addressB8ue170006IcEEPT_S2_, symObjAddr: 0x2B384, symBinAddr: 0x10002F0D8, symSize: 0x14 }
  - { offsetInCU: 0x5BA17, offset: 0x5BA17, size: 0x8, addend: 0x0, symName: __ZNSt3__14copyB8ue170006IPKcPcEET0_T_S5_S4_, symObjAddr: 0x2D65C, symBinAddr: 0x1000313B0, symSize: 0x2B4 }
  - { offsetInCU: 0x5BA74, offset: 0x5BA74, size: 0x8, addend: 0x0, symName: __ZNSt3__16__copyB8ue170006INS_17_ClassicAlgPolicyEPKcS3_PcEENS_4pairIT0_T2_EES6_T1_S7_, symObjAddr: 0x2D910, symBinAddr: 0x100031664, symSize: 0x22C }
  - { offsetInCU: 0x5BAE3, offset: 0x5BAE3, size: 0x8, addend: 0x0, symName: __ZNSt3__123__dispatch_copy_or_moveB8ue170006INS_17_ClassicAlgPolicyENS_11__copy_loopIS1_EENS_14__copy_trivialEPKcS6_PcEENS_4pairIT2_T4_EES9_T3_SA_, symObjAddr: 0x2DB3C, symBinAddr: 0x100031890, symSize: 0x22C }
  - { offsetInCU: 0x5BB64, offset: 0x5BB64, size: 0x8, addend: 0x0, symName: __ZNSt3__121__unwrap_and_dispatchB8ue170006INS_10__overloadINS_11__copy_loopINS_17_ClassicAlgPolicyEEENS_14__copy_trivialEEEPKcS8_PcLi0EEENS_4pairIT0_T2_EESB_T1_SC_, symObjAddr: 0x2DD68, symBinAddr: 0x100031ABC, symSize: 0x634 }
  - { offsetInCU: 0x5BBFD, offset: 0x5BBFD, size: 0x8, addend: 0x0, symName: __ZNSt3__114__unwrap_rangeB8ue170006IPKcS2_EEDaT_T0_, symObjAddr: 0x2E39C, symBinAddr: 0x1000320F0, symSize: 0x224 }
  - { offsetInCU: 0x5BD9B, offset: 0x5BD9B, size: 0x8, addend: 0x0, symName: __ZNSt3__113__unwrap_iterB8ue170006IPcNS_18__unwrap_iter_implIS1_Lb1EEELi0EEEDTclsrT0_8__unwrapclsr3stdE7declvalIT_EEEES5_, symObjAddr: 0x2E81C, symBinAddr: 0x100032570, symSize: 0x24 }
  - { offsetInCU: 0x5BDDF, offset: 0x5BDDF, size: 0x8, addend: 0x0, symName: __ZNSt3__19make_pairB8ue170006IPKcPcEENS_4pairINS_18__unwrap_ref_decayIT_E4typeENS5_IT0_E4typeEEEOS6_OS9_, symObjAddr: 0x2E840, symBinAddr: 0x100032594, symSize: 0x2A0 }
  - { offsetInCU: 0x5BE30, offset: 0x5BE30, size: 0x8, addend: 0x0, symName: __ZNSt3__114__rewrap_rangeB8ue170006IPKcS2_S2_EET0_S3_T1_, symObjAddr: 0x2EAE0, symBinAddr: 0x100032834, symSize: 0x2C }
  - { offsetInCU: 0x5BE85, offset: 0x5BE85, size: 0x8, addend: 0x0, symName: __ZNSt3__113__rewrap_iterB8ue170006IPcS1_NS_18__unwrap_iter_implIS1_Lb1EEEEET_S4_T0_, symObjAddr: 0x2EB0C, symBinAddr: 0x100032860, symSize: 0x48 }
  - { offsetInCU: 0x5C043, offset: 0x5C043, size: 0x8, addend: 0x0, symName: __ZNSt3__113__unwrap_iterB8ue170006IPKcNS_18__unwrap_iter_implIS2_Lb1EEELi0EEEDTclsrT0_8__unwrapclsr3stdE7declvalIT_EEEES6_, symObjAddr: 0x2EE60, symBinAddr: 0x100032BB4, symSize: 0x24 }
  - { offsetInCU: 0x5C0DA, offset: 0x5C0DA, size: 0x8, addend: 0x0, symName: __ZNSt3__119__copy_trivial_implB8ue170006IKccEENS_4pairIPT_PT0_EES4_S4_S6_, symObjAddr: 0x2F140, symBinAddr: 0x100032E94, symSize: 0x474 }
  - { offsetInCU: 0x5C149, offset: 0x5C149, size: 0x8, addend: 0x0, symName: __ZNSt3__119__constexpr_memmoveB8ue170006IcKcLi0EEEPT_S3_PT0_NS_15__element_countE, symObjAddr: 0x2F5B4, symBinAddr: 0x100033308, symSize: 0x64 }
  - { offsetInCU: 0x5C1B7, offset: 0x5C1B7, size: 0x8, addend: 0x0, symName: __ZNSt3__19make_pairB8ue170006IRPKcPcEENS_4pairINS_18__unwrap_ref_decayIT_E4typeENS6_IT0_E4typeEEEOS7_OSA_, symObjAddr: 0x2F618, symBinAddr: 0x10003336C, symSize: 0x2A0 }
  - { offsetInCU: 0x5C25B, offset: 0x5C25B, size: 0x8, addend: 0x0, symName: __ZNSt3__113__rewrap_iterB8ue170006IPKcS2_NS_18__unwrap_iter_implIS2_Lb1EEEEET_S5_T0_, symObjAddr: 0x2FE38, symBinAddr: 0x100033B8C, symSize: 0x48 }
  - { offsetInCU: 0x5C2B0, offset: 0x5C2B0, size: 0x8, addend: 0x0, symName: __ZNSt3__16fill_nB8ue170006IPcmcEET_S2_T0_RKT1_, symObjAddr: 0x300E8, symBinAddr: 0x100033E3C, symSize: 0x74 }
  - { offsetInCU: 0x5C313, offset: 0x5C313, size: 0x8, addend: 0x0, symName: __ZNSt3__18__fill_nB8ue170006IPcmcEET_S2_T0_RKT1_, symObjAddr: 0x3015C, symBinAddr: 0x100033EB0, symSize: 0x1DC }
  - { offsetInCU: 0x5C377, offset: 0x5C377, size: 0x8, addend: 0x0, symName: __ZNSt3__121__convert_to_integralB8ue170006Em, symObjAddr: 0x30338, symBinAddr: 0x10003408C, symSize: 0x14 }
  - { offsetInCU: 0x5C3A2, offset: 0x5C3A2, size: 0x8, addend: 0x0, symName: __ZNSt3__1neB8ue170006IPcEEbRKNS_11__wrap_iterIT_EES6_, symObjAddr: 0x308D4, symBinAddr: 0x100034628, symSize: 0xC4 }
  - { offsetInCU: 0x5C3E5, offset: 0x5C3E5, size: 0x8, addend: 0x0, symName: __ZNSt3__1eqB8ue170006IPcEEbRKNS_11__wrap_iterIT_EES6_, symObjAddr: 0x30C68, symBinAddr: 0x1000349BC, symSize: 0x9C }
  - { offsetInCU: 0x5C428, offset: 0x5C428, size: 0x8, addend: 0x0, symName: __ZNSt3__122__make_exception_guardB8ue170006INS_6vectorIcNS_9allocatorIcEEE16__destroy_vectorEEENS_28__exception_guard_exceptionsIT_EES7_, symObjAddr: 0x32554, symBinAddr: 0x1000362A8, symSize: 0x2BC }
  - { offsetInCU: 0x5C461, offset: 0x5C461, size: 0x8, addend: 0x0, symName: __ZNSt3__119__allocate_at_leastB8ue170006INS_9allocatorIcEEEEDaRT_m, symObjAddr: 0x341EC, symBinAddr: 0x100037F40, symSize: 0x250 }
  - { offsetInCU: 0x5C4A6, offset: 0x5C4A6, size: 0x8, addend: 0x0, symName: __ZNSt3__117allocate_at_leastB8ue170006INS_9allocatorIcEEEENS_17allocation_resultINS_16allocator_traitsIT_E7pointerEEERS5_m, symObjAddr: 0x34B6C, symBinAddr: 0x1000388C0, symSize: 0x224 }
  - { offsetInCU: 0x5C512, offset: 0x5C512, size: 0x8, addend: 0x0, symName: __ZNSt3__112construct_atB8ue170006IcJEPcEEPT_S3_DpOT0_, symObjAddr: 0x362B4, symBinAddr: 0x10003A008, symSize: 0xE8 }
  - { offsetInCU: 0x5C570, offset: 0x5C570, size: 0x8, addend: 0x0, symName: __ZNSt3__110destroy_atB8ue170006IcLi0EEEvPT_, symObjAddr: 0x376B4, symBinAddr: 0x10003B408, symSize: 0x24 }
  - { offsetInCU: 0x5C5A8, offset: 0x5C5A8, size: 0x8, addend: 0x0, symName: __ZNSt3__112__destroy_atB8ue170006IcLi0EEEvPT_, symObjAddr: 0x376D8, symBinAddr: 0x10003B42C, symSize: 0x10 }
  - { offsetInCU: 0x5C5DF, offset: 0x5C5DF, size: 0x8, addend: 0x0, symName: __ZNSt3__130__uninitialized_allocator_copyB8ue170006INS_9allocatorIcEEPcS3_S3_EET2_RT_T0_T1_S4_, symObjAddr: 0x39950, symBinAddr: 0x10003D6A4, symSize: 0x334 }
  - { offsetInCU: 0x5C685, offset: 0x5C685, size: 0x8, addend: 0x0, symName: __ZNSt3__114__unwrap_rangeB8ue170006IPcS1_EEDaT_T0_, symObjAddr: 0x39C84, symBinAddr: 0x10003D9D8, symSize: 0x224 }
  - { offsetInCU: 0x5C6D3, offset: 0x5C6D3, size: 0x8, addend: 0x0, symName: __ZNSt3__135__uninitialized_allocator_copy_implB8ue170006INS_9allocatorIcEEcccLPv0EEEPT2_RT_PT0_S9_S5_, symObjAddr: 0x39EA8, symBinAddr: 0x10003DBFC, symSize: 0x38 }
  - { offsetInCU: 0x5C8ED, offset: 0x5C8ED, size: 0x8, addend: 0x0, symName: __ZNSt3__14copyB8ue170006IPcS1_EET0_T_S3_S2_, symObjAddr: 0x3A484, symBinAddr: 0x10003E1D8, symSize: 0x2B4 }
  - { offsetInCU: 0x5C94A, offset: 0x5C94A, size: 0x8, addend: 0x0, symName: __ZNSt3__16__copyB8ue170006INS_17_ClassicAlgPolicyEPcS2_S2_EENS_4pairIT0_T2_EES4_T1_S5_, symObjAddr: 0x3A738, symBinAddr: 0x10003E48C, symSize: 0x22C }
  - { offsetInCU: 0x5C9B9, offset: 0x5C9B9, size: 0x8, addend: 0x0, symName: __ZNSt3__123__dispatch_copy_or_moveB8ue170006INS_17_ClassicAlgPolicyENS_11__copy_loopIS1_EENS_14__copy_trivialEPcS5_S5_EENS_4pairIT2_T4_EES7_T3_S8_, symObjAddr: 0x3A964, symBinAddr: 0x10003E6B8, symSize: 0x22C }
  - { offsetInCU: 0x5CA3A, offset: 0x5CA3A, size: 0x8, addend: 0x0, symName: __ZNSt3__121__unwrap_and_dispatchB8ue170006INS_10__overloadINS_11__copy_loopINS_17_ClassicAlgPolicyEEENS_14__copy_trivialEEEPcS7_S7_Li0EEENS_4pairIT0_T2_EES9_T1_SA_, symObjAddr: 0x3AB90, symBinAddr: 0x10003E8E4, symSize: 0x634 }
  - { offsetInCU: 0x5CAD3, offset: 0x5CAD3, size: 0x8, addend: 0x0, symName: __ZNSt3__19make_pairB8ue170006IPcS1_EENS_4pairINS_18__unwrap_ref_decayIT_E4typeENS3_IT0_E4typeEEEOS4_OS7_, symObjAddr: 0x3B420, symBinAddr: 0x10003F174, symSize: 0x2A0 }
  - { offsetInCU: 0x5CB24, offset: 0x5CB24, size: 0x8, addend: 0x0, symName: __ZNSt3__114__rewrap_rangeB8ue170006IPcS1_S1_EET0_S2_T1_, symObjAddr: 0x3B6C0, symBinAddr: 0x10003F414, symSize: 0x2C }
  - { offsetInCU: 0x5CB79, offset: 0x5CB79, size: 0x8, addend: 0x0, symName: __ZNSt3__119__copy_trivial_implB8ue170006IccEENS_4pairIPT_PT0_EES3_S3_S5_, symObjAddr: 0x3B6EC, symBinAddr: 0x10003F440, symSize: 0x474 }
  - { offsetInCU: 0x5CBE8, offset: 0x5CBE8, size: 0x8, addend: 0x0, symName: __ZNSt3__119__constexpr_memmoveB8ue170006IccLi0EEEPT_S2_PT0_NS_15__element_countE, symObjAddr: 0x3BB60, symBinAddr: 0x10003F8B4, symSize: 0x64 }
  - { offsetInCU: 0x5CC56, offset: 0x5CC56, size: 0x8, addend: 0x0, symName: __ZNSt3__19make_pairB8ue170006IRPcS1_EENS_4pairINS_18__unwrap_ref_decayIT_E4typeENS4_IT0_E4typeEEEOS5_OS8_, symObjAddr: 0x3BBC4, symBinAddr: 0x10003F918, symSize: 0x2A0 }
  - { offsetInCU: 0x5CCA7, offset: 0x5CCA7, size: 0x8, addend: 0x0, symName: __ZNSt3__1eqB8ue170006IcNS_11char_traitsIcEEEEbNS_17basic_string_viewIT_T0_EES6_, symObjAddr: 0x3C128, symBinAddr: 0x10003FE7C, symSize: 0x348 }
  - { offsetInCU: 0x5CCFE, offset: 0x5CCFE, size: 0x8, addend: 0x0, symName: __ZNSt3__118__constexpr_strlenB8ue170006EPKc, symObjAddr: 0x3D238, symBinAddr: 0x100040F8C, symSize: 0x24 }
  - { offsetInCU: 0x5CD2A, offset: 0x5CD2A, size: 0x8, addend: 0x0, symName: __ZNSt3__122__make_exception_guardB8ue170006INS_6vectorINS1_IN5memdb9OperationENS_9allocatorIS3_EEEENS4_IS6_EEE16__destroy_vectorEEENS_28__exception_guard_exceptionsIT_EESB_, symObjAddr: 0x3D894, symBinAddr: 0x1000415E8, symSize: 0x2BC }
  - { offsetInCU: 0x5CD63, offset: 0x5CD63, size: 0x8, addend: 0x0, symName: __ZNSt3__119__allocate_at_leastB8ue170006INS_9allocatorINS_6vectorIN5memdb9OperationENS1_IS4_EEEEEEEEDaRT_m, symObjAddr: 0x3F8A8, symBinAddr: 0x1000435FC, symSize: 0x250 }
  - { offsetInCU: 0x5CDA8, offset: 0x5CDA8, size: 0x8, addend: 0x0, symName: __ZNSt3__117allocate_at_leastB8ue170006INS_9allocatorINS_6vectorIN5memdb9OperationENS1_IS4_EEEEEEEENS_17allocation_resultINS_16allocator_traitsIT_E7pointerEEERSA_m, symObjAddr: 0x40308, symBinAddr: 0x10004405C, symSize: 0x224 }
  - { offsetInCU: 0x5CDEE, offset: 0x5CDEE, size: 0x8, addend: 0x0, symName: __ZNSt3__112__to_addressB8ue170006INS_6vectorIN5memdb9OperationENS_9allocatorIS3_EEEEEEPT_S8_, symObjAddr: 0x40E90, symBinAddr: 0x100044BE4, symSize: 0x14 }
  - { offsetInCU: 0x5CE22, offset: 0x5CE22, size: 0x8, addend: 0x0, symName: __ZNSt3__130__uninitialized_allocator_copyB8ue170006INS_9allocatorINS_6vectorIN5memdb9OperationENS1_IS4_EEEEEEPKS6_S9_PS6_EET2_RT_T0_T1_SB_, symObjAddr: 0x411FC, symBinAddr: 0x100044F50, symSize: 0x334 }
  - { offsetInCU: 0x5CEC8, offset: 0x5CEC8, size: 0x8, addend: 0x0, symName: __ZNSt3__114__unwrap_rangeB8ue170006IPKNS_6vectorIN5memdb9OperationENS_9allocatorIS3_EEEES8_EEDaT_T0_, symObjAddr: 0x41EEC, symBinAddr: 0x100045C40, symSize: 0x224 }
  - { offsetInCU: 0x5CF16, offset: 0x5CF16, size: 0x8, addend: 0x0, symName: __ZNSt3__135__uninitialized_allocator_copy_implB8ue170006INS_9allocatorINS_6vectorIN5memdb9OperationENS1_IS4_EEEEEEPKS6_S9_PS6_EET2_RT_T0_T1_SB_, symObjAddr: 0x42110, symBinAddr: 0x100045E64, symSize: 0x6EC }
  - { offsetInCU: 0x5CFC2, offset: 0x5CFC2, size: 0x8, addend: 0x0, symName: __ZNSt3__113__unwrap_iterB8ue170006IPNS_6vectorIN5memdb9OperationENS_9allocatorIS3_EEEENS_18__unwrap_iter_implIS7_Lb1EEELi0EEEDTclsrT0_8__unwrapclsr3stdE7declvalIT_EEEESB_, symObjAddr: 0x427FC, symBinAddr: 0x100046550, symSize: 0x24 }
  - { offsetInCU: 0x5D006, offset: 0x5D006, size: 0x8, addend: 0x0, symName: __ZNSt3__113__rewrap_iterB8ue170006IPNS_6vectorIN5memdb9OperationENS_9allocatorIS3_EEEES7_NS_18__unwrap_iter_implIS7_Lb1EEEEET_SA_T0_, symObjAddr: 0x42820, symBinAddr: 0x100046574, symSize: 0x48 }
  - { offsetInCU: 0x5D1AA, offset: 0x5D1AA, size: 0x8, addend: 0x0, symName: __ZNSt3__113__unwrap_iterB8ue170006IPKNS_6vectorIN5memdb9OperationENS_9allocatorIS3_EEEENS_18__unwrap_iter_implIS8_Lb1EEELi0EEEDTclsrT0_8__unwrapclsr3stdE7declvalIT_EEEESC_, symObjAddr: 0x42B74, symBinAddr: 0x1000468C8, symSize: 0x24 }
  - { offsetInCU: 0x5D242, offset: 0x5D242, size: 0x8, addend: 0x0, symName: __ZNSt3__112__to_addressB8ue170006IKNS_6vectorIN5memdb9OperationENS_9allocatorIS3_EEEEEEPT_S9_, symObjAddr: 0x42C44, symBinAddr: 0x100046998, symSize: 0x14 }
  - { offsetInCU: 0x5D276, offset: 0x5D276, size: 0x8, addend: 0x0, symName: __ZNSt3__122__make_exception_guardB8ue170006INS_29_AllocatorDestroyRangeReverseINS_9allocatorINS_6vectorIN5memdb9OperationENS2_IS5_EEEEEEPS7_EEEENS_28__exception_guard_exceptionsIT_EESC_, symObjAddr: 0x42E68, symBinAddr: 0x100046BBC, symSize: 0x23C }
  - { offsetInCU: 0x5D2D4, offset: 0x5D2D4, size: 0x8, addend: 0x0, symName: __ZNSt3__112construct_atB8ue170006INS_6vectorIN5memdb9OperationENS_9allocatorIS3_EEEEJRKS6_EPS6_EEPT_SB_DpOT0_, symObjAddr: 0x4368C, symBinAddr: 0x1000473E0, symSize: 0x110 }
  - { offsetInCU: 0x5D346, offset: 0x5D346, size: 0x8, addend: 0x0, symName: __ZNSt3__130__uninitialized_allocator_copyB8ue170006INS_9allocatorIN5memdb9OperationEEEPS3_S5_S5_EET2_RT_T0_T1_S6_, symObjAddr: 0x447BC, symBinAddr: 0x100048510, symSize: 0x334 }
  - { offsetInCU: 0x5D3EC, offset: 0x5D3EC, size: 0x8, addend: 0x0, symName: __ZNSt3__114__unwrap_rangeB8ue170006IPN5memdb9OperationES3_EEDaT_T0_, symObjAddr: 0x44AF0, symBinAddr: 0x100048844, symSize: 0x224 }
  - { offsetInCU: 0x5D43A, offset: 0x5D43A, size: 0x8, addend: 0x0, symName: __ZNSt3__135__uninitialized_allocator_copy_implB8ue170006INS_9allocatorIN5memdb9OperationEEES3_S3_S3_LPv0EEEPT2_RT_PT0_SB_S7_, symObjAddr: 0x44D14, symBinAddr: 0x100048A68, symSize: 0x38 }
  - { offsetInCU: 0x5D654, offset: 0x5D654, size: 0x8, addend: 0x0, symName: __ZNSt3__14copyB8ue170006IPN5memdb9OperationES3_EET0_T_S5_S4_, symObjAddr: 0x452F0, symBinAddr: 0x100049044, symSize: 0x2B4 }
  - { offsetInCU: 0x5D6B1, offset: 0x5D6B1, size: 0x8, addend: 0x0, symName: __ZNSt3__16__copyB8ue170006INS_17_ClassicAlgPolicyEPN5memdb9OperationES4_S4_EENS_4pairIT0_T2_EES6_T1_S7_, symObjAddr: 0x455A4, symBinAddr: 0x1000492F8, symSize: 0x22C }
  - { offsetInCU: 0x5D720, offset: 0x5D720, size: 0x8, addend: 0x0, symName: __ZNSt3__123__dispatch_copy_or_moveB8ue170006INS_17_ClassicAlgPolicyENS_11__copy_loopIS1_EENS_14__copy_trivialEPN5memdb9OperationES7_S7_EENS_4pairIT2_T4_EES9_T3_SA_, symObjAddr: 0x457D0, symBinAddr: 0x100049524, symSize: 0x22C }
  - { offsetInCU: 0x5D7A1, offset: 0x5D7A1, size: 0x8, addend: 0x0, symName: __ZNSt3__121__unwrap_and_dispatchB8ue170006INS_10__overloadINS_11__copy_loopINS_17_ClassicAlgPolicyEEENS_14__copy_trivialEEEPN5memdb9OperationES9_S9_Li0EEENS_4pairIT0_T2_EESB_T1_SC_, symObjAddr: 0x459FC, symBinAddr: 0x100049750, symSize: 0x634 }
  - { offsetInCU: 0x5D83A, offset: 0x5D83A, size: 0x8, addend: 0x0, symName: __ZNSt3__19make_pairB8ue170006IPN5memdb9OperationES3_EENS_4pairINS_18__unwrap_ref_decayIT_E4typeENS5_IT0_E4typeEEEOS6_OS9_, symObjAddr: 0x4628C, symBinAddr: 0x100049FE0, symSize: 0x2A0 }
  - { offsetInCU: 0x5D88B, offset: 0x5D88B, size: 0x8, addend: 0x0, symName: __ZNSt3__114__rewrap_rangeB8ue170006IPN5memdb9OperationES3_S3_EET0_S4_T1_, symObjAddr: 0x4652C, symBinAddr: 0x10004A280, symSize: 0x2C }
  - { offsetInCU: 0x5D8E0, offset: 0x5D8E0, size: 0x8, addend: 0x0, symName: __ZNSt3__119__copy_trivial_implB8ue170006IN5memdb9OperationES2_EENS_4pairIPT_PT0_EES5_S5_S7_, symObjAddr: 0x46558, symBinAddr: 0x10004A2AC, symSize: 0x480 }
  - { offsetInCU: 0x5D94F, offset: 0x5D94F, size: 0x8, addend: 0x0, symName: __ZNSt3__119__constexpr_memmoveB8ue170006IN5memdb9OperationES2_Li0EEEPT_S4_PT0_NS_15__element_countE, symObjAddr: 0x469D8, symBinAddr: 0x10004A72C, symSize: 0x64 }
  - { offsetInCU: 0x5D9BD, offset: 0x5D9BD, size: 0x8, addend: 0x0, symName: __ZNSt3__19make_pairB8ue170006IRPN5memdb9OperationES3_EENS_4pairINS_18__unwrap_ref_decayIT_E4typeENS6_IT0_E4typeEEEOS7_OSA_, symObjAddr: 0x46A3C, symBinAddr: 0x10004A790, symSize: 0x2A0 }
  - { offsetInCU: 0x5DA0E, offset: 0x5DA0E, size: 0x8, addend: 0x0, symName: __ZNSt3__119__allocator_destroyB8ue170006INS_9allocatorINS_6vectorIN5memdb9OperationENS1_IS4_EEEEEENS_16reverse_iteratorIPS6_EESA_EEvRT_T0_T1_, symObjAddr: 0x47528, symBinAddr: 0x10004B27C, symSize: 0x2DC }
  - { offsetInCU: 0x5DA7A, offset: 0x5DA7A, size: 0x8, addend: 0x0, symName: __ZNSt3__1neB8ue170006IPNS_6vectorIN5memdb9OperationENS_9allocatorIS3_EEEES7_EEbRKNS_16reverse_iteratorIT_EERKNS8_IT0_EE, symObjAddr: 0x47884, symBinAddr: 0x10004B5D8, symSize: 0x9C }
  - { offsetInCU: 0x5DAC6, offset: 0x5DAC6, size: 0x8, addend: 0x0, symName: __ZNSt3__112__to_addressB8ue170006INS_16reverse_iteratorIPNS_6vectorIN5memdb9OperationENS_9allocatorIS4_EEEEEEvEEu7__decayIDTclsr19__to_address_helperIT_EE6__callclsr3stdE7declvalIRKSA_EEEEESC_, symObjAddr: 0x47948, symBinAddr: 0x10004B69C, symSize: 0x6C }
  - { offsetInCU: 0x5DAFC, offset: 0x5DAFC, size: 0x8, addend: 0x0, symName: __ZNSt3__110destroy_atB8ue170006INS_6vectorIN5memdb9OperationENS_9allocatorIS3_EEEELi0EEEvPT_, symObjAddr: 0x47C14, symBinAddr: 0x10004B968, symSize: 0x24 }
  - { offsetInCU: 0x5DB33, offset: 0x5DB33, size: 0x8, addend: 0x0, symName: __ZNSt3__112__destroy_atB8ue170006INS_6vectorIN5memdb9OperationENS_9allocatorIS3_EEEELi0EEEvPT_, symObjAddr: 0x47C38, symBinAddr: 0x10004B98C, symSize: 0x6C }
  - { offsetInCU: 0x5DB94, offset: 0x5DB94, size: 0x8, addend: 0x0, symName: __ZNSt3__14prevB8ue170006IPNS_6vectorIN5memdb9OperationENS_9allocatorIS3_EEEEEENS_9enable_ifIXsr29__has_input_iterator_categoryIT_EE5valueES9_E4typeES9_NS_15iterator_traitsIS9_E15difference_typeE, symObjAddr: 0x47DCC, symBinAddr: 0x10004BB20, symSize: 0x270 }
  - { offsetInCU: 0x5DBDD, offset: 0x5DBDD, size: 0x8, addend: 0x0, symName: __ZNSt3__121__convert_to_integralB8ue170006El, symObjAddr: 0x480BC, symBinAddr: 0x10004BE10, symSize: 0x14 }
  - { offsetInCU: 0x5DC08, offset: 0x5DC08, size: 0x8, addend: 0x0, symName: __ZNSt3__19__advanceB8ue170006IPNS_6vectorIN5memdb9OperationENS_9allocatorIS3_EEEEEEvRT_NS_15iterator_traitsIS8_E15difference_typeENS_26random_access_iterator_tagE, symObjAddr: 0x480D0, symBinAddr: 0x10004BE24, symSize: 0x1A4 }
  - { offsetInCU: 0x5DCA5, offset: 0x5DCA5, size: 0x8, addend: 0x0, symName: __ZNSt3__122__make_exception_guardB8ue170006INS_6vectorINS_10shared_ptrIN5memdb6parser9CmdParserEEENS_9allocatorIS6_EEE16__destroy_vectorEEENS_28__exception_guard_exceptionsIT_EESC_, symObjAddr: 0x4AEFC, symBinAddr: 0x10004EC50, symSize: 0x2BC }
  - { offsetInCU: 0x5DCDE, offset: 0x5DCDE, size: 0x8, addend: 0x0, symName: __ZNSt3__119__allocate_at_leastB8ue170006INS_9allocatorINS_10shared_ptrIN5memdb6parser9CmdParserEEEEEEEDaRT_m, symObjAddr: 0x4CF00, symBinAddr: 0x100050C54, symSize: 0x250 }
  - { offsetInCU: 0x5DD23, offset: 0x5DD23, size: 0x8, addend: 0x0, symName: __ZNSt3__117allocate_at_leastB8ue170006INS_9allocatorINS_10shared_ptrIN5memdb6parser9CmdParserEEEEEEENS_17allocation_resultINS_16allocator_traitsIT_E7pointerEEERSA_m, symObjAddr: 0x4D948, symBinAddr: 0x10005169C, symSize: 0x224 }
  - { offsetInCU: 0x5DD69, offset: 0x5DD69, size: 0x8, addend: 0x0, symName: __ZNSt3__112__to_addressB8ue170006INS_10shared_ptrIN5memdb6parser9CmdParserEEEEEPT_S7_, symObjAddr: 0x4E4CC, symBinAddr: 0x100052220, symSize: 0x14 }
  - { offsetInCU: 0x5DD9D, offset: 0x5DD9D, size: 0x8, addend: 0x0, symName: __ZNSt3__130__uninitialized_allocator_copyB8ue170006INS_9allocatorINS_10shared_ptrIN5memdb6parser9CmdParserEEEEEPKS6_S9_PS6_EET2_RT_T0_T1_SB_, symObjAddr: 0x4E838, symBinAddr: 0x10005258C, symSize: 0x334 }
  - { offsetInCU: 0x5DE43, offset: 0x5DE43, size: 0x8, addend: 0x0, symName: __ZNSt3__114__unwrap_rangeB8ue170006IPKNS_10shared_ptrIN5memdb6parser9CmdParserEEES7_EEDaT_T0_, symObjAddr: 0x4F500, symBinAddr: 0x100053254, symSize: 0x224 }
  - { offsetInCU: 0x5DE91, offset: 0x5DE91, size: 0x8, addend: 0x0, symName: __ZNSt3__135__uninitialized_allocator_copy_implB8ue170006INS_9allocatorINS_10shared_ptrIN5memdb6parser9CmdParserEEEEEPKS6_S9_PS6_EET2_RT_T0_T1_SB_, symObjAddr: 0x4F724, symBinAddr: 0x100053478, symSize: 0x6EC }
  - { offsetInCU: 0x5DF3D, offset: 0x5DF3D, size: 0x8, addend: 0x0, symName: __ZNSt3__113__unwrap_iterB8ue170006IPNS_10shared_ptrIN5memdb6parser9CmdParserEEENS_18__unwrap_iter_implIS6_Lb1EEELi0EEEDTclsrT0_8__unwrapclsr3stdE7declvalIT_EEEESA_, symObjAddr: 0x4FE10, symBinAddr: 0x100053B64, symSize: 0x24 }
  - { offsetInCU: 0x5DF81, offset: 0x5DF81, size: 0x8, addend: 0x0, symName: __ZNSt3__113__rewrap_iterB8ue170006IPNS_10shared_ptrIN5memdb6parser9CmdParserEEES6_NS_18__unwrap_iter_implIS6_Lb1EEEEET_S9_T0_, symObjAddr: 0x4FE34, symBinAddr: 0x100053B88, symSize: 0x48 }
  - { offsetInCU: 0x5E125, offset: 0x5E125, size: 0x8, addend: 0x0, symName: __ZNSt3__113__unwrap_iterB8ue170006IPKNS_10shared_ptrIN5memdb6parser9CmdParserEEENS_18__unwrap_iter_implIS7_Lb1EEELi0EEEDTclsrT0_8__unwrapclsr3stdE7declvalIT_EEEESB_, symObjAddr: 0x50188, symBinAddr: 0x100053EDC, symSize: 0x24 }
  - { offsetInCU: 0x5E1BD, offset: 0x5E1BD, size: 0x8, addend: 0x0, symName: __ZNSt3__112__to_addressB8ue170006IKNS_10shared_ptrIN5memdb6parser9CmdParserEEEEEPT_S8_, symObjAddr: 0x50258, symBinAddr: 0x100053FAC, symSize: 0x14 }
  - { offsetInCU: 0x5E1F1, offset: 0x5E1F1, size: 0x8, addend: 0x0, symName: __ZNSt3__122__make_exception_guardB8ue170006INS_29_AllocatorDestroyRangeReverseINS_9allocatorINS_10shared_ptrIN5memdb6parser9CmdParserEEEEEPS7_EEEENS_28__exception_guard_exceptionsIT_EESC_, symObjAddr: 0x5047C, symBinAddr: 0x1000541D0, symSize: 0x23C }
  - { offsetInCU: 0x5E24F, offset: 0x5E24F, size: 0x8, addend: 0x0, symName: __ZNSt3__112construct_atB8ue170006INS_10shared_ptrIN5memdb6parser9CmdParserEEEJRKS5_EPS5_EEPT_SA_DpOT0_, symObjAddr: 0x50CA0, symBinAddr: 0x1000549F4, symSize: 0x110 }
  - { offsetInCU: 0x5E2C1, offset: 0x5E2C1, size: 0x8, addend: 0x0, symName: __ZNSt3__134__libcpp_atomic_refcount_incrementB8ue170006IlEET_RS1_, symObjAddr: 0x513EC, symBinAddr: 0x100055140, symSize: 0x80 }
  - { offsetInCU: 0x5E2F6, offset: 0x5E2F6, size: 0x8, addend: 0x0, symName: __ZNSt3__119__allocator_destroyB8ue170006INS_9allocatorINS_10shared_ptrIN5memdb6parser9CmdParserEEEEENS_16reverse_iteratorIPS6_EESA_EEvRT_T0_T1_, symObjAddr: 0x519F4, symBinAddr: 0x100055748, symSize: 0x2DC }
  - { offsetInCU: 0x5E362, offset: 0x5E362, size: 0x8, addend: 0x0, symName: __ZNSt3__1neB8ue170006IPNS_10shared_ptrIN5memdb6parser9CmdParserEEES6_EEbRKNS_16reverse_iteratorIT_EERKNS7_IT0_EE, symObjAddr: 0x51D50, symBinAddr: 0x100055AA4, symSize: 0x9C }
  - { offsetInCU: 0x5E3AE, offset: 0x5E3AE, size: 0x8, addend: 0x0, symName: __ZNSt3__112__to_addressB8ue170006INS_16reverse_iteratorIPNS_10shared_ptrIN5memdb6parser9CmdParserEEEEEvEEu7__decayIDTclsr19__to_address_helperIT_EE6__callclsr3stdE7declvalIRKS9_EEEEESB_, symObjAddr: 0x51E14, symBinAddr: 0x100055B68, symSize: 0x6C }
  - { offsetInCU: 0x5E3E4, offset: 0x5E3E4, size: 0x8, addend: 0x0, symName: __ZNSt3__110destroy_atB8ue170006INS_10shared_ptrIN5memdb6parser9CmdParserEEELi0EEEvPT_, symObjAddr: 0x520E0, symBinAddr: 0x100055E34, symSize: 0x24 }
  - { offsetInCU: 0x5E41B, offset: 0x5E41B, size: 0x8, addend: 0x0, symName: __ZNSt3__112__destroy_atB8ue170006INS_10shared_ptrIN5memdb6parser9CmdParserEEELi0EEEvPT_, symObjAddr: 0x52104, symBinAddr: 0x100055E58, symSize: 0x6C }
  - { offsetInCU: 0x5E47C, offset: 0x5E47C, size: 0x8, addend: 0x0, symName: __ZNSt3__14prevB8ue170006IPNS_10shared_ptrIN5memdb6parser9CmdParserEEEEENS_9enable_ifIXsr29__has_input_iterator_categoryIT_EE5valueES8_E4typeES8_NS_15iterator_traitsIS8_E15difference_typeE, symObjAddr: 0x52298, symBinAddr: 0x100055FEC, symSize: 0x270 }
  - { offsetInCU: 0x5E4C4, offset: 0x5E4C4, size: 0x8, addend: 0x0, symName: __ZNSt3__19__advanceB8ue170006IPNS_10shared_ptrIN5memdb6parser9CmdParserEEEEEvRT_NS_15iterator_traitsIS7_E15difference_typeENS_26random_access_iterator_tagE, symObjAddr: 0x52588, symBinAddr: 0x1000562DC, symSize: 0x19C }
  - { offsetInCU: 0x5E594, offset: 0x5E594, size: 0x8, addend: 0x0, symName: __ZNSt3__128__char_traits_length_checkedB8ue170006INS_11char_traitsIcEEEEmPKNT_9char_typeE, symObjAddr: 0x55BFC, symBinAddr: 0x100059950, symSize: 0x24 }
  - { offsetInCU: 0x5E993, offset: 0x5E993, size: 0x8, addend: 0x0, symName: __ZNSt3__1neB8ue170006IPNS_10shared_ptrIN5memdb6parser9CmdParserEEEEEbRKNS_11__wrap_iterIT_EESB_, symObjAddr: 0x573C4, symBinAddr: 0x10005B118, symSize: 0xC4 }
  - { offsetInCU: 0x5ED8A, offset: 0x5ED8A, size: 0x8, addend: 0x0, symName: __ZNSt3__112__to_addressB8ue170006INS_12basic_stringIcNS_11char_traitsIcEENS_9allocatorIcEEEEEEPT_S8_, symObjAddr: 0x66D00, symBinAddr: 0x10006AA54, symSize: 0x14 }
  - { offsetInCU: 0x5EDE5, offset: 0x5EDE5, size: 0x8, addend: 0x0, symName: __ZNSt3__112construct_atB8ue170006INS_12basic_stringIcNS_11char_traitsIcEENS_9allocatorIcEEEEJS6_EPS6_EEPT_S9_DpOT0_, symObjAddr: 0x67B38, symBinAddr: 0x10006B88C, symSize: 0x110 }
  - { offsetInCU: 0x5EE57, offset: 0x5EE57, size: 0x8, addend: 0x0, symName: __ZNSt3__13maxB8ue170006ImEERKT_S3_S3_, symObjAddr: 0x696C4, symBinAddr: 0x10006D418, symSize: 0x104 }
  - { offsetInCU: 0x5EE9A, offset: 0x5EE9A, size: 0x8, addend: 0x0, symName: __ZNSt3__13maxB8ue170006ImNS_6__lessIvvEEEERKT_S5_S5_T0_, symObjAddr: 0x69A7C, symBinAddr: 0x10006D7D0, symSize: 0x2C0 }
  - { offsetInCU: 0x5EEFA, offset: 0x5EEFA, size: 0x8, addend: 0x0, symName: __ZNSt3__119__allocate_at_leastB8ue170006INS_9allocatorINS_12basic_stringIcNS_11char_traitsIcEENS1_IcEEEEEEEEDaRT_m, symObjAddr: 0x6A5AC, symBinAddr: 0x10006E300, symSize: 0x250 }
  - { offsetInCU: 0x5EF3F, offset: 0x5EF3F, size: 0x8, addend: 0x0, symName: __ZNSt3__117allocate_at_leastB8ue170006INS_9allocatorINS_12basic_stringIcNS_11char_traitsIcEENS1_IcEEEEEEEENS_17allocation_resultINS_16allocator_traitsIT_E7pointerEEERSA_m, symObjAddr: 0x6AC64, symBinAddr: 0x10006E9B8, symSize: 0x224 }
  - { offsetInCU: 0x5EF84, offset: 0x5EF84, size: 0x8, addend: 0x0, symName: __ZNSt3__142__uninitialized_allocator_move_if_noexceptB8ue170006INS_9allocatorINS_12basic_stringIcNS_11char_traitsIcEENS1_IcEEEEEENS_16reverse_iteratorIPS6_EESA_SA_EET2_RT_T0_T1_SB_, symObjAddr: 0x6B8A4, symBinAddr: 0x10006F5F8, symSize: 0x5D8 }
  - { offsetInCU: 0x5F039, offset: 0x5F039, size: 0x8, addend: 0x0, symName: __ZNSt3__14swapB8ue170006IPNS_12basic_stringIcNS_11char_traitsIcEENS_9allocatorIcEEEEEENS_9enable_ifIXaasr21is_move_constructibleIT_EE5valuesr18is_move_assignableIS9_EE5valueEvE4typeERS9_SC_, symObjAddr: 0x6BFAC, symBinAddr: 0x10006FD00, symSize: 0x1C0 }
  - { offsetInCU: 0x5F08A, offset: 0x5F08A, size: 0x8, addend: 0x0, symName: __ZNSt3__122__make_exception_guardB8ue170006INS_29_AllocatorDestroyRangeReverseINS_9allocatorINS_12basic_stringIcNS_11char_traitsIcEENS2_IcEEEEEENS_16reverse_iteratorIPS7_EEEEEENS_28__exception_guard_exceptionsIT_EESE_, symObjAddr: 0x6C4E4, symBinAddr: 0x100070238, symSize: 0x23C }
  - { offsetInCU: 0x5F0C1, offset: 0x5F0C1, size: 0x8, addend: 0x0, symName: __ZNSt3__1neB8ue170006IPNS_12basic_stringIcNS_11char_traitsIcEENS_9allocatorIcEEEES7_EEbRKNS_16reverse_iteratorIT_EERKNS8_IT0_EE, symObjAddr: 0x6C7B0, symBinAddr: 0x100070504, symSize: 0x9C }
  - { offsetInCU: 0x5F10D, offset: 0x5F10D, size: 0x8, addend: 0x0, symName: __ZNSt3__112__to_addressB8ue170006INS_16reverse_iteratorIPNS_12basic_stringIcNS_11char_traitsIcEENS_9allocatorIcEEEEEEvEEu7__decayIDTclsr19__to_address_helperIT_EE6__callclsr3stdE7declvalIRKSA_EEEEESC_, symObjAddr: 0x6C84C, symBinAddr: 0x1000705A0, symSize: 0x6C }
  - { offsetInCU: 0x5F16D, offset: 0x5F16D, size: 0x8, addend: 0x0, symName: __ZNSt3__14prevB8ue170006IPNS_12basic_stringIcNS_11char_traitsIcEENS_9allocatorIcEEEEEENS_9enable_ifIXsr29__has_input_iterator_categoryIT_EE5valueES9_E4typeES9_NS_15iterator_traitsIS9_E15difference_typeE, symObjAddr: 0x6D1EC, symBinAddr: 0x100070F40, symSize: 0x270 }
  - { offsetInCU: 0x5F1B5, offset: 0x5F1B5, size: 0x8, addend: 0x0, symName: __ZNSt3__19__advanceB8ue170006IPNS_12basic_stringIcNS_11char_traitsIcEENS_9allocatorIcEEEEEEvRT_NS_15iterator_traitsIS8_E15difference_typeENS_26random_access_iterator_tagE, symObjAddr: 0x6D4DC, symBinAddr: 0x100071230, symSize: 0x1A4 }
  - { offsetInCU: 0x5F1FF, offset: 0x5F1FF, size: 0x8, addend: 0x0, symName: __ZNSt3__119__allocator_destroyB8ue170006INS_9allocatorINS_12basic_stringIcNS_11char_traitsIcEENS1_IcEEEEEENS_16reverse_iteratorINS8_IPS6_EEEESB_EEvRT_T0_T1_, symObjAddr: 0x6DC14, symBinAddr: 0x100071968, symSize: 0x1A4 }
  - { offsetInCU: 0x5F264, offset: 0x5F264, size: 0x8, addend: 0x0, symName: __ZNSt3__1neB8ue170006INS_16reverse_iteratorIPNS_12basic_stringIcNS_11char_traitsIcEENS_9allocatorIcEEEEEES9_EEbRKNS1_IT_EERKNS1_IT0_EE, symObjAddr: 0x6E054, symBinAddr: 0x100071DA8, symSize: 0x324 }
  - { offsetInCU: 0x5F2B2, offset: 0x5F2B2, size: 0x8, addend: 0x0, symName: __ZNSt3__112__to_addressB8ue170006INS_16reverse_iteratorINS1_IPNS_12basic_stringIcNS_11char_traitsIcEENS_9allocatorIcEEEEEEEEvEEu7__decayIDTclsr19__to_address_helperIT_EE6__callclsr3stdE7declvalIRKSB_EEEEESD_, symObjAddr: 0x6E3A0, symBinAddr: 0x1000720F4, symSize: 0x6C }
  - { offsetInCU: 0x5F2E8, offset: 0x5F2E8, size: 0x8, addend: 0x0, symName: __ZNSt3__110destroy_atB8ue170006INS_12basic_stringIcNS_11char_traitsIcEENS_9allocatorIcEEEELi0EEEvPT_, symObjAddr: 0x6E764, symBinAddr: 0x1000724B8, symSize: 0x24 }
  - { offsetInCU: 0x5F31F, offset: 0x5F31F, size: 0x8, addend: 0x0, symName: __ZNSt3__112__destroy_atB8ue170006INS_12basic_stringIcNS_11char_traitsIcEENS_9allocatorIcEEEELi0EEEvPT_, symObjAddr: 0x6E788, symBinAddr: 0x1000724DC, symSize: 0x6C }
  - { offsetInCU: 0x5F380, offset: 0x5F380, size: 0x8, addend: 0x0, symName: __ZNSt3__14prevB8ue170006INS_16reverse_iteratorIPNS_12basic_stringIcNS_11char_traitsIcEENS_9allocatorIcEEEEEEEENS_9enable_ifIXsr29__has_input_iterator_categoryIT_EE5valueESB_E4typeESB_NS_15iterator_traitsISB_E15difference_typeE, symObjAddr: 0x6EB54, symBinAddr: 0x1000728A8, symSize: 0x2C4 }
  - { offsetInCU: 0x5F3C8, offset: 0x5F3C8, size: 0x8, addend: 0x0, symName: __ZNSt3__19__advanceB8ue170006INS_16reverse_iteratorIPNS_12basic_stringIcNS_11char_traitsIcEENS_9allocatorIcEEEEEEEEvRT_NS_15iterator_traitsISA_E15difference_typeENS_26random_access_iterator_tagE, symObjAddr: 0x6EE98, symBinAddr: 0x100072BEC, symSize: 0x7C }
  - { offsetInCU: 0x6325E, offset: 0x6325E, size: 0x8, addend: 0x0, symName: __ZNSt3__134__libcpp_atomic_refcount_decrementB8ue170006IlEET_RS1_, symObjAddr: 0x8E948, symBinAddr: 0x10009269C, symSize: 0x80 }
  - { offsetInCU: 0x63CF5, offset: 0x63CF5, size: 0x8, addend: 0x0, symName: __ZNSt3__14swapB8ue170006IPN5memdb6DbTypeEEENS_9enable_ifIXaasr21is_move_constructibleIT_EE5valuesr18is_move_assignableIS5_EE5valueEvE4typeERS5_S8_, symObjAddr: 0x934B8, symBinAddr: 0x10009720C, symSize: 0x1C0 }
  - { offsetInCU: 0x63D46, offset: 0x63D46, size: 0x8, addend: 0x0, symName: __ZNSt3__14swapB8ue170006IPNS_19__shared_weak_countEEENS_9enable_ifIXaasr21is_move_constructibleIT_EE5valuesr18is_move_assignableIS4_EE5valueEvE4typeERS4_S7_, symObjAddr: 0x93678, symBinAddr: 0x1000973CC, symSize: 0x1C0 }
  - { offsetInCU: 0x67BE3, offset: 0x67BE3, size: 0x8, addend: 0x0, symName: __ZNSt3__122__make_exception_guardB8ue170006INS_6vectorINS_10shared_ptrIN5memdb9Tokenizer5TokenEEENS_9allocatorIS6_EEE16__destroy_vectorEEENS_28__exception_guard_exceptionsIT_EESC_, symObjAddr: 0xAC660, symBinAddr: 0x1000B03B4, symSize: 0x2BC }
  - { offsetInCU: 0x67C1C, offset: 0x67C1C, size: 0x8, addend: 0x0, symName: __ZNSt3__119__allocate_at_leastB8ue170006INS_9allocatorINS_10shared_ptrIN5memdb9Tokenizer5TokenEEEEEEEDaRT_m, symObjAddr: 0xAE664, symBinAddr: 0x1000B23B8, symSize: 0x250 }
  - { offsetInCU: 0x67C61, offset: 0x67C61, size: 0x8, addend: 0x0, symName: __ZNSt3__117allocate_at_leastB8ue170006INS_9allocatorINS_10shared_ptrIN5memdb9Tokenizer5TokenEEEEEEENS_17allocation_resultINS_16allocator_traitsIT_E7pointerEEERSA_m, symObjAddr: 0xAF0AC, symBinAddr: 0x1000B2E00, symSize: 0x224 }
  - { offsetInCU: 0x67CA7, offset: 0x67CA7, size: 0x8, addend: 0x0, symName: __ZNSt3__112__to_addressB8ue170006INS_10shared_ptrIN5memdb9Tokenizer5TokenEEEEEPT_S7_, symObjAddr: 0xAFC30, symBinAddr: 0x1000B3984, symSize: 0x14 }
  - { offsetInCU: 0x67CDB, offset: 0x67CDB, size: 0x8, addend: 0x0, symName: __ZNSt3__130__uninitialized_allocator_copyB8ue170006INS_9allocatorINS_10shared_ptrIN5memdb9Tokenizer5TokenEEEEEPKS6_S9_PS6_EET2_RT_T0_T1_SB_, symObjAddr: 0xAFF9C, symBinAddr: 0x1000B3CF0, symSize: 0x334 }
  - { offsetInCU: 0x67D81, offset: 0x67D81, size: 0x8, addend: 0x0, symName: __ZNSt3__114__unwrap_rangeB8ue170006IPKNS_10shared_ptrIN5memdb9Tokenizer5TokenEEES7_EEDaT_T0_, symObjAddr: 0xB0B6C, symBinAddr: 0x1000B48C0, symSize: 0x224 }
  - { offsetInCU: 0x67DCF, offset: 0x67DCF, size: 0x8, addend: 0x0, symName: __ZNSt3__135__uninitialized_allocator_copy_implB8ue170006INS_9allocatorINS_10shared_ptrIN5memdb9Tokenizer5TokenEEEEEPKS6_S9_PS6_EET2_RT_T0_T1_SB_, symObjAddr: 0xB0D90, symBinAddr: 0x1000B4AE4, symSize: 0x6EC }
  - { offsetInCU: 0x67E7B, offset: 0x67E7B, size: 0x8, addend: 0x0, symName: __ZNSt3__113__unwrap_iterB8ue170006IPNS_10shared_ptrIN5memdb9Tokenizer5TokenEEENS_18__unwrap_iter_implIS6_Lb1EEELi0EEEDTclsrT0_8__unwrapclsr3stdE7declvalIT_EEEESA_, symObjAddr: 0xB147C, symBinAddr: 0x1000B51D0, symSize: 0x24 }
  - { offsetInCU: 0x67EBF, offset: 0x67EBF, size: 0x8, addend: 0x0, symName: __ZNSt3__113__rewrap_iterB8ue170006IPNS_10shared_ptrIN5memdb9Tokenizer5TokenEEES6_NS_18__unwrap_iter_implIS6_Lb1EEEEET_S9_T0_, symObjAddr: 0xB14A0, symBinAddr: 0x1000B51F4, symSize: 0x48 }
  - { offsetInCU: 0x68063, offset: 0x68063, size: 0x8, addend: 0x0, symName: __ZNSt3__113__unwrap_iterB8ue170006IPKNS_10shared_ptrIN5memdb9Tokenizer5TokenEEENS_18__unwrap_iter_implIS7_Lb1EEELi0EEEDTclsrT0_8__unwrapclsr3stdE7declvalIT_EEEESB_, symObjAddr: 0xB17F4, symBinAddr: 0x1000B5548, symSize: 0x24 }
  - { offsetInCU: 0x680FB, offset: 0x680FB, size: 0x8, addend: 0x0, symName: __ZNSt3__112__to_addressB8ue170006IKNS_10shared_ptrIN5memdb9Tokenizer5TokenEEEEEPT_S8_, symObjAddr: 0xB18C4, symBinAddr: 0x1000B5618, symSize: 0x14 }
  - { offsetInCU: 0x6812F, offset: 0x6812F, size: 0x8, addend: 0x0, symName: __ZNSt3__122__make_exception_guardB8ue170006INS_29_AllocatorDestroyRangeReverseINS_9allocatorINS_10shared_ptrIN5memdb9Tokenizer5TokenEEEEEPS7_EEEENS_28__exception_guard_exceptionsIT_EESC_, symObjAddr: 0xB1AE8, symBinAddr: 0x1000B583C, symSize: 0x23C }
  - { offsetInCU: 0x6818D, offset: 0x6818D, size: 0x8, addend: 0x0, symName: __ZNSt3__112construct_atB8ue170006INS_10shared_ptrIN5memdb9Tokenizer5TokenEEEJRKS5_EPS5_EEPT_SA_DpOT0_, symObjAddr: 0xB230C, symBinAddr: 0x1000B6060, symSize: 0x110 }
  - { offsetInCU: 0x681FF, offset: 0x681FF, size: 0x8, addend: 0x0, symName: __ZNSt3__119__allocator_destroyB8ue170006INS_9allocatorINS_10shared_ptrIN5memdb9Tokenizer5TokenEEEEENS_16reverse_iteratorIPS6_EESA_EEvRT_T0_T1_, symObjAddr: 0xB29A4, symBinAddr: 0x1000B66F8, symSize: 0x2DC }
  - { offsetInCU: 0x6826B, offset: 0x6826B, size: 0x8, addend: 0x0, symName: __ZNSt3__1neB8ue170006IPNS_10shared_ptrIN5memdb9Tokenizer5TokenEEES6_EEbRKNS_16reverse_iteratorIT_EERKNS7_IT0_EE, symObjAddr: 0xB2D00, symBinAddr: 0x1000B6A54, symSize: 0x9C }
  - { offsetInCU: 0x682B7, offset: 0x682B7, size: 0x8, addend: 0x0, symName: __ZNSt3__112__to_addressB8ue170006INS_16reverse_iteratorIPNS_10shared_ptrIN5memdb9Tokenizer5TokenEEEEEvEEu7__decayIDTclsr19__to_address_helperIT_EE6__callclsr3stdE7declvalIRKS9_EEEEESB_, symObjAddr: 0xB2DC4, symBinAddr: 0x1000B6B18, symSize: 0x6C }
  - { offsetInCU: 0x682ED, offset: 0x682ED, size: 0x8, addend: 0x0, symName: __ZNSt3__110destroy_atB8ue170006INS_10shared_ptrIN5memdb9Tokenizer5TokenEEELi0EEEvPT_, symObjAddr: 0xB3090, symBinAddr: 0x1000B6DE4, symSize: 0x24 }
  - { offsetInCU: 0x68324, offset: 0x68324, size: 0x8, addend: 0x0, symName: __ZNSt3__112__destroy_atB8ue170006INS_10shared_ptrIN5memdb9Tokenizer5TokenEEELi0EEEvPT_, symObjAddr: 0xB30B4, symBinAddr: 0x1000B6E08, symSize: 0x6C }
  - { offsetInCU: 0x68385, offset: 0x68385, size: 0x8, addend: 0x0, symName: __ZNSt3__14prevB8ue170006IPNS_10shared_ptrIN5memdb9Tokenizer5TokenEEEEENS_9enable_ifIXsr29__has_input_iterator_categoryIT_EE5valueES8_E4typeES8_NS_15iterator_traitsIS8_E15difference_typeE, symObjAddr: 0xB3248, symBinAddr: 0x1000B6F9C, symSize: 0x270 }
  - { offsetInCU: 0x683CD, offset: 0x683CD, size: 0x8, addend: 0x0, symName: __ZNSt3__19__advanceB8ue170006IPNS_10shared_ptrIN5memdb9Tokenizer5TokenEEEEEvRT_NS_15iterator_traitsIS7_E15difference_typeENS_26random_access_iterator_tagE, symObjAddr: 0xB3538, symBinAddr: 0x1000B728C, symSize: 0x19C }
  - { offsetInCU: 0x6846A, offset: 0x6846A, size: 0x8, addend: 0x0, symName: __ZNSt3__1neB8ue170006IPNS_10shared_ptrIN5memdb9Tokenizer5TokenEEEEEbRKNS_11__wrap_iterIT_EESB_, symObjAddr: 0xB528C, symBinAddr: 0x1000B8FE0, symSize: 0xC4 }
  - { offsetInCU: 0x684AD, offset: 0x684AD, size: 0x8, addend: 0x0, symName: __ZNSt3__1eqB8ue170006IPNS_10shared_ptrIN5memdb9Tokenizer5TokenEEEEEbRKNS_11__wrap_iterIT_EESB_, symObjAddr: 0xB5F60, symBinAddr: 0x1000B9CB4, symSize: 0x9C }
  - { offsetInCU: 0x684F0, offset: 0x684F0, size: 0x8, addend: 0x0, symName: __ZNSt3__112construct_atB8ue170006INS_10shared_ptrIN5memdb9Tokenizer5TokenEEEJS5_EPS5_EEPT_S8_DpOT0_, symObjAddr: 0xB6C28, symBinAddr: 0x1000BA97C, symSize: 0x110 }
  - { offsetInCU: 0x68562, offset: 0x68562, size: 0x8, addend: 0x0, symName: __ZNSt3__142__uninitialized_allocator_move_if_noexceptB8ue170006INS_9allocatorINS_10shared_ptrIN5memdb9Tokenizer5TokenEEEEENS_16reverse_iteratorIPS6_EESA_SA_EET2_RT_T0_T1_SB_, symObjAddr: 0xB8E08, symBinAddr: 0x1000BCB5C, symSize: 0x5D0 }
  - { offsetInCU: 0x68617, offset: 0x68617, size: 0x8, addend: 0x0, symName: __ZNSt3__14swapB8ue170006IPNS_10shared_ptrIN5memdb9Tokenizer5TokenEEEEENS_9enable_ifIXaasr21is_move_constructibleIT_EE5valuesr18is_move_assignableIS8_EE5valueEvE4typeERS8_SB_, symObjAddr: 0xB93D8, symBinAddr: 0x1000BD12C, symSize: 0x1C0 }
  - { offsetInCU: 0x68668, offset: 0x68668, size: 0x8, addend: 0x0, symName: __ZNSt3__122__make_exception_guardB8ue170006INS_29_AllocatorDestroyRangeReverseINS_9allocatorINS_10shared_ptrIN5memdb9Tokenizer5TokenEEEEENS_16reverse_iteratorIPS7_EEEEEENS_28__exception_guard_exceptionsIT_EESE_, symObjAddr: 0xB9598, symBinAddr: 0x1000BD2EC, symSize: 0x23C }
  - { offsetInCU: 0x6869F, offset: 0x6869F, size: 0x8, addend: 0x0, symName: __ZNSt3__119__allocator_destroyB8ue170006INS_9allocatorINS_10shared_ptrIN5memdb9Tokenizer5TokenEEEEENS_16reverse_iteratorINS8_IPS6_EEEESB_EEvRT_T0_T1_, symObjAddr: 0xBA454, symBinAddr: 0x1000BE1A8, symSize: 0x1A4 }
  - { offsetInCU: 0x68704, offset: 0x68704, size: 0x8, addend: 0x0, symName: __ZNSt3__1neB8ue170006INS_16reverse_iteratorIPNS_10shared_ptrIN5memdb9Tokenizer5TokenEEEEES8_EEbRKNS1_IT_EERKNS1_IT0_EE, symObjAddr: 0xBA894, symBinAddr: 0x1000BE5E8, symSize: 0x324 }
  - { offsetInCU: 0x68752, offset: 0x68752, size: 0x8, addend: 0x0, symName: __ZNSt3__112__to_addressB8ue170006INS_16reverse_iteratorINS1_IPNS_10shared_ptrIN5memdb9Tokenizer5TokenEEEEEEEvEEu7__decayIDTclsr19__to_address_helperIT_EE6__callclsr3stdE7declvalIRKSA_EEEEESC_, symObjAddr: 0xBABB8, symBinAddr: 0x1000BE90C, symSize: 0x6C }
  - { offsetInCU: 0x687B2, offset: 0x687B2, size: 0x8, addend: 0x0, symName: __ZNSt3__14prevB8ue170006INS_16reverse_iteratorIPNS_10shared_ptrIN5memdb9Tokenizer5TokenEEEEEEENS_9enable_ifIXsr29__has_input_iterator_categoryIT_EE5valueESA_E4typeESA_NS_15iterator_traitsISA_E15difference_typeE, symObjAddr: 0xBB2DC, symBinAddr: 0x1000BF030, symSize: 0x2C4 }
  - { offsetInCU: 0x687FA, offset: 0x687FA, size: 0x8, addend: 0x0, symName: __ZNSt3__19__advanceB8ue170006INS_16reverse_iteratorIPNS_10shared_ptrIN5memdb9Tokenizer5TokenEEEEEEEvRT_NS_15iterator_traitsIS9_E15difference_typeENS_26random_access_iterator_tagE, symObjAddr: 0xBB620, symBinAddr: 0x1000BF374, symSize: 0x7C }
  - { offsetInCU: 0x68844, offset: 0x68844, size: 0x8, addend: 0x0, symName: __ZNSt3__122__make_exception_guardB8ue170006INS_6vectorINS_12basic_stringIcNS_11char_traitsIcEENS_9allocatorIcEEEENS5_IS7_EEE16__destroy_vectorEEENS_28__exception_guard_exceptionsIT_EESC_, symObjAddr: 0xBD034, symBinAddr: 0x1000C0D88, symSize: 0x2BC }
  - { offsetInCU: 0x6887D, offset: 0x6887D, size: 0x8, addend: 0x0, symName: __ZNSt3__130__uninitialized_allocator_copyB8ue170006INS_9allocatorINS_12basic_stringIcNS_11char_traitsIcEENS1_IcEEEEEEPS6_S8_S8_EET2_RT_T0_T1_S9_, symObjAddr: 0xBE594, symBinAddr: 0x1000C22E8, symSize: 0x334 }
  - { offsetInCU: 0x68923, offset: 0x68923, size: 0x8, addend: 0x0, symName: __ZNSt3__114__unwrap_rangeB8ue170006IPNS_12basic_stringIcNS_11char_traitsIcEENS_9allocatorIcEEEES7_EEDaT_T0_, symObjAddr: 0xBE8C8, symBinAddr: 0x1000C261C, symSize: 0x224 }
  - { offsetInCU: 0x68971, offset: 0x68971, size: 0x8, addend: 0x0, symName: __ZNSt3__135__uninitialized_allocator_copy_implB8ue170006INS_9allocatorINS_12basic_stringIcNS_11char_traitsIcEENS1_IcEEEEEEPS6_S8_S8_EET2_RT_T0_T1_S9_, symObjAddr: 0xBEAEC, symBinAddr: 0x1000C2840, symSize: 0x6EC }
  - { offsetInCU: 0x68A1D, offset: 0x68A1D, size: 0x8, addend: 0x0, symName: __ZNSt3__113__unwrap_iterB8ue170006IPNS_12basic_stringIcNS_11char_traitsIcEENS_9allocatorIcEEEENS_18__unwrap_iter_implIS7_Lb1EEELi0EEEDTclsrT0_8__unwrapclsr3stdE7declvalIT_EEEESB_, symObjAddr: 0xBF1D8, symBinAddr: 0x1000C2F2C, symSize: 0x24 }
  - { offsetInCU: 0x68A61, offset: 0x68A61, size: 0x8, addend: 0x0, symName: __ZNSt3__113__rewrap_iterB8ue170006IPNS_12basic_stringIcNS_11char_traitsIcEENS_9allocatorIcEEEES7_NS_18__unwrap_iter_implIS7_Lb1EEEEET_SA_T0_, symObjAddr: 0xBF1FC, symBinAddr: 0x1000C2F50, symSize: 0x48 }
  - { offsetInCU: 0x68C05, offset: 0x68C05, size: 0x8, addend: 0x0, symName: __ZNSt3__122__make_exception_guardB8ue170006INS_29_AllocatorDestroyRangeReverseINS_9allocatorINS_12basic_stringIcNS_11char_traitsIcEENS2_IcEEEEEEPS7_EEEENS_28__exception_guard_exceptionsIT_EESC_, symObjAddr: 0xBF7E8, symBinAddr: 0x1000C353C, symSize: 0x23C }
  - { offsetInCU: 0x68C3C, offset: 0x68C3C, size: 0x8, addend: 0x0, symName: __ZNSt3__112construct_atB8ue170006INS_12basic_stringIcNS_11char_traitsIcEENS_9allocatorIcEEEEJRS6_EPS6_EEPT_SA_DpOT0_, symObjAddr: 0xC000C, symBinAddr: 0x1000C3D60, symSize: 0x110 }
  - { offsetInCU: 0x68CAE, offset: 0x68CAE, size: 0x8, addend: 0x0, symName: __ZNSt3__119__allocator_destroyB8ue170006INS_9allocatorINS_12basic_stringIcNS_11char_traitsIcEENS1_IcEEEEEENS_16reverse_iteratorIPS6_EESA_EEvRT_T0_T1_, symObjAddr: 0xC06A4, symBinAddr: 0x1000C43F8, symSize: 0x2DC }
  - { offsetInCU: 0x68D6D, offset: 0x68D6D, size: 0x8, addend: 0x0, symName: __ZNSt3__130__uninitialized_allocator_copyB8ue170006INS_9allocatorINS_10shared_ptrIN5memdb9Tokenizer5TokenEEEEEPS6_S8_S8_EET2_RT_T0_T1_S9_, symObjAddr: 0xC7B50, symBinAddr: 0x1000CB8A4, symSize: 0x334 }
  - { offsetInCU: 0x68E13, offset: 0x68E13, size: 0x8, addend: 0x0, symName: __ZNSt3__114__unwrap_rangeB8ue170006IPNS_10shared_ptrIN5memdb9Tokenizer5TokenEEES6_EEDaT_T0_, symObjAddr: 0xC7E84, symBinAddr: 0x1000CBBD8, symSize: 0x224 }
  - { offsetInCU: 0x68E61, offset: 0x68E61, size: 0x8, addend: 0x0, symName: __ZNSt3__135__uninitialized_allocator_copy_implB8ue170006INS_9allocatorINS_10shared_ptrIN5memdb9Tokenizer5TokenEEEEEPS6_S8_S8_EET2_RT_T0_T1_S9_, symObjAddr: 0xC80A8, symBinAddr: 0x1000CBDFC, symSize: 0x6EC }
  - { offsetInCU: 0x6905C, offset: 0x6905C, size: 0x8, addend: 0x0, symName: __ZNSt3__112construct_atB8ue170006INS_10shared_ptrIN5memdb9Tokenizer5TokenEEEJRS5_EPS5_EEPT_S9_DpOT0_, symObjAddr: 0xC8DB8, symBinAddr: 0x1000CCB0C, symSize: 0x110 }
  - { offsetInCU: 0x690CF, offset: 0x690CF, size: 0x8, addend: 0x0, symName: __ZNSt3__112__to_addressB8ue170006IN5memdb6parser14TokenStructure8ValueIndINS1_5lexer7CommandEEEEEPT_S9_, symObjAddr: 0xC9F30, symBinAddr: 0x1000CDC84, symSize: 0x14 }
  - { offsetInCU: 0x6912A, offset: 0x6912A, size: 0x8, addend: 0x0, symName: __ZNSt3__112construct_atB8ue170006IN5memdb6parser14TokenStructure8ValueIndINS1_5lexer7CommandEEEJS7_EPS7_EEPT_SA_DpOT0_, symObjAddr: 0xCAE38, symBinAddr: 0x1000CEB8C, symSize: 0xCC }
  - { offsetInCU: 0x6919C, offset: 0x6919C, size: 0x8, addend: 0x0, symName: __ZNSt3__119__allocate_at_leastB8ue170006INS_9allocatorIN5memdb6parser14TokenStructure8ValueIndINS2_5lexer7CommandEEEEEEEDaRT_m, symObjAddr: 0xCD47C, symBinAddr: 0x1000D11D0, symSize: 0x250 }
  - { offsetInCU: 0x691E1, offset: 0x691E1, size: 0x8, addend: 0x0, symName: __ZNSt3__117allocate_at_leastB8ue170006INS_9allocatorIN5memdb6parser14TokenStructure8ValueIndINS2_5lexer7CommandEEEEEEENS_17allocation_resultINS_16allocator_traitsIT_E7pointerEEERSC_m, symObjAddr: 0xCDB34, symBinAddr: 0x1000D1888, symSize: 0x224 }
  - { offsetInCU: 0x69226, offset: 0x69226, size: 0x8, addend: 0x0, symName: __ZNSt3__142__uninitialized_allocator_move_if_noexceptB8ue170006INS_9allocatorIN5memdb6parser14TokenStructure8ValueIndINS2_5lexer7CommandEEEEENS_16reverse_iteratorIPS8_EESC_S8_vEET1_RT_T0_SG_SD_, symObjAddr: 0xCE758, symBinAddr: 0x1000D24AC, symSize: 0x4A8 }
  - { offsetInCU: 0x692B1, offset: 0x692B1, size: 0x8, addend: 0x0, symName: __ZNSt3__14swapB8ue170006IPN5memdb6parser14TokenStructure8ValueIndINS1_5lexer7CommandEEEEENS_9enable_ifIXaasr21is_move_constructibleIT_EE5valuesr18is_move_assignableISA_EE5valueEvE4typeERSA_SD_, symObjAddr: 0xCED30, symBinAddr: 0x1000D2A84, symSize: 0x1C0 }
  - { offsetInCU: 0x69302, offset: 0x69302, size: 0x8, addend: 0x0, symName: __ZNSt3__14moveB8ue170006INS_16reverse_iteratorIPN5memdb6parser14TokenStructure8ValueIndINS2_5lexer7CommandEEEEESA_EET0_T_SC_SB_, symObjAddr: 0xCF250, symBinAddr: 0x1000D2FA4, symSize: 0x4B0 }
  - { offsetInCU: 0x69369, offset: 0x69369, size: 0x8, addend: 0x0, symName: __ZNSt3__16__moveB8ue170006INS_17_ClassicAlgPolicyENS_16reverse_iteratorIPN5memdb6parser14TokenStructure8ValueIndINS3_5lexer7CommandEEEEESB_SB_EENS_4pairIT0_T2_EESD_T1_SE_, symObjAddr: 0xCF700, symBinAddr: 0x1000D3454, symSize: 0x424 }
  - { offsetInCU: 0x693E1, offset: 0x693E1, size: 0x8, addend: 0x0, symName: __ZNSt3__123__dispatch_copy_or_moveB8ue170006INS_17_ClassicAlgPolicyENS_11__move_loopIS1_EENS_14__move_trivialENS_16reverse_iteratorIPN5memdb6parser14TokenStructure8ValueIndINS6_5lexer7CommandEEEEESE_SE_EENS_4pairIT2_T4_EESG_T3_SH_, symObjAddr: 0xCFB24, symBinAddr: 0x1000D3878, symSize: 0x424 }
  - { offsetInCU: 0x6946B, offset: 0x6946B, size: 0x8, addend: 0x0, symName: __ZNSt3__121__unwrap_and_dispatchB8ue170006INS_10__overloadINS_11__move_loopINS_17_ClassicAlgPolicyEEENS_14__move_trivialEEENS_16reverse_iteratorIPN5memdb6parser14TokenStructure8ValueIndINS8_5lexer7CommandEEEEESG_SG_Li0EEENS_4pairIT0_T2_EESI_T1_SJ_, symObjAddr: 0xCFF48, symBinAddr: 0x1000D3C9C, symSize: 0x880 }
  - { offsetInCU: 0x6950F, offset: 0x6950F, size: 0x8, addend: 0x0, symName: __ZNSt3__114__unwrap_rangeB8ue170006INS_16reverse_iteratorIPN5memdb6parser14TokenStructure8ValueIndINS2_5lexer7CommandEEEEESA_EEDaT_T0_, symObjAddr: 0xD07C8, symBinAddr: 0x1000D451C, symSize: 0x35C }
  - { offsetInCU: 0x697DB, offset: 0x697DB, size: 0x8, addend: 0x0, symName: __ZNSt3__113__unwrap_iterB8ue170006INS_16reverse_iteratorIPN5memdb6parser14TokenStructure8ValueIndINS2_5lexer7CommandEEEEENS_18__unwrap_iter_implISA_Lb0EEELi0EEEDTclsrT0_8__unwrapclsr3stdE7declvalIT_EEEESE_, symObjAddr: 0xD0E94, symBinAddr: 0x1000D4BE8, symSize: 0x2EC }
  - { offsetInCU: 0x69823, offset: 0x69823, size: 0x8, addend: 0x0, symName: __ZNSt3__19make_pairB8ue170006INS_16reverse_iteratorIPN5memdb6parser14TokenStructure8ValueIndINS2_5lexer7CommandEEEEESA_EENS_4pairINS_18__unwrap_ref_decayIT_E4typeENSC_IT0_E4typeEEEOSD_OSG_, symObjAddr: 0xD1180, symBinAddr: 0x1000D4ED4, symSize: 0x108 }
  - { offsetInCU: 0x69872, offset: 0x69872, size: 0x8, addend: 0x0, symName: __ZNSt3__114__rewrap_rangeB8ue170006INS_16reverse_iteratorIPN5memdb6parser14TokenStructure8ValueIndINS2_5lexer7CommandEEEEESA_SA_EET0_SB_T1_, symObjAddr: 0xD1288, symBinAddr: 0x1000D4FDC, symSize: 0x3D4 }
  - { offsetInCU: 0x698CF, offset: 0x698CF, size: 0x8, addend: 0x0, symName: __ZNSt3__113__rewrap_iterB8ue170006INS_16reverse_iteratorIPN5memdb6parser14TokenStructure8ValueIndINS2_5lexer7CommandEEEEESA_NS_18__unwrap_iter_implISA_Lb0EEEEET_SD_T0_, symObjAddr: 0xD165C, symBinAddr: 0x1000D53B0, symSize: 0x3E8 }
  - { offsetInCU: 0x6997C, offset: 0x6997C, size: 0x8, addend: 0x0, symName: __ZNSt3__1neB8ue170006IPN5memdb6parser14TokenStructure8ValueIndINS1_5lexer7CommandEEES8_EEbRKNS_16reverse_iteratorIT_EERKNS9_IT0_EE, symObjAddr: 0xD1FFC, symBinAddr: 0x1000D5D50, symSize: 0x9C }
  - { offsetInCU: 0x69C14, offset: 0x69C14, size: 0x8, addend: 0x0, symName: __ZNSt3__110destroy_atB8ue170006IN5memdb6parser14TokenStructure8ValueIndINS1_5lexer7CommandEEELi0EEEvPT_, symObjAddr: 0xD3514, symBinAddr: 0x1000D7268, symSize: 0x24 }
  - { offsetInCU: 0x69C4C, offset: 0x69C4C, size: 0x8, addend: 0x0, symName: __ZNSt3__112__destroy_atB8ue170006IN5memdb6parser14TokenStructure8ValueIndINS1_5lexer7CommandEEELi0EEEvPT_, symObjAddr: 0xD3538, symBinAddr: 0x1000D728C, symSize: 0x10 }
  - { offsetInCU: 0x69CD2, offset: 0x69CD2, size: 0x8, addend: 0x0, symName: __ZNSt3__116forward_as_tupleB8ue170006IJRKN5memdb5lexer7CommandEEEENS_5tupleIJDpOT_EEES9_, symObjAddr: 0xD3F4C, symBinAddr: 0x1000D7CA0, symSize: 0x244 }
  - { offsetInCU: 0x69D0C, offset: 0x69D0C, size: 0x8, addend: 0x0, symName: __ZNSt3__116forward_as_tupleB8ue170006IJEEENS_5tupleIJDpOT_EEES4_, symObjAddr: 0xD4190, symBinAddr: 0x1000D7EE4, symSize: 0x4 }
  - { offsetInCU: 0x69D30, offset: 0x69D30, size: 0x8, addend: 0x0, symName: __ZNSt3__17launderB8ue170006IKNS_4pairIKN5memdb5lexer7CommandElEEEEPT_S9_, symObjAddr: 0xD7108, symBinAddr: 0x1000DAE5C, symSize: 0x24 }
  - { offsetInCU: 0x69D67, offset: 0x69D67, size: 0x8, addend: 0x0, symName: __ZNSt3__19__launderB8ue170006IKNS_4pairIKN5memdb5lexer7CommandElEEEEPT_S9_, symObjAddr: 0xD712C, symBinAddr: 0x1000DAE80, symSize: 0x14 }
  - { offsetInCU: 0x69DE3, offset: 0x69DE3, size: 0x8, addend: 0x0, symName: __ZNSt3__112construct_atB8ue170006INS_4pairIKN5memdb5lexer7CommandElEEJRKNS_21piecewise_construct_tENS_5tupleIJRS5_EEENSA_IJEEEEPS6_EEPT_SG_DpOT0_, symObjAddr: 0xD8210, symBinAddr: 0x1000DBF64, symSize: 0x2A8 }
  - { offsetInCU: 0x69E8C, offset: 0x69E8C, size: 0x8, addend: 0x0, symName: __ZNSt3__13getB8ue170006ILm0EJRKN5memdb5lexer7CommandEEEERNS_13tuple_elementIXT_ENS_5tupleIJDpT0_EEEE4typeERSA_, symObjAddr: 0xD89FC, symBinAddr: 0x1000DC750, symSize: 0xE0 }
  - { offsetInCU: 0x69ECF, offset: 0x69ECF, size: 0x8, addend: 0x0, symName: __ZNSt3__127__tree_balance_after_insertB8ue170006IPNS_16__tree_node_baseIPvEEEEvT_S5_, symObjAddr: 0xD8F78, symBinAddr: 0x1000DCCCC, symSize: 0x1788 }
  - { offsetInCU: 0x69F43, offset: 0x69F43, size: 0x8, addend: 0x0, symName: __ZNSt3__120__tree_is_left_childB8ue170006IPNS_16__tree_node_baseIPvEEEEbT_, symObjAddr: 0xDA8F8, symBinAddr: 0x1000DE64C, symSize: 0x1D0 }
  - { offsetInCU: 0x69F78, offset: 0x69F78, size: 0x8, addend: 0x0, symName: __ZNSt3__118__tree_left_rotateB8ue170006IPNS_16__tree_node_baseIPvEEEEvT_, symObjAddr: 0xDAAC8, symBinAddr: 0x1000DE81C, symSize: 0xAA0 }
  - { offsetInCU: 0x69FBA, offset: 0x69FBA, size: 0x8, addend: 0x0, symName: __ZNSt3__119__tree_right_rotateB8ue170006IPNS_16__tree_node_baseIPvEEEEvT_, symObjAddr: 0xDB568, symBinAddr: 0x1000DF2BC, symSize: 0xAD0 }
  - { offsetInCU: 0x69FFC, offset: 0x69FFC, size: 0x8, addend: 0x0, symName: __ZNSt3__110destroy_atB8ue170006INS_4pairIKN5memdb5lexer7CommandElEELi0EEEvPT_, symObjAddr: 0xDCA90, symBinAddr: 0x1000E07E4, symSize: 0x24 }
  - { offsetInCU: 0x6A034, offset: 0x6A034, size: 0x8, addend: 0x0, symName: __ZNSt3__112__destroy_atB8ue170006INS_4pairIKN5memdb5lexer7CommandElEELi0EEEvPT_, symObjAddr: 0xDCAB4, symBinAddr: 0x1000E0808, symSize: 0x10 }
  - { offsetInCU: 0x6A0C2, offset: 0x6A0C2, size: 0x8, addend: 0x0, symName: __ZNSt3__17launderB8ue170006INS_4pairIKN5memdb5lexer7CommandElEEEEPT_S8_, symObjAddr: 0xDD2F4, symBinAddr: 0x1000E1048, symSize: 0x24 }
  - { offsetInCU: 0x6A0F9, offset: 0x6A0F9, size: 0x8, addend: 0x0, symName: __ZNSt3__19__launderB8ue170006INS_4pairIKN5memdb5lexer7CommandElEEEEPT_S8_, symObjAddr: 0xDD318, symBinAddr: 0x1000E106C, symSize: 0x14 }
  - { offsetInCU: 0x6A131, offset: 0x6A131, size: 0x8, addend: 0x0, symName: __ZNSt3__112__to_addressB8ue170006IN5memdb6parser14TokenStructure8ValueIndINS1_5lexer10SubCommandEEEEEPT_S9_, symObjAddr: 0xDE2E8, symBinAddr: 0x1000E203C, symSize: 0x14 }
  - { offsetInCU: 0x6A18C, offset: 0x6A18C, size: 0x8, addend: 0x0, symName: __ZNSt3__112construct_atB8ue170006IN5memdb6parser14TokenStructure8ValueIndINS1_5lexer10SubCommandEEEJS7_EPS7_EEPT_SA_DpOT0_, symObjAddr: 0xDF1F0, symBinAddr: 0x1000E2F44, symSize: 0xCC }
  - { offsetInCU: 0x6A1FE, offset: 0x6A1FE, size: 0x8, addend: 0x0, symName: __ZNSt3__119__allocate_at_leastB8ue170006INS_9allocatorIN5memdb6parser14TokenStructure8ValueIndINS2_5lexer10SubCommandEEEEEEEDaRT_m, symObjAddr: 0xE1834, symBinAddr: 0x1000E5588, symSize: 0x250 }
  - { offsetInCU: 0x6A243, offset: 0x6A243, size: 0x8, addend: 0x0, symName: __ZNSt3__117allocate_at_leastB8ue170006INS_9allocatorIN5memdb6parser14TokenStructure8ValueIndINS2_5lexer10SubCommandEEEEEEENS_17allocation_resultINS_16allocator_traitsIT_E7pointerEEERSC_m, symObjAddr: 0xE1EEC, symBinAddr: 0x1000E5C40, symSize: 0x224 }
  - { offsetInCU: 0x6A288, offset: 0x6A288, size: 0x8, addend: 0x0, symName: __ZNSt3__142__uninitialized_allocator_move_if_noexceptB8ue170006INS_9allocatorIN5memdb6parser14TokenStructure8ValueIndINS2_5lexer10SubCommandEEEEENS_16reverse_iteratorIPS8_EESC_S8_vEET1_RT_T0_SG_SD_, symObjAddr: 0xE2B10, symBinAddr: 0x1000E6864, symSize: 0x4A8 }
  - { offsetInCU: 0x6A313, offset: 0x6A313, size: 0x8, addend: 0x0, symName: __ZNSt3__14swapB8ue170006IPN5memdb6parser14TokenStructure8ValueIndINS1_5lexer10SubCommandEEEEENS_9enable_ifIXaasr21is_move_constructibleIT_EE5valuesr18is_move_assignableISA_EE5valueEvE4typeERSA_SD_, symObjAddr: 0xE30E8, symBinAddr: 0x1000E6E3C, symSize: 0x1C0 }
  - { offsetInCU: 0x6A364, offset: 0x6A364, size: 0x8, addend: 0x0, symName: __ZNSt3__14moveB8ue170006INS_16reverse_iteratorIPN5memdb6parser14TokenStructure8ValueIndINS2_5lexer10SubCommandEEEEESA_EET0_T_SC_SB_, symObjAddr: 0xE3608, symBinAddr: 0x1000E735C, symSize: 0x4B0 }
  - { offsetInCU: 0x6A3CB, offset: 0x6A3CB, size: 0x8, addend: 0x0, symName: __ZNSt3__16__moveB8ue170006INS_17_ClassicAlgPolicyENS_16reverse_iteratorIPN5memdb6parser14TokenStructure8ValueIndINS3_5lexer10SubCommandEEEEESB_SB_EENS_4pairIT0_T2_EESD_T1_SE_, symObjAddr: 0xE3AB8, symBinAddr: 0x1000E780C, symSize: 0x424 }
  - { offsetInCU: 0x6A443, offset: 0x6A443, size: 0x8, addend: 0x0, symName: __ZNSt3__123__dispatch_copy_or_moveB8ue170006INS_17_ClassicAlgPolicyENS_11__move_loopIS1_EENS_14__move_trivialENS_16reverse_iteratorIPN5memdb6parser14TokenStructure8ValueIndINS6_5lexer10SubCommandEEEEESE_SE_EENS_4pairIT2_T4_EESG_T3_SH_, symObjAddr: 0xE3EDC, symBinAddr: 0x1000E7C30, symSize: 0x424 }
  - { offsetInCU: 0x6A4CD, offset: 0x6A4CD, size: 0x8, addend: 0x0, symName: __ZNSt3__121__unwrap_and_dispatchB8ue170006INS_10__overloadINS_11__move_loopINS_17_ClassicAlgPolicyEEENS_14__move_trivialEEENS_16reverse_iteratorIPN5memdb6parser14TokenStructure8ValueIndINS8_5lexer10SubCommandEEEEESG_SG_Li0EEENS_4pairIT0_T2_EESI_T1_SJ_, symObjAddr: 0xE4300, symBinAddr: 0x1000E8054, symSize: 0x880 }
  - { offsetInCU: 0x6A571, offset: 0x6A571, size: 0x8, addend: 0x0, symName: __ZNSt3__114__unwrap_rangeB8ue170006INS_16reverse_iteratorIPN5memdb6parser14TokenStructure8ValueIndINS2_5lexer10SubCommandEEEEESA_EEDaT_T0_, symObjAddr: 0xE4B80, symBinAddr: 0x1000E88D4, symSize: 0x35C }
  - { offsetInCU: 0x6A6E6, offset: 0x6A6E6, size: 0x8, addend: 0x0, symName: __ZNSt3__113__unwrap_iterB8ue170006INS_16reverse_iteratorIPN5memdb6parser14TokenStructure8ValueIndINS2_5lexer10SubCommandEEEEENS_18__unwrap_iter_implISA_Lb0EEELi0EEEDTclsrT0_8__unwrapclsr3stdE7declvalIT_EEEESE_, symObjAddr: 0xE524C, symBinAddr: 0x1000E8FA0, symSize: 0x2EC }
  - { offsetInCU: 0x6A72E, offset: 0x6A72E, size: 0x8, addend: 0x0, symName: __ZNSt3__19make_pairB8ue170006INS_16reverse_iteratorIPN5memdb6parser14TokenStructure8ValueIndINS2_5lexer10SubCommandEEEEESA_EENS_4pairINS_18__unwrap_ref_decayIT_E4typeENSC_IT0_E4typeEEEOSD_OSG_, symObjAddr: 0xE5538, symBinAddr: 0x1000E928C, symSize: 0x108 }
  - { offsetInCU: 0x6A77D, offset: 0x6A77D, size: 0x8, addend: 0x0, symName: __ZNSt3__114__rewrap_rangeB8ue170006INS_16reverse_iteratorIPN5memdb6parser14TokenStructure8ValueIndINS2_5lexer10SubCommandEEEEESA_SA_EET0_SB_T1_, symObjAddr: 0xE5640, symBinAddr: 0x1000E9394, symSize: 0x3D4 }
  - { offsetInCU: 0x6A7DA, offset: 0x6A7DA, size: 0x8, addend: 0x0, symName: __ZNSt3__113__rewrap_iterB8ue170006INS_16reverse_iteratorIPN5memdb6parser14TokenStructure8ValueIndINS2_5lexer10SubCommandEEEEESA_NS_18__unwrap_iter_implISA_Lb0EEEEET_SD_T0_, symObjAddr: 0xE5A14, symBinAddr: 0x1000E9768, symSize: 0x3E8 }
  - { offsetInCU: 0x6A887, offset: 0x6A887, size: 0x8, addend: 0x0, symName: __ZNSt3__1neB8ue170006IPN5memdb6parser14TokenStructure8ValueIndINS1_5lexer10SubCommandEEES8_EEbRKNS_16reverse_iteratorIT_EERKNS9_IT0_EE, symObjAddr: 0xE63B4, symBinAddr: 0x1000EA108, symSize: 0x9C }
  - { offsetInCU: 0x6A93F, offset: 0x6A93F, size: 0x8, addend: 0x0, symName: __ZNSt3__110destroy_atB8ue170006IN5memdb6parser14TokenStructure8ValueIndINS1_5lexer10SubCommandEEELi0EEEvPT_, symObjAddr: 0xE78CC, symBinAddr: 0x1000EB620, symSize: 0x24 }
  - { offsetInCU: 0x6A977, offset: 0x6A977, size: 0x8, addend: 0x0, symName: __ZNSt3__112__destroy_atB8ue170006IN5memdb6parser14TokenStructure8ValueIndINS1_5lexer10SubCommandEEELi0EEEvPT_, symObjAddr: 0xE78F0, symBinAddr: 0x1000EB644, symSize: 0x10 }
  - { offsetInCU: 0x6A9AE, offset: 0x6A9AE, size: 0x8, addend: 0x0, symName: __ZNSt3__116forward_as_tupleB8ue170006IJRKN5memdb5lexer10SubCommandEEEENS_5tupleIJDpOT_EEES9_, symObjAddr: 0xE8304, symBinAddr: 0x1000EC058, symSize: 0x244 }
  - { offsetInCU: 0x6A9E8, offset: 0x6A9E8, size: 0x8, addend: 0x0, symName: __ZNSt3__17launderB8ue170006IKNS_4pairIKN5memdb5lexer10SubCommandElEEEEPT_S9_, symObjAddr: 0xEB410, symBinAddr: 0x1000EF164, symSize: 0x24 }
  - { offsetInCU: 0x6AA1F, offset: 0x6AA1F, size: 0x8, addend: 0x0, symName: __ZNSt3__19__launderB8ue170006IKNS_4pairIKN5memdb5lexer10SubCommandElEEEEPT_S9_, symObjAddr: 0xEB434, symBinAddr: 0x1000EF188, symSize: 0x14 }
  - { offsetInCU: 0x6AA9B, offset: 0x6AA9B, size: 0x8, addend: 0x0, symName: __ZNSt3__112construct_atB8ue170006INS_4pairIKN5memdb5lexer10SubCommandElEEJRKNS_21piecewise_construct_tENS_5tupleIJRS5_EEENSA_IJEEEEPS6_EEPT_SG_DpOT0_, symObjAddr: 0xEC518, symBinAddr: 0x1000F026C, symSize: 0x2A8 }
  - { offsetInCU: 0x6AB38, offset: 0x6AB38, size: 0x8, addend: 0x0, symName: __ZNSt3__13getB8ue170006ILm0EJRKN5memdb5lexer10SubCommandEEEERNS_13tuple_elementIXT_ENS_5tupleIJDpT0_EEEE4typeERSA_, symObjAddr: 0xECD04, symBinAddr: 0x1000F0A58, symSize: 0xE0 }
  - { offsetInCU: 0x6AB7B, offset: 0x6AB7B, size: 0x8, addend: 0x0, symName: __ZNSt3__110destroy_atB8ue170006INS_4pairIKN5memdb5lexer10SubCommandElEELi0EEEvPT_, symObjAddr: 0xEDCD8, symBinAddr: 0x1000F1A2C, symSize: 0x24 }
  - { offsetInCU: 0x6ABB3, offset: 0x6ABB3, size: 0x8, addend: 0x0, symName: __ZNSt3__112__destroy_atB8ue170006INS_4pairIKN5memdb5lexer10SubCommandElEELi0EEEvPT_, symObjAddr: 0xEDCFC, symBinAddr: 0x1000F1A50, symSize: 0x10 }
  - { offsetInCU: 0x6AC32, offset: 0x6AC32, size: 0x8, addend: 0x0, symName: __ZNSt3__17launderB8ue170006INS_4pairIKN5memdb5lexer10SubCommandElEEEEPT_S8_, symObjAddr: 0xEE53C, symBinAddr: 0x1000F2290, symSize: 0x24 }
  - { offsetInCU: 0x6AC69, offset: 0x6AC69, size: 0x8, addend: 0x0, symName: __ZNSt3__19__launderB8ue170006INS_4pairIKN5memdb5lexer10SubCommandElEEEEPT_S8_, symObjAddr: 0xEE560, symBinAddr: 0x1000F22B4, symSize: 0x14 }
  - { offsetInCU: 0x6ACA0, offset: 0x6ACA0, size: 0x8, addend: 0x0, symName: __ZNSt3__1eqB8ue170006IPNS_10shared_ptrIN5memdb6parser9CmdParserEEEEEbRKNS_11__wrap_iterIT_EESB_, symObjAddr: 0xF0D94, symBinAddr: 0x1000F4AE8, symSize: 0x9C }
  - { offsetInCU: 0x6ACE3, offset: 0x6ACE3, size: 0x8, addend: 0x0, symName: __ZNSt3__111make_sharedB8ue170006IN5memdb6parser13ConditionLeafEJS3_EvEENS_10shared_ptrIT_EEDpOT0_, symObjAddr: 0xF3610, symBinAddr: 0x1000F7364, symSize: 0x230 }
  - { offsetInCU: 0x6AD27, offset: 0x6AD27, size: 0x8, addend: 0x0, symName: __ZNSt3__115allocate_sharedB8ue170006IN5memdb6parser13ConditionLeafENS_9allocatorIS3_EEJS3_EvEENS_10shared_ptrIT_EERKT0_DpOT1_, symObjAddr: 0xF3F18, symBinAddr: 0x1000F7C6C, symSize: 0x47C }
  - { offsetInCU: 0x6B0FA, offset: 0x6B0FA, size: 0x8, addend: 0x0, symName: __ZNSt3__112construct_atB8ue170006IN5memdb6parser13ConditionLeafEJS3_EPS3_EEPT_S6_DpOT0_, symObjAddr: 0xF6248, symBinAddr: 0x1000F9F9C, symSize: 0x110 }
  - { offsetInCU: 0x6B16C, offset: 0x6B16C, size: 0x8, addend: 0x0, symName: __ZNSt3__110destroy_atB8ue170006IN5memdb6parser13ConditionLeafELi0EEEvPT_, symObjAddr: 0xF6C70, symBinAddr: 0x1000FA9C4, symSize: 0x24 }
  - { offsetInCU: 0x6B1A3, offset: 0x6B1A3, size: 0x8, addend: 0x0, symName: __ZNSt3__112__destroy_atB8ue170006IN5memdb6parser13ConditionLeafELi0EEEvPT_, symObjAddr: 0xF6C94, symBinAddr: 0x1000FA9E8, symSize: 0x6C }
  - { offsetInCU: 0x6B20D, offset: 0x6B20D, size: 0x8, addend: 0x0, symName: __ZNSt3__14swapB8ue170006IPN5memdb6parser13ConditionLeafEEENS_9enable_ifIXaasr21is_move_constructibleIT_EE5valuesr18is_move_assignableIS6_EE5valueEvE4typeERS6_S9_, symObjAddr: 0xF7804, symBinAddr: 0x1000FB558, symSize: 0x1C0 }
  - { offsetInCU: 0x6B25F, offset: 0x6B25F, size: 0x8, addend: 0x0, symName: __ZNSt3__112__to_addressB8ue170006IN5memdb21ColumnFullDescriptionEEEPT_S4_, symObjAddr: 0xFBE74, symBinAddr: 0x1000FFBC8, symSize: 0x14 }
  - { offsetInCU: 0x6B2BA, offset: 0x6B2BA, size: 0x8, addend: 0x0, symName: __ZNSt3__112construct_atB8ue170006IN5memdb21ColumnFullDescriptionEJS2_EPS2_EEPT_S5_DpOT0_, symObjAddr: 0xFCDA4, symBinAddr: 0x100100AF8, symSize: 0x110 }
  - { offsetInCU: 0x6B32C, offset: 0x6B32C, size: 0x8, addend: 0x0, symName: __ZNSt3__122__make_exception_guardB8ue170006INS_6vectorIN5memdb11ColumnAttrsENS_9allocatorIS3_EEE16__destroy_vectorEEENS_28__exception_guard_exceptionsIT_EES9_, symObjAddr: 0xFE35C, symBinAddr: 0x1001020B0, symSize: 0x2BC }
  - { offsetInCU: 0x6B365, offset: 0x6B365, size: 0x8, addend: 0x0, symName: __ZNSt3__119__allocate_at_leastB8ue170006INS_9allocatorIN5memdb11ColumnAttrsEEEEEDaRT_m, symObjAddr: 0xFFCEC, symBinAddr: 0x100103A40, symSize: 0x250 }
  - { offsetInCU: 0x6B3AA, offset: 0x6B3AA, size: 0x8, addend: 0x0, symName: __ZNSt3__117allocate_at_leastB8ue170006INS_9allocatorIN5memdb11ColumnAttrsEEEEENS_17allocation_resultINS_16allocator_traitsIT_E7pointerEEERS7_m, symObjAddr: 0x1004D4, symBinAddr: 0x100104228, symSize: 0x224 }
  - { offsetInCU: 0x6B3F0, offset: 0x6B3F0, size: 0x8, addend: 0x0, symName: __ZNSt3__112__to_addressB8ue170006IN5memdb11ColumnAttrsEEEPT_S4_, symObjAddr: 0x101058, symBinAddr: 0x100104DAC, symSize: 0x14 }
  - { offsetInCU: 0x6B424, offset: 0x6B424, size: 0x8, addend: 0x0, symName: __ZNSt3__130__uninitialized_allocator_copyB8ue170006INS_9allocatorIN5memdb11ColumnAttrsEEEPS3_S5_S5_EET2_RT_T0_T1_S6_, symObjAddr: 0x1013C4, symBinAddr: 0x100105118, symSize: 0x334 }
  - { offsetInCU: 0x6B4CA, offset: 0x6B4CA, size: 0x8, addend: 0x0, symName: __ZNSt3__114__unwrap_rangeB8ue170006IPN5memdb11ColumnAttrsES3_EEDaT_T0_, symObjAddr: 0x101F94, symBinAddr: 0x100105CE8, symSize: 0x224 }
  - { offsetInCU: 0x6B518, offset: 0x6B518, size: 0x8, addend: 0x0, symName: __ZNSt3__135__uninitialized_allocator_copy_implB8ue170006INS_9allocatorIN5memdb11ColumnAttrsEEES3_S3_S3_LPv0EEEPT2_RT_PT0_SB_S7_, symObjAddr: 0x1021B8, symBinAddr: 0x100105F0C, symSize: 0x38 }
  - { offsetInCU: 0x6B59A, offset: 0x6B59A, size: 0x8, addend: 0x0, symName: __ZNSt3__113__unwrap_iterB8ue170006IPN5memdb11ColumnAttrsENS_18__unwrap_iter_implIS3_Lb1EEELi0EEEDTclsrT0_8__unwrapclsr3stdE7declvalIT_EEEES7_, symObjAddr: 0x1021F0, symBinAddr: 0x100105F44, symSize: 0x24 }
  - { offsetInCU: 0x6B5DE, offset: 0x6B5DE, size: 0x8, addend: 0x0, symName: __ZNSt3__113__rewrap_iterB8ue170006IPN5memdb11ColumnAttrsES3_NS_18__unwrap_iter_implIS3_Lb1EEEEET_S6_T0_, symObjAddr: 0x102214, symBinAddr: 0x100105F68, symSize: 0x48 }
  - { offsetInCU: 0x6B7CB, offset: 0x6B7CB, size: 0x8, addend: 0x0, symName: __ZNSt3__14copyB8ue170006IPN5memdb11ColumnAttrsES3_EET0_T_S5_S4_, symObjAddr: 0x102800, symBinAddr: 0x100106554, symSize: 0x2B4 }
  - { offsetInCU: 0x6B828, offset: 0x6B828, size: 0x8, addend: 0x0, symName: __ZNSt3__16__copyB8ue170006INS_17_ClassicAlgPolicyEPN5memdb11ColumnAttrsES4_S4_EENS_4pairIT0_T2_EES6_T1_S7_, symObjAddr: 0x102AB4, symBinAddr: 0x100106808, symSize: 0x22C }
  - { offsetInCU: 0x6B897, offset: 0x6B897, size: 0x8, addend: 0x0, symName: __ZNSt3__123__dispatch_copy_or_moveB8ue170006INS_17_ClassicAlgPolicyENS_11__copy_loopIS1_EENS_14__copy_trivialEPN5memdb11ColumnAttrsES7_S7_EENS_4pairIT2_T4_EES9_T3_SA_, symObjAddr: 0x102CE0, symBinAddr: 0x100106A34, symSize: 0x22C }
  - { offsetInCU: 0x6B918, offset: 0x6B918, size: 0x8, addend: 0x0, symName: __ZNSt3__121__unwrap_and_dispatchB8ue170006INS_10__overloadINS_11__copy_loopINS_17_ClassicAlgPolicyEEENS_14__copy_trivialEEEPN5memdb11ColumnAttrsES9_S9_Li0EEENS_4pairIT0_T2_EESB_T1_SC_, symObjAddr: 0x102F0C, symBinAddr: 0x100106C60, symSize: 0x634 }
  - { offsetInCU: 0x6B9B1, offset: 0x6B9B1, size: 0x8, addend: 0x0, symName: __ZNSt3__19make_pairB8ue170006IPN5memdb11ColumnAttrsES3_EENS_4pairINS_18__unwrap_ref_decayIT_E4typeENS5_IT0_E4typeEEEOS6_OS9_, symObjAddr: 0x10379C, symBinAddr: 0x1001074F0, symSize: 0x2A0 }
  - { offsetInCU: 0x6BA02, offset: 0x6BA02, size: 0x8, addend: 0x0, symName: __ZNSt3__114__rewrap_rangeB8ue170006IPN5memdb11ColumnAttrsES3_S3_EET0_S4_T1_, symObjAddr: 0x103A3C, symBinAddr: 0x100107790, symSize: 0x2C }
  - { offsetInCU: 0x6BA57, offset: 0x6BA57, size: 0x8, addend: 0x0, symName: __ZNSt3__119__copy_trivial_implB8ue170006IN5memdb11ColumnAttrsES2_EENS_4pairIPT_PT0_EES5_S5_S7_, symObjAddr: 0x103A68, symBinAddr: 0x1001077BC, symSize: 0x480 }
  - { offsetInCU: 0x6BAC6, offset: 0x6BAC6, size: 0x8, addend: 0x0, symName: __ZNSt3__119__constexpr_memmoveB8ue170006IN5memdb11ColumnAttrsES2_Li0EEEPT_S4_PT0_NS_15__element_countE, symObjAddr: 0x103EE8, symBinAddr: 0x100107C3C, symSize: 0x64 }
  - { offsetInCU: 0x6BB34, offset: 0x6BB34, size: 0x8, addend: 0x0, symName: __ZNSt3__19make_pairB8ue170006IRPN5memdb11ColumnAttrsES3_EENS_4pairINS_18__unwrap_ref_decayIT_E4typeENS6_IT0_E4typeEEEOS7_OSA_, symObjAddr: 0x103F4C, symBinAddr: 0x100107CA0, symSize: 0x2A0 }
  - { offsetInCU: 0x6BBD8, offset: 0x6BBD8, size: 0x8, addend: 0x0, symName: __ZNSt3__110destroy_atB8ue170006IN5memdb11ColumnAttrsELi0EEEvPT_, symObjAddr: 0x105930, symBinAddr: 0x100109684, symSize: 0x24 }
  - { offsetInCU: 0x6BC10, offset: 0x6BC10, size: 0x8, addend: 0x0, symName: __ZNSt3__112__destroy_atB8ue170006IN5memdb11ColumnAttrsELi0EEEvPT_, symObjAddr: 0x105954, symBinAddr: 0x1001096A8, symSize: 0x10 }
  - { offsetInCU: 0x6BC47, offset: 0x6BC47, size: 0x8, addend: 0x0, symName: __ZNSt3__119__allocate_at_leastB8ue170006INS_9allocatorIN5memdb21ColumnFullDescriptionEEEEEDaRT_m, symObjAddr: 0x108210, symBinAddr: 0x10010BF64, symSize: 0x250 }
  - { offsetInCU: 0x6BC8C, offset: 0x6BC8C, size: 0x8, addend: 0x0, symName: __ZNSt3__117allocate_at_leastB8ue170006INS_9allocatorIN5memdb21ColumnFullDescriptionEEEEENS_17allocation_resultINS_16allocator_traitsIT_E7pointerEEERS7_m, symObjAddr: 0x1088C8, symBinAddr: 0x10010C61C, symSize: 0x224 }
  - { offsetInCU: 0x6BCD1, offset: 0x6BCD1, size: 0x8, addend: 0x0, symName: __ZNSt3__142__uninitialized_allocator_move_if_noexceptB8ue170006INS_9allocatorIN5memdb21ColumnFullDescriptionEEENS_16reverse_iteratorIPS3_EES7_S7_EET2_RT_T0_T1_S8_, symObjAddr: 0x109508, symBinAddr: 0x10010D25C, symSize: 0x5D8 }
  - { offsetInCU: 0x6BD86, offset: 0x6BD86, size: 0x8, addend: 0x0, symName: __ZNSt3__14swapB8ue170006IPN5memdb21ColumnFullDescriptionEEENS_9enable_ifIXaasr21is_move_constructibleIT_EE5valuesr18is_move_assignableIS5_EE5valueEvE4typeERS5_S8_, symObjAddr: 0x109C10, symBinAddr: 0x10010D964, symSize: 0x1C0 }
  - { offsetInCU: 0x6BDD7, offset: 0x6BDD7, size: 0x8, addend: 0x0, symName: __ZNSt3__122__make_exception_guardB8ue170006INS_29_AllocatorDestroyRangeReverseINS_9allocatorIN5memdb21ColumnFullDescriptionEEENS_16reverse_iteratorIPS4_EEEEEENS_28__exception_guard_exceptionsIT_EESB_, symObjAddr: 0x10A148, symBinAddr: 0x10010DE9C, symSize: 0x23C }
  - { offsetInCU: 0x6BE0E, offset: 0x6BE0E, size: 0x8, addend: 0x0, symName: __ZNSt3__1neB8ue170006IPN5memdb21ColumnFullDescriptionES3_EEbRKNS_16reverse_iteratorIT_EERKNS4_IT0_EE, symObjAddr: 0x10A414, symBinAddr: 0x10010E168, symSize: 0x9C }
  - { offsetInCU: 0x6BE5A, offset: 0x6BE5A, size: 0x8, addend: 0x0, symName: __ZNSt3__112__to_addressB8ue170006INS_16reverse_iteratorIPN5memdb21ColumnFullDescriptionEEEvEEu7__decayIDTclsr19__to_address_helperIT_EE6__callclsr3stdE7declvalIRKS6_EEEEES8_, symObjAddr: 0x10A530, symBinAddr: 0x10010E284, symSize: 0x6C }
  - { offsetInCU: 0x6BE90, offset: 0x6BE90, size: 0x8, addend: 0x0, symName: __ZNSt3__112construct_atB8ue170006IN5memdb21ColumnFullDescriptionEJRKS2_EPS2_EEPT_S7_DpOT0_, symObjAddr: 0x10ADA8, symBinAddr: 0x10010EAFC, symSize: 0x110 }
  - { offsetInCU: 0x6BF2C, offset: 0x6BF2C, size: 0x8, addend: 0x0, symName: __ZNSt3__14prevB8ue170006IPN5memdb21ColumnFullDescriptionEEENS_9enable_ifIXsr29__has_input_iterator_categoryIT_EE5valueES5_E4typeES5_NS_15iterator_traitsIS5_E15difference_typeE, symObjAddr: 0x10B39C, symBinAddr: 0x10010F0F0, symSize: 0x270 }
  - { offsetInCU: 0x6BF74, offset: 0x6BF74, size: 0x8, addend: 0x0, symName: __ZNSt3__19__advanceB8ue170006IPN5memdb21ColumnFullDescriptionEEEvRT_NS_15iterator_traitsIS4_E15difference_typeENS_26random_access_iterator_tagE, symObjAddr: 0x10B68C, symBinAddr: 0x10010F3E0, symSize: 0x1A4 }
  - { offsetInCU: 0x6BFBE, offset: 0x6BFBE, size: 0x8, addend: 0x0, symName: __ZNSt3__119__allocator_destroyB8ue170006INS_9allocatorIN5memdb21ColumnFullDescriptionEEENS_16reverse_iteratorINS5_IPS3_EEEES8_EEvRT_T0_T1_, symObjAddr: 0x10BDC4, symBinAddr: 0x10010FB18, symSize: 0x1A4 }
  - { offsetInCU: 0x6C023, offset: 0x6C023, size: 0x8, addend: 0x0, symName: __ZNSt3__1neB8ue170006INS_16reverse_iteratorIPN5memdb21ColumnFullDescriptionEEES5_EEbRKNS1_IT_EERKNS1_IT0_EE, symObjAddr: 0x10C204, symBinAddr: 0x10010FF58, symSize: 0x324 }
  - { offsetInCU: 0x6C071, offset: 0x6C071, size: 0x8, addend: 0x0, symName: __ZNSt3__112__to_addressB8ue170006INS_16reverse_iteratorINS1_IPN5memdb21ColumnFullDescriptionEEEEEvEEu7__decayIDTclsr19__to_address_helperIT_EE6__callclsr3stdE7declvalIRKS7_EEEEES9_, symObjAddr: 0x10C550, symBinAddr: 0x1001102A4, symSize: 0x6C }
  - { offsetInCU: 0x6C0A7, offset: 0x6C0A7, size: 0x8, addend: 0x0, symName: __ZNSt3__110destroy_atB8ue170006IN5memdb21ColumnFullDescriptionELi0EEEvPT_, symObjAddr: 0x10C914, symBinAddr: 0x100110668, symSize: 0x24 }
  - { offsetInCU: 0x6C0DE, offset: 0x6C0DE, size: 0x8, addend: 0x0, symName: __ZNSt3__112__destroy_atB8ue170006IN5memdb21ColumnFullDescriptionELi0EEEvPT_, symObjAddr: 0x10C938, symBinAddr: 0x10011068C, symSize: 0x6C }
  - { offsetInCU: 0x6C13F, offset: 0x6C13F, size: 0x8, addend: 0x0, symName: __ZNSt3__14prevB8ue170006INS_16reverse_iteratorIPN5memdb21ColumnFullDescriptionEEEEENS_9enable_ifIXsr29__has_input_iterator_categoryIT_EE5valueES7_E4typeES7_NS_15iterator_traitsIS7_E15difference_typeE, symObjAddr: 0x10CD04, symBinAddr: 0x100110A58, symSize: 0x2C4 }
  - { offsetInCU: 0x6C187, offset: 0x6C187, size: 0x8, addend: 0x0, symName: __ZNSt3__19__advanceB8ue170006INS_16reverse_iteratorIPN5memdb21ColumnFullDescriptionEEEEEvRT_NS_15iterator_traitsIS6_E15difference_typeENS_26random_access_iterator_tagE, symObjAddr: 0x10D048, symBinAddr: 0x100110D9C, symSize: 0x7C }
  - { offsetInCU: 0x6C1F8, offset: 0x6C1F8, size: 0x8, addend: 0x0, symName: __ZNSt3__112construct_atB8ue170006IN5memdb11ColumnAttrsEJS2_EPS2_EEPT_S5_DpOT0_, symObjAddr: 0x113688, symBinAddr: 0x1001173DC, symSize: 0x1D8 }
  - { offsetInCU: 0x6C26A, offset: 0x6C26A, size: 0x8, addend: 0x0, symName: __ZNSt3__142__uninitialized_allocator_move_if_noexceptB8ue170006INS_9allocatorIN5memdb11ColumnAttrsEEENS_16reverse_iteratorIPS3_EES7_S3_vEET1_RT_T0_SB_S8_, symObjAddr: 0x1155F4, symBinAddr: 0x100119348, symSize: 0x4A8 }
  - { offsetInCU: 0x6C2F5, offset: 0x6C2F5, size: 0x8, addend: 0x0, symName: __ZNSt3__14swapB8ue170006IPN5memdb11ColumnAttrsEEENS_9enable_ifIXaasr21is_move_constructibleIT_EE5valuesr18is_move_assignableIS5_EE5valueEvE4typeERS5_S8_, symObjAddr: 0x115BCC, symBinAddr: 0x100119920, symSize: 0x1C0 }
  - { offsetInCU: 0x6C346, offset: 0x6C346, size: 0x8, addend: 0x0, symName: __ZNSt3__14moveB8ue170006INS_16reverse_iteratorIPN5memdb11ColumnAttrsEEES5_EET0_T_S7_S6_, symObjAddr: 0x115D8C, symBinAddr: 0x100119AE0, symSize: 0x4B0 }
  - { offsetInCU: 0x6C3AD, offset: 0x6C3AD, size: 0x8, addend: 0x0, symName: __ZNSt3__16__moveB8ue170006INS_17_ClassicAlgPolicyENS_16reverse_iteratorIPN5memdb11ColumnAttrsEEES6_S6_EENS_4pairIT0_T2_EES8_T1_S9_, symObjAddr: 0x11623C, symBinAddr: 0x100119F90, symSize: 0x424 }
  - { offsetInCU: 0x6C425, offset: 0x6C425, size: 0x8, addend: 0x0, symName: __ZNSt3__123__dispatch_copy_or_moveB8ue170006INS_17_ClassicAlgPolicyENS_11__move_loopIS1_EENS_14__move_trivialENS_16reverse_iteratorIPN5memdb11ColumnAttrsEEES9_S9_EENS_4pairIT2_T4_EESB_T3_SC_, symObjAddr: 0x116660, symBinAddr: 0x10011A3B4, symSize: 0x424 }
  - { offsetInCU: 0x6C4AF, offset: 0x6C4AF, size: 0x8, addend: 0x0, symName: __ZNSt3__121__unwrap_and_dispatchB8ue170006INS_10__overloadINS_11__move_loopINS_17_ClassicAlgPolicyEEENS_14__move_trivialEEENS_16reverse_iteratorIPN5memdb11ColumnAttrsEEESB_SB_Li0EEENS_4pairIT0_T2_EESD_T1_SE_, symObjAddr: 0x116A84, symBinAddr: 0x10011A7D8, symSize: 0x880 }
  - { offsetInCU: 0x6C553, offset: 0x6C553, size: 0x8, addend: 0x0, symName: __ZNSt3__114__unwrap_rangeB8ue170006INS_16reverse_iteratorIPN5memdb11ColumnAttrsEEES5_EEDaT_T0_, symObjAddr: 0x117304, symBinAddr: 0x10011B058, symSize: 0x35C }
  - { offsetInCU: 0x6C6C8, offset: 0x6C6C8, size: 0x8, addend: 0x0, symName: __ZNSt3__113__unwrap_iterB8ue170006INS_16reverse_iteratorIPN5memdb11ColumnAttrsEEENS_18__unwrap_iter_implIS5_Lb0EEELi0EEEDTclsrT0_8__unwrapclsr3stdE7declvalIT_EEEES9_, symObjAddr: 0x117B0C, symBinAddr: 0x10011B860, symSize: 0x2EC }
  - { offsetInCU: 0x6C710, offset: 0x6C710, size: 0x8, addend: 0x0, symName: __ZNSt3__19make_pairB8ue170006INS_16reverse_iteratorIPN5memdb11ColumnAttrsEEES5_EENS_4pairINS_18__unwrap_ref_decayIT_E4typeENS7_IT0_E4typeEEEOS8_OSB_, symObjAddr: 0x117DF8, symBinAddr: 0x10011BB4C, symSize: 0x108 }
  - { offsetInCU: 0x6C75F, offset: 0x6C75F, size: 0x8, addend: 0x0, symName: __ZNSt3__114__rewrap_rangeB8ue170006INS_16reverse_iteratorIPN5memdb11ColumnAttrsEEES5_S5_EET0_S6_T1_, symObjAddr: 0x117F00, symBinAddr: 0x10011BC54, symSize: 0x3D4 }
  - { offsetInCU: 0x6C7BC, offset: 0x6C7BC, size: 0x8, addend: 0x0, symName: __ZNSt3__113__rewrap_iterB8ue170006INS_16reverse_iteratorIPN5memdb11ColumnAttrsEEES5_NS_18__unwrap_iter_implIS5_Lb0EEEEET_S8_T0_, symObjAddr: 0x1182D4, symBinAddr: 0x10011C028, symSize: 0x3E8 }
  - { offsetInCU: 0x6C869, offset: 0x6C869, size: 0x8, addend: 0x0, symName: __ZNSt3__1neB8ue170006IPN5memdb11ColumnAttrsES3_EEbRKNS_16reverse_iteratorIT_EERKNS4_IT0_EE, symObjAddr: 0x118C74, symBinAddr: 0x10011C9C8, symSize: 0x9C }
  - { offsetInCU: 0x6D383, offset: 0x6D383, size: 0x8, addend: 0x0, symName: __ZNSt3__1neB8ue170006ERKNS_14__map_iteratorINS_15__tree_iteratorINS_12__value_typeINS_17basic_string_viewIcNS_11char_traitsIcEEEElEEPNS_11__tree_nodeIS7_PvEElEEEESF_, symObjAddr: 0x121838, symBinAddr: 0x10012558C, symSize: 0xC0 }
  - { offsetInCU: 0x6D3C0, offset: 0x6D3C0, size: 0x8, addend: 0x0, symName: __ZNSt3__1neB8ue170006ERKNS_15__tree_iteratorINS_12__value_typeINS_17basic_string_viewIcNS_11char_traitsIcEEEElEEPNS_11__tree_nodeIS6_PvEElEESD_, symObjAddr: 0x1235F4, symBinAddr: 0x100127348, symSize: 0xC4 }
  - { offsetInCU: 0x6D3FD, offset: 0x6D3FD, size: 0x8, addend: 0x0, symName: __ZNSt3__1eqB8ue170006ERKNS_15__tree_iteratorINS_12__value_typeINS_17basic_string_viewIcNS_11char_traitsIcEEEElEEPNS_11__tree_nodeIS6_PvEElEESD_, symObjAddr: 0x1236B8, symBinAddr: 0x10012740C, symSize: 0x114 }
  - { offsetInCU: 0x6D43A, offset: 0x6D43A, size: 0x8, addend: 0x0, symName: __ZNSt3__1ltB8ue170006ENS_15strong_orderingENS_20_CmpUnspecifiedParamE, symObjAddr: 0x1253AC, symBinAddr: 0x100129100, symSize: 0x274 }
  - { offsetInCU: 0x6D479, offset: 0x6D479, size: 0x8, addend: 0x0, symName: __ZNSt3__1ssB8ue170006IcNS_11char_traitsIcEEEEDaNS_17basic_string_viewIT_T0_EES7_, symObjAddr: 0x125620, symBinAddr: 0x100129374, symSize: 0x3E8 }
  - { offsetInCU: 0x6D4EC, offset: 0x6D4EC, size: 0x8, addend: 0x0, symName: __ZNSt3__17launderB8ue170006IKNS_4pairIKNS_17basic_string_viewIcNS_11char_traitsIcEEEElEEEEPT_SA_, symObjAddr: 0x125AC4, symBinAddr: 0x100129818, symSize: 0x24 }
  - { offsetInCU: 0x6D523, offset: 0x6D523, size: 0x8, addend: 0x0, symName: __ZNSt3__19__launderB8ue170006IKNS_4pairIKNS_17basic_string_viewIcNS_11char_traitsIcEEEElEEEEPT_SA_, symObjAddr: 0x125AE8, symBinAddr: 0x10012983C, symSize: 0x14 }
  - { offsetInCU: 0x6D55B, offset: 0x6D55B, size: 0x8, addend: 0x0, symName: __ZNSt3__112__to_addressB8ue170006IN5memdb5TableEEEPT_S4_, symObjAddr: 0x127274, symBinAddr: 0x10012AFC8, symSize: 0x14 }
  - { offsetInCU: 0x6D5B6, offset: 0x6D5B6, size: 0x8, addend: 0x0, symName: __ZNSt3__112construct_atB8ue170006IN5memdb5TableEJS2_EPS2_EEPT_S5_DpOT0_, symObjAddr: 0x1281A4, symBinAddr: 0x10012BEF8, symSize: 0x110 }
  - { offsetInCU: 0x6D628, offset: 0x6D628, size: 0x8, addend: 0x0, symName: __ZNSt3__119__allocate_at_leastB8ue170006INS_9allocatorIN5memdb5TableEEEEEDaRT_m, symObjAddr: 0x12C640, symBinAddr: 0x100130394, symSize: 0x250 }
  - { offsetInCU: 0x6D66D, offset: 0x6D66D, size: 0x8, addend: 0x0, symName: __ZNSt3__117allocate_at_leastB8ue170006INS_9allocatorIN5memdb5TableEEEEENS_17allocation_resultINS_16allocator_traitsIT_E7pointerEEERS7_m, symObjAddr: 0x12CCF8, symBinAddr: 0x100130A4C, symSize: 0x224 }
  - { offsetInCU: 0x6D6B2, offset: 0x6D6B2, size: 0x8, addend: 0x0, symName: __ZNSt3__142__uninitialized_allocator_move_if_noexceptB8ue170006INS_9allocatorIN5memdb5TableEEENS_16reverse_iteratorIPS3_EES7_S7_EET2_RT_T0_T1_S8_, symObjAddr: 0x12D938, symBinAddr: 0x10013168C, symSize: 0x5D8 }
  - { offsetInCU: 0x6D767, offset: 0x6D767, size: 0x8, addend: 0x0, symName: __ZNSt3__14swapB8ue170006IPN5memdb5TableEEENS_9enable_ifIXaasr21is_move_constructibleIT_EE5valuesr18is_move_assignableIS5_EE5valueEvE4typeERS5_S8_, symObjAddr: 0x12E040, symBinAddr: 0x100131D94, symSize: 0x1C0 }
  - { offsetInCU: 0x6D7B8, offset: 0x6D7B8, size: 0x8, addend: 0x0, symName: __ZNSt3__122__make_exception_guardB8ue170006INS_29_AllocatorDestroyRangeReverseINS_9allocatorIN5memdb5TableEEENS_16reverse_iteratorIPS4_EEEEEENS_28__exception_guard_exceptionsIT_EESB_, symObjAddr: 0x12E578, symBinAddr: 0x1001322CC, symSize: 0x23C }
  - { offsetInCU: 0x6D7EF, offset: 0x6D7EF, size: 0x8, addend: 0x0, symName: __ZNSt3__1neB8ue170006IPN5memdb5TableES3_EEbRKNS_16reverse_iteratorIT_EERKNS4_IT0_EE, symObjAddr: 0x12E844, symBinAddr: 0x100132598, symSize: 0x9C }
  - { offsetInCU: 0x6D83B, offset: 0x6D83B, size: 0x8, addend: 0x0, symName: __ZNSt3__112__to_addressB8ue170006INS_16reverse_iteratorIPN5memdb5TableEEEvEEu7__decayIDTclsr19__to_address_helperIT_EE6__callclsr3stdE7declvalIRKS6_EEEEES8_, symObjAddr: 0x12E8E0, symBinAddr: 0x100132634, symSize: 0x6C }
  - { offsetInCU: 0x6D89B, offset: 0x6D89B, size: 0x8, addend: 0x0, symName: __ZNSt3__14prevB8ue170006IPN5memdb5TableEEENS_9enable_ifIXsr29__has_input_iterator_categoryIT_EE5valueES5_E4typeES5_NS_15iterator_traitsIS5_E15difference_typeE, symObjAddr: 0x12F280, symBinAddr: 0x100132FD4, symSize: 0x270 }
  - { offsetInCU: 0x6D8E3, offset: 0x6D8E3, size: 0x8, addend: 0x0, symName: __ZNSt3__19__advanceB8ue170006IPN5memdb5TableEEEvRT_NS_15iterator_traitsIS4_E15difference_typeENS_26random_access_iterator_tagE, symObjAddr: 0x12F570, symBinAddr: 0x1001332C4, symSize: 0x1A4 }
  - { offsetInCU: 0x6D92D, offset: 0x6D92D, size: 0x8, addend: 0x0, symName: __ZNSt3__119__allocator_destroyB8ue170006INS_9allocatorIN5memdb5TableEEENS_16reverse_iteratorINS5_IPS3_EEEES8_EEvRT_T0_T1_, symObjAddr: 0x12FCA8, symBinAddr: 0x1001339FC, symSize: 0x1A4 }
  - { offsetInCU: 0x6D992, offset: 0x6D992, size: 0x8, addend: 0x0, symName: __ZNSt3__1neB8ue170006INS_16reverse_iteratorIPN5memdb5TableEEES5_EEbRKNS1_IT_EERKNS1_IT0_EE, symObjAddr: 0x1300E8, symBinAddr: 0x100133E3C, symSize: 0x324 }
  - { offsetInCU: 0x6D9E0, offset: 0x6D9E0, size: 0x8, addend: 0x0, symName: __ZNSt3__112__to_addressB8ue170006INS_16reverse_iteratorINS1_IPN5memdb5TableEEEEEvEEu7__decayIDTclsr19__to_address_helperIT_EE6__callclsr3stdE7declvalIRKS7_EEEEES9_, symObjAddr: 0x130434, symBinAddr: 0x100134188, symSize: 0x6C }
  - { offsetInCU: 0x6DA16, offset: 0x6DA16, size: 0x8, addend: 0x0, symName: __ZNSt3__110destroy_atB8ue170006IN5memdb5TableELi0EEEvPT_, symObjAddr: 0x1307F8, symBinAddr: 0x10013454C, symSize: 0x24 }
  - { offsetInCU: 0x6DA4D, offset: 0x6DA4D, size: 0x8, addend: 0x0, symName: __ZNSt3__112__destroy_atB8ue170006IN5memdb5TableELi0EEEvPT_, symObjAddr: 0x13081C, symBinAddr: 0x100134570, symSize: 0x6C }
  - { offsetInCU: 0x6DAAE, offset: 0x6DAAE, size: 0x8, addend: 0x0, symName: __ZNSt3__14prevB8ue170006INS_16reverse_iteratorIPN5memdb5TableEEEEENS_9enable_ifIXsr29__has_input_iterator_categoryIT_EE5valueES7_E4typeES7_NS_15iterator_traitsIS7_E15difference_typeE, symObjAddr: 0x130BE8, symBinAddr: 0x10013493C, symSize: 0x2C4 }
  - { offsetInCU: 0x6DAF6, offset: 0x6DAF6, size: 0x8, addend: 0x0, symName: __ZNSt3__19__advanceB8ue170006INS_16reverse_iteratorIPN5memdb5TableEEEEEvRT_NS_15iterator_traitsIS6_E15difference_typeENS_26random_access_iterator_tagE, symObjAddr: 0x130F2C, symBinAddr: 0x100134C80, symSize: 0x7C }
  - { offsetInCU: 0x6DB40, offset: 0x6DB40, size: 0x8, addend: 0x0, symName: __ZNSt3__110destroy_atB8ue170006INS_4pairIKNS_17basic_string_viewIcNS_11char_traitsIcEEEElEELi0EEEvPT_, symObjAddr: 0x133594, symBinAddr: 0x1001372E8, symSize: 0x24 }
  - { offsetInCU: 0x6DB78, offset: 0x6DB78, size: 0x8, addend: 0x0, symName: __ZNSt3__112__destroy_atB8ue170006INS_4pairIKNS_17basic_string_viewIcNS_11char_traitsIcEEEElEELi0EEEvPT_, symObjAddr: 0x1335B8, symBinAddr: 0x10013730C, symSize: 0x10 }
  - { offsetInCU: 0x6DBAF, offset: 0x6DBAF, size: 0x8, addend: 0x0, symName: __ZNSt3__17launderB8ue170006INS_4pairIKNS_17basic_string_viewIcNS_11char_traitsIcEEEElEEEEPT_S9_, symObjAddr: 0x13367C, symBinAddr: 0x1001373D0, symSize: 0x24 }
  - { offsetInCU: 0x6DBE6, offset: 0x6DBE6, size: 0x8, addend: 0x0, symName: __ZNSt3__19__launderB8ue170006INS_4pairIKNS_17basic_string_viewIcNS_11char_traitsIcEEEElEEEEPT_S9_, symObjAddr: 0x1336A0, symBinAddr: 0x1001373F4, symSize: 0x14 }
  - { offsetInCU: 0x6DC1E, offset: 0x6DC1E, size: 0x8, addend: 0x0, symName: __ZNSt3__112__to_addressB8ue170006INS_10shared_ptrIN5memdb6ColumnEEEEEPT_S6_, symObjAddr: 0x134748, symBinAddr: 0x10013849C, symSize: 0x14 }
  - { offsetInCU: 0x6DC52, offset: 0x6DC52, size: 0x8, addend: 0x0, symName: __ZNSt3__110destroy_atB8ue170006INS_10shared_ptrIN5memdb6ColumnEEELi0EEEvPT_, symObjAddr: 0x13475C, symBinAddr: 0x1001384B0, symSize: 0x24 }
  - { offsetInCU: 0x6DC89, offset: 0x6DC89, size: 0x8, addend: 0x0, symName: __ZNSt3__112__destroy_atB8ue170006INS_10shared_ptrIN5memdb6ColumnEEELi0EEEvPT_, symObjAddr: 0x134780, symBinAddr: 0x1001384D4, symSize: 0x6C }
  - { offsetInCU: 0x71480, offset: 0x71480, size: 0x8, addend: 0x0, symName: __ZNSt3__1neB8ue170006IPN5memdb11ColumnAttrsEEEbRKNS_11__wrap_iterIT_EES8_, symObjAddr: 0x1399A0, symBinAddr: 0x10013D6F4, symSize: 0xC4 }
  - { offsetInCU: 0x714C3, offset: 0x714C3, size: 0x8, addend: 0x0, symName: __ZNSt3__1eqB8ue170006IPN5memdb11ColumnAttrsEEEbRKNS_11__wrap_iterIT_EES8_, symObjAddr: 0x13A08C, symBinAddr: 0x10013DDE0, symSize: 0x9C }
  - { offsetInCU: 0x71539, offset: 0x71539, size: 0x8, addend: 0x0, symName: __ZNSt3__110destroy_atB8ue170006INS_4pairIKlNS_23__forward_list_iteratorIPNS_19__forward_list_nodeIlPvEEEEEELi0EEEvPT_, symObjAddr: 0x13FB30, symBinAddr: 0x100143884, symSize: 0x24 }
  - { offsetInCU: 0x71571, offset: 0x71571, size: 0x8, addend: 0x0, symName: __ZNSt3__112__destroy_atB8ue170006INS_4pairIKlNS_23__forward_list_iteratorIPNS_19__forward_list_nodeIlPvEEEEEELi0EEEvPT_, symObjAddr: 0x13FB54, symBinAddr: 0x1001438A8, symSize: 0x10 }
  - { offsetInCU: 0x715A8, offset: 0x715A8, size: 0x8, addend: 0x0, symName: __ZNSt3__17launderB8ue170006INS_4pairIKlNS_23__forward_list_iteratorIPNS_19__forward_list_nodeIlPvEEEEEEEEPT_SB_, symObjAddr: 0x13FC18, symBinAddr: 0x10014396C, symSize: 0x24 }
  - { offsetInCU: 0x715DF, offset: 0x715DF, size: 0x8, addend: 0x0, symName: __ZNSt3__19__launderB8ue170006INS_4pairIKlNS_23__forward_list_iteratorIPNS_19__forward_list_nodeIlPvEEEEEEEEPT_SB_, symObjAddr: 0x13FC3C, symBinAddr: 0x100143990, symSize: 0x14 }
  - { offsetInCU: 0x71729, offset: 0x71729, size: 0x8, addend: 0x0, symName: __ZNSt3__110destroy_atB8ue170006IlLi0EEEvPT_, symObjAddr: 0x14156C, symBinAddr: 0x1001452C0, symSize: 0x24 }
  - { offsetInCU: 0x71761, offset: 0x71761, size: 0x8, addend: 0x0, symName: __ZNSt3__112__destroy_atB8ue170006IlLi0EEEvPT_, symObjAddr: 0x141590, symBinAddr: 0x1001452E4, symSize: 0x10 }
  - { offsetInCU: 0x717CB, offset: 0x717CB, size: 0x8, addend: 0x0, symName: __ZNSt3__110destroy_atB8ue170006INS_4pairIKliEELi0EEEvPT_, symObjAddr: 0x14217C, symBinAddr: 0x100145ED0, symSize: 0x24 }
  - { offsetInCU: 0x71803, offset: 0x71803, size: 0x8, addend: 0x0, symName: __ZNSt3__112__destroy_atB8ue170006INS_4pairIKliEELi0EEEvPT_, symObjAddr: 0x1421A0, symBinAddr: 0x100145EF4, symSize: 0x10 }
  - { offsetInCU: 0x7183A, offset: 0x7183A, size: 0x8, addend: 0x0, symName: __ZNSt3__17launderB8ue170006INS_4pairIKliEEEEPT_S5_, symObjAddr: 0x142264, symBinAddr: 0x100145FB8, symSize: 0x24 }
  - { offsetInCU: 0x71871, offset: 0x71871, size: 0x8, addend: 0x0, symName: __ZNSt3__19__launderB8ue170006INS_4pairIKliEEEEPT_S5_, symObjAddr: 0x142288, symBinAddr: 0x100145FDC, symSize: 0x14 }
  - { offsetInCU: 0x718A8, offset: 0x718A8, size: 0x8, addend: 0x0, symName: __ZNSt3__116forward_as_tupleB8ue170006IJRKlEEENS_5tupleIJDpOT_EEES6_, symObjAddr: 0x147674, symBinAddr: 0x10014B3C8, symSize: 0x244 }
  - { offsetInCU: 0x718E2, offset: 0x718E2, size: 0x8, addend: 0x0, symName: __ZNSt3__116__constrain_hashB8ue170006Emm, symObjAddr: 0x147CF0, symBinAddr: 0x10014BA44, symSize: 0xDC }
  - { offsetInCU: 0x7191D, offset: 0x7191D, size: 0x8, addend: 0x0, symName: __ZNSt3__116__is_hash_power2B8ue170006Em, symObjAddr: 0x148FD8, symBinAddr: 0x10014CD2C, symSize: 0x50 }
  - { offsetInCU: 0x71948, offset: 0x71948, size: 0x8, addend: 0x0, symName: __ZNSt3__17launderB8ue170006IKNS_4pairIKliEEEEPT_S6_, symObjAddr: 0x14A388, symBinAddr: 0x10014E0DC, symSize: 0x24 }
  - { offsetInCU: 0x7197F, offset: 0x7197F, size: 0x8, addend: 0x0, symName: __ZNSt3__19__launderB8ue170006IKNS_4pairIKliEEEEPT_S6_, symObjAddr: 0x14A3AC, symBinAddr: 0x10014E100, symSize: 0x14 }
  - { offsetInCU: 0x719FB, offset: 0x719FB, size: 0x8, addend: 0x0, symName: __ZNSt3__112construct_atB8ue170006INS_4pairIKliEEJRKNS_21piecewise_construct_tENS_5tupleIJRS2_EEENS7_IJEEEEPS3_EEPT_SD_DpOT0_, symObjAddr: 0x14B0A0, symBinAddr: 0x10014EDF4, symSize: 0x2A8 }
  - { offsetInCU: 0x71A98, offset: 0x71A98, size: 0x8, addend: 0x0, symName: __ZNSt3__13getB8ue170006ILm0EJRKlEEERNS_13tuple_elementIXT_ENS_5tupleIJDpT0_EEEE4typeERS7_, symObjAddr: 0x14B864, symBinAddr: 0x10014F5B8, symSize: 0xE0 }
  - { offsetInCU: 0x71ADB, offset: 0x71ADB, size: 0x8, addend: 0x0, symName: __ZNSt3__116__next_hash_pow2B8ue170006Em, symObjAddr: 0x14D954, symBinAddr: 0x1001516A8, symSize: 0xCC }
  - { offsetInCU: 0x71B25, offset: 0x71B25, size: 0x8, addend: 0x0, symName: __ZNSt3__112__libcpp_clzB8ue170006Em, symObjAddr: 0x14DF30, symBinAddr: 0x100151C84, symSize: 0x1C }
  - { offsetInCU: 0x72018, offset: 0x72018, size: 0x8, addend: 0x0, symName: __ZNSt3__112construct_atB8ue170006IlJRKlEPlEEPT_S5_DpOT0_, symObjAddr: 0x14FE04, symBinAddr: 0x100153B58, symSize: 0x188 }
  - { offsetInCU: 0x7208A, offset: 0x7208A, size: 0x8, addend: 0x0, symName: __ZNSt3__116forward_as_tupleB8ue170006IJlEEENS_5tupleIJDpOT_EEES4_, symObjAddr: 0x15286C, symBinAddr: 0x1001565C0, symSize: 0x244 }
  - { offsetInCU: 0x720C4, offset: 0x720C4, size: 0x8, addend: 0x0, symName: __ZNSt3__17launderB8ue170006IKNS_4pairIKlNS_23__forward_list_iteratorIPNS_19__forward_list_nodeIlPvEEEEEEEEPT_SC_, symObjAddr: 0x155254, symBinAddr: 0x100158FA8, symSize: 0x24 }
  - { offsetInCU: 0x720FB, offset: 0x720FB, size: 0x8, addend: 0x0, symName: __ZNSt3__19__launderB8ue170006IKNS_4pairIKlNS_23__forward_list_iteratorIPNS_19__forward_list_nodeIlPvEEEEEEEEPT_SC_, symObjAddr: 0x155278, symBinAddr: 0x100158FCC, symSize: 0x14 }
  - { offsetInCU: 0x72177, offset: 0x72177, size: 0x8, addend: 0x0, symName: __ZNSt3__112construct_atB8ue170006INS_4pairIKlNS_23__forward_list_iteratorIPNS_19__forward_list_nodeIlPvEEEEEEJRKNS_21piecewise_construct_tENS_5tupleIJOlEEENSD_IJEEEEPS9_EEPT_SJ_DpOT0_, symObjAddr: 0x155F6C, symBinAddr: 0x100159CC0, symSize: 0x2A8 }
  - { offsetInCU: 0x72214, offset: 0x72214, size: 0x8, addend: 0x0, symName: __ZNSt3__13getB8ue170006ILm0EJOlEEERNS_13tuple_elementIXT_ENS_5tupleIJDpT0_EEEE4typeERS6_, symObjAddr: 0x1566D8, symBinAddr: 0x10015A42C, symSize: 0xE0 }
  - { offsetInCU: 0x7229F, offset: 0x7229F, size: 0x8, addend: 0x0, symName: __ZNSt3__112construct_atB8ue170006INS_4pairIKlNS_23__forward_list_iteratorIPNS_19__forward_list_nodeIlPvEEEEEEJRKNS_21piecewise_construct_tENS_5tupleIJRS2_EEENSD_IJEEEEPS9_EEPT_SJ_DpOT0_, symObjAddr: 0x15C688, symBinAddr: 0x1001603DC, symSize: 0x2A8 }
  - { offsetInCU: 0x7233D, offset: 0x7233D, size: 0x8, addend: 0x0, symName: __ZNSt3__127__throw_bad_optional_accessB8ue170006Ev, symObjAddr: 0x15CDF4, symBinAddr: 0x100160B48, symSize: 0x90 }
  - { offsetInCU: 0x72357, offset: 0x72357, size: 0x8, addend: 0x0, symName: __ZNSt3__1eqB8ue170006ERKNS_15__hash_iteratorIPNS_11__hash_nodeINS_17__hash_value_typeIliEEPvEEEES9_, symObjAddr: 0x15F09C, symBinAddr: 0x100162DF0, symSize: 0x114 }
  - { offsetInCU: 0x72394, offset: 0x72394, size: 0x8, addend: 0x0, symName: __ZNSt3__1eqB8ue170006ERKNS_15__hash_iteratorIPNS_11__hash_nodeINS_17__hash_value_typeIlNS_23__forward_list_iteratorIPNS_19__forward_list_nodeIlPvEEEEEES5_EEEESE_, symObjAddr: 0x161C1C, symBinAddr: 0x100165970, symSize: 0x114 }
  - { offsetInCU: 0x723D2, offset: 0x723D2, size: 0x8, addend: 0x0, symName: __ZNSt3__112__to_addressB8ue170006IPvEEPT_S3_, symObjAddr: 0x1665FC, symBinAddr: 0x10016A350, symSize: 0x14 }
  - { offsetInCU: 0x7242D, offset: 0x7242D, size: 0x8, addend: 0x0, symName: __ZNSt3__112construct_atB8ue170006IPvJS1_EPS1_EEPT_S4_DpOT0_, symObjAddr: 0x167504, symBinAddr: 0x10016B258, symSize: 0x188 }
  - { offsetInCU: 0x7249F, offset: 0x7249F, size: 0x8, addend: 0x0, symName: __ZNSt3__119__allocate_at_leastB8ue170006INS_9allocatorIPvEEEEDaRT_m, symObjAddr: 0x169C04, symBinAddr: 0x10016D958, symSize: 0x250 }
  - { offsetInCU: 0x724E4, offset: 0x724E4, size: 0x8, addend: 0x0, symName: __ZNSt3__117allocate_at_leastB8ue170006INS_9allocatorIPvEEEENS_17allocation_resultINS_16allocator_traitsIT_E7pointerEEERS6_m, symObjAddr: 0x16A378, symBinAddr: 0x10016E0CC, symSize: 0x224 }
  - { offsetInCU: 0x72529, offset: 0x72529, size: 0x8, addend: 0x0, symName: __ZNSt3__142__uninitialized_allocator_move_if_noexceptB8ue170006INS_9allocatorIPvEENS_16reverse_iteratorIPS2_EES6_S2_vEET1_RT_T0_SA_S7_, symObjAddr: 0x16AF9C, symBinAddr: 0x10016ECF0, symSize: 0x4A8 }
  - { offsetInCU: 0x725B4, offset: 0x725B4, size: 0x8, addend: 0x0, symName: __ZNSt3__14swapB8ue170006IPPvEENS_9enable_ifIXaasr21is_move_constructibleIT_EE5valuesr18is_move_assignableIS4_EE5valueEvE4typeERS4_S7_, symObjAddr: 0x16B574, symBinAddr: 0x10016F2C8, symSize: 0x1C0 }
  - { offsetInCU: 0x72605, offset: 0x72605, size: 0x8, addend: 0x0, symName: __ZNSt3__14moveB8ue170006INS_16reverse_iteratorIPPvEES4_EET0_T_S6_S5_, symObjAddr: 0x16BA94, symBinAddr: 0x10016F7E8, symSize: 0x4B0 }
  - { offsetInCU: 0x7266C, offset: 0x7266C, size: 0x8, addend: 0x0, symName: __ZNSt3__16__moveB8ue170006INS_17_ClassicAlgPolicyENS_16reverse_iteratorIPPvEES5_S5_EENS_4pairIT0_T2_EES7_T1_S8_, symObjAddr: 0x16BF44, symBinAddr: 0x10016FC98, symSize: 0x424 }
  - { offsetInCU: 0x726E4, offset: 0x726E4, size: 0x8, addend: 0x0, symName: __ZNSt3__123__dispatch_copy_or_moveB8ue170006INS_17_ClassicAlgPolicyENS_11__move_loopIS1_EENS_14__move_trivialENS_16reverse_iteratorIPPvEES8_S8_EENS_4pairIT2_T4_EESA_T3_SB_, symObjAddr: 0x16C368, symBinAddr: 0x1001700BC, symSize: 0x424 }
  - { offsetInCU: 0x7276E, offset: 0x7276E, size: 0x8, addend: 0x0, symName: __ZNSt3__121__unwrap_and_dispatchB8ue170006INS_10__overloadINS_11__move_loopINS_17_ClassicAlgPolicyEEENS_14__move_trivialEEENS_16reverse_iteratorIPPvEESA_SA_Li0EEENS_4pairIT0_T2_EESC_T1_SD_, symObjAddr: 0x16C78C, symBinAddr: 0x1001704E0, symSize: 0x880 }
  - { offsetInCU: 0x72812, offset: 0x72812, size: 0x8, addend: 0x0, symName: __ZNSt3__114__unwrap_rangeB8ue170006INS_16reverse_iteratorIPPvEES4_EEDaT_T0_, symObjAddr: 0x16D00C, symBinAddr: 0x100170D60, symSize: 0x35C }
  - { offsetInCU: 0x72987, offset: 0x72987, size: 0x8, addend: 0x0, symName: __ZNSt3__113__unwrap_iterB8ue170006INS_16reverse_iteratorIPPvEENS_18__unwrap_iter_implIS4_Lb0EEELi0EEEDTclsrT0_8__unwrapclsr3stdE7declvalIT_EEEES8_, symObjAddr: 0x16D7C4, symBinAddr: 0x100171518, symSize: 0x2EC }
  - { offsetInCU: 0x729CF, offset: 0x729CF, size: 0x8, addend: 0x0, symName: __ZNSt3__19make_pairB8ue170006INS_16reverse_iteratorIPPvEES4_EENS_4pairINS_18__unwrap_ref_decayIT_E4typeENS6_IT0_E4typeEEEOS7_OSA_, symObjAddr: 0x16DAB0, symBinAddr: 0x100171804, symSize: 0x108 }
  - { offsetInCU: 0x72A1E, offset: 0x72A1E, size: 0x8, addend: 0x0, symName: __ZNSt3__114__rewrap_rangeB8ue170006INS_16reverse_iteratorIPPvEES4_S4_EET0_S5_T1_, symObjAddr: 0x16DBB8, symBinAddr: 0x10017190C, symSize: 0x3D4 }
  - { offsetInCU: 0x72A7B, offset: 0x72A7B, size: 0x8, addend: 0x0, symName: __ZNSt3__113__rewrap_iterB8ue170006INS_16reverse_iteratorIPPvEES4_NS_18__unwrap_iter_implIS4_Lb0EEEEET_S7_T0_, symObjAddr: 0x16DF8C, symBinAddr: 0x100171CE0, symSize: 0x3E8 }
  - { offsetInCU: 0x72B28, offset: 0x72B28, size: 0x8, addend: 0x0, symName: __ZNSt3__1neB8ue170006IPPvS2_EEbRKNS_16reverse_iteratorIT_EERKNS3_IT0_EE, symObjAddr: 0x16E92C, symBinAddr: 0x100172680, symSize: 0x9C }
  - { offsetInCU: 0x72BE0, offset: 0x72BE0, size: 0x8, addend: 0x0, symName: __ZNSt3__110destroy_atB8ue170006IPvLi0EEEvPT_, symObjAddr: 0x16FE44, symBinAddr: 0x100173B98, symSize: 0x24 }
  - { offsetInCU: 0x72C18, offset: 0x72C18, size: 0x8, addend: 0x0, symName: __ZNSt3__112__destroy_atB8ue170006IPvLi0EEEvPT_, symObjAddr: 0x16FE68, symBinAddr: 0x100173BBC, symSize: 0x10 }
  - { offsetInCU: 0x72C4F, offset: 0x72C4F, size: 0x8, addend: 0x0, symName: __ZNSt3__112construct_atB8ue170006INS_4pairIKliEEJRKNS_21piecewise_construct_tENS_5tupleIJOlEEENS7_IJEEEEPS3_EEPT_SD_DpOT0_, symObjAddr: 0x1728A4, symBinAddr: 0x1001765F8, symSize: 0x2A8 }
  - { offsetInCU: 0x7374E, offset: 0x7374E, size: 0x8, addend: 0x0, symName: __ZNSt3__14swapB8ue170006IPN5memdb6ColumnEEENS_9enable_ifIXaasr21is_move_constructibleIT_EE5valuesr18is_move_assignableIS5_EE5valueEvE4typeERS5_S8_, symObjAddr: 0x1776B8, symBinAddr: 0x10017B40C, symSize: 0x1C0 }
  - { offsetInCU: 0x737D2, offset: 0x737D2, size: 0x8, addend: 0x0, symName: __ZNSt3__110destroy_atB8ue170006INS_4pairIKlbEELi0EEEvPT_, symObjAddr: 0x17D704, symBinAddr: 0x100181458, symSize: 0x24 }
  - { offsetInCU: 0x7380A, offset: 0x7380A, size: 0x8, addend: 0x0, symName: __ZNSt3__112__destroy_atB8ue170006INS_4pairIKlbEELi0EEEvPT_, symObjAddr: 0x17D728, symBinAddr: 0x10018147C, symSize: 0x10 }
  - { offsetInCU: 0x73841, offset: 0x73841, size: 0x8, addend: 0x0, symName: __ZNSt3__17launderB8ue170006INS_4pairIKlbEEEEPT_S5_, symObjAddr: 0x17D7EC, symBinAddr: 0x100181540, symSize: 0x24 }
  - { offsetInCU: 0x73878, offset: 0x73878, size: 0x8, addend: 0x0, symName: __ZNSt3__19__launderB8ue170006INS_4pairIKlbEEEEPT_S5_, symObjAddr: 0x17D810, symBinAddr: 0x100181564, symSize: 0x14 }
  - { offsetInCU: 0x738AF, offset: 0x738AF, size: 0x8, addend: 0x0, symName: __ZNSt3__17launderB8ue170006IKNS_4pairIKlbEEEEPT_S6_, symObjAddr: 0x183AE0, symBinAddr: 0x100187834, symSize: 0x24 }
  - { offsetInCU: 0x738E6, offset: 0x738E6, size: 0x8, addend: 0x0, symName: __ZNSt3__19__launderB8ue170006IKNS_4pairIKlbEEEEPT_S6_, symObjAddr: 0x183B04, symBinAddr: 0x100187858, symSize: 0x14 }
  - { offsetInCU: 0x73962, offset: 0x73962, size: 0x8, addend: 0x0, symName: __ZNSt3__112construct_atB8ue170006INS_4pairIKlbEEJRKNS_21piecewise_construct_tENS_5tupleIJRS2_EEENS7_IJEEEEPS3_EEPT_SD_DpOT0_, symObjAddr: 0x1847F8, symBinAddr: 0x10018854C, symSize: 0x2A8 }
  - { offsetInCU: 0x73A32, offset: 0x73A32, size: 0x8, addend: 0x0, symName: __ZNSt3__1eqB8ue170006ERKNS_15__hash_iteratorIPNS_11__hash_nodeINS_17__hash_value_typeIlbEEPvEEEES9_, symObjAddr: 0x189418, symBinAddr: 0x10018D16C, symSize: 0x114 }
  - { offsetInCU: 0x73A6F, offset: 0x73A6F, size: 0x8, addend: 0x0, symName: __ZNSt3__112construct_atB8ue170006INS_4pairIKlbEEJRKNS_21piecewise_construct_tENS_5tupleIJOlEEENS7_IJEEEEPS3_EEPT_SD_DpOT0_, symObjAddr: 0x18E86C, symBinAddr: 0x1001925C0, symSize: 0x2A8 }
  - { offsetInCU: 0x745A1, offset: 0x745A1, size: 0x8, addend: 0x0, symName: __ZNSt3__110destroy_atB8ue170006INS_4pairIKlNS_12basic_stringIcNS_11char_traitsIcEENS_9allocatorIcEEEEEELi0EEEvPT_, symObjAddr: 0x19AAA0, symBinAddr: 0x10019E7F4, symSize: 0x24 }
  - { offsetInCU: 0x745D8, offset: 0x745D8, size: 0x8, addend: 0x0, symName: __ZNSt3__112__destroy_atB8ue170006INS_4pairIKlNS_12basic_stringIcNS_11char_traitsIcEENS_9allocatorIcEEEEEELi0EEEvPT_, symObjAddr: 0x19AAC4, symBinAddr: 0x10019E818, symSize: 0x6C }
  - { offsetInCU: 0x7460F, offset: 0x7460F, size: 0x8, addend: 0x0, symName: __ZNSt3__17launderB8ue170006INS_4pairIKlNS_12basic_stringIcNS_11char_traitsIcEENS_9allocatorIcEEEEEEEEPT_SB_, symObjAddr: 0x19ACD8, symBinAddr: 0x10019EA2C, symSize: 0x24 }
  - { offsetInCU: 0x74646, offset: 0x74646, size: 0x8, addend: 0x0, symName: __ZNSt3__19__launderB8ue170006INS_4pairIKlNS_12basic_stringIcNS_11char_traitsIcEENS_9allocatorIcEEEEEEEEPT_SB_, symObjAddr: 0x19ACFC, symBinAddr: 0x10019EA50, symSize: 0x14 }
  - { offsetInCU: 0x7467D, offset: 0x7467D, size: 0x8, addend: 0x0, symName: __ZNSt3__17launderB8ue170006IKNS_4pairIKlNS_12basic_stringIcNS_11char_traitsIcEENS_9allocatorIcEEEEEEEEPT_SC_, symObjAddr: 0x1A0F04, symBinAddr: 0x1001A4C58, symSize: 0x24 }
  - { offsetInCU: 0x746B4, offset: 0x746B4, size: 0x8, addend: 0x0, symName: __ZNSt3__19__launderB8ue170006IKNS_4pairIKlNS_12basic_stringIcNS_11char_traitsIcEENS_9allocatorIcEEEEEEEEPT_SC_, symObjAddr: 0x1A0F28, symBinAddr: 0x1001A4C7C, symSize: 0x14 }
  - { offsetInCU: 0x74730, offset: 0x74730, size: 0x8, addend: 0x0, symName: __ZNSt3__112construct_atB8ue170006INS_4pairIKlNS_12basic_stringIcNS_11char_traitsIcEENS_9allocatorIcEEEEEEJRKNS_21piecewise_construct_tENS_5tupleIJRS2_EEENSD_IJEEEEPS9_EEPT_SJ_DpOT0_, symObjAddr: 0x1A1C20, symBinAddr: 0x1001A5974, symSize: 0x2A8 }
  - { offsetInCU: 0x74800, offset: 0x74800, size: 0x8, addend: 0x0, symName: __ZNSt3__1eqB8ue170006ERKNS_15__hash_iteratorIPNS_11__hash_nodeINS_17__hash_value_typeIlNS_12basic_stringIcNS_11char_traitsIcEENS_9allocatorIcEEEEEEPvEEEESF_, symObjAddr: 0x1A6850, symBinAddr: 0x1001AA5A4, symSize: 0x114 }
  - { offsetInCU: 0x7483D, offset: 0x7483D, size: 0x8, addend: 0x0, symName: __ZNSt3__112construct_atB8ue170006INS_4pairIKlNS_12basic_stringIcNS_11char_traitsIcEENS_9allocatorIcEEEEEEJRKNS_21piecewise_construct_tENS_5tupleIJOlEEENSD_IJEEEEPS9_EEPT_SJ_DpOT0_, symObjAddr: 0x1ABC20, symBinAddr: 0x1001AF974, symSize: 0x2A8 }
  - { offsetInCU: 0x75363, offset: 0x75363, size: 0x8, addend: 0x0, symName: __ZNSt3__112construct_atB8ue170006INS_6vectorIcNS_9allocatorIcEEEEJS4_EPS4_EEPT_S7_DpOT0_, symObjAddr: 0x1B72CC, symBinAddr: 0x1001BB020, symSize: 0x110 }
  - { offsetInCU: 0x75408, offset: 0x75408, size: 0x8, addend: 0x0, symName: __ZNSt3__110destroy_atB8ue170006INS_4pairIKlNS_6vectorIcNS_9allocatorIcEEEEEELi0EEEvPT_, symObjAddr: 0x1B8948, symBinAddr: 0x1001BC69C, symSize: 0x24 }
  - { offsetInCU: 0x7543F, offset: 0x7543F, size: 0x8, addend: 0x0, symName: __ZNSt3__112__destroy_atB8ue170006INS_4pairIKlNS_6vectorIcNS_9allocatorIcEEEEEELi0EEEvPT_, symObjAddr: 0x1B896C, symBinAddr: 0x1001BC6C0, symSize: 0x6C }
  - { offsetInCU: 0x75476, offset: 0x75476, size: 0x8, addend: 0x0, symName: __ZNSt3__17launderB8ue170006INS_4pairIKlNS_6vectorIcNS_9allocatorIcEEEEEEEEPT_S9_, symObjAddr: 0x1B8B80, symBinAddr: 0x1001BC8D4, symSize: 0x24 }
  - { offsetInCU: 0x754AD, offset: 0x754AD, size: 0x8, addend: 0x0, symName: __ZNSt3__19__launderB8ue170006INS_4pairIKlNS_6vectorIcNS_9allocatorIcEEEEEEEEPT_S9_, symObjAddr: 0x1B8BA4, symBinAddr: 0x1001BC8F8, symSize: 0x14 }
  - { offsetInCU: 0x754E4, offset: 0x754E4, size: 0x8, addend: 0x0, symName: __ZNSt3__17launderB8ue170006IKNS_4pairIKlNS_6vectorIcNS_9allocatorIcEEEEEEEEPT_SA_, symObjAddr: 0x1BEFC4, symBinAddr: 0x1001C2D18, symSize: 0x24 }
  - { offsetInCU: 0x7551B, offset: 0x7551B, size: 0x8, addend: 0x0, symName: __ZNSt3__19__launderB8ue170006IKNS_4pairIKlNS_6vectorIcNS_9allocatorIcEEEEEEEEPT_SA_, symObjAddr: 0x1BEFE8, symBinAddr: 0x1001C2D3C, symSize: 0x14 }
  - { offsetInCU: 0x75597, offset: 0x75597, size: 0x8, addend: 0x0, symName: __ZNSt3__112construct_atB8ue170006INS_4pairIKlNS_6vectorIcNS_9allocatorIcEEEEEEJRKNS_21piecewise_construct_tENS_5tupleIJRS2_EEENSB_IJEEEEPS7_EEPT_SH_DpOT0_, symObjAddr: 0x1BFCE0, symBinAddr: 0x1001C3A34, symSize: 0x2A8 }
  - { offsetInCU: 0x75667, offset: 0x75667, size: 0x8, addend: 0x0, symName: __ZNSt3__18distanceB8ue170006IPcEENS_15iterator_traitsIT_E15difference_typeES3_S3_, symObjAddr: 0x1C3A68, symBinAddr: 0x1001C77BC, symSize: 0x2C }
  - { offsetInCU: 0x756AA, offset: 0x756AA, size: 0x8, addend: 0x0, symName: __ZNSt3__14nextB8ue170006IPcEENS_9enable_ifIXsr29__has_input_iterator_categoryIT_EE5valueES3_E4typeES3_NS_15iterator_traitsIS3_E15difference_typeE, symObjAddr: 0x1C3A94, symBinAddr: 0x1001C77E8, symSize: 0x238 }
  - { offsetInCU: 0x756F2, offset: 0x756F2, size: 0x8, addend: 0x0, symName: __ZNSt3__19__advanceB8ue170006IPcEEvRT_NS_15iterator_traitsIS2_E15difference_typeENS_26random_access_iterator_tagE, symObjAddr: 0x1C4238, symBinAddr: 0x1001C7F8C, symSize: 0x19C }
  - { offsetInCU: 0x7573D, offset: 0x7573D, size: 0x8, addend: 0x0, symName: __ZNSt3__110__distanceB8ue170006IPcEENS_15iterator_traitsIT_E15difference_typeES3_S3_NS_26random_access_iterator_tagE, symObjAddr: 0x1C43D4, symBinAddr: 0x1001C8128, symSize: 0x20 }
  - { offsetInCU: 0x7578A, offset: 0x7578A, size: 0x8, addend: 0x0, symName: __ZNSt3__1eqB8ue170006ERKNS_15__hash_iteratorIPNS_11__hash_nodeINS_17__hash_value_typeIlNS_6vectorIcNS_9allocatorIcEEEEEEPvEEEESD_, symObjAddr: 0x1C58EC, symBinAddr: 0x1001C9640, symSize: 0x114 }
  - { offsetInCU: 0x757C7, offset: 0x757C7, size: 0x8, addend: 0x0, symName: __ZNSt3__112construct_atB8ue170006INS_4pairIKlNS_6vectorIcNS_9allocatorIcEEEEEEJRKNS_21piecewise_construct_tENS_5tupleIJOlEEENSB_IJEEEEPS7_EEPT_SH_DpOT0_, symObjAddr: 0x1CACBC, symBinAddr: 0x1001CEA10, symSize: 0x2A8 }
  - { offsetInCU: 0x762C6, offset: 0x762C6, size: 0x8, addend: 0x0, symName: __ZNSt3__116forward_as_tupleB8ue170006IJNS_17basic_string_viewIcNS_11char_traitsIcEEEEEEENS_5tupleIJDpOT_EEES8_, symObjAddr: 0x1CFE10, symBinAddr: 0x1001D3B64, symSize: 0x244 }
  - { offsetInCU: 0x76345, offset: 0x76345, size: 0x8, addend: 0x0, symName: __ZNSt3__112construct_atB8ue170006INS_4pairIKNS_17basic_string_viewIcNS_11char_traitsIcEEEElEEJRKNS_21piecewise_construct_tENS_5tupleIJOS5_EEENSB_IJEEEEPS7_EEPT_SH_DpOT0_, symObjAddr: 0x1D316C, symBinAddr: 0x1001D6EC0, symSize: 0x2A8 }
  - { offsetInCU: 0x763E2, offset: 0x763E2, size: 0x8, addend: 0x0, symName: __ZNSt3__13getB8ue170006ILm0EJONS_17basic_string_viewIcNS_11char_traitsIcEEEEEEERNS_13tuple_elementIXT_ENS_5tupleIJDpT0_EEEE4typeERSA_, symObjAddr: 0x1D3860, symBinAddr: 0x1001D75B4, symSize: 0xE0 }
  - { offsetInCU: 0x76494, offset: 0x76494, size: 0x8, addend: 0x0, symName: __ZNSt3__112construct_atB8ue170006INS_10shared_ptrIN5memdb6ColumnEEEJRS4_EPS4_EEPT_S8_DpOT0_, symObjAddr: 0x1D62A4, symBinAddr: 0x1001D9FF8, symSize: 0x110 }
  - { offsetInCU: 0x76506, offset: 0x76506, size: 0x8, addend: 0x0, symName: __ZNSt3__119__allocate_at_leastB8ue170006INS_9allocatorINS_10shared_ptrIN5memdb6ColumnEEEEEEEDaRT_m, symObjAddr: 0x1D8B8C, symBinAddr: 0x1001DC8E0, symSize: 0x250 }
  - { offsetInCU: 0x7654B, offset: 0x7654B, size: 0x8, addend: 0x0, symName: __ZNSt3__117allocate_at_leastB8ue170006INS_9allocatorINS_10shared_ptrIN5memdb6ColumnEEEEEEENS_17allocation_resultINS_16allocator_traitsIT_E7pointerEEERS9_m, symObjAddr: 0x1D9244, symBinAddr: 0x1001DCF98, symSize: 0x224 }
  - { offsetInCU: 0x76590, offset: 0x76590, size: 0x8, addend: 0x0, symName: __ZNSt3__142__uninitialized_allocator_move_if_noexceptB8ue170006INS_9allocatorINS_10shared_ptrIN5memdb6ColumnEEEEENS_16reverse_iteratorIPS5_EES9_S9_EET2_RT_T0_T1_SA_, symObjAddr: 0x1D9AF8, symBinAddr: 0x1001DD84C, symSize: 0x5D8 }
  - { offsetInCU: 0x76645, offset: 0x76645, size: 0x8, addend: 0x0, symName: __ZNSt3__14swapB8ue170006IPNS_10shared_ptrIN5memdb6ColumnEEEEENS_9enable_ifIXaasr21is_move_constructibleIT_EE5valuesr18is_move_assignableIS7_EE5valueEvE4typeERS7_SA_, symObjAddr: 0x1DA200, symBinAddr: 0x1001DDF54, symSize: 0x1C0 }
  - { offsetInCU: 0x76696, offset: 0x76696, size: 0x8, addend: 0x0, symName: __ZNSt3__122__make_exception_guardB8ue170006INS_29_AllocatorDestroyRangeReverseINS_9allocatorINS_10shared_ptrIN5memdb6ColumnEEEEENS_16reverse_iteratorIPS6_EEEEEENS_28__exception_guard_exceptionsIT_EESD_, symObjAddr: 0x1DA720, symBinAddr: 0x1001DE474, symSize: 0x23C }
  - { offsetInCU: 0x766CD, offset: 0x766CD, size: 0x8, addend: 0x0, symName: __ZNSt3__1neB8ue170006IPNS_10shared_ptrIN5memdb6ColumnEEES5_EEbRKNS_16reverse_iteratorIT_EERKNS6_IT0_EE, symObjAddr: 0x1DA9EC, symBinAddr: 0x1001DE740, symSize: 0x9C }
  - { offsetInCU: 0x76719, offset: 0x76719, size: 0x8, addend: 0x0, symName: __ZNSt3__112__to_addressB8ue170006INS_16reverse_iteratorIPNS_10shared_ptrIN5memdb6ColumnEEEEEvEEu7__decayIDTclsr19__to_address_helperIT_EE6__callclsr3stdE7declvalIRKS8_EEEEESA_, symObjAddr: 0x1DAB08, symBinAddr: 0x1001DE85C, symSize: 0x6C }
  - { offsetInCU: 0x7674F, offset: 0x7674F, size: 0x8, addend: 0x0, symName: __ZNSt3__112construct_atB8ue170006INS_10shared_ptrIN5memdb6ColumnEEEJS4_EPS4_EEPT_S7_DpOT0_, symObjAddr: 0x1DB380, symBinAddr: 0x1001DF0D4, symSize: 0x110 }
  - { offsetInCU: 0x767EB, offset: 0x767EB, size: 0x8, addend: 0x0, symName: __ZNSt3__14prevB8ue170006IPNS_10shared_ptrIN5memdb6ColumnEEEEENS_9enable_ifIXsr29__has_input_iterator_categoryIT_EE5valueES7_E4typeES7_NS_15iterator_traitsIS7_E15difference_typeE, symObjAddr: 0x1DB8F4, symBinAddr: 0x1001DF648, symSize: 0x270 }
  - { offsetInCU: 0x76833, offset: 0x76833, size: 0x8, addend: 0x0, symName: __ZNSt3__19__advanceB8ue170006IPNS_10shared_ptrIN5memdb6ColumnEEEEEvRT_NS_15iterator_traitsIS6_E15difference_typeENS_26random_access_iterator_tagE, symObjAddr: 0x1DBBE4, symBinAddr: 0x1001DF938, symSize: 0x19C }
  - { offsetInCU: 0x7687D, offset: 0x7687D, size: 0x8, addend: 0x0, symName: __ZNSt3__119__allocator_destroyB8ue170006INS_9allocatorINS_10shared_ptrIN5memdb6ColumnEEEEENS_16reverse_iteratorINS7_IPS5_EEEESA_EEvRT_T0_T1_, symObjAddr: 0x1DC314, symBinAddr: 0x1001E0068, symSize: 0x1A4 }
  - { offsetInCU: 0x768E2, offset: 0x768E2, size: 0x8, addend: 0x0, symName: __ZNSt3__1neB8ue170006INS_16reverse_iteratorIPNS_10shared_ptrIN5memdb6ColumnEEEEES7_EEbRKNS1_IT_EERKNS1_IT0_EE, symObjAddr: 0x1DC754, symBinAddr: 0x1001E04A8, symSize: 0x324 }
  - { offsetInCU: 0x76930, offset: 0x76930, size: 0x8, addend: 0x0, symName: __ZNSt3__112__to_addressB8ue170006INS_16reverse_iteratorINS1_IPNS_10shared_ptrIN5memdb6ColumnEEEEEEEvEEu7__decayIDTclsr19__to_address_helperIT_EE6__callclsr3stdE7declvalIRKS9_EEEEESB_, symObjAddr: 0x1DCA78, symBinAddr: 0x1001E07CC, symSize: 0x6C }
  - { offsetInCU: 0x76990, offset: 0x76990, size: 0x8, addend: 0x0, symName: __ZNSt3__14prevB8ue170006INS_16reverse_iteratorIPNS_10shared_ptrIN5memdb6ColumnEEEEEEENS_9enable_ifIXsr29__has_input_iterator_categoryIT_EE5valueES9_E4typeES9_NS_15iterator_traitsIS9_E15difference_typeE, symObjAddr: 0x1DD19C, symBinAddr: 0x1001E0EF0, symSize: 0x2C4 }
  - { offsetInCU: 0x769D8, offset: 0x769D8, size: 0x8, addend: 0x0, symName: __ZNSt3__19__advanceB8ue170006INS_16reverse_iteratorIPNS_10shared_ptrIN5memdb6ColumnEEEEEEEvRT_NS_15iterator_traitsIS8_E15difference_typeENS_26random_access_iterator_tagE, symObjAddr: 0x1DD4E0, symBinAddr: 0x1001E1234, symSize: 0x7C }
  - { offsetInCU: 0x76A23, offset: 0x76A23, size: 0x8, addend: 0x0, symName: __ZNSt3__112__to_addressB8ue170006IN5memdb5Table5ValueEEEPT_S5_, symObjAddr: 0x1E0260, symBinAddr: 0x1001E3FB4, symSize: 0x14 }
  - { offsetInCU: 0x76A7E, offset: 0x76A7E, size: 0x8, addend: 0x0, symName: __ZNSt3__112construct_atB8ue170006IN5memdb5Table5ValueEJS3_EPS3_EEPT_S6_DpOT0_, symObjAddr: 0x1E1190, symBinAddr: 0x1001E4EE4, symSize: 0x110 }
  - { offsetInCU: 0x76AF0, offset: 0x76AF0, size: 0x8, addend: 0x0, symName: __ZNSt3__119__allocate_at_leastB8ue170006INS_9allocatorIN5memdb5Table5ValueEEEEEDaRT_m, symObjAddr: 0x1E3A78, symBinAddr: 0x1001E77CC, symSize: 0x250 }
  - { offsetInCU: 0x76B35, offset: 0x76B35, size: 0x8, addend: 0x0, symName: __ZNSt3__117allocate_at_leastB8ue170006INS_9allocatorIN5memdb5Table5ValueEEEEENS_17allocation_resultINS_16allocator_traitsIT_E7pointerEEERS8_m, symObjAddr: 0x1E4130, symBinAddr: 0x1001E7E84, symSize: 0x224 }
  - { offsetInCU: 0x76B7A, offset: 0x76B7A, size: 0x8, addend: 0x0, symName: __ZNSt3__142__uninitialized_allocator_move_if_noexceptB8ue170006INS_9allocatorIN5memdb5Table5ValueEEENS_16reverse_iteratorIPS4_EES8_S8_EET2_RT_T0_T1_S9_, symObjAddr: 0x1E4D70, symBinAddr: 0x1001E8AC4, symSize: 0x5D8 }
  - { offsetInCU: 0x76C2F, offset: 0x76C2F, size: 0x8, addend: 0x0, symName: __ZNSt3__14swapB8ue170006IPN5memdb5Table5ValueEEENS_9enable_ifIXaasr21is_move_constructibleIT_EE5valuesr18is_move_assignableIS6_EE5valueEvE4typeERS6_S9_, symObjAddr: 0x1E5478, symBinAddr: 0x1001E91CC, symSize: 0x1C0 }
  - { offsetInCU: 0x76C80, offset: 0x76C80, size: 0x8, addend: 0x0, symName: __ZNSt3__122__make_exception_guardB8ue170006INS_29_AllocatorDestroyRangeReverseINS_9allocatorIN5memdb5Table5ValueEEENS_16reverse_iteratorIPS5_EEEEEENS_28__exception_guard_exceptionsIT_EESC_, symObjAddr: 0x1E59B0, symBinAddr: 0x1001E9704, symSize: 0x23C }
  - { offsetInCU: 0x76CB7, offset: 0x76CB7, size: 0x8, addend: 0x0, symName: __ZNSt3__1neB8ue170006IPN5memdb5Table5ValueES4_EEbRKNS_16reverse_iteratorIT_EERKNS5_IT0_EE, symObjAddr: 0x1E5C7C, symBinAddr: 0x1001E99D0, symSize: 0x9C }
  - { offsetInCU: 0x76D03, offset: 0x76D03, size: 0x8, addend: 0x0, symName: __ZNSt3__112__to_addressB8ue170006INS_16reverse_iteratorIPN5memdb5Table5ValueEEEvEEu7__decayIDTclsr19__to_address_helperIT_EE6__callclsr3stdE7declvalIRKS7_EEEEES9_, symObjAddr: 0x1E5D98, symBinAddr: 0x1001E9AEC, symSize: 0x6C }
  - { offsetInCU: 0x76D39, offset: 0x76D39, size: 0x8, addend: 0x0, symName: __ZNSt3__112construct_atB8ue170006IN5memdb5Table5ValueEJRKS3_EPS3_EEPT_S8_DpOT0_, symObjAddr: 0x1E6610, symBinAddr: 0x1001EA364, symSize: 0x110 }
  - { offsetInCU: 0x76DD5, offset: 0x76DD5, size: 0x8, addend: 0x0, symName: __ZNSt3__14prevB8ue170006IPN5memdb5Table5ValueEEENS_9enable_ifIXsr29__has_input_iterator_categoryIT_EE5valueES6_E4typeES6_NS_15iterator_traitsIS6_E15difference_typeE, symObjAddr: 0x1E69F4, symBinAddr: 0x1001EA748, symSize: 0x270 }
  - { offsetInCU: 0x76E1D, offset: 0x76E1D, size: 0x8, addend: 0x0, symName: __ZNSt3__19__advanceB8ue170006IPN5memdb5Table5ValueEEEvRT_NS_15iterator_traitsIS5_E15difference_typeENS_26random_access_iterator_tagE, symObjAddr: 0x1E6CE4, symBinAddr: 0x1001EAA38, symSize: 0x1A4 }
  - { offsetInCU: 0x76E67, offset: 0x76E67, size: 0x8, addend: 0x0, symName: __ZNSt3__119__allocator_destroyB8ue170006INS_9allocatorIN5memdb5Table5ValueEEENS_16reverse_iteratorINS6_IPS4_EEEES9_EEvRT_T0_T1_, symObjAddr: 0x1E741C, symBinAddr: 0x1001EB170, symSize: 0x1A4 }
  - { offsetInCU: 0x76ECC, offset: 0x76ECC, size: 0x8, addend: 0x0, symName: __ZNSt3__1neB8ue170006INS_16reverse_iteratorIPN5memdb5Table5ValueEEES6_EEbRKNS1_IT_EERKNS1_IT0_EE, symObjAddr: 0x1E785C, symBinAddr: 0x1001EB5B0, symSize: 0x324 }
  - { offsetInCU: 0x76F1A, offset: 0x76F1A, size: 0x8, addend: 0x0, symName: __ZNSt3__112__to_addressB8ue170006INS_16reverse_iteratorINS1_IPN5memdb5Table5ValueEEEEEvEEu7__decayIDTclsr19__to_address_helperIT_EE6__callclsr3stdE7declvalIRKS8_EEEEESA_, symObjAddr: 0x1E7BA8, symBinAddr: 0x1001EB8FC, symSize: 0x6C }
  - { offsetInCU: 0x76F50, offset: 0x76F50, size: 0x8, addend: 0x0, symName: __ZNSt3__110destroy_atB8ue170006IN5memdb5Table5ValueELi0EEEvPT_, symObjAddr: 0x1E7F6C, symBinAddr: 0x1001EBCC0, symSize: 0x24 }
  - { offsetInCU: 0x76F87, offset: 0x76F87, size: 0x8, addend: 0x0, symName: __ZNSt3__112__destroy_atB8ue170006IN5memdb5Table5ValueELi0EEEvPT_, symObjAddr: 0x1E7F90, symBinAddr: 0x1001EBCE4, symSize: 0x6C }
  - { offsetInCU: 0x76FE8, offset: 0x76FE8, size: 0x8, addend: 0x0, symName: __ZNSt3__14prevB8ue170006INS_16reverse_iteratorIPN5memdb5Table5ValueEEEEENS_9enable_ifIXsr29__has_input_iterator_categoryIT_EE5valueES8_E4typeES8_NS_15iterator_traitsIS8_E15difference_typeE, symObjAddr: 0x1E835C, symBinAddr: 0x1001EC0B0, symSize: 0x2C4 }
  - { offsetInCU: 0x77030, offset: 0x77030, size: 0x8, addend: 0x0, symName: __ZNSt3__19__advanceB8ue170006INS_16reverse_iteratorIPN5memdb5Table5ValueEEEEEvRT_NS_15iterator_traitsIS7_E15difference_typeENS_26random_access_iterator_tagE, symObjAddr: 0x1E86A0, symBinAddr: 0x1001EC3F4, symSize: 0x7C }
  - { offsetInCU: 0x7707A, offset: 0x7707A, size: 0x8, addend: 0x0, symName: __ZNSt3__1eqB8ue170006ERKNS_14__map_iteratorINS_15__tree_iteratorINS_12__value_typeIN5memdb5lexer10SubCommandElEEPNS_11__tree_nodeIS6_PvEElEEEESE_, symObjAddr: 0x1E99F8, symBinAddr: 0x1001ED74C, symSize: 0xC0 }
  - { offsetInCU: 0x770B7, offset: 0x770B7, size: 0x8, addend: 0x0, symName: __ZNSt3__1eqB8ue170006ERKNS_15__tree_iteratorINS_12__value_typeIN5memdb5lexer10SubCommandElEEPNS_11__tree_nodeIS5_PvEElEESC_, symObjAddr: 0x1EA188, symBinAddr: 0x1001EDEDC, symSize: 0x114 }
  - { offsetInCU: 0x770F4, offset: 0x770F4, size: 0x8, addend: 0x0, symName: __ZNSt3__1neB8ue170006ERKNS_15__tree_iteratorINS_12__value_typeIN5memdb5lexer10SubCommandElEEPNS_11__tree_nodeIS5_PvEElEESC_, symObjAddr: 0x1EB0B8, symBinAddr: 0x1001EEE0C, symSize: 0xC4 }
  - { offsetInCU: 0x77131, offset: 0x77131, size: 0x8, addend: 0x0, symName: __ZNSt3__1eqB8ue170006ERKNS_14__map_iteratorINS_15__tree_iteratorINS_12__value_typeINS_17basic_string_viewIcNS_11char_traitsIcEEEElEEPNS_11__tree_nodeIS7_PvEElEEEESF_, symObjAddr: 0x1ECE90, symBinAddr: 0x1001F0BE4, symSize: 0xC0 }
  - { offsetInCU: 0x7716E, offset: 0x7716E, size: 0x8, addend: 0x0, symName: __ZNSt3__116forward_as_tupleB8ue170006IJRKNS_17basic_string_viewIcNS_11char_traitsIcEEEEEEENS_5tupleIJDpOT_EEESA_, symObjAddr: 0x1EF804, symBinAddr: 0x1001F3558, symSize: 0x244 }
  - { offsetInCU: 0x771A8, offset: 0x771A8, size: 0x8, addend: 0x0, symName: __ZNSt3__112construct_atB8ue170006INS_4pairIKNS_17basic_string_viewIcNS_11char_traitsIcEEEElEEJRKNS_21piecewise_construct_tENS_5tupleIJRS6_EEENSB_IJEEEEPS7_EEPT_SH_DpOT0_, symObjAddr: 0x1F021C, symBinAddr: 0x1001F3F70, symSize: 0x2A8 }
  - { offsetInCU: 0x77245, offset: 0x77245, size: 0x8, addend: 0x0, symName: __ZNSt3__13getB8ue170006ILm0EJRKNS_17basic_string_viewIcNS_11char_traitsIcEEEEEEERNS_13tuple_elementIXT_ENS_5tupleIJDpT0_EEEE4typeERSB_, symObjAddr: 0x1F0910, symBinAddr: 0x1001F4664, symSize: 0xE0 }
  - { offsetInCU: 0x7729D, offset: 0x7729D, size: 0x8, addend: 0x0, symName: __ZNSt3__14iotaB8ue170006INS_11__wrap_iterIPiEEiEEvT_S4_T0_, symObjAddr: 0x1F1428, symBinAddr: 0x1001F517C, symSize: 0x38C }
  - { offsetInCU: 0x772FC, offset: 0x772FC, size: 0x8, addend: 0x0, symName: __ZNSt3__122__make_exception_guardB8ue170006INS_6vectorIiNS_9allocatorIiEEE16__destroy_vectorEEENS_28__exception_guard_exceptionsIT_EES7_, symObjAddr: 0x1F25AC, symBinAddr: 0x1001F6300, symSize: 0x2BC }
  - { offsetInCU: 0x77335, offset: 0x77335, size: 0x8, addend: 0x0, symName: __ZNSt3__119__allocate_at_leastB8ue170006INS_9allocatorIiEEEEDaRT_m, symObjAddr: 0x1F43A0, symBinAddr: 0x1001F80F4, symSize: 0x250 }
  - { offsetInCU: 0x7737A, offset: 0x7737A, size: 0x8, addend: 0x0, symName: __ZNSt3__117allocate_at_leastB8ue170006INS_9allocatorIiEEEENS_17allocation_resultINS_16allocator_traitsIT_E7pointerEEERS5_m, symObjAddr: 0x1F4DE8, symBinAddr: 0x1001F8B3C, symSize: 0x224 }
  - { offsetInCU: 0x773C0, offset: 0x773C0, size: 0x8, addend: 0x0, symName: __ZNSt3__112__to_addressB8ue170006IiEEPT_S2_, symObjAddr: 0x1F596C, symBinAddr: 0x1001F96C0, symSize: 0x14 }
  - { offsetInCU: 0x7741B, offset: 0x7741B, size: 0x8, addend: 0x0, symName: __ZNSt3__112construct_atB8ue170006IiJEPiEEPT_S3_DpOT0_, symObjAddr: 0x1F6694, symBinAddr: 0x1001FA3E8, symSize: 0x124 }
  - { offsetInCU: 0x77479, offset: 0x77479, size: 0x8, addend: 0x0, symName: __ZNSt3__110destroy_atB8ue170006IiLi0EEEvPT_, symObjAddr: 0x1F7AD8, symBinAddr: 0x1001FB82C, symSize: 0x24 }
  - { offsetInCU: 0x774B1, offset: 0x774B1, size: 0x8, addend: 0x0, symName: __ZNSt3__112__destroy_atB8ue170006IiLi0EEEvPT_, symObjAddr: 0x1F7AFC, symBinAddr: 0x1001FB850, symSize: 0x10 }
  - { offsetInCU: 0x7751B, offset: 0x7751B, size: 0x8, addend: 0x0, symName: __ZNSt3__1neB8ue170006IPiEEbRKNS_11__wrap_iterIT_EES6_, symObjAddr: 0x1F7B98, symBinAddr: 0x1001FB8EC, symSize: 0xC4 }
  - { offsetInCU: 0x7755E, offset: 0x7755E, size: 0x8, addend: 0x0, symName: __ZNSt3__1eqB8ue170006IPiEEbRKNS_11__wrap_iterIT_EES6_, symObjAddr: 0x1F7EF8, symBinAddr: 0x1001FBC4C, symSize: 0x9C }
  - { offsetInCU: 0x775A2, offset: 0x775A2, size: 0x8, addend: 0x0, symName: __ZNSt3__112__to_addressB8ue170006IN5memdb11TableColumnEEEPT_S4_, symObjAddr: 0x1F9BE8, symBinAddr: 0x1001FD93C, symSize: 0x14 }
  - { offsetInCU: 0x775FD, offset: 0x775FD, size: 0x8, addend: 0x0, symName: __ZNSt3__112construct_atB8ue170006IN5memdb11TableColumnEJS2_EPS2_EEPT_S5_DpOT0_, symObjAddr: 0x1FAB18, symBinAddr: 0x1001FE86C, symSize: 0x110 }
  - { offsetInCU: 0x7766F, offset: 0x7766F, size: 0x8, addend: 0x0, symName: __ZNSt3__119__allocate_at_leastB8ue170006INS_9allocatorIN5memdb11TableColumnEEEEEDaRT_m, symObjAddr: 0x1FD400, symBinAddr: 0x100201154, symSize: 0x250 }
  - { offsetInCU: 0x776B4, offset: 0x776B4, size: 0x8, addend: 0x0, symName: __ZNSt3__117allocate_at_leastB8ue170006INS_9allocatorIN5memdb11TableColumnEEEEENS_17allocation_resultINS_16allocator_traitsIT_E7pointerEEERS7_m, symObjAddr: 0x1FDAB8, symBinAddr: 0x10020180C, symSize: 0x224 }
  - { offsetInCU: 0x776F9, offset: 0x776F9, size: 0x8, addend: 0x0, symName: __ZNSt3__142__uninitialized_allocator_move_if_noexceptB8ue170006INS_9allocatorIN5memdb11TableColumnEEENS_16reverse_iteratorIPS3_EES7_S7_EET2_RT_T0_T1_S8_, symObjAddr: 0x1FE6F8, symBinAddr: 0x10020244C, symSize: 0x5D8 }
  - { offsetInCU: 0x777AE, offset: 0x777AE, size: 0x8, addend: 0x0, symName: __ZNSt3__14swapB8ue170006IPN5memdb11TableColumnEEENS_9enable_ifIXaasr21is_move_constructibleIT_EE5valuesr18is_move_assignableIS5_EE5valueEvE4typeERS5_S8_, symObjAddr: 0x1FEE00, symBinAddr: 0x100202B54, symSize: 0x1C0 }
  - { offsetInCU: 0x777FF, offset: 0x777FF, size: 0x8, addend: 0x0, symName: __ZNSt3__122__make_exception_guardB8ue170006INS_29_AllocatorDestroyRangeReverseINS_9allocatorIN5memdb11TableColumnEEENS_16reverse_iteratorIPS4_EEEEEENS_28__exception_guard_exceptionsIT_EESB_, symObjAddr: 0x1FF338, symBinAddr: 0x10020308C, symSize: 0x23C }
  - { offsetInCU: 0x77836, offset: 0x77836, size: 0x8, addend: 0x0, symName: __ZNSt3__1neB8ue170006IPN5memdb11TableColumnES3_EEbRKNS_16reverse_iteratorIT_EERKNS4_IT0_EE, symObjAddr: 0x1FF604, symBinAddr: 0x100203358, symSize: 0x9C }
  - { offsetInCU: 0x77882, offset: 0x77882, size: 0x8, addend: 0x0, symName: __ZNSt3__112__to_addressB8ue170006INS_16reverse_iteratorIPN5memdb11TableColumnEEEvEEu7__decayIDTclsr19__to_address_helperIT_EE6__callclsr3stdE7declvalIRKS6_EEEEES8_, symObjAddr: 0x1FF6A0, symBinAddr: 0x1002033F4, symSize: 0x6C }
  - { offsetInCU: 0x778E2, offset: 0x778E2, size: 0x8, addend: 0x0, symName: __ZNSt3__14prevB8ue170006IPN5memdb11TableColumnEEENS_9enable_ifIXsr29__has_input_iterator_categoryIT_EE5valueES5_E4typeES5_NS_15iterator_traitsIS5_E15difference_typeE, symObjAddr: 0x200040, symBinAddr: 0x100203D94, symSize: 0x270 }
  - { offsetInCU: 0x7792A, offset: 0x7792A, size: 0x8, addend: 0x0, symName: __ZNSt3__19__advanceB8ue170006IPN5memdb11TableColumnEEEvRT_NS_15iterator_traitsIS4_E15difference_typeENS_26random_access_iterator_tagE, symObjAddr: 0x200330, symBinAddr: 0x100204084, symSize: 0x1A4 }
  - { offsetInCU: 0x77974, offset: 0x77974, size: 0x8, addend: 0x0, symName: __ZNSt3__119__allocator_destroyB8ue170006INS_9allocatorIN5memdb11TableColumnEEENS_16reverse_iteratorINS5_IPS3_EEEES8_EEvRT_T0_T1_, symObjAddr: 0x200A68, symBinAddr: 0x1002047BC, symSize: 0x1A4 }
  - { offsetInCU: 0x779D9, offset: 0x779D9, size: 0x8, addend: 0x0, symName: __ZNSt3__1neB8ue170006INS_16reverse_iteratorIPN5memdb11TableColumnEEES5_EEbRKNS1_IT_EERKNS1_IT0_EE, symObjAddr: 0x200EA8, symBinAddr: 0x100204BFC, symSize: 0x324 }
  - { offsetInCU: 0x77A27, offset: 0x77A27, size: 0x8, addend: 0x0, symName: __ZNSt3__112__to_addressB8ue170006INS_16reverse_iteratorINS1_IPN5memdb11TableColumnEEEEEvEEu7__decayIDTclsr19__to_address_helperIT_EE6__callclsr3stdE7declvalIRKS7_EEEEES9_, symObjAddr: 0x2011F4, symBinAddr: 0x100204F48, symSize: 0x6C }
  - { offsetInCU: 0x77A5D, offset: 0x77A5D, size: 0x8, addend: 0x0, symName: __ZNSt3__110destroy_atB8ue170006IN5memdb11TableColumnELi0EEEvPT_, symObjAddr: 0x2015B8, symBinAddr: 0x10020530C, symSize: 0x24 }
  - { offsetInCU: 0x77A94, offset: 0x77A94, size: 0x8, addend: 0x0, symName: __ZNSt3__112__destroy_atB8ue170006IN5memdb11TableColumnELi0EEEvPT_, symObjAddr: 0x2015DC, symBinAddr: 0x100205330, symSize: 0x6C }
  - { offsetInCU: 0x77AF5, offset: 0x77AF5, size: 0x8, addend: 0x0, symName: __ZNSt3__14prevB8ue170006INS_16reverse_iteratorIPN5memdb11TableColumnEEEEENS_9enable_ifIXsr29__has_input_iterator_categoryIT_EE5valueES7_E4typeES7_NS_15iterator_traitsIS7_E15difference_typeE, symObjAddr: 0x2019A8, symBinAddr: 0x1002056FC, symSize: 0x2C4 }
  - { offsetInCU: 0x77B3D, offset: 0x77B3D, size: 0x8, addend: 0x0, symName: __ZNSt3__19__advanceB8ue170006INS_16reverse_iteratorIPN5memdb11TableColumnEEEEEvRT_NS_15iterator_traitsIS6_E15difference_typeENS_26random_access_iterator_tagE, symObjAddr: 0x201CEC, symBinAddr: 0x100205A40, symSize: 0x7C }
  - { offsetInCU: 0x77B87, offset: 0x77B87, size: 0x8, addend: 0x0, symName: __ZNSt3__111make_sharedB8ue170006IN5memdb6parser9ConditionEJRS3_EvEENS_10shared_ptrIT_EEDpOT0_, symObjAddr: 0x204C84, symBinAddr: 0x1002089D8, symSize: 0x230 }
  - { offsetInCU: 0x77BCB, offset: 0x77BCB, size: 0x8, addend: 0x0, symName: __ZNSt3__14swapB8ue170006INS_10shared_ptrIN5memdb9Tokenizer5TokenEEENS_9allocatorIS5_EEEEvRNS_6vectorIT_T0_EESC_, symObjAddr: 0x205914, symBinAddr: 0x100209668, symSize: 0xA0 }
  - { offsetInCU: 0x78678, offset: 0x78678, size: 0x8, addend: 0x0, symName: __ZNSt3__115allocate_sharedB8ue170006IN5memdb6parser9ConditionENS_9allocatorIS3_EEJRS3_EvEENS_10shared_ptrIT_EERKT0_DpOT1_, symObjAddr: 0x20A418, symBinAddr: 0x10020E16C, symSize: 0x47C }
  - { offsetInCU: 0x78A4B, offset: 0x78A4B, size: 0x8, addend: 0x0, symName: __ZNSt3__112construct_atB8ue170006IN5memdb6parser9ConditionEJRS3_EPS3_EEPT_S7_DpOT0_, symObjAddr: 0x20C748, symBinAddr: 0x10021049C, symSize: 0x110 }
  - { offsetInCU: 0x78ABD, offset: 0x78ABD, size: 0x8, addend: 0x0, symName: __ZNSt3__110destroy_atB8ue170006IN5memdb6parser9ConditionELi0EEEvPT_, symObjAddr: 0x20C9D4, symBinAddr: 0x100210728, symSize: 0x24 }
  - { offsetInCU: 0x78AF4, offset: 0x78AF4, size: 0x8, addend: 0x0, symName: __ZNSt3__112__destroy_atB8ue170006IN5memdb6parser9ConditionELi0EEEvPT_, symObjAddr: 0x20C9F8, symBinAddr: 0x10021074C, symSize: 0x6C }
  - { offsetInCU: 0x78B5E, offset: 0x78B5E, size: 0x8, addend: 0x0, symName: __ZNSt3__15countB8ue170006INS_11__wrap_iterIPN5memdb9OperationEEES3_EENS_15iterator_traitsIT_E15difference_typeES7_S7_RKT0_, symObjAddr: 0x20E0C8, symBinAddr: 0x100211E1C, symSize: 0x410 }
  - { offsetInCU: 0x78BD1, offset: 0x78BD1, size: 0x8, addend: 0x0, symName: __ZNSt3__116__swap_allocatorB8ue170006INS_9allocatorINS_10shared_ptrIN5memdb9Tokenizer5TokenEEEEEEEvRT_S9_NS_17integral_constantIbLb0EEE, symObjAddr: 0x20F420, symBinAddr: 0x100213174, symSize: 0x14 }
  - { offsetInCU: 0x78C15, offset: 0x78C15, size: 0x8, addend: 0x0, symName: __ZNSt3__14swapB8ue170006IPN5memdb6parser9ConditionEEENS_9enable_ifIXaasr21is_move_constructibleIT_EE5valuesr18is_move_assignableIS6_EE5valueEvE4typeERS6_S9_, symObjAddr: 0x20FC20, symBinAddr: 0x100213974, symSize: 0x1C0 }
  - { offsetInCU: 0x78C66, offset: 0x78C66, size: 0x8, addend: 0x0, symName: __ZNSt3__1neB8ue170006IPKN5memdb11TableColumnEEEbRKNS_11__wrap_iterIT_EES9_, symObjAddr: 0x214130, symBinAddr: 0x100217E84, symSize: 0xC4 }
  - { offsetInCU: 0x78CA9, offset: 0x78CA9, size: 0x8, addend: 0x0, symName: __ZNSt3__1eqB8ue170006INS_9allocatorIcEEEEbRKNS_12basic_stringIcNS_11char_traitsIcEET_EES9_, symObjAddr: 0x2142E8, symBinAddr: 0x10021803C, symSize: 0x458 }
  - { offsetInCU: 0x78D1C, offset: 0x78D1C, size: 0x8, addend: 0x0, symName: __ZNSt3__1neB8ue170006ERKNS_23__forward_list_iteratorIPNS_19__forward_list_nodeIlPvEEEES7_, symObjAddr: 0x214B6C, symBinAddr: 0x1002188C0, symSize: 0xC4 }
  - { offsetInCU: 0x78D59, offset: 0x78D59, size: 0x8, addend: 0x0, symName: __ZNSt3__1neB8ue170006IPN5memdb11TableColumnEEEbRKNS_11__wrap_iterIT_EES8_, symObjAddr: 0x216B28, symBinAddr: 0x10021A87C, symSize: 0xC4 }
  - { offsetInCU: 0x78D9C, offset: 0x78D9C, size: 0x8, addend: 0x0, symName: __ZNSt3__14sortB8ue170006INS_11__wrap_iterIPN5memdb11TableColumnEEEEEvT_S6_, symObjAddr: 0x21A6B8, symBinAddr: 0x10021E40C, symSize: 0x348 }
  - { offsetInCU: 0x78DE6, offset: 0x78DE6, size: 0x8, addend: 0x0, symName: __ZNSt3__16uniqueB8ue170006INS_11__wrap_iterIPN5memdb11TableColumnEEEEET_S6_S6_, symObjAddr: 0x21B0A0, symBinAddr: 0x10021EDF4, symSize: 0x3E4 }
  - { offsetInCU: 0x78E31, offset: 0x78E31, size: 0x8, addend: 0x0, symName: __ZNSt3__14sortB8ue170006INS_11__wrap_iterIPN5memdb11TableColumnEEENS_6__lessIvvEEEEvT_S8_T0_, symObjAddr: 0x21C118, symBinAddr: 0x10021FE6C, symSize: 0x36C }
  - { offsetInCU: 0x78E97, offset: 0x78E97, size: 0x8, addend: 0x0, symName: __ZNSt3__111__sort_implB8ue170006INS_17_ClassicAlgPolicyENS_11__wrap_iterIPN5memdb11TableColumnEEENS_6__lessIvvEEEEvT0_S9_RT1_, symObjAddr: 0x21C484, symBinAddr: 0x1002201D8, symSize: 0x530 }
  - { offsetInCU: 0x78F03, offset: 0x78F03, size: 0x8, addend: 0x0, symName: __ZNSt3__123__debug_randomize_rangeB8ue170006INS_17_ClassicAlgPolicyENS_11__wrap_iterIPN5memdb11TableColumnEEES6_EEvT0_T1_, symObjAddr: 0x21C9B4, symBinAddr: 0x100220708, symSize: 0x264 }
  - { offsetInCU: 0x78F5C, offset: 0x78F5C, size: 0x8, addend: 0x0, symName: __ZNSt3__115__sort_dispatchB8ue170006INS_17_ClassicAlgPolicyEPN5memdb11TableColumnENS_6__lessIvvEEEEvT0_S7_RT1_, symObjAddr: 0x21CC18, symBinAddr: 0x10022096C, symSize: 0xD8 }
  - { offsetInCU: 0x78FDA, offset: 0x78FDA, size: 0x8, addend: 0x0, symName: __ZNSt3__113__unwrap_iterB8ue170006INS_11__wrap_iterIPN5memdb11TableColumnEEENS_18__unwrap_iter_implIS5_Lb1EEELi0EEEDTclsrT0_8__unwrapclsr3stdE7declvalIT_EEEES9_, symObjAddr: 0x21CCF0, symBinAddr: 0x100220A44, symSize: 0x274 }
  - { offsetInCU: 0x79023, offset: 0x79023, size: 0x8, addend: 0x0, symName: __ZNSt3__135__check_strict_weak_ordering_sortedB8ue170006IPN5memdb11TableColumnENS_6__lessIvvEEEEvT_S6_RT0_, symObjAddr: 0x21CF64, symBinAddr: 0x100220CB8, symSize: 0x18 }
  - { offsetInCU: 0x79079, offset: 0x79079, size: 0x8, addend: 0x0, symName: __ZNSt3__17__log2iB8ue170006IlEET_S1_, symObjAddr: 0x21CF7C, symBinAddr: 0x100220CD0, symSize: 0x54 }
  - { offsetInCU: 0x790B0, offset: 0x790B0, size: 0x8, addend: 0x0, symName: __ZNSt3__124__sort3_maybe_branchlessB8ue170006INS_17_ClassicAlgPolicyERNS_6__lessIvvEEPN5memdb11TableColumnEEENS_9enable_ifIXntsr21__use_branchless_sortIT0_T1_EE5valueEvE4typeESA_SA_SA_S9_, symObjAddr: 0x22005C, symBinAddr: 0x100223DB0, symSize: 0x80 }
  - { offsetInCU: 0x79121, offset: 0x79121, size: 0x8, addend: 0x0, symName: __ZNSt3__124__sort4_maybe_branchlessB8ue170006INS_17_ClassicAlgPolicyERNS_6__lessIvvEEPN5memdb11TableColumnEEENS_9enable_ifIXntsr21__use_branchless_sortIT0_T1_EE5valueEvE4typeESA_SA_SA_SA_S9_, symObjAddr: 0x2200DC, symBinAddr: 0x100223E30, symSize: 0x90 }
  - { offsetInCU: 0x791A0, offset: 0x791A0, size: 0x8, addend: 0x0, symName: __ZNSt3__124__sort5_maybe_branchlessB8ue170006INS_17_ClassicAlgPolicyERNS_6__lessIvvEEPN5memdb11TableColumnEEENS_9enable_ifIXntsr21__use_branchless_sortIT0_T1_EE5valueEvE4typeESA_SA_SA_SA_SA_S9_, symObjAddr: 0x22016C, symBinAddr: 0x100223EC0, symSize: 0xA0 }
  - { offsetInCU: 0x7922D, offset: 0x7922D, size: 0x8, addend: 0x0, symName: __ZNSt3__116__insertion_sortB8ue170006INS_17_ClassicAlgPolicyERNS_6__lessIvvEEPN5memdb11TableColumnEEEvT1_S8_T0_, symObjAddr: 0x22020C, symBinAddr: 0x100223F60, symSize: 0xB78 }
  - { offsetInCU: 0x792F1, offset: 0x792F1, size: 0x8, addend: 0x0, symName: __ZNSt3__114__partial_sortB8ue170006INS_17_ClassicAlgPolicyERNS_6__lessIvvEEPN5memdb11TableColumnES7_EET1_S8_S8_T2_RT0_, symObjAddr: 0x221958, symBinAddr: 0x1002256AC, symSize: 0xD8 }
  - { offsetInCU: 0x79379, offset: 0x79379, size: 0x8, addend: 0x0, symName: __ZNSt3__17__sort3B8ue170006INS_17_ClassicAlgPolicyERNS_6__lessIvvEEPN5memdb11TableColumnEEEjT1_S8_S8_T0_, symObjAddr: 0x221A30, symBinAddr: 0x100225784, symSize: 0x9C8 }
  - { offsetInCU: 0x79406, offset: 0x79406, size: 0x8, addend: 0x0, symName: __ZNSt3__1ssB8ue170006IcNS_11char_traitsIcEENS_9allocatorIcEEEEDaRKNS_12basic_stringIT_T0_T1_EESC_, symObjAddr: 0x228898, symBinAddr: 0x10022C5EC, symSize: 0x404 }
  - { offsetInCU: 0x79460, offset: 0x79460, size: 0x8, addend: 0x0, symName: __ZNSt3__19iter_swapB8ue170006IPN5memdb11TableColumnES3_EEvT_T0_, symObjAddr: 0x228C9C, symBinAddr: 0x10022C9F0, symSize: 0xBC }
  - { offsetInCU: 0x794A8, offset: 0x794A8, size: 0x8, addend: 0x0, symName: __ZNSt3__14swapB8ue170006IN5memdb11TableColumnEEENS_9enable_ifIXaasr21is_move_constructibleIT_EE5valuesr18is_move_assignableIS4_EE5valueEvE4typeERS4_S7_, symObjAddr: 0x228D58, symBinAddr: 0x10022CAAC, symSize: 0x354 }
  - { offsetInCU: 0x794FF, offset: 0x794FF, size: 0x8, addend: 0x0, symName: __ZNSt3__17__sort4B8ue170006INS_17_ClassicAlgPolicyERNS_6__lessIvvEEPN5memdb11TableColumnEEEvT1_S8_S8_S8_T0_, symObjAddr: 0x229324, symBinAddr: 0x10022D078, symSize: 0x80C }
  - { offsetInCU: 0x7958C, offset: 0x7958C, size: 0x8, addend: 0x0, symName: __ZNSt3__17__sort5B8ue170006INS_17_ClassicAlgPolicyERNS_6__lessIvvEEPN5memdb11TableColumnEEEvT1_S8_S8_S8_S8_T0_, symObjAddr: 0x229B30, symBinAddr: 0x10022D884, symSize: 0x9F8 }
  - { offsetInCU: 0x79651, offset: 0x79651, size: 0x8, addend: 0x0, symName: __ZNSt3__123__debug_randomize_rangeB8ue170006INS_17_ClassicAlgPolicyEPN5memdb11TableColumnES4_EEvT0_T1_, symObjAddr: 0x22A63C, symBinAddr: 0x10022E390, symSize: 0x14 }
  - { offsetInCU: 0x796A2, offset: 0x796A2, size: 0x8, addend: 0x0, symName: __ZNSt3__119__partial_sort_implB8ue170006INS_17_ClassicAlgPolicyERNS_6__lessIvvEEPN5memdb11TableColumnES7_EET1_S8_S8_T2_OT0_, symObjAddr: 0x22A650, symBinAddr: 0x10022E3A4, symSize: 0x7E0 }
  - { offsetInCU: 0x79744, offset: 0x79744, size: 0x8, addend: 0x0, symName: __ZNSt3__111__make_heapB8ue170006INS_17_ClassicAlgPolicyERNS_6__lessIvvEEPN5memdb11TableColumnEEEvT1_S8_OT0_, symObjAddr: 0x22AE30, symBinAddr: 0x10022EB84, symSize: 0x2C0 }
  - { offsetInCU: 0x797E6, offset: 0x797E6, size: 0x8, addend: 0x0, symName: __ZNSt3__111__sort_heapB8ue170006INS_17_ClassicAlgPolicyERNS_6__lessIvvEEPN5memdb11TableColumnEEEvT1_S8_OT0_, symObjAddr: 0x22C474, symBinAddr: 0x1002301C8, symSize: 0x1FC }
  - { offsetInCU: 0x79888, offset: 0x79888, size: 0x8, addend: 0x0, symName: __ZNSt3__110__pop_heapB8ue170006INS_17_ClassicAlgPolicyENS_6__lessIvvEEPN5memdb11TableColumnEEEvT1_S7_RT0_NS_15iterator_traitsIS7_E15difference_typeE, symObjAddr: 0x22C670, symBinAddr: 0x1002303C4, symSize: 0x8F8 }
  - { offsetInCU: 0x79940, offset: 0x79940, size: 0x8, addend: 0x0, symName: __ZNSt3__19__sift_upB8ue170006INS_17_ClassicAlgPolicyERNS_6__lessIvvEEPN5memdb11TableColumnEEEvT1_S8_OT0_NS_15iterator_traitsIS8_E15difference_typeE, symObjAddr: 0x22D87C, symBinAddr: 0x1002315D0, symSize: 0xC48 }
  - { offsetInCU: 0x799EF, offset: 0x799EF, size: 0x8, addend: 0x0, symName: __ZNSt3__122__populate_left_bitsetB8ue170006IRNS_6__lessIvvEEPN5memdb11TableColumnES5_EEvT0_T_RT1_Ry, symObjAddr: 0x22E4C4, symBinAddr: 0x100232218, symSize: 0x2C8 }
  - { offsetInCU: 0x79AAA, offset: 0x79AAA, size: 0x8, addend: 0x0, symName: __ZNSt3__123__populate_right_bitsetB8ue170006IRNS_6__lessIvvEEPN5memdb11TableColumnES5_EEvT0_T_RT1_Ry, symObjAddr: 0x22E78C, symBinAddr: 0x1002324E0, symSize: 0x2C4 }
  - { offsetInCU: 0x79B65, offset: 0x79B65, size: 0x8, addend: 0x0, symName: __ZNSt3__117__swap_bitmap_posB8ue170006INS_17_ClassicAlgPolicyEPN5memdb11TableColumnEEEvT0_S5_RyS6_, symObjAddr: 0x22EA50, symBinAddr: 0x1002327A4, symSize: 0x6F0 }
  - { offsetInCU: 0x79C0C, offset: 0x79C0C, size: 0x8, addend: 0x0, symName: __ZNSt3__133__bitset_partition_partial_blocksB8ue170006INS_17_ClassicAlgPolicyERNS_6__lessIvvEEPN5memdb11TableColumnES6_EEvRT1_S9_T0_RT2_RySD_, symObjAddr: 0x22F140, symBinAddr: 0x100232E94, symSize: 0xE44 }
  - { offsetInCU: 0x79D95, offset: 0x79D95, size: 0x8, addend: 0x0, symName: __ZNSt3__19make_pairB8ue170006IRPN5memdb11TableColumnERbEENS_4pairINS_18__unwrap_ref_decayIT_E4typeENS7_IT0_E4typeEEEOS8_OSB_, symObjAddr: 0x230C60, symBinAddr: 0x1002349B4, symSize: 0x284 }
  - { offsetInCU: 0x79DE7, offset: 0x79DE7, size: 0x8, addend: 0x0, symName: __ZNSt3__112__libcpp_ctzB8ue170006Ey, symObjAddr: 0x230EE4, symBinAddr: 0x100234C38, symSize: 0x20 }
  - { offsetInCU: 0x79E13, offset: 0x79E13, size: 0x8, addend: 0x0, symName: __ZNSt3__113__libcpp_blsrB8ue170006Ey, symObjAddr: 0x230F04, symBinAddr: 0x100234C58, symSize: 0x2C }
  - { offsetInCU: 0x79E3F, offset: 0x79E3F, size: 0x8, addend: 0x0, symName: __ZNSt3__112__libcpp_clzB8ue170006Ey, symObjAddr: 0x23106C, symBinAddr: 0x100234DC0, symSize: 0x1C }
  - { offsetInCU: 0x79FDE, offset: 0x79FDE, size: 0x8, addend: 0x0, symName: __ZNSt3__112__to_addressB8ue170006INS_11__wrap_iterIPN5memdb11TableColumnEEEvEEu7__decayIDTclsr19__to_address_helperIT_EE6__callclsr3stdE7declvalIRKS6_EEEEES8_, symObjAddr: 0x231574, symBinAddr: 0x1002352C8, symSize: 0x6C }
  - { offsetInCU: 0x7A07C, offset: 0x7A07C, size: 0x8, addend: 0x0, symName: __ZNSt3__1miB8ue170006IPKN5memdb11TableColumnEPS2_EEDTmicldtfp_4baseEcldtfp0_4baseEERKNS_11__wrap_iterIT_EERKNS7_IT0_EE, symObjAddr: 0x231A80, symBinAddr: 0x1002357D4, symSize: 0x9C }
  - { offsetInCU: 0x7A0C8, offset: 0x7A0C8, size: 0x8, addend: 0x0, symName: __ZNSt3__14moveB8ue170006IPN5memdb11TableColumnES3_EET0_T_S5_S4_, symObjAddr: 0x231BAC, symBinAddr: 0x100235900, symSize: 0x2B4 }
  - { offsetInCU: 0x7A125, offset: 0x7A125, size: 0x8, addend: 0x0, symName: __ZNSt3__1miB8ue170006IPKN5memdb11TableColumnES4_EEDTmicldtfp_4baseEcldtfp0_4baseEERKNS_11__wrap_iterIT_EERKNS6_IT0_EE, symObjAddr: 0x231E60, symBinAddr: 0x100235BB4, symSize: 0x9C }
  - { offsetInCU: 0x7A171, offset: 0x7A171, size: 0x8, addend: 0x0, symName: __ZNSt3__16__moveB8ue170006INS_17_ClassicAlgPolicyEPN5memdb11TableColumnES4_S4_EENS_4pairIT0_T2_EES6_T1_S7_, symObjAddr: 0x2321EC, symBinAddr: 0x100235F40, symSize: 0x22C }
  - { offsetInCU: 0x7A1E0, offset: 0x7A1E0, size: 0x8, addend: 0x0, symName: __ZNSt3__123__dispatch_copy_or_moveB8ue170006INS_17_ClassicAlgPolicyENS_11__move_loopIS1_EENS_14__move_trivialEPN5memdb11TableColumnES7_S7_EENS_4pairIT2_T4_EES9_T3_SA_, symObjAddr: 0x232418, symBinAddr: 0x10023616C, symSize: 0x22C }
  - { offsetInCU: 0x7A261, offset: 0x7A261, size: 0x8, addend: 0x0, symName: __ZNSt3__121__unwrap_and_dispatchB8ue170006INS_10__overloadINS_11__move_loopINS_17_ClassicAlgPolicyEEENS_14__move_trivialEEEPN5memdb11TableColumnES9_S9_Li0EEENS_4pairIT0_T2_EESB_T1_SC_, symObjAddr: 0x232644, symBinAddr: 0x100236398, symSize: 0x634 }
  - { offsetInCU: 0x7A2FA, offset: 0x7A2FA, size: 0x8, addend: 0x0, symName: __ZNSt3__114__unwrap_rangeB8ue170006IPN5memdb11TableColumnES3_EEDaT_T0_, symObjAddr: 0x232C78, symBinAddr: 0x1002369CC, symSize: 0x224 }
  - { offsetInCU: 0x7A469, offset: 0x7A469, size: 0x8, addend: 0x0, symName: __ZNSt3__113__unwrap_iterB8ue170006IPN5memdb11TableColumnENS_18__unwrap_iter_implIS3_Lb1EEELi0EEEDTclsrT0_8__unwrapclsr3stdE7declvalIT_EEEES7_, symObjAddr: 0x2334D8, symBinAddr: 0x10023722C, symSize: 0x24 }
  - { offsetInCU: 0x7A4AD, offset: 0x7A4AD, size: 0x8, addend: 0x0, symName: __ZNSt3__19make_pairB8ue170006IPN5memdb11TableColumnES3_EENS_4pairINS_18__unwrap_ref_decayIT_E4typeENS5_IT0_E4typeEEEOS6_OS9_, symObjAddr: 0x2334FC, symBinAddr: 0x100237250, symSize: 0x2A0 }
  - { offsetInCU: 0x7A4FE, offset: 0x7A4FE, size: 0x8, addend: 0x0, symName: __ZNSt3__114__rewrap_rangeB8ue170006IPN5memdb11TableColumnES3_S3_EET0_S4_T1_, symObjAddr: 0x23379C, symBinAddr: 0x1002374F0, symSize: 0x2C }
  - { offsetInCU: 0x7A553, offset: 0x7A553, size: 0x8, addend: 0x0, symName: __ZNSt3__113__rewrap_iterB8ue170006IPN5memdb11TableColumnES3_NS_18__unwrap_iter_implIS3_Lb1EEEEET_S6_T0_, symObjAddr: 0x2337C8, symBinAddr: 0x10023751C, symSize: 0x48 }
  - { offsetInCU: 0x7A64B, offset: 0x7A64B, size: 0x8, addend: 0x0, symName: __ZNSt3__16uniqueB8ue170006INS_11__wrap_iterIPN5memdb11TableColumnEEENS_10__equal_toEEET_S7_S7_T0_, symObjAddr: 0x23408C, symBinAddr: 0x100237DE0, symSize: 0x450 }
  - { offsetInCU: 0x7A6B2, offset: 0x7A6B2, size: 0x8, addend: 0x0, symName: __ZNSt3__18__uniqueB8ue170006INS_17_ClassicAlgPolicyENS_11__wrap_iterIPN5memdb11TableColumnEEES6_RNS_10__equal_toEEENS_4pairIT0_SA_EESA_T1_OT2_, symObjAddr: 0x2344DC, symBinAddr: 0x100238230, symSize: 0x738 }
  - { offsetInCU: 0x7A748, offset: 0x7A748, size: 0x8, addend: 0x0, symName: __ZNSt3__115__adjacent_findB8ue170006INS_11__wrap_iterIPN5memdb11TableColumnEEES5_RNS_10__equal_toEEET_S8_T0_OT1_, symObjAddr: 0x234C14, symBinAddr: 0x100238968, symSize: 0x4D4 }
  - { offsetInCU: 0x7A952, offset: 0x7A952, size: 0x8, addend: 0x0, symName: __ZNSt3__1eqB8ue170006IPN5memdb11TableColumnEEEbRKNS_11__wrap_iterIT_EES8_, symObjAddr: 0x2353A0, symBinAddr: 0x1002390F4, symSize: 0x9C }
  - { offsetInCU: 0x7A995, offset: 0x7A995, size: 0x8, addend: 0x0, symName: __ZNSt3__116forward_as_tupleB8ue170006IJRKN5memdb11TableColumnEEEENS_5tupleIJDpOT_EEES8_, symObjAddr: 0x236E90, symBinAddr: 0x10023ABE4, symSize: 0x244 }
  - { offsetInCU: 0x7A9CF, offset: 0x7A9CF, size: 0x8, addend: 0x0, symName: __ZNSt3__17launderB8ue170006IKNS_4pairIKN5memdb11TableColumnENS_10shared_ptrINS2_6DbTypeEEEEEEEPT_SB_, symObjAddr: 0x239F50, symBinAddr: 0x10023DCA4, symSize: 0x24 }
  - { offsetInCU: 0x7AA06, offset: 0x7AA06, size: 0x8, addend: 0x0, symName: __ZNSt3__19__launderB8ue170006IKNS_4pairIKN5memdb11TableColumnENS_10shared_ptrINS2_6DbTypeEEEEEEEPT_SB_, symObjAddr: 0x239F74, symBinAddr: 0x10023DCC8, symSize: 0x14 }
  - { offsetInCU: 0x7AA82, offset: 0x7AA82, size: 0x8, addend: 0x0, symName: __ZNSt3__112construct_atB8ue170006INS_4pairIKN5memdb11TableColumnENS_10shared_ptrINS2_6DbTypeEEEEEJRKNS_21piecewise_construct_tENS_5tupleIJRS4_EEENSC_IJEEEEPS8_EEPT_SI_DpOT0_, symObjAddr: 0x23B058, symBinAddr: 0x10023EDAC, symSize: 0x2A8 }
  - { offsetInCU: 0x7AB1F, offset: 0x7AB1F, size: 0x8, addend: 0x0, symName: __ZNSt3__13getB8ue170006ILm0EJRKN5memdb11TableColumnEEEERNS_13tuple_elementIXT_ENS_5tupleIJDpT0_EEEE4typeERS9_, symObjAddr: 0x23B738, symBinAddr: 0x10023F48C, symSize: 0xE0 }
  - { offsetInCU: 0x7AB62, offset: 0x7AB62, size: 0x8, addend: 0x0, symName: __ZNSt3__110destroy_atB8ue170006INS_4pairIKN5memdb11TableColumnENS_10shared_ptrINS2_6DbTypeEEEEELi0EEEvPT_, symObjAddr: 0x23C8E0, symBinAddr: 0x100240634, symSize: 0x24 }
  - { offsetInCU: 0x7AB99, offset: 0x7AB99, size: 0x8, addend: 0x0, symName: __ZNSt3__112__destroy_atB8ue170006INS_4pairIKN5memdb11TableColumnENS_10shared_ptrINS2_6DbTypeEEEEELi0EEEvPT_, symObjAddr: 0x23C904, symBinAddr: 0x100240658, symSize: 0x6C }
  - { offsetInCU: 0x7AC18, offset: 0x7AC18, size: 0x8, addend: 0x0, symName: __ZNSt3__17launderB8ue170006INS_4pairIKN5memdb11TableColumnENS_10shared_ptrINS2_6DbTypeEEEEEEEPT_SA_, symObjAddr: 0x23D29C, symBinAddr: 0x100240FF0, symSize: 0x24 }
  - { offsetInCU: 0x7AC4F, offset: 0x7AC4F, size: 0x8, addend: 0x0, symName: __ZNSt3__19__launderB8ue170006INS_4pairIKN5memdb11TableColumnENS_10shared_ptrINS2_6DbTypeEEEEEEEPT_SA_, symObjAddr: 0x23D2C0, symBinAddr: 0x100241014, symSize: 0x14 }
  - { offsetInCU: 0x7AC86, offset: 0x7AC86, size: 0x8, addend: 0x0, symName: __ZNSt3__1eqB8ue170006ERKNS_14__map_iteratorINS_15__tree_iteratorINS_12__value_typeIN5memdb11TableColumnENS_10shared_ptrINS3_6DbTypeEEEEEPNS_11__tree_nodeIS8_PvEElEEEESG_, symObjAddr: 0x2408DC, symBinAddr: 0x100244630, symSize: 0xC0 }
  - { offsetInCU: 0x7ACC3, offset: 0x7ACC3, size: 0x8, addend: 0x0, symName: __ZNSt3__1eqB8ue170006ERKNS_15__tree_iteratorINS_12__value_typeIN5memdb11TableColumnENS_10shared_ptrINS2_6DbTypeEEEEEPNS_11__tree_nodeIS7_PvEElEESE_, symObjAddr: 0x241564, symBinAddr: 0x1002452B8, symSize: 0x114 }
  - { offsetInCU: 0x7AD00, offset: 0x7AD00, size: 0x8, addend: 0x0, symName: __ZNSt3__1neB8ue170006ERKNS_15__tree_iteratorINS_12__value_typeIN5memdb11TableColumnENS_10shared_ptrINS2_6DbTypeEEEEEPNS_11__tree_nodeIS7_PvEElEESE_, symObjAddr: 0x242494, symBinAddr: 0x1002461E8, symSize: 0xC4 }
  - { offsetInCU: 0x7AD3D, offset: 0x7AD3D, size: 0x8, addend: 0x0, symName: __ZNSt3__116forward_as_tupleB8ue170006IJN5memdb11TableColumnEEEENS_5tupleIJDpOT_EEES6_, symObjAddr: 0x2433B0, symBinAddr: 0x100247104, symSize: 0x244 }
  - { offsetInCU: 0x7AD77, offset: 0x7AD77, size: 0x8, addend: 0x0, symName: __ZNSt3__112construct_atB8ue170006INS_4pairIKN5memdb11TableColumnENS_10shared_ptrINS2_6DbTypeEEEEEJRKNS_21piecewise_construct_tENS_5tupleIJOS3_EEENSC_IJEEEEPS8_EEPT_SI_DpOT0_, symObjAddr: 0x243DC8, symBinAddr: 0x100247B1C, symSize: 0x2A8 }
  - { offsetInCU: 0x7AE14, offset: 0x7AE14, size: 0x8, addend: 0x0, symName: __ZNSt3__13getB8ue170006ILm0EJON5memdb11TableColumnEEEERNS_13tuple_elementIXT_ENS_5tupleIJDpT0_EEEE4typeERS8_, symObjAddr: 0x2444BC, symBinAddr: 0x100248210, symSize: 0xE0 }
  - { offsetInCU: 0x7AE6C, offset: 0x7AE6C, size: 0x8, addend: 0x0, symName: __ZNSt3__1eqB8ue170006IPKN5memdb11TableColumnEEEbRKNS_11__wrap_iterIT_EES9_, symObjAddr: 0x246DCC, symBinAddr: 0x10024AB20, symSize: 0x9C }
  - { offsetInCU: 0x7AEAF, offset: 0x7AEAF, size: 0x8, addend: 0x0, symName: __ZNSt3__122__make_exception_guardB8ue170006INS_6vectorIPvNS_9allocatorIS2_EEE16__destroy_vectorEEENS_28__exception_guard_exceptionsIT_EES8_, symObjAddr: 0x24740C, symBinAddr: 0x10024B160, symSize: 0x2BC }
  - { offsetInCU: 0x7AEE8, offset: 0x7AEE8, size: 0x8, addend: 0x0, symName: __ZNSt3__112construct_atB8ue170006IPvJEPS1_EEPT_S4_DpOT0_, symObjAddr: 0x248D34, symBinAddr: 0x10024CA88, symSize: 0xFC }
  - { offsetInCU: 0x7AF46, offset: 0x7AF46, size: 0x8, addend: 0x0, symName: __ZNSt3__130__uninitialized_allocator_copyB8ue170006INS_9allocatorIPvEEPS2_S4_S4_EET2_RT_T0_T1_S5_, symObjAddr: 0x24A81C, symBinAddr: 0x10024E570, symSize: 0x334 }
  - { offsetInCU: 0x7AFEC, offset: 0x7AFEC, size: 0x8, addend: 0x0, symName: __ZNSt3__114__unwrap_rangeB8ue170006IPPvS2_EEDaT_T0_, symObjAddr: 0x24AB50, symBinAddr: 0x10024E8A4, symSize: 0x224 }
  - { offsetInCU: 0x7B03A, offset: 0x7B03A, size: 0x8, addend: 0x0, symName: __ZNSt3__135__uninitialized_allocator_copy_implB8ue170006INS_9allocatorIPvEES2_S2_S2_LS2_0EEEPT2_RT_PT0_S9_S5_, symObjAddr: 0x24AD74, symBinAddr: 0x10024EAC8, symSize: 0x38 }
  - { offsetInCU: 0x7B0BC, offset: 0x7B0BC, size: 0x8, addend: 0x0, symName: __ZNSt3__113__unwrap_iterB8ue170006IPPvNS_18__unwrap_iter_implIS2_Lb1EEELi0EEEDTclsrT0_8__unwrapclsr3stdE7declvalIT_EEEES6_, symObjAddr: 0x24ADAC, symBinAddr: 0x10024EB00, symSize: 0x24 }
  - { offsetInCU: 0x7B100, offset: 0x7B100, size: 0x8, addend: 0x0, symName: __ZNSt3__113__rewrap_iterB8ue170006IPPvS2_NS_18__unwrap_iter_implIS2_Lb1EEEEET_S5_T0_, symObjAddr: 0x24ADD0, symBinAddr: 0x10024EB24, symSize: 0x48 }
  - { offsetInCU: 0x7B2ED, offset: 0x7B2ED, size: 0x8, addend: 0x0, symName: __ZNSt3__14copyB8ue170006IPPvS2_EET0_T_S4_S3_, symObjAddr: 0x24B3BC, symBinAddr: 0x10024F110, symSize: 0x2B4 }
  - { offsetInCU: 0x7B34A, offset: 0x7B34A, size: 0x8, addend: 0x0, symName: __ZNSt3__16__copyB8ue170006INS_17_ClassicAlgPolicyEPPvS3_S3_EENS_4pairIT0_T2_EES5_T1_S6_, symObjAddr: 0x24B670, symBinAddr: 0x10024F3C4, symSize: 0x22C }
  - { offsetInCU: 0x7B3B9, offset: 0x7B3B9, size: 0x8, addend: 0x0, symName: __ZNSt3__123__dispatch_copy_or_moveB8ue170006INS_17_ClassicAlgPolicyENS_11__copy_loopIS1_EENS_14__copy_trivialEPPvS6_S6_EENS_4pairIT2_T4_EES8_T3_S9_, symObjAddr: 0x24B89C, symBinAddr: 0x10024F5F0, symSize: 0x22C }
  - { offsetInCU: 0x7B43A, offset: 0x7B43A, size: 0x8, addend: 0x0, symName: __ZNSt3__121__unwrap_and_dispatchB8ue170006INS_10__overloadINS_11__copy_loopINS_17_ClassicAlgPolicyEEENS_14__copy_trivialEEEPPvS8_S8_Li0EEENS_4pairIT0_T2_EESA_T1_SB_, symObjAddr: 0x24BAC8, symBinAddr: 0x10024F81C, symSize: 0x634 }
  - { offsetInCU: 0x7B4D3, offset: 0x7B4D3, size: 0x8, addend: 0x0, symName: __ZNSt3__19make_pairB8ue170006IPPvS2_EENS_4pairINS_18__unwrap_ref_decayIT_E4typeENS4_IT0_E4typeEEEOS5_OS8_, symObjAddr: 0x24C358, symBinAddr: 0x1002500AC, symSize: 0x2A0 }
  - { offsetInCU: 0x7B524, offset: 0x7B524, size: 0x8, addend: 0x0, symName: __ZNSt3__114__rewrap_rangeB8ue170006IPPvS2_S2_EET0_S3_T1_, symObjAddr: 0x24C5F8, symBinAddr: 0x10025034C, symSize: 0x2C }
  - { offsetInCU: 0x7B579, offset: 0x7B579, size: 0x8, addend: 0x0, symName: __ZNSt3__119__copy_trivial_implB8ue170006IPvS1_EENS_4pairIPT_PT0_EES4_S4_S6_, symObjAddr: 0x24C624, symBinAddr: 0x100250378, symSize: 0x480 }
  - { offsetInCU: 0x7B5E8, offset: 0x7B5E8, size: 0x8, addend: 0x0, symName: __ZNSt3__119__constexpr_memmoveB8ue170006IPvS1_Li0EEEPT_S3_PT0_NS_15__element_countE, symObjAddr: 0x24CAA4, symBinAddr: 0x1002507F8, symSize: 0x64 }
  - { offsetInCU: 0x7B656, offset: 0x7B656, size: 0x8, addend: 0x0, symName: __ZNSt3__19make_pairB8ue170006IRPPvS2_EENS_4pairINS_18__unwrap_ref_decayIT_E4typeENS5_IT0_E4typeEEEOS6_OS9_, symObjAddr: 0x24CB08, symBinAddr: 0x10025085C, symSize: 0x2A0 }
  - { offsetInCU: 0x7B6FA, offset: 0x7B6FA, size: 0x8, addend: 0x0, symName: __ZNSt3__122__make_exception_guardB8ue170006INS_6vectorIN5memdb9TableView3RowENS_9allocatorIS4_EEE16__destroy_vectorEEENS_28__exception_guard_exceptionsIT_EESA_, symObjAddr: 0x24D7C8, symBinAddr: 0x10025151C, symSize: 0x2BC }
  - { offsetInCU: 0x7B733, offset: 0x7B733, size: 0x8, addend: 0x0, symName: __ZNSt3__119__allocate_at_leastB8ue170006INS_9allocatorIN5memdb9TableView3RowEEEEEDaRT_m, symObjAddr: 0x24F610, symBinAddr: 0x100253364, symSize: 0x250 }
  - { offsetInCU: 0x7B778, offset: 0x7B778, size: 0x8, addend: 0x0, symName: __ZNSt3__117allocate_at_leastB8ue170006INS_9allocatorIN5memdb9TableView3RowEEEEENS_17allocation_resultINS_16allocator_traitsIT_E7pointerEEERS8_m, symObjAddr: 0x250058, symBinAddr: 0x100253DAC, symSize: 0x224 }
  - { offsetInCU: 0x7B7BE, offset: 0x7B7BE, size: 0x8, addend: 0x0, symName: __ZNSt3__112__to_addressB8ue170006IN5memdb9TableView3RowEEEPT_S5_, symObjAddr: 0x250BDC, symBinAddr: 0x100254930, symSize: 0x14 }
  - { offsetInCU: 0x7B819, offset: 0x7B819, size: 0x8, addend: 0x0, symName: __ZNSt3__112construct_atB8ue170006IN5memdb9TableView3RowEJRKS3_EPS3_EEPT_S8_DpOT0_, symObjAddr: 0x25195C, symBinAddr: 0x1002556B0, symSize: 0x110 }
  - { offsetInCU: 0x7B88B, offset: 0x7B88B, size: 0x8, addend: 0x0, symName: __ZNSt3__110destroy_atB8ue170006IN5memdb9TableView3RowELi0EEEvPT_, symObjAddr: 0x252FAC, symBinAddr: 0x100256D00, symSize: 0x24 }
  - { offsetInCU: 0x7B8C2, offset: 0x7B8C2, size: 0x8, addend: 0x0, symName: __ZNSt3__112__destroy_atB8ue170006IN5memdb9TableView3RowELi0EEEvPT_, symObjAddr: 0x252FD0, symBinAddr: 0x100256D24, symSize: 0x6C }
  - { offsetInCU: 0x7B8F9, offset: 0x7B8F9, size: 0x8, addend: 0x0, symName: __ZNSt3__1eqB8ue170006ERKNS_23__forward_list_iteratorIPNS_19__forward_list_nodeIlPvEEEES7_, symObjAddr: 0x2533C4, symBinAddr: 0x100257118, symSize: 0x114 }
  - { offsetInCU: 0x7B937, offset: 0x7B937, size: 0x8, addend: 0x0, symName: __ZNSt3__112__to_addressB8ue170006IN5memdb6parser11Assignments9ColumnExpEEEPT_S6_, symObjAddr: 0x25691C, symBinAddr: 0x10025A670, symSize: 0x14 }
  - { offsetInCU: 0x7B992, offset: 0x7B992, size: 0x8, addend: 0x0, symName: __ZNSt3__112construct_atB8ue170006IN5memdb6parser11Assignments9ColumnExpEJRS4_EPS4_EEPT_S8_DpOT0_, symObjAddr: 0x25784C, symBinAddr: 0x10025B5A0, symSize: 0x110 }
  - { offsetInCU: 0x7BA04, offset: 0x7BA04, size: 0x8, addend: 0x0, symName: __ZNSt3__119__allocate_at_leastB8ue170006INS_9allocatorIN5memdb6parser11Assignments9ColumnExpEEEEEDaRT_m, symObjAddr: 0x25A27C, symBinAddr: 0x10025DFD0, symSize: 0x250 }
  - { offsetInCU: 0x7BA49, offset: 0x7BA49, size: 0x8, addend: 0x0, symName: __ZNSt3__117allocate_at_leastB8ue170006INS_9allocatorIN5memdb6parser11Assignments9ColumnExpEEEEENS_17allocation_resultINS_16allocator_traitsIT_E7pointerEEERS9_m, symObjAddr: 0x25A934, symBinAddr: 0x10025E688, symSize: 0x224 }
  - { offsetInCU: 0x7BA8E, offset: 0x7BA8E, size: 0x8, addend: 0x0, symName: __ZNSt3__142__uninitialized_allocator_move_if_noexceptB8ue170006INS_9allocatorIN5memdb6parser11Assignments9ColumnExpEEENS_16reverse_iteratorIPS5_EES9_S9_EET2_RT_T0_T1_SA_, symObjAddr: 0x25B574, symBinAddr: 0x10025F2C8, symSize: 0x5D8 }
  - { offsetInCU: 0x7BB43, offset: 0x7BB43, size: 0x8, addend: 0x0, symName: __ZNSt3__14swapB8ue170006IPN5memdb6parser11Assignments9ColumnExpEEENS_9enable_ifIXaasr21is_move_constructibleIT_EE5valuesr18is_move_assignableIS7_EE5valueEvE4typeERS7_SA_, symObjAddr: 0x25BC7C, symBinAddr: 0x10025F9D0, symSize: 0x1C0 }
  - { offsetInCU: 0x7BB94, offset: 0x7BB94, size: 0x8, addend: 0x0, symName: __ZNSt3__122__make_exception_guardB8ue170006INS_29_AllocatorDestroyRangeReverseINS_9allocatorIN5memdb6parser11Assignments9ColumnExpEEENS_16reverse_iteratorIPS6_EEEEEENS_28__exception_guard_exceptionsIT_EESD_, symObjAddr: 0x25C1B4, symBinAddr: 0x10025FF08, symSize: 0x23C }
  - { offsetInCU: 0x7BBCB, offset: 0x7BBCB, size: 0x8, addend: 0x0, symName: __ZNSt3__1neB8ue170006IPN5memdb6parser11Assignments9ColumnExpES5_EEbRKNS_16reverse_iteratorIT_EERKNS6_IT0_EE, symObjAddr: 0x25C480, symBinAddr: 0x1002601D4, symSize: 0x9C }
  - { offsetInCU: 0x7BC17, offset: 0x7BC17, size: 0x8, addend: 0x0, symName: __ZNSt3__112__to_addressB8ue170006INS_16reverse_iteratorIPN5memdb6parser11Assignments9ColumnExpEEEvEEu7__decayIDTclsr19__to_address_helperIT_EE6__callclsr3stdE7declvalIRKS8_EEEEESA_, symObjAddr: 0x25C59C, symBinAddr: 0x1002602F0, symSize: 0x6C }
  - { offsetInCU: 0x7BC4D, offset: 0x7BC4D, size: 0x8, addend: 0x0, symName: __ZNSt3__112construct_atB8ue170006IN5memdb6parser11Assignments9ColumnExpEJS4_EPS4_EEPT_S7_DpOT0_, symObjAddr: 0x25CE14, symBinAddr: 0x100260B68, symSize: 0x110 }
  - { offsetInCU: 0x7BCE9, offset: 0x7BCE9, size: 0x8, addend: 0x0, symName: __ZNSt3__14prevB8ue170006IPN5memdb6parser11Assignments9ColumnExpEEENS_9enable_ifIXsr29__has_input_iterator_categoryIT_EE5valueES7_E4typeES7_NS_15iterator_traitsIS7_E15difference_typeE, symObjAddr: 0x25D58C, symBinAddr: 0x1002612E0, symSize: 0x270 }
  - { offsetInCU: 0x7BD31, offset: 0x7BD31, size: 0x8, addend: 0x0, symName: __ZNSt3__19__advanceB8ue170006IPN5memdb6parser11Assignments9ColumnExpEEEvRT_NS_15iterator_traitsIS6_E15difference_typeENS_26random_access_iterator_tagE, symObjAddr: 0x25D87C, symBinAddr: 0x1002615D0, symSize: 0x1A4 }
  - { offsetInCU: 0x7BD7B, offset: 0x7BD7B, size: 0x8, addend: 0x0, symName: __ZNSt3__119__allocator_destroyB8ue170006INS_9allocatorIN5memdb6parser11Assignments9ColumnExpEEENS_16reverse_iteratorINS7_IPS5_EEEESA_EEvRT_T0_T1_, symObjAddr: 0x25DFB4, symBinAddr: 0x100261D08, symSize: 0x1A4 }
  - { offsetInCU: 0x7BDE0, offset: 0x7BDE0, size: 0x8, addend: 0x0, symName: __ZNSt3__1neB8ue170006INS_16reverse_iteratorIPN5memdb6parser11Assignments9ColumnExpEEES7_EEbRKNS1_IT_EERKNS1_IT0_EE, symObjAddr: 0x25E3F4, symBinAddr: 0x100262148, symSize: 0x324 }
  - { offsetInCU: 0x7BE2E, offset: 0x7BE2E, size: 0x8, addend: 0x0, symName: __ZNSt3__112__to_addressB8ue170006INS_16reverse_iteratorINS1_IPN5memdb6parser11Assignments9ColumnExpEEEEEvEEu7__decayIDTclsr19__to_address_helperIT_EE6__callclsr3stdE7declvalIRKS9_EEEEESB_, symObjAddr: 0x25E740, symBinAddr: 0x100262494, symSize: 0x6C }
  - { offsetInCU: 0x7BE64, offset: 0x7BE64, size: 0x8, addend: 0x0, symName: __ZNSt3__110destroy_atB8ue170006IN5memdb6parser11Assignments9ColumnExpELi0EEEvPT_, symObjAddr: 0x25EB04, symBinAddr: 0x100262858, symSize: 0x24 }
  - { offsetInCU: 0x7BE9B, offset: 0x7BE9B, size: 0x8, addend: 0x0, symName: __ZNSt3__112__destroy_atB8ue170006IN5memdb6parser11Assignments9ColumnExpELi0EEEvPT_, symObjAddr: 0x25EB28, symBinAddr: 0x10026287C, symSize: 0x6C }
  - { offsetInCU: 0x7BEFC, offset: 0x7BEFC, size: 0x8, addend: 0x0, symName: __ZNSt3__14prevB8ue170006INS_16reverse_iteratorIPN5memdb6parser11Assignments9ColumnExpEEEEENS_9enable_ifIXsr29__has_input_iterator_categoryIT_EE5valueES9_E4typeES9_NS_15iterator_traitsIS9_E15difference_typeE, symObjAddr: 0x25EEF4, symBinAddr: 0x100262C48, symSize: 0x2C4 }
  - { offsetInCU: 0x7BF44, offset: 0x7BF44, size: 0x8, addend: 0x0, symName: __ZNSt3__19__advanceB8ue170006INS_16reverse_iteratorIPN5memdb6parser11Assignments9ColumnExpEEEEEvRT_NS_15iterator_traitsIS8_E15difference_typeENS_26random_access_iterator_tagE, symObjAddr: 0x25F238, symBinAddr: 0x100262F8C, symSize: 0x7C }
  - { offsetInCU: 0x7BF8E, offset: 0x7BF8E, size: 0x8, addend: 0x0, symName: __ZNSt3__1neB8ue170006IPN5memdb6parser11Assignments9ColumnExpEEEbRKNS_11__wrap_iterIT_EESA_, symObjAddr: 0x2641EC, symBinAddr: 0x100267F40, symSize: 0xC4 }
  - { offsetInCU: 0x7BFD1, offset: 0x7BFD1, size: 0x8, addend: 0x0, symName: __ZNSt3__119__allocate_at_leastB8ue170006INS_9allocatorINS_6vectorIN5memdb11TableColumnENS1_IS4_EEEEEEEEDaRT_m, symObjAddr: 0x2675D0, symBinAddr: 0x10026B324, symSize: 0x250 }
  - { offsetInCU: 0x7C016, offset: 0x7C016, size: 0x8, addend: 0x0, symName: __ZNSt3__117allocate_at_leastB8ue170006INS_9allocatorINS_6vectorIN5memdb11TableColumnENS1_IS4_EEEEEEEENS_17allocation_resultINS_16allocator_traitsIT_E7pointerEEERSA_m, symObjAddr: 0x267C88, symBinAddr: 0x10026B9DC, symSize: 0x224 }
  - { offsetInCU: 0x7C05B, offset: 0x7C05B, size: 0x8, addend: 0x0, symName: __ZNSt3__142__uninitialized_allocator_move_if_noexceptB8ue170006INS_9allocatorINS_6vectorIN5memdb11TableColumnENS1_IS4_EEEEEENS_16reverse_iteratorIPS6_EESA_SA_EET2_RT_T0_T1_SB_, symObjAddr: 0x268974, symBinAddr: 0x10026C6C8, symSize: 0x5D8 }
  - { offsetInCU: 0x7C110, offset: 0x7C110, size: 0x8, addend: 0x0, symName: __ZNSt3__14swapB8ue170006IPNS_6vectorIN5memdb11TableColumnENS_9allocatorIS3_EEEEEENS_9enable_ifIXaasr21is_move_constructibleIT_EE5valuesr18is_move_assignableIS9_EE5valueEvE4typeERS9_SC_, symObjAddr: 0x26907C, symBinAddr: 0x10026CDD0, symSize: 0x1C0 }
  - { offsetInCU: 0x7C162, offset: 0x7C162, size: 0x8, addend: 0x0, symName: __ZNSt3__112__to_addressB8ue170006INS_6vectorIN5memdb11TableColumnENS_9allocatorIS3_EEEEEEPT_S8_, symObjAddr: 0x269800, symBinAddr: 0x10026D554, symSize: 0x14 }
  - { offsetInCU: 0x7C196, offset: 0x7C196, size: 0x8, addend: 0x0, symName: __ZNSt3__122__make_exception_guardB8ue170006INS_29_AllocatorDestroyRangeReverseINS_9allocatorINS_6vectorIN5memdb11TableColumnENS2_IS5_EEEEEENS_16reverse_iteratorIPS7_EEEEEENS_28__exception_guard_exceptionsIT_EESE_, symObjAddr: 0x269814, symBinAddr: 0x10026D568, symSize: 0x23C }
  - { offsetInCU: 0x7C1CD, offset: 0x7C1CD, size: 0x8, addend: 0x0, symName: __ZNSt3__1neB8ue170006IPNS_6vectorIN5memdb11TableColumnENS_9allocatorIS3_EEEES7_EEbRKNS_16reverse_iteratorIT_EERKNS8_IT0_EE, symObjAddr: 0x269AE0, symBinAddr: 0x10026D834, symSize: 0x9C }
  - { offsetInCU: 0x7C219, offset: 0x7C219, size: 0x8, addend: 0x0, symName: __ZNSt3__112__to_addressB8ue170006INS_16reverse_iteratorIPNS_6vectorIN5memdb11TableColumnENS_9allocatorIS4_EEEEEEvEEu7__decayIDTclsr19__to_address_helperIT_EE6__callclsr3stdE7declvalIRKSA_EEEEESC_, symObjAddr: 0x269BFC, symBinAddr: 0x10026D950, symSize: 0x6C }
  - { offsetInCU: 0x7C276, offset: 0x7C276, size: 0x8, addend: 0x0, symName: __ZNSt3__112construct_atB8ue170006INS_6vectorIN5memdb11TableColumnENS_9allocatorIS3_EEEEJS6_EPS6_EEPT_S9_DpOT0_, symObjAddr: 0x26A474, symBinAddr: 0x10026E1C8, symSize: 0x110 }
  - { offsetInCU: 0x7C312, offset: 0x7C312, size: 0x8, addend: 0x0, symName: __ZNSt3__14prevB8ue170006IPNS_6vectorIN5memdb11TableColumnENS_9allocatorIS3_EEEEEENS_9enable_ifIXsr29__has_input_iterator_categoryIT_EE5valueES9_E4typeES9_NS_15iterator_traitsIS9_E15difference_typeE, symObjAddr: 0x26B0F8, symBinAddr: 0x10026EE4C, symSize: 0x270 }
  - { offsetInCU: 0x7C35A, offset: 0x7C35A, size: 0x8, addend: 0x0, symName: __ZNSt3__19__advanceB8ue170006IPNS_6vectorIN5memdb11TableColumnENS_9allocatorIS3_EEEEEEvRT_NS_15iterator_traitsIS8_E15difference_typeENS_26random_access_iterator_tagE, symObjAddr: 0x26B3E8, symBinAddr: 0x10026F13C, symSize: 0x1A4 }
  - { offsetInCU: 0x7C3A4, offset: 0x7C3A4, size: 0x8, addend: 0x0, symName: __ZNSt3__119__allocator_destroyB8ue170006INS_9allocatorINS_6vectorIN5memdb11TableColumnENS1_IS4_EEEEEENS_16reverse_iteratorINS8_IPS6_EEEESB_EEvRT_T0_T1_, symObjAddr: 0x26BB20, symBinAddr: 0x10026F874, symSize: 0x1A4 }
  - { offsetInCU: 0x7C409, offset: 0x7C409, size: 0x8, addend: 0x0, symName: __ZNSt3__1neB8ue170006INS_16reverse_iteratorIPNS_6vectorIN5memdb11TableColumnENS_9allocatorIS4_EEEEEES9_EEbRKNS1_IT_EERKNS1_IT0_EE, symObjAddr: 0x26BF60, symBinAddr: 0x10026FCB4, symSize: 0x324 }
  - { offsetInCU: 0x7C457, offset: 0x7C457, size: 0x8, addend: 0x0, symName: __ZNSt3__112__to_addressB8ue170006INS_16reverse_iteratorINS1_IPNS_6vectorIN5memdb11TableColumnENS_9allocatorIS4_EEEEEEEEvEEu7__decayIDTclsr19__to_address_helperIT_EE6__callclsr3stdE7declvalIRKSB_EEEEESD_, symObjAddr: 0x26C2AC, symBinAddr: 0x100270000, symSize: 0x6C }
  - { offsetInCU: 0x7C48D, offset: 0x7C48D, size: 0x8, addend: 0x0, symName: __ZNSt3__110destroy_atB8ue170006INS_6vectorIN5memdb11TableColumnENS_9allocatorIS3_EEEELi0EEEvPT_, symObjAddr: 0x26C670, symBinAddr: 0x1002703C4, symSize: 0x24 }
  - { offsetInCU: 0x7C4C4, offset: 0x7C4C4, size: 0x8, addend: 0x0, symName: __ZNSt3__112__destroy_atB8ue170006INS_6vectorIN5memdb11TableColumnENS_9allocatorIS3_EEEELi0EEEvPT_, symObjAddr: 0x26C694, symBinAddr: 0x1002703E8, symSize: 0x6C }
  - { offsetInCU: 0x7C525, offset: 0x7C525, size: 0x8, addend: 0x0, symName: __ZNSt3__14prevB8ue170006INS_16reverse_iteratorIPNS_6vectorIN5memdb11TableColumnENS_9allocatorIS4_EEEEEEEENS_9enable_ifIXsr29__has_input_iterator_categoryIT_EE5valueESB_E4typeESB_NS_15iterator_traitsISB_E15difference_typeE, symObjAddr: 0x26CA60, symBinAddr: 0x1002707B4, symSize: 0x2C4 }
  - { offsetInCU: 0x7C56D, offset: 0x7C56D, size: 0x8, addend: 0x0, symName: __ZNSt3__19__advanceB8ue170006INS_16reverse_iteratorIPNS_6vectorIN5memdb11TableColumnENS_9allocatorIS4_EEEEEEEEvRT_NS_15iterator_traitsISA_E15difference_typeENS_26random_access_iterator_tagE, symObjAddr: 0x26CDA4, symBinAddr: 0x100270AF8, symSize: 0x7C }
  - { offsetInCU: 0x7C5B7, offset: 0x7C5B7, size: 0x8, addend: 0x0, symName: __ZNSt3__1eqB8ue170006IPN5memdb6parser11Assignments9ColumnExpEEEbRKNS_11__wrap_iterIT_EESA_, symObjAddr: 0x26E320, symBinAddr: 0x100272074, symSize: 0x9C }
  - { offsetInCU: 0x7C5FA, offset: 0x7C5FA, size: 0x8, addend: 0x0, symName: __ZNSt3__122__make_exception_guardB8ue170006INS_6vectorINS_3mapIN5memdb11TableColumnENS_10shared_ptrINS3_6DbTypeEEENS_4lessIS4_EENS_9allocatorINS_4pairIKS4_S7_EEEEEENSA_ISF_EEE16__destroy_vectorEEENS_28__exception_guard_exceptionsIT_EESK_, symObjAddr: 0x270B48, symBinAddr: 0x10027489C, symSize: 0x2BC }
  - { offsetInCU: 0x7C633, offset: 0x7C633, size: 0x8, addend: 0x0, symName: __ZNSt3__119__allocate_at_leastB8ue170006INS_9allocatorINS_3mapIN5memdb11TableColumnENS_10shared_ptrINS3_6DbTypeEEENS_4lessIS4_EENS1_INS_4pairIKS4_S7_EEEEEEEEEEDaRT_m, symObjAddr: 0x272944, symBinAddr: 0x100276698, symSize: 0x250 }
  - { offsetInCU: 0x7C678, offset: 0x7C678, size: 0x8, addend: 0x0, symName: __ZNSt3__117allocate_at_leastB8ue170006INS_9allocatorINS_3mapIN5memdb11TableColumnENS_10shared_ptrINS3_6DbTypeEEENS_4lessIS4_EENS1_INS_4pairIKS4_S7_EEEEEEEEEENS_17allocation_resultINS_16allocator_traitsIT_E7pointerEEERSI_m, symObjAddr: 0x2733A4, symBinAddr: 0x1002770F8, symSize: 0x224 }
  - { offsetInCU: 0x7C6BE, offset: 0x7C6BE, size: 0x8, addend: 0x0, symName: __ZNSt3__112__to_addressB8ue170006INS_3mapIN5memdb11TableColumnENS_10shared_ptrINS2_6DbTypeEEENS_4lessIS3_EENS_9allocatorINS_4pairIKS3_S6_EEEEEEEEPT_SG_, symObjAddr: 0x273F2C, symBinAddr: 0x100277C80, symSize: 0x14 }
  - { offsetInCU: 0x7C719, offset: 0x7C719, size: 0x8, addend: 0x0, symName: __ZNSt3__112construct_atB8ue170006INS_3mapIN5memdb11TableColumnENS_10shared_ptrINS2_6DbTypeEEENS_4lessIS3_EENS_9allocatorINS_4pairIKS3_S6_EEEEEEJEPSE_EEPT_SH_DpOT0_, symObjAddr: 0x274C7C, symBinAddr: 0x1002789D0, symSize: 0xC0 }
  - { offsetInCU: 0x7C777, offset: 0x7C777, size: 0x8, addend: 0x0, symName: __ZNSt3__110destroy_atB8ue170006INS_3mapIN5memdb11TableColumnENS_10shared_ptrINS2_6DbTypeEEENS_4lessIS3_EENS_9allocatorINS_4pairIKS3_S6_EEEEEELi0EEEvPT_, symObjAddr: 0x27608C, symBinAddr: 0x100279DE0, symSize: 0x24 }
  - { offsetInCU: 0x7C7AE, offset: 0x7C7AE, size: 0x8, addend: 0x0, symName: __ZNSt3__112__destroy_atB8ue170006INS_3mapIN5memdb11TableColumnENS_10shared_ptrINS2_6DbTypeEEENS_4lessIS3_EENS_9allocatorINS_4pairIKS3_S6_EEEEEELi0EEEvPT_, symObjAddr: 0x2760B0, symBinAddr: 0x100279E04, symSize: 0x6C }
  - { offsetInCU: 0x7C809, offset: 0x7C809, size: 0x8, addend: 0x0, symName: __ZNSt3__1eqB8ue170006ERKNS_21__tree_const_iteratorINS_12__value_typeINS_17basic_string_viewIcNS_11char_traitsIcEEEEN5memdb5lexer7CommandEEEPNS_11__tree_nodeIS9_PvEElEESG_, symObjAddr: 0x27E2F8, symBinAddr: 0x10028204C, symSize: 0x114 }
  - { offsetInCU: 0x7C846, offset: 0x7C846, size: 0x8, addend: 0x0, symName: __ZNSt3__14nextB8ue170006INS_21__tree_const_iteratorINS_12__value_typeINS_17basic_string_viewIcNS_11char_traitsIcEEEEN5memdb5lexer7CommandEEEPNS_11__tree_nodeISA_PvEElEEEENS_9enable_ifIXsr29__has_input_iterator_categoryIT_EE5valueESH_E4typeESH_NS_15iterator_traitsISH_E15difference_typeE, symObjAddr: 0x27FF88, symBinAddr: 0x100283CDC, symSize: 0x288 }
  - { offsetInCU: 0x7C88E, offset: 0x7C88E, size: 0x8, addend: 0x0, symName: __ZNSt3__17launderB8ue170006IKNS_4pairIKNS_17basic_string_viewIcNS_11char_traitsIcEEEEN5memdb5lexer7CommandEEEEEPT_SD_, symObjAddr: 0x280940, symBinAddr: 0x100284694, symSize: 0x24 }
  - { offsetInCU: 0x7C8C5, offset: 0x7C8C5, size: 0x8, addend: 0x0, symName: __ZNSt3__19__launderB8ue170006IKNS_4pairIKNS_17basic_string_viewIcNS_11char_traitsIcEEEEN5memdb5lexer7CommandEEEEEPT_SD_, symObjAddr: 0x280964, symBinAddr: 0x1002846B8, symSize: 0x14 }
  - { offsetInCU: 0x7C8FC, offset: 0x7C8FC, size: 0x8, addend: 0x0, symName: __ZNSt3__116__tree_prev_iterB8ue170006IPNS_16__tree_node_baseIPvEEPNS_15__tree_end_nodeIS4_EEEET_T0_, symObjAddr: 0x280978, symBinAddr: 0x1002846CC, symSize: 0x2E8 }
  - { offsetInCU: 0x7C948, offset: 0x7C948, size: 0x8, addend: 0x0, symName: __ZNSt3__110__tree_maxB8ue170006IPNS_16__tree_node_baseIPvEEEET_S5_, symObjAddr: 0x280C60, symBinAddr: 0x1002849B4, symSize: 0x1E4 }
  - { offsetInCU: 0x7C97D, offset: 0x7C97D, size: 0x8, addend: 0x0, symName: __ZNSt3__19__advanceB8ue170006INS_21__tree_const_iteratorINS_12__value_typeINS_17basic_string_viewIcNS_11char_traitsIcEEEEN5memdb5lexer7CommandEEEPNS_11__tree_nodeISA_PvEElEEEEvRT_NS_15iterator_traitsISG_E15difference_typeENS_26bidirectional_iterator_tagE, symObjAddr: 0x2810FC, symBinAddr: 0x100284E50, symSize: 0x194 }
  - { offsetInCU: 0x7C9C7, offset: 0x7C9C7, size: 0x8, addend: 0x0, symName: __ZNSt3__116__tree_next_iterB8ue170006IPNS_15__tree_end_nodeIPNS_16__tree_node_baseIPvEEEES5_EET_T0_, symObjAddr: 0x28140C, symBinAddr: 0x100285160, symSize: 0x36C }
  - { offsetInCU: 0x7CA05, offset: 0x7CA05, size: 0x8, addend: 0x0, symName: __ZNSt3__110__tree_minB8ue170006IPNS_16__tree_node_baseIPvEEEET_S5_, symObjAddr: 0x281778, symBinAddr: 0x1002854CC, symSize: 0x22C }
  - { offsetInCU: 0x7CA7F, offset: 0x7CA7F, size: 0x8, addend: 0x0, symName: __ZNSt3__112construct_atB8ue170006INS_4pairIKNS_17basic_string_viewIcNS_11char_traitsIcEEEEN5memdb5lexer7CommandEEEJRKSA_EPSA_EEPT_SF_DpOT0_, symObjAddr: 0x282A0C, symBinAddr: 0x100286760, symSize: 0xCC }
  - { offsetInCU: 0x7CAF1, offset: 0x7CAF1, size: 0x8, addend: 0x0, symName: __ZNSt3__17launderB8ue170006INS_4pairIKNS_17basic_string_viewIcNS_11char_traitsIcEEEEN5memdb5lexer7CommandEEEEEPT_SC_, symObjAddr: 0x282B8C, symBinAddr: 0x1002868E0, symSize: 0x24 }
  - { offsetInCU: 0x7CB28, offset: 0x7CB28, size: 0x8, addend: 0x0, symName: __ZNSt3__19__launderB8ue170006INS_4pairIKNS_17basic_string_viewIcNS_11char_traitsIcEEEEN5memdb5lexer7CommandEEEEEPT_SC_, symObjAddr: 0x282BB0, symBinAddr: 0x100286904, symSize: 0x14 }
  - { offsetInCU: 0x7CB5F, offset: 0x7CB5F, size: 0x8, addend: 0x0, symName: __ZNSt3__110destroy_atB8ue170006INS_4pairIKNS_17basic_string_viewIcNS_11char_traitsIcEEEEN5memdb5lexer7CommandEEELi0EEEvPT_, symObjAddr: 0x2839C4, symBinAddr: 0x100287718, symSize: 0x24 }
  - { offsetInCU: 0x7CB97, offset: 0x7CB97, size: 0x8, addend: 0x0, symName: __ZNSt3__112__destroy_atB8ue170006INS_4pairIKNS_17basic_string_viewIcNS_11char_traitsIcEEEEN5memdb5lexer7CommandEEELi0EEEvPT_, symObjAddr: 0x2839E8, symBinAddr: 0x10028773C, symSize: 0x10 }
  - { offsetInCU: 0x7CBCE, offset: 0x7CBCE, size: 0x8, addend: 0x0, symName: __ZNSt3__1eqB8ue170006ERKNS_21__tree_const_iteratorINS_12__value_typeINS_17basic_string_viewIcNS_11char_traitsIcEEEEN5memdb5lexer10SubCommandEEEPNS_11__tree_nodeIS9_PvEElEESG_, symObjAddr: 0x28AA5C, symBinAddr: 0x10028E7B0, symSize: 0x114 }
  - { offsetInCU: 0x7CC0B, offset: 0x7CC0B, size: 0x8, addend: 0x0, symName: __ZNSt3__14nextB8ue170006INS_21__tree_const_iteratorINS_12__value_typeINS_17basic_string_viewIcNS_11char_traitsIcEEEEN5memdb5lexer10SubCommandEEEPNS_11__tree_nodeISA_PvEElEEEENS_9enable_ifIXsr29__has_input_iterator_categoryIT_EE5valueESH_E4typeESH_NS_15iterator_traitsISH_E15difference_typeE, symObjAddr: 0x28C6EC, symBinAddr: 0x100290440, symSize: 0x288 }
  - { offsetInCU: 0x7CC53, offset: 0x7CC53, size: 0x8, addend: 0x0, symName: __ZNSt3__17launderB8ue170006IKNS_4pairIKNS_17basic_string_viewIcNS_11char_traitsIcEEEEN5memdb5lexer10SubCommandEEEEEPT_SD_, symObjAddr: 0x28D0A4, symBinAddr: 0x100290DF8, symSize: 0x24 }
  - { offsetInCU: 0x7CC8A, offset: 0x7CC8A, size: 0x8, addend: 0x0, symName: __ZNSt3__19__launderB8ue170006IKNS_4pairIKNS_17basic_string_viewIcNS_11char_traitsIcEEEEN5memdb5lexer10SubCommandEEEEEPT_SD_, symObjAddr: 0x28D0C8, symBinAddr: 0x100290E1C, symSize: 0x14 }
  - { offsetInCU: 0x7CCC1, offset: 0x7CCC1, size: 0x8, addend: 0x0, symName: __ZNSt3__19__advanceB8ue170006INS_21__tree_const_iteratorINS_12__value_typeINS_17basic_string_viewIcNS_11char_traitsIcEEEEN5memdb5lexer10SubCommandEEEPNS_11__tree_nodeISA_PvEElEEEEvRT_NS_15iterator_traitsISG_E15difference_typeENS_26bidirectional_iterator_tagE, symObjAddr: 0x28D394, symBinAddr: 0x1002910E8, symSize: 0x194 }
  - { offsetInCU: 0x7CD50, offset: 0x7CD50, size: 0x8, addend: 0x0, symName: __ZNSt3__112construct_atB8ue170006INS_4pairIKNS_17basic_string_viewIcNS_11char_traitsIcEEEEN5memdb5lexer10SubCommandEEEJRKSA_EPSA_EEPT_SF_DpOT0_, symObjAddr: 0x28E70C, symBinAddr: 0x100292460, symSize: 0xCC }
  - { offsetInCU: 0x7CDC2, offset: 0x7CDC2, size: 0x8, addend: 0x0, symName: __ZNSt3__17launderB8ue170006INS_4pairIKNS_17basic_string_viewIcNS_11char_traitsIcEEEEN5memdb5lexer10SubCommandEEEEEPT_SC_, symObjAddr: 0x28E88C, symBinAddr: 0x1002925E0, symSize: 0x24 }
  - { offsetInCU: 0x7CDF9, offset: 0x7CDF9, size: 0x8, addend: 0x0, symName: __ZNSt3__19__launderB8ue170006INS_4pairIKNS_17basic_string_viewIcNS_11char_traitsIcEEEEN5memdb5lexer10SubCommandEEEEEPT_SC_, symObjAddr: 0x28E8B0, symBinAddr: 0x100292604, symSize: 0x14 }
  - { offsetInCU: 0x7CE30, offset: 0x7CE30, size: 0x8, addend: 0x0, symName: __ZNSt3__110destroy_atB8ue170006INS_4pairIKNS_17basic_string_viewIcNS_11char_traitsIcEEEEN5memdb5lexer10SubCommandEEELi0EEEvPT_, symObjAddr: 0x28F6C4, symBinAddr: 0x100293418, symSize: 0x24 }
  - { offsetInCU: 0x7CE68, offset: 0x7CE68, size: 0x8, addend: 0x0, symName: __ZNSt3__112__destroy_atB8ue170006INS_4pairIKNS_17basic_string_viewIcNS_11char_traitsIcEEEEN5memdb5lexer10SubCommandEEELi0EEEvPT_, symObjAddr: 0x28F6E8, symBinAddr: 0x10029343C, symSize: 0x10 }
  - { offsetInCU: 0x7CE9F, offset: 0x7CE9F, size: 0x8, addend: 0x0, symName: __ZNSt3__1eqB8ue170006ERKNS_21__tree_const_iteratorINS_12__value_typeINS_17basic_string_viewIcNS_11char_traitsIcEEEEN5memdb5lexer9AttributeEEEPNS_11__tree_nodeIS9_PvEElEESG_, symObjAddr: 0x29675C, symBinAddr: 0x10029A4B0, symSize: 0x114 }
  - { offsetInCU: 0x7CEDC, offset: 0x7CEDC, size: 0x8, addend: 0x0, symName: __ZNSt3__14nextB8ue170006INS_21__tree_const_iteratorINS_12__value_typeINS_17basic_string_viewIcNS_11char_traitsIcEEEEN5memdb5lexer9AttributeEEEPNS_11__tree_nodeISA_PvEElEEEENS_9enable_ifIXsr29__has_input_iterator_categoryIT_EE5valueESH_E4typeESH_NS_15iterator_traitsISH_E15difference_typeE, symObjAddr: 0x2983EC, symBinAddr: 0x10029C140, symSize: 0x288 }
  - { offsetInCU: 0x7CF24, offset: 0x7CF24, size: 0x8, addend: 0x0, symName: __ZNSt3__17launderB8ue170006IKNS_4pairIKNS_17basic_string_viewIcNS_11char_traitsIcEEEEN5memdb5lexer9AttributeEEEEEPT_SD_, symObjAddr: 0x298DA4, symBinAddr: 0x10029CAF8, symSize: 0x24 }
  - { offsetInCU: 0x7CF5B, offset: 0x7CF5B, size: 0x8, addend: 0x0, symName: __ZNSt3__19__launderB8ue170006IKNS_4pairIKNS_17basic_string_viewIcNS_11char_traitsIcEEEEN5memdb5lexer9AttributeEEEEEPT_SD_, symObjAddr: 0x298DC8, symBinAddr: 0x10029CB1C, symSize: 0x14 }
  - { offsetInCU: 0x7CF92, offset: 0x7CF92, size: 0x8, addend: 0x0, symName: __ZNSt3__19__advanceB8ue170006INS_21__tree_const_iteratorINS_12__value_typeINS_17basic_string_viewIcNS_11char_traitsIcEEEEN5memdb5lexer9AttributeEEEPNS_11__tree_nodeISA_PvEElEEEEvRT_NS_15iterator_traitsISG_E15difference_typeENS_26bidirectional_iterator_tagE, symObjAddr: 0x299094, symBinAddr: 0x10029CDE8, symSize: 0x194 }
  - { offsetInCU: 0x7D021, offset: 0x7D021, size: 0x8, addend: 0x0, symName: __ZNSt3__112construct_atB8ue170006INS_4pairIKNS_17basic_string_viewIcNS_11char_traitsIcEEEEN5memdb5lexer9AttributeEEEJRKSA_EPSA_EEPT_SF_DpOT0_, symObjAddr: 0x29A40C, symBinAddr: 0x10029E160, symSize: 0xCC }
  - { offsetInCU: 0x7D093, offset: 0x7D093, size: 0x8, addend: 0x0, symName: __ZNSt3__17launderB8ue170006INS_4pairIKNS_17basic_string_viewIcNS_11char_traitsIcEEEEN5memdb5lexer9AttributeEEEEEPT_SC_, symObjAddr: 0x29A58C, symBinAddr: 0x10029E2E0, symSize: 0x24 }
  - { offsetInCU: 0x7D0CA, offset: 0x7D0CA, size: 0x8, addend: 0x0, symName: __ZNSt3__19__launderB8ue170006INS_4pairIKNS_17basic_string_viewIcNS_11char_traitsIcEEEEN5memdb5lexer9AttributeEEEEEPT_SC_, symObjAddr: 0x29A5B0, symBinAddr: 0x10029E304, symSize: 0x14 }
  - { offsetInCU: 0x7D101, offset: 0x7D101, size: 0x8, addend: 0x0, symName: __ZNSt3__110destroy_atB8ue170006INS_4pairIKNS_17basic_string_viewIcNS_11char_traitsIcEEEEN5memdb5lexer9AttributeEEELi0EEEvPT_, symObjAddr: 0x29B3C4, symBinAddr: 0x10029F118, symSize: 0x24 }
  - { offsetInCU: 0x7D139, offset: 0x7D139, size: 0x8, addend: 0x0, symName: __ZNSt3__112__destroy_atB8ue170006INS_4pairIKNS_17basic_string_viewIcNS_11char_traitsIcEEEEN5memdb5lexer9AttributeEEELi0EEEvPT_, symObjAddr: 0x29B3E8, symBinAddr: 0x10029F13C, symSize: 0x10 }
  - { offsetInCU: 0x7D170, offset: 0x7D170, size: 0x8, addend: 0x0, symName: __ZNSt3__1eqB8ue170006ERKNS_21__tree_const_iteratorINS_12__value_typeINS_17basic_string_viewIcNS_11char_traitsIcEEEEN5memdb9OperationEEEPNS_11__tree_nodeIS8_PvEElEESF_, symObjAddr: 0x2A245C, symBinAddr: 0x1002A61B0, symSize: 0x114 }
  - { offsetInCU: 0x7D1AD, offset: 0x7D1AD, size: 0x8, addend: 0x0, symName: __ZNSt3__14nextB8ue170006INS_21__tree_const_iteratorINS_12__value_typeINS_17basic_string_viewIcNS_11char_traitsIcEEEEN5memdb9OperationEEEPNS_11__tree_nodeIS9_PvEElEEEENS_9enable_ifIXsr29__has_input_iterator_categoryIT_EE5valueESG_E4typeESG_NS_15iterator_traitsISG_E15difference_typeE, symObjAddr: 0x2A40EC, symBinAddr: 0x1002A7E40, symSize: 0x288 }
  - { offsetInCU: 0x7D1F5, offset: 0x7D1F5, size: 0x8, addend: 0x0, symName: __ZNSt3__17launderB8ue170006IKNS_4pairIKNS_17basic_string_viewIcNS_11char_traitsIcEEEEN5memdb9OperationEEEEEPT_SC_, symObjAddr: 0x2A4AA4, symBinAddr: 0x1002A87F8, symSize: 0x24 }
  - { offsetInCU: 0x7D22C, offset: 0x7D22C, size: 0x8, addend: 0x0, symName: __ZNSt3__19__launderB8ue170006IKNS_4pairIKNS_17basic_string_viewIcNS_11char_traitsIcEEEEN5memdb9OperationEEEEEPT_SC_, symObjAddr: 0x2A4AC8, symBinAddr: 0x1002A881C, symSize: 0x14 }
  - { offsetInCU: 0x7D263, offset: 0x7D263, size: 0x8, addend: 0x0, symName: __ZNSt3__19__advanceB8ue170006INS_21__tree_const_iteratorINS_12__value_typeINS_17basic_string_viewIcNS_11char_traitsIcEEEEN5memdb9OperationEEEPNS_11__tree_nodeIS9_PvEElEEEEvRT_NS_15iterator_traitsISF_E15difference_typeENS_26bidirectional_iterator_tagE, symObjAddr: 0x2A4D94, symBinAddr: 0x1002A8AE8, symSize: 0x194 }
  - { offsetInCU: 0x7D2F2, offset: 0x7D2F2, size: 0x8, addend: 0x0, symName: __ZNSt3__112construct_atB8ue170006INS_4pairIKNS_17basic_string_viewIcNS_11char_traitsIcEEEEN5memdb9OperationEEEJRKS9_EPS9_EEPT_SE_DpOT0_, symObjAddr: 0x2A610C, symBinAddr: 0x1002A9E60, symSize: 0xCC }
  - { offsetInCU: 0x7D364, offset: 0x7D364, size: 0x8, addend: 0x0, symName: __ZNSt3__17launderB8ue170006INS_4pairIKNS_17basic_string_viewIcNS_11char_traitsIcEEEEN5memdb9OperationEEEEEPT_SB_, symObjAddr: 0x2A628C, symBinAddr: 0x1002A9FE0, symSize: 0x24 }
  - { offsetInCU: 0x7D39B, offset: 0x7D39B, size: 0x8, addend: 0x0, symName: __ZNSt3__19__launderB8ue170006INS_4pairIKNS_17basic_string_viewIcNS_11char_traitsIcEEEEN5memdb9OperationEEEEEPT_SB_, symObjAddr: 0x2A62B0, symBinAddr: 0x1002AA004, symSize: 0x14 }
  - { offsetInCU: 0x7D3D2, offset: 0x7D3D2, size: 0x8, addend: 0x0, symName: __ZNSt3__110destroy_atB8ue170006INS_4pairIKNS_17basic_string_viewIcNS_11char_traitsIcEEEEN5memdb9OperationEEELi0EEEvPT_, symObjAddr: 0x2A70C4, symBinAddr: 0x1002AAE18, symSize: 0x24 }
  - { offsetInCU: 0x7D40A, offset: 0x7D40A, size: 0x8, addend: 0x0, symName: __ZNSt3__112__destroy_atB8ue170006INS_4pairIKNS_17basic_string_viewIcNS_11char_traitsIcEEEEN5memdb9OperationEEELi0EEEvPT_, symObjAddr: 0x2A70E8, symBinAddr: 0x1002AAE3C, symSize: 0x10 }
  - { offsetInCU: 0x7D441, offset: 0x7D441, size: 0x8, addend: 0x0, symName: __ZNSt3__1eqB8ue170006ERKNS_21__tree_const_iteratorINS_12__value_typeINS_17basic_string_viewIcNS_11char_traitsIcEEEEN5memdb5lexer7BracketEEEPNS_11__tree_nodeIS9_PvEElEESG_, symObjAddr: 0x2AE15C, symBinAddr: 0x1002B1EB0, symSize: 0x114 }
  - { offsetInCU: 0x7D47E, offset: 0x7D47E, size: 0x8, addend: 0x0, symName: __ZNSt3__14nextB8ue170006INS_21__tree_const_iteratorINS_12__value_typeINS_17basic_string_viewIcNS_11char_traitsIcEEEEN5memdb5lexer7BracketEEEPNS_11__tree_nodeISA_PvEElEEEENS_9enable_ifIXsr29__has_input_iterator_categoryIT_EE5valueESH_E4typeESH_NS_15iterator_traitsISH_E15difference_typeE, symObjAddr: 0x2AFDEC, symBinAddr: 0x1002B3B40, symSize: 0x288 }
  - { offsetInCU: 0x7D4C6, offset: 0x7D4C6, size: 0x8, addend: 0x0, symName: __ZNSt3__17launderB8ue170006IKNS_4pairIKNS_17basic_string_viewIcNS_11char_traitsIcEEEEN5memdb5lexer7BracketEEEEEPT_SD_, symObjAddr: 0x2B07A4, symBinAddr: 0x1002B44F8, symSize: 0x24 }
  - { offsetInCU: 0x7D4FD, offset: 0x7D4FD, size: 0x8, addend: 0x0, symName: __ZNSt3__19__launderB8ue170006IKNS_4pairIKNS_17basic_string_viewIcNS_11char_traitsIcEEEEN5memdb5lexer7BracketEEEEEPT_SD_, symObjAddr: 0x2B07C8, symBinAddr: 0x1002B451C, symSize: 0x14 }
  - { offsetInCU: 0x7D534, offset: 0x7D534, size: 0x8, addend: 0x0, symName: __ZNSt3__19__advanceB8ue170006INS_21__tree_const_iteratorINS_12__value_typeINS_17basic_string_viewIcNS_11char_traitsIcEEEEN5memdb5lexer7BracketEEEPNS_11__tree_nodeISA_PvEElEEEEvRT_NS_15iterator_traitsISG_E15difference_typeENS_26bidirectional_iterator_tagE, symObjAddr: 0x2B0A94, symBinAddr: 0x1002B47E8, symSize: 0x194 }
  - { offsetInCU: 0x7D5C3, offset: 0x7D5C3, size: 0x8, addend: 0x0, symName: __ZNSt3__112construct_atB8ue170006INS_4pairIKNS_17basic_string_viewIcNS_11char_traitsIcEEEEN5memdb5lexer7BracketEEEJRKSA_EPSA_EEPT_SF_DpOT0_, symObjAddr: 0x2B1E0C, symBinAddr: 0x1002B5B60, symSize: 0xCC }
  - { offsetInCU: 0x7D635, offset: 0x7D635, size: 0x8, addend: 0x0, symName: __ZNSt3__17launderB8ue170006INS_4pairIKNS_17basic_string_viewIcNS_11char_traitsIcEEEEN5memdb5lexer7BracketEEEEEPT_SC_, symObjAddr: 0x2B1F8C, symBinAddr: 0x1002B5CE0, symSize: 0x24 }
  - { offsetInCU: 0x7D66C, offset: 0x7D66C, size: 0x8, addend: 0x0, symName: __ZNSt3__19__launderB8ue170006INS_4pairIKNS_17basic_string_viewIcNS_11char_traitsIcEEEEN5memdb5lexer7BracketEEEEEPT_SC_, symObjAddr: 0x2B1FB0, symBinAddr: 0x1002B5D04, symSize: 0x14 }
  - { offsetInCU: 0x7D6A3, offset: 0x7D6A3, size: 0x8, addend: 0x0, symName: __ZNSt3__110destroy_atB8ue170006INS_4pairIKNS_17basic_string_viewIcNS_11char_traitsIcEEEEN5memdb5lexer7BracketEEELi0EEEvPT_, symObjAddr: 0x2B2DC4, symBinAddr: 0x1002B6B18, symSize: 0x24 }
  - { offsetInCU: 0x7D6DB, offset: 0x7D6DB, size: 0x8, addend: 0x0, symName: __ZNSt3__112__destroy_atB8ue170006INS_4pairIKNS_17basic_string_viewIcNS_11char_traitsIcEEEEN5memdb5lexer7BracketEEELi0EEEvPT_, symObjAddr: 0x2B2DE8, symBinAddr: 0x1002B6B3C, symSize: 0x10 }
  - { offsetInCU: 0x7D712, offset: 0x7D712, size: 0x8, addend: 0x0, symName: __ZNSt3__1eqB8ue170006ERKNS_21__tree_const_iteratorINS_12__value_typeINS_17basic_string_viewIcNS_11char_traitsIcEEEEN5memdb4TypeEEEPNS_11__tree_nodeIS8_PvEElEESF_, symObjAddr: 0x2B9E5C, symBinAddr: 0x1002BDBB0, symSize: 0x114 }
  - { offsetInCU: 0x7D74F, offset: 0x7D74F, size: 0x8, addend: 0x0, symName: __ZNSt3__14nextB8ue170006INS_21__tree_const_iteratorINS_12__value_typeINS_17basic_string_viewIcNS_11char_traitsIcEEEEN5memdb4TypeEEEPNS_11__tree_nodeIS9_PvEElEEEENS_9enable_ifIXsr29__has_input_iterator_categoryIT_EE5valueESG_E4typeESG_NS_15iterator_traitsISG_E15difference_typeE, symObjAddr: 0x2BBAEC, symBinAddr: 0x1002BF840, symSize: 0x288 }
  - { offsetInCU: 0x7D797, offset: 0x7D797, size: 0x8, addend: 0x0, symName: __ZNSt3__17launderB8ue170006IKNS_4pairIKNS_17basic_string_viewIcNS_11char_traitsIcEEEEN5memdb4TypeEEEEEPT_SC_, symObjAddr: 0x2BC4A4, symBinAddr: 0x1002C01F8, symSize: 0x24 }
  - { offsetInCU: 0x7D7CE, offset: 0x7D7CE, size: 0x8, addend: 0x0, symName: __ZNSt3__19__launderB8ue170006IKNS_4pairIKNS_17basic_string_viewIcNS_11char_traitsIcEEEEN5memdb4TypeEEEEEPT_SC_, symObjAddr: 0x2BC4C8, symBinAddr: 0x1002C021C, symSize: 0x14 }
  - { offsetInCU: 0x7D805, offset: 0x7D805, size: 0x8, addend: 0x0, symName: __ZNSt3__19__advanceB8ue170006INS_21__tree_const_iteratorINS_12__value_typeINS_17basic_string_viewIcNS_11char_traitsIcEEEEN5memdb4TypeEEEPNS_11__tree_nodeIS9_PvEElEEEEvRT_NS_15iterator_traitsISF_E15difference_typeENS_26bidirectional_iterator_tagE, symObjAddr: 0x2BC794, symBinAddr: 0x1002C04E8, symSize: 0x194 }
  - { offsetInCU: 0x7D894, offset: 0x7D894, size: 0x8, addend: 0x0, symName: __ZNSt3__112construct_atB8ue170006INS_4pairIKNS_17basic_string_viewIcNS_11char_traitsIcEEEEN5memdb4TypeEEEJRKS9_EPS9_EEPT_SE_DpOT0_, symObjAddr: 0x2BDB0C, symBinAddr: 0x1002C1860, symSize: 0xCC }
  - { offsetInCU: 0x7D906, offset: 0x7D906, size: 0x8, addend: 0x0, symName: __ZNSt3__17launderB8ue170006INS_4pairIKNS_17basic_string_viewIcNS_11char_traitsIcEEEEN5memdb4TypeEEEEEPT_SB_, symObjAddr: 0x2BDC8C, symBinAddr: 0x1002C19E0, symSize: 0x24 }
  - { offsetInCU: 0x7D93D, offset: 0x7D93D, size: 0x8, addend: 0x0, symName: __ZNSt3__19__launderB8ue170006INS_4pairIKNS_17basic_string_viewIcNS_11char_traitsIcEEEEN5memdb4TypeEEEEEPT_SB_, symObjAddr: 0x2BDCB0, symBinAddr: 0x1002C1A04, symSize: 0x14 }
  - { offsetInCU: 0x7D974, offset: 0x7D974, size: 0x8, addend: 0x0, symName: __ZNSt3__110destroy_atB8ue170006INS_4pairIKNS_17basic_string_viewIcNS_11char_traitsIcEEEEN5memdb4TypeEEELi0EEEvPT_, symObjAddr: 0x2BEAC4, symBinAddr: 0x1002C2818, symSize: 0x24 }
  - { offsetInCU: 0x7D9AC, offset: 0x7D9AC, size: 0x8, addend: 0x0, symName: __ZNSt3__112__destroy_atB8ue170006INS_4pairIKNS_17basic_string_viewIcNS_11char_traitsIcEEEEN5memdb4TypeEEELi0EEEvPT_, symObjAddr: 0x2BEAE8, symBinAddr: 0x1002C283C, symSize: 0x10 }
  - { offsetInCU: 0x7D9E3, offset: 0x7D9E3, size: 0x8, addend: 0x0, symName: __ZNSt3__1eqB8ue170006ERKNS_21__tree_const_iteratorINS_12__value_typeINS_17basic_string_viewIcNS_11char_traitsIcEEEEN5memdb5lexer5OtherEEEPNS_11__tree_nodeIS9_PvEElEESG_, symObjAddr: 0x2C5B5C, symBinAddr: 0x1002C98B0, symSize: 0x114 }
  - { offsetInCU: 0x7DA20, offset: 0x7DA20, size: 0x8, addend: 0x0, symName: __ZNSt3__14nextB8ue170006INS_21__tree_const_iteratorINS_12__value_typeINS_17basic_string_viewIcNS_11char_traitsIcEEEEN5memdb5lexer5OtherEEEPNS_11__tree_nodeISA_PvEElEEEENS_9enable_ifIXsr29__has_input_iterator_categoryIT_EE5valueESH_E4typeESH_NS_15iterator_traitsISH_E15difference_typeE, symObjAddr: 0x2C77EC, symBinAddr: 0x1002CB540, symSize: 0x288 }
  - { offsetInCU: 0x7DA68, offset: 0x7DA68, size: 0x8, addend: 0x0, symName: __ZNSt3__17launderB8ue170006IKNS_4pairIKNS_17basic_string_viewIcNS_11char_traitsIcEEEEN5memdb5lexer5OtherEEEEEPT_SD_, symObjAddr: 0x2C81A4, symBinAddr: 0x1002CBEF8, symSize: 0x24 }
  - { offsetInCU: 0x7DA9F, offset: 0x7DA9F, size: 0x8, addend: 0x0, symName: __ZNSt3__19__launderB8ue170006IKNS_4pairIKNS_17basic_string_viewIcNS_11char_traitsIcEEEEN5memdb5lexer5OtherEEEEEPT_SD_, symObjAddr: 0x2C81C8, symBinAddr: 0x1002CBF1C, symSize: 0x14 }
  - { offsetInCU: 0x7DAD6, offset: 0x7DAD6, size: 0x8, addend: 0x0, symName: __ZNSt3__19__advanceB8ue170006INS_21__tree_const_iteratorINS_12__value_typeINS_17basic_string_viewIcNS_11char_traitsIcEEEEN5memdb5lexer5OtherEEEPNS_11__tree_nodeISA_PvEElEEEEvRT_NS_15iterator_traitsISG_E15difference_typeENS_26bidirectional_iterator_tagE, symObjAddr: 0x2C8494, symBinAddr: 0x1002CC1E8, symSize: 0x194 }
  - { offsetInCU: 0x7DB65, offset: 0x7DB65, size: 0x8, addend: 0x0, symName: __ZNSt3__112construct_atB8ue170006INS_4pairIKNS_17basic_string_viewIcNS_11char_traitsIcEEEEN5memdb5lexer5OtherEEEJRKSA_EPSA_EEPT_SF_DpOT0_, symObjAddr: 0x2C980C, symBinAddr: 0x1002CD560, symSize: 0xCC }
  - { offsetInCU: 0x7DBD7, offset: 0x7DBD7, size: 0x8, addend: 0x0, symName: __ZNSt3__17launderB8ue170006INS_4pairIKNS_17basic_string_viewIcNS_11char_traitsIcEEEEN5memdb5lexer5OtherEEEEEPT_SC_, symObjAddr: 0x2C998C, symBinAddr: 0x1002CD6E0, symSize: 0x24 }
  - { offsetInCU: 0x7DC0E, offset: 0x7DC0E, size: 0x8, addend: 0x0, symName: __ZNSt3__19__launderB8ue170006INS_4pairIKNS_17basic_string_viewIcNS_11char_traitsIcEEEEN5memdb5lexer5OtherEEEEEPT_SC_, symObjAddr: 0x2C99B0, symBinAddr: 0x1002CD704, symSize: 0x14 }
  - { offsetInCU: 0x7DC45, offset: 0x7DC45, size: 0x8, addend: 0x0, symName: __ZNSt3__110destroy_atB8ue170006INS_4pairIKNS_17basic_string_viewIcNS_11char_traitsIcEEEEN5memdb5lexer5OtherEEELi0EEEvPT_, symObjAddr: 0x2CA7C4, symBinAddr: 0x1002CE518, symSize: 0x24 }
  - { offsetInCU: 0x7DC7D, offset: 0x7DC7D, size: 0x8, addend: 0x0, symName: __ZNSt3__112__destroy_atB8ue170006INS_4pairIKNS_17basic_string_viewIcNS_11char_traitsIcEEEEN5memdb5lexer5OtherEEELi0EEEvPT_, symObjAddr: 0x2CA7E8, symBinAddr: 0x1002CE53C, symSize: 0x10 }
  - { offsetInCU: 0x7DCB4, offset: 0x7DCB4, size: 0x8, addend: 0x0, symName: __ZNSt3__1neB8ue170006ERKNS_15__tree_iteratorINS_12__value_typeINS_17basic_string_viewIcNS_11char_traitsIcEEEEN5memdb5lexer7CommandEEEPNS_11__tree_nodeIS9_PvEElEESG_, symObjAddr: 0x2CC10C, symBinAddr: 0x1002CFE60, symSize: 0xC4 }
  - { offsetInCU: 0x7DCF1, offset: 0x7DCF1, size: 0x8, addend: 0x0, symName: __ZNSt3__1eqB8ue170006ERKNS_15__tree_iteratorINS_12__value_typeINS_17basic_string_viewIcNS_11char_traitsIcEEEEN5memdb5lexer7CommandEEEPNS_11__tree_nodeIS9_PvEElEESG_, symObjAddr: 0x2CC2D0, symBinAddr: 0x1002D0024, symSize: 0x114 }
  - { offsetInCU: 0x7DD2E, offset: 0x7DD2E, size: 0x8, addend: 0x0, symName: __ZNSt3__112construct_atB8ue170006INS_4pairIKNS_17basic_string_viewIcNS_11char_traitsIcEEEEN5memdb5lexer7CommandEEEJRKNS_21piecewise_construct_tENS_5tupleIJOS5_EEENSE_IJEEEEPSA_EEPT_SK_DpOT0_, symObjAddr: 0x2CD518, symBinAddr: 0x1002D126C, symSize: 0x2A8 }
  - { offsetInCU: 0x7DDFE, offset: 0x7DDFE, size: 0x8, addend: 0x0, symName: __ZNSt3__1neB8ue170006ERKNS_15__tree_iteratorINS_12__value_typeINS_17basic_string_viewIcNS_11char_traitsIcEEEEN5memdb5lexer10SubCommandEEEPNS_11__tree_nodeIS9_PvEElEESG_, symObjAddr: 0x2CE7D8, symBinAddr: 0x1002D252C, symSize: 0xC4 }
  - { offsetInCU: 0x7DE3B, offset: 0x7DE3B, size: 0x8, addend: 0x0, symName: __ZNSt3__1eqB8ue170006ERKNS_15__tree_iteratorINS_12__value_typeINS_17basic_string_viewIcNS_11char_traitsIcEEEEN5memdb5lexer10SubCommandEEEPNS_11__tree_nodeIS9_PvEElEESG_, symObjAddr: 0x2CE99C, symBinAddr: 0x1002D26F0, symSize: 0x114 }
  - { offsetInCU: 0x7DE78, offset: 0x7DE78, size: 0x8, addend: 0x0, symName: __ZNSt3__112construct_atB8ue170006INS_4pairIKNS_17basic_string_viewIcNS_11char_traitsIcEEEEN5memdb5lexer10SubCommandEEEJRKNS_21piecewise_construct_tENS_5tupleIJOS5_EEENSE_IJEEEEPSA_EEPT_SK_DpOT0_, symObjAddr: 0x2CFBE4, symBinAddr: 0x1002D3938, symSize: 0x2A8 }
  - { offsetInCU: 0x7DF48, offset: 0x7DF48, size: 0x8, addend: 0x0, symName: __ZNSt3__1neB8ue170006ERKNS_15__tree_iteratorINS_12__value_typeINS_17basic_string_viewIcNS_11char_traitsIcEEEEN5memdb5lexer9AttributeEEEPNS_11__tree_nodeIS9_PvEElEESG_, symObjAddr: 0x2D0EA4, symBinAddr: 0x1002D4BF8, symSize: 0xC4 }
  - { offsetInCU: 0x7DF85, offset: 0x7DF85, size: 0x8, addend: 0x0, symName: __ZNSt3__1eqB8ue170006ERKNS_15__tree_iteratorINS_12__value_typeINS_17basic_string_viewIcNS_11char_traitsIcEEEEN5memdb5lexer9AttributeEEEPNS_11__tree_nodeIS9_PvEElEESG_, symObjAddr: 0x2D1068, symBinAddr: 0x1002D4DBC, symSize: 0x114 }
  - { offsetInCU: 0x7DFC2, offset: 0x7DFC2, size: 0x8, addend: 0x0, symName: __ZNSt3__112construct_atB8ue170006INS_4pairIKNS_17basic_string_viewIcNS_11char_traitsIcEEEEN5memdb5lexer9AttributeEEEJRKNS_21piecewise_construct_tENS_5tupleIJOS5_EEENSE_IJEEEEPSA_EEPT_SK_DpOT0_, symObjAddr: 0x2D22B0, symBinAddr: 0x1002D6004, symSize: 0x2A8 }
  - { offsetInCU: 0x7E092, offset: 0x7E092, size: 0x8, addend: 0x0, symName: __ZNSt3__1neB8ue170006ERKNS_15__tree_iteratorINS_12__value_typeINS_17basic_string_viewIcNS_11char_traitsIcEEEEN5memdb9OperationEEEPNS_11__tree_nodeIS8_PvEElEESF_, symObjAddr: 0x2D3570, symBinAddr: 0x1002D72C4, symSize: 0xC4 }
  - { offsetInCU: 0x7E0CF, offset: 0x7E0CF, size: 0x8, addend: 0x0, symName: __ZNSt3__1eqB8ue170006ERKNS_15__tree_iteratorINS_12__value_typeINS_17basic_string_viewIcNS_11char_traitsIcEEEEN5memdb9OperationEEEPNS_11__tree_nodeIS8_PvEElEESF_, symObjAddr: 0x2D3734, symBinAddr: 0x1002D7488, symSize: 0x114 }
  - { offsetInCU: 0x7E10C, offset: 0x7E10C, size: 0x8, addend: 0x0, symName: __ZNSt3__112construct_atB8ue170006INS_4pairIKNS_17basic_string_viewIcNS_11char_traitsIcEEEEN5memdb9OperationEEEJRKNS_21piecewise_construct_tENS_5tupleIJOS5_EEENSD_IJEEEEPS9_EEPT_SJ_DpOT0_, symObjAddr: 0x2D497C, symBinAddr: 0x1002D86D0, symSize: 0x2A8 }
  - { offsetInCU: 0x7E1DC, offset: 0x7E1DC, size: 0x8, addend: 0x0, symName: __ZNSt3__1neB8ue170006ERKNS_15__tree_iteratorINS_12__value_typeINS_17basic_string_viewIcNS_11char_traitsIcEEEEN5memdb5lexer5OtherEEEPNS_11__tree_nodeIS9_PvEElEESG_, symObjAddr: 0x2D5C3C, symBinAddr: 0x1002D9990, symSize: 0xC4 }
  - { offsetInCU: 0x7E219, offset: 0x7E219, size: 0x8, addend: 0x0, symName: __ZNSt3__1eqB8ue170006ERKNS_15__tree_iteratorINS_12__value_typeINS_17basic_string_viewIcNS_11char_traitsIcEEEEN5memdb5lexer5OtherEEEPNS_11__tree_nodeIS9_PvEElEESG_, symObjAddr: 0x2D5E00, symBinAddr: 0x1002D9B54, symSize: 0x114 }
  - { offsetInCU: 0x7E256, offset: 0x7E256, size: 0x8, addend: 0x0, symName: __ZNSt3__112construct_atB8ue170006INS_4pairIKNS_17basic_string_viewIcNS_11char_traitsIcEEEEN5memdb5lexer5OtherEEEJRKNS_21piecewise_construct_tENS_5tupleIJOS5_EEENSE_IJEEEEPSA_EEPT_SK_DpOT0_, symObjAddr: 0x2D7048, symBinAddr: 0x1002DAD9C, symSize: 0x2A8 }
  - { offsetInCU: 0x7E326, offset: 0x7E326, size: 0x8, addend: 0x0, symName: __ZNSt3__1neB8ue170006ERKNS_15__tree_iteratorINS_12__value_typeINS_17basic_string_viewIcNS_11char_traitsIcEEEEN5memdb5lexer7BracketEEEPNS_11__tree_nodeIS9_PvEElEESG_, symObjAddr: 0x2D8308, symBinAddr: 0x1002DC05C, symSize: 0xC4 }
  - { offsetInCU: 0x7E363, offset: 0x7E363, size: 0x8, addend: 0x0, symName: __ZNSt3__1eqB8ue170006ERKNS_15__tree_iteratorINS_12__value_typeINS_17basic_string_viewIcNS_11char_traitsIcEEEEN5memdb5lexer7BracketEEEPNS_11__tree_nodeIS9_PvEElEESG_, symObjAddr: 0x2D84CC, symBinAddr: 0x1002DC220, symSize: 0x114 }
  - { offsetInCU: 0x7E3A0, offset: 0x7E3A0, size: 0x8, addend: 0x0, symName: __ZNSt3__112construct_atB8ue170006INS_4pairIKNS_17basic_string_viewIcNS_11char_traitsIcEEEEN5memdb5lexer7BracketEEEJRKNS_21piecewise_construct_tENS_5tupleIJOS5_EEENSE_IJEEEEPSA_EEPT_SK_DpOT0_, symObjAddr: 0x2D9714, symBinAddr: 0x1002DD468, symSize: 0x2A8 }
  - { offsetInCU: 0x7E470, offset: 0x7E470, size: 0x8, addend: 0x0, symName: __ZNSt3__1neB8ue170006ERKNS_15__tree_iteratorINS_12__value_typeINS_17basic_string_viewIcNS_11char_traitsIcEEEEN5memdb4TypeEEEPNS_11__tree_nodeIS8_PvEElEESF_, symObjAddr: 0x2DA9D4, symBinAddr: 0x1002DE728, symSize: 0xC4 }
  - { offsetInCU: 0x7E4AD, offset: 0x7E4AD, size: 0x8, addend: 0x0, symName: __ZNSt3__1eqB8ue170006ERKNS_15__tree_iteratorINS_12__value_typeINS_17basic_string_viewIcNS_11char_traitsIcEEEEN5memdb4TypeEEEPNS_11__tree_nodeIS8_PvEElEESF_, symObjAddr: 0x2DAB98, symBinAddr: 0x1002DE8EC, symSize: 0x114 }
  - { offsetInCU: 0x7E4EA, offset: 0x7E4EA, size: 0x8, addend: 0x0, symName: __ZNSt3__112construct_atB8ue170006INS_4pairIKNS_17basic_string_viewIcNS_11char_traitsIcEEEEN5memdb4TypeEEEJRKNS_21piecewise_construct_tENS_5tupleIJOS5_EEENSD_IJEEEEPS9_EEPT_SJ_DpOT0_, symObjAddr: 0x2DBDE0, symBinAddr: 0x1002DFB34, symSize: 0x2A8 }
  - { offsetInCU: 0x7E5BA, offset: 0x7E5BA, size: 0x8, addend: 0x0, symName: __ZNSt3__1eqB8ue170006ERKNS_14__map_iteratorINS_15__tree_iteratorINS_12__value_typeIN5memdb5lexer7CommandElEEPNS_11__tree_nodeIS6_PvEElEEEESE_, symObjAddr: 0x2DD0E4, symBinAddr: 0x1002E0E38, symSize: 0xC0 }
  - { offsetInCU: 0x7E5F7, offset: 0x7E5F7, size: 0x8, addend: 0x0, symName: __ZNSt3__1eqB8ue170006ERKNS_15__tree_iteratorINS_12__value_typeIN5memdb5lexer7CommandElEEPNS_11__tree_nodeIS5_PvEElEESC_, symObjAddr: 0x2DD874, symBinAddr: 0x1002E15C8, symSize: 0x114 }
  - { offsetInCU: 0x7E634, offset: 0x7E634, size: 0x8, addend: 0x0, symName: __ZNSt3__1neB8ue170006ERKNS_15__tree_iteratorINS_12__value_typeIN5memdb5lexer7CommandElEEPNS_11__tree_nodeIS5_PvEElEESC_, symObjAddr: 0x2DE7A4, symBinAddr: 0x1002E24F8, symSize: 0xC4 }
  - { offsetInCU: 0x846DD, offset: 0x846DD, size: 0x8, addend: 0x0, symName: __ZSt28__throw_bad_array_new_lengthB8ue170006v, symObjAddr: 0x1E70C, symBinAddr: 0x100022460, symSize: 0x7C }
  - { offsetInCU: 0x84904, offset: 0x84904, size: 0x8, addend: 0x0, symName: _.str, symObjAddr: 0x38D6A0, symBinAddr: 0x100392FA0, symSize: 0x0 }
  - { offsetInCU: 0x8493A, offset: 0x8493A, size: 0x8, addend: 0x0, symName: _.str.2, symObjAddr: 0x38D6C0, symBinAddr: 0x100392FC0, symSize: 0x0 }
  - { offsetInCU: 0x8494C, offset: 0x8494C, size: 0x8, addend: 0x0, symName: _.str.3, symObjAddr: 0x38D6E0, symBinAddr: 0x100392FE0, symSize: 0x0 }
  - { offsetInCU: 0x8495E, offset: 0x8495E, size: 0x8, addend: 0x0, symName: _.str.4, symObjAddr: 0x38D700, symBinAddr: 0x100393000, symSize: 0x0 }
  - { offsetInCU: 0x84970, offset: 0x84970, size: 0x8, addend: 0x0, symName: _.str.5, symObjAddr: 0x38D720, symBinAddr: 0x100393020, symSize: 0x0 }
  - { offsetInCU: 0x84982, offset: 0x84982, size: 0x8, addend: 0x0, symName: _.str.6, symObjAddr: 0x38D740, symBinAddr: 0x100393040, symSize: 0x0 }
  - { offsetInCU: 0x84FCE, offset: 0x84FCE, size: 0x8, addend: 0x0, symName: _.str.8, symObjAddr: 0x38D760, symBinAddr: 0x100393060, symSize: 0x0 }
  - { offsetInCU: 0x84FEE, offset: 0x84FEE, size: 0x8, addend: 0x0, symName: _.str.9, symObjAddr: 0x38D780, symBinAddr: 0x100393080, symSize: 0x0 }
  - { offsetInCU: 0x8500E, offset: 0x8500E, size: 0x8, addend: 0x0, symName: _.str.10, symObjAddr: 0x38D7A0, symBinAddr: 0x1003930A0, symSize: 0x0 }
  - { offsetInCU: 0x8502E, offset: 0x8502E, size: 0x8, addend: 0x0, symName: _.str.11, symObjAddr: 0x38D7C0, symBinAddr: 0x1003930C0, symSize: 0x0 }
  - { offsetInCU: 0x85040, offset: 0x85040, size: 0x8, addend: 0x0, symName: _.str.12, symObjAddr: 0x38D7E0, symBinAddr: 0x1003930E0, symSize: 0x0 }
  - { offsetInCU: 0x85052, offset: 0x85052, size: 0x8, addend: 0x0, symName: _.str.13, symObjAddr: 0x38D800, symBinAddr: 0x100393100, symSize: 0x0 }
  - { offsetInCU: 0x85064, offset: 0x85064, size: 0x8, addend: 0x0, symName: _.str.14, symObjAddr: 0x38D820, symBinAddr: 0x100393120, symSize: 0x0 }
  - { offsetInCU: 0x8555C, offset: 0x8555C, size: 0x8, addend: 0x0, symName: _.str.16, symObjAddr: 0x38D840, symBinAddr: 0x100393140, symSize: 0x0 }
  - { offsetInCU: 0x8556E, offset: 0x8556E, size: 0x8, addend: 0x0, symName: _.str.17, symObjAddr: 0x38D860, symBinAddr: 0x100393160, symSize: 0x0 }
  - { offsetInCU: 0x8558E, offset: 0x8558E, size: 0x8, addend: 0x0, symName: _.str.18, symObjAddr: 0x38D880, symBinAddr: 0x100393180, symSize: 0x0 }
  - { offsetInCU: 0x855A0, offset: 0x855A0, size: 0x8, addend: 0x0, symName: _.str.19, symObjAddr: 0x38D8A0, symBinAddr: 0x1003931A0, symSize: 0x0 }
  - { offsetInCU: 0x855C0, offset: 0x855C0, size: 0x8, addend: 0x0, symName: _.str.20, symObjAddr: 0x38D8C0, symBinAddr: 0x1003931C0, symSize: 0x0 }
  - { offsetInCU: 0x85AC6, offset: 0x85AC6, size: 0x8, addend: 0x0, symName: _.str.22, symObjAddr: 0x38D8E0, symBinAddr: 0x1003931E0, symSize: 0x0 }
  - { offsetInCU: 0x85AE6, offset: 0x85AE6, size: 0x8, addend: 0x0, symName: _.str.23, symObjAddr: 0x38D900, symBinAddr: 0x100393200, symSize: 0x0 }
  - { offsetInCU: 0x85AF8, offset: 0x85AF8, size: 0x8, addend: 0x0, symName: _.str.24, symObjAddr: 0x38D920, symBinAddr: 0x100393220, symSize: 0x0 }
  - { offsetInCU: 0x85B0A, offset: 0x85B0A, size: 0x8, addend: 0x0, symName: _.str.25, symObjAddr: 0x38D940, symBinAddr: 0x100393240, symSize: 0x0 }
  - { offsetInCU: 0x85B1C, offset: 0x85B1C, size: 0x8, addend: 0x0, symName: _.str.26, symObjAddr: 0x38D960, symBinAddr: 0x100393260, symSize: 0x0 }
  - { offsetInCU: 0x85B2E, offset: 0x85B2E, size: 0x8, addend: 0x0, symName: _.str.27, symObjAddr: 0x38D980, symBinAddr: 0x100393280, symSize: 0x0 }
  - { offsetInCU: 0x85B40, offset: 0x85B40, size: 0x8, addend: 0x0, symName: _.str.28, symObjAddr: 0x38D9A0, symBinAddr: 0x1003932A0, symSize: 0x0 }
  - { offsetInCU: 0x85B52, offset: 0x85B52, size: 0x8, addend: 0x0, symName: _.str.29, symObjAddr: 0x38D9C0, symBinAddr: 0x1003932C0, symSize: 0x0 }
  - { offsetInCU: 0x85B64, offset: 0x85B64, size: 0x8, addend: 0x0, symName: _.str.30, symObjAddr: 0x38D9E0, symBinAddr: 0x1003932E0, symSize: 0x0 }
  - { offsetInCU: 0x85B76, offset: 0x85B76, size: 0x8, addend: 0x0, symName: _.str.31, symObjAddr: 0x38DA00, symBinAddr: 0x100393300, symSize: 0x0 }
  - { offsetInCU: 0x85B88, offset: 0x85B88, size: 0x8, addend: 0x0, symName: _.str.32, symObjAddr: 0x38DA20, symBinAddr: 0x100393320, symSize: 0x0 }
  - { offsetInCU: 0x85B9A, offset: 0x85B9A, size: 0x8, addend: 0x0, symName: _.str.33, symObjAddr: 0x38DA40, symBinAddr: 0x100393340, symSize: 0x0 }
  - { offsetInCU: 0x85BAC, offset: 0x85BAC, size: 0x8, addend: 0x0, symName: _.str.34, symObjAddr: 0x38DA60, symBinAddr: 0x100393360, symSize: 0x0 }
  - { offsetInCU: 0x85BBE, offset: 0x85BBE, size: 0x8, addend: 0x0, symName: _.str.35, symObjAddr: 0x38DA80, symBinAddr: 0x100393380, symSize: 0x0 }
  - { offsetInCU: 0x85BD0, offset: 0x85BD0, size: 0x8, addend: 0x0, symName: _.str.36, symObjAddr: 0x38DAA0, symBinAddr: 0x1003933A0, symSize: 0x0 }
  - { offsetInCU: 0x85BE2, offset: 0x85BE2, size: 0x8, addend: 0x0, symName: _.str.37, symObjAddr: 0x38DAC0, symBinAddr: 0x1003933C0, symSize: 0x0 }
  - { offsetInCU: 0x860DA, offset: 0x860DA, size: 0x8, addend: 0x0, symName: _.str.39, symObjAddr: 0x38DAE0, symBinAddr: 0x1003933E0, symSize: 0x0 }
  - { offsetInCU: 0x860EC, offset: 0x860EC, size: 0x8, addend: 0x0, symName: _.str.40, symObjAddr: 0x38DB00, symBinAddr: 0x100393400, symSize: 0x0 }
  - { offsetInCU: 0x860FE, offset: 0x860FE, size: 0x8, addend: 0x0, symName: _.str.41, symObjAddr: 0x38DB20, symBinAddr: 0x100393420, symSize: 0x0 }
  - { offsetInCU: 0x86110, offset: 0x86110, size: 0x8, addend: 0x0, symName: _.str.42, symObjAddr: 0x38DB40, symBinAddr: 0x100393440, symSize: 0x0 }
  - { offsetInCU: 0x86122, offset: 0x86122, size: 0x8, addend: 0x0, symName: _.str.43, symObjAddr: 0x38DB60, symBinAddr: 0x100393460, symSize: 0x0 }
  - { offsetInCU: 0x86134, offset: 0x86134, size: 0x8, addend: 0x0, symName: _.str.44, symObjAddr: 0x38DB80, symBinAddr: 0x100393480, symSize: 0x0 }
  - { offsetInCU: 0x86146, offset: 0x86146, size: 0x8, addend: 0x0, symName: _.str.45, symObjAddr: 0x38DBA0, symBinAddr: 0x1003934A0, symSize: 0x0 }
  - { offsetInCU: 0x86158, offset: 0x86158, size: 0x8, addend: 0x0, symName: _.str.46, symObjAddr: 0x38DBC0, symBinAddr: 0x1003934C0, symSize: 0x0 }
  - { offsetInCU: 0x86650, offset: 0x86650, size: 0x8, addend: 0x0, symName: _.str.48, symObjAddr: 0x38DBE0, symBinAddr: 0x1003934E0, symSize: 0x0 }
  - { offsetInCU: 0x86662, offset: 0x86662, size: 0x8, addend: 0x0, symName: _.str.49, symObjAddr: 0x38DC00, symBinAddr: 0x100393500, symSize: 0x0 }
  - { offsetInCU: 0x86674, offset: 0x86674, size: 0x8, addend: 0x0, symName: _.str.50, symObjAddr: 0x38DC20, symBinAddr: 0x100393520, symSize: 0x0 }
  - { offsetInCU: 0x86686, offset: 0x86686, size: 0x8, addend: 0x0, symName: _.str.51, symObjAddr: 0x38DC40, symBinAddr: 0x100393540, symSize: 0x0 }
  - { offsetInCU: 0x86B7E, offset: 0x86B7E, size: 0x8, addend: 0x0, symName: _.str.53, symObjAddr: 0x38DC60, symBinAddr: 0x100393560, symSize: 0x0 }
  - { offsetInCU: 0x86B90, offset: 0x86B90, size: 0x8, addend: 0x0, symName: _.str.54, symObjAddr: 0x38DC80, symBinAddr: 0x100393580, symSize: 0x0 }
  - { offsetInCU: 0x87088, offset: 0x87088, size: 0x8, addend: 0x0, symName: _.str.55, symObjAddr: 0x38DCA0, symBinAddr: 0x1003935A0, symSize: 0x0 }
  - { offsetInCU: 0x8709A, offset: 0x8709A, size: 0x8, addend: 0x0, symName: _.str.56, symObjAddr: 0x38DCC0, symBinAddr: 0x1003935C0, symSize: 0x0 }
  - { offsetInCU: 0x870AD, offset: 0x870AD, size: 0x8, addend: 0x0, symName: _.str.57, symObjAddr: 0x306900, symBinAddr: 0x10030C1A0, symSize: 0x0 }
  - { offsetInCU: 0x870CB, offset: 0x870CB, size: 0x8, addend: 0x0, symName: __ZN5memdb6parser9Condition7opPriorE, symObjAddr: 0x3A0F00, symBinAddr: 0x100409BF0, symSize: 0x0 }
  - { offsetInCU: 0x87A86, offset: 0x87A86, size: 0x8, addend: 0x0, symName: __ZN5memdb5Table6isFineE, symObjAddr: 0x3A1000, symBinAddr: 0x100409CF0, symSize: 0x0 }
  - { offsetInCU: 0x8AA96, offset: 0x8AA96, size: 0x8, addend: 0x0, symName: _.str.62, symObjAddr: 0x38DCE0, symBinAddr: 0x1003935E0, symSize: 0x0 }
  - { offsetInCU: 0x8AAB6, offset: 0x8AAB6, size: 0x8, addend: 0x0, symName: _.str.63, symObjAddr: 0x38DDA0, symBinAddr: 0x1003936A0, symSize: 0x0 }
  - { offsetInCU: 0x8AAD6, offset: 0x8AAD6, size: 0x8, addend: 0x0, symName: _.str.64, symObjAddr: 0x38DE00, symBinAddr: 0x100393700, symSize: 0x0 }
  - { offsetInCU: 0x8AAF7, offset: 0x8AAF7, size: 0x8, addend: 0x0, symName: _.str.73, symObjAddr: 0x38DE60, symBinAddr: 0x100393760, symSize: 0x0 }
  - { offsetInCU: 0x8AB0A, offset: 0x8AB0A, size: 0x8, addend: 0x0, symName: _.str.90, symObjAddr: 0x38DE80, symBinAddr: 0x100393780, symSize: 0x0 }
  - { offsetInCU: 0x8AD94, offset: 0x8AD94, size: 0x8, addend: 0x0, symName: __ZNSt3__16vectorINS_12basic_stringIcNS_11char_traitsIcEENS_9allocatorIcEEEENS4_IS6_EEE26__swap_out_circular_bufferERNS_14__split_bufferIS6_RS7_EE, symObjAddr: 0x689B8, symBinAddr: 0x10006C70C, symSize: 0x85C }
  - { offsetInCU: 0x8AEA5, offset: 0x8AEA5, size: 0x8, addend: 0x0, symName: __ZNSt3__16vectorINS_10shared_ptrIN5memdb9Tokenizer5TokenEEENS_9allocatorIS5_EEE26__swap_out_circular_bufferERNS_14__split_bufferIS5_RS7_EE, symObjAddr: 0xB7560, symBinAddr: 0x1000BB2B4, symSize: 0x85C }
  - { offsetInCU: 0x8AFA4, offset: 0x8AFA4, size: 0x8, addend: 0x0, symName: __ZNSt3__16vectorIN5memdb6parser14TokenStructure8ValueIndINS1_5lexer7CommandEEENS_9allocatorIS7_EEE26__swap_out_circular_bufferERNS_14__split_bufferIS7_RS9_EE, symObjAddr: 0xCBC5C, symBinAddr: 0x1000CF9B0, symSize: 0x85C }
  - { offsetInCU: 0x8B085, offset: 0x8B085, size: 0x8, addend: 0x0, symName: __ZNSt3__16vectorIN5memdb6parser14TokenStructure8ValueIndINS1_5lexer10SubCommandEEENS_9allocatorIS7_EEE26__swap_out_circular_bufferERNS_14__split_bufferIS7_RS9_EE, symObjAddr: 0xE0014, symBinAddr: 0x1000E3D68, symSize: 0x85C }
  - { offsetInCU: 0x8B420, offset: 0x8B420, size: 0x8, addend: 0x0, symName: __ZNSt3__16vectorIN5memdb21ColumnFullDescriptionENS_9allocatorIS2_EEE26__swap_out_circular_bufferERNS_14__split_bufferIS2_RS4_EE, symObjAddr: 0x1069E0, symBinAddr: 0x10010A734, symSize: 0x85C }
  - { offsetInCU: 0x8B4F5, offset: 0x8B4F5, size: 0x8, addend: 0x0, symName: __ZNSt3__16vectorIN5memdb11ColumnAttrsENS_9allocatorIS2_EEE26__swap_out_circular_bufferERNS_14__split_bufferIS2_RS4_EE, symObjAddr: 0x113D4C, symBinAddr: 0x100117AA0, symSize: 0x85C }
  - { offsetInCU: 0x8B780, offset: 0x8B780, size: 0x8, addend: 0x0, symName: __ZNSt3__16vectorIN5memdb5TableENS_9allocatorIS2_EEE26__swap_out_circular_bufferERNS_14__split_bufferIS2_RS4_EE, symObjAddr: 0x12AE10, symBinAddr: 0x10012EB64, symSize: 0x85C }
  - { offsetInCU: 0x8B92C, offset: 0x8B92C, size: 0x8, addend: 0x0, symName: __ZNSt3__16vectorIPvNS_9allocatorIS1_EEE26__swap_out_circular_bufferERNS_14__split_bufferIS1_RS3_EE, symObjAddr: 0x1683E4, symBinAddr: 0x10016C138, symSize: 0x85C }
  - { offsetInCU: 0x8C8A4, offset: 0x8C8A4, size: 0x8, addend: 0x0, symName: __ZNSt3__16vectorINS_10shared_ptrIN5memdb6ColumnEEENS_9allocatorIS4_EEE26__swap_out_circular_bufferERNS_14__split_bufferIS4_RS6_EE, symObjAddr: 0x1D736C, symBinAddr: 0x1001DB0C0, symSize: 0x85C }
  - { offsetInCU: 0x8C949, offset: 0x8C949, size: 0x8, addend: 0x0, symName: __ZNSt3__16vectorIN5memdb5Table5ValueENS_9allocatorIS3_EEE26__swap_out_circular_bufferERNS_14__split_bufferIS3_RS5_EE, symObjAddr: 0x1E2248, symBinAddr: 0x1001E5F9C, symSize: 0x85C }
  - { offsetInCU: 0x8CA84, offset: 0x8CA84, size: 0x8, addend: 0x0, symName: __ZNSt3__16vectorIN5memdb11TableColumnENS_9allocatorIS2_EEE26__swap_out_circular_bufferERNS_14__split_bufferIS2_RS4_EE, symObjAddr: 0x1FBBD0, symBinAddr: 0x1001FF924, symSize: 0x85C }
  - { offsetInCU: 0x8CD42, offset: 0x8CD42, size: 0x8, addend: 0x0, symName: __ZNSt3__16vectorIN5memdb6parser11Assignments9ColumnExpENS_9allocatorIS4_EEE26__swap_out_circular_bufferERNS_14__split_bufferIS4_RS6_EE, symObjAddr: 0x258A4C, symBinAddr: 0x10025C7A0, symSize: 0x85C }
  - { offsetInCU: 0x8CF8B, offset: 0x8CF8B, size: 0x8, addend: 0x0, symName: __ZNSt3__16vectorINS0_IN5memdb11TableColumnENS_9allocatorIS2_EEEENS3_IS5_EEE26__swap_out_circular_bufferERNS_14__split_bufferIS5_RS6_EE, symObjAddr: 0x265D8C, symBinAddr: 0x100269AE0, symSize: 0x85C }
  - { offsetInCU: 0x8DF6B, offset: 0x8DF6B, size: 0x8, addend: 0x0, symName: __Z7isalphai, symObjAddr: 0x6260, symBinAddr: 0x100009FB4, symSize: 0x28 }
  - { offsetInCU: 0x8DFC1, offset: 0x8DFC1, size: 0x8, addend: 0x0, symName: __Z7isdigiti, symObjAddr: 0x6238, symBinAddr: 0x100009F8C, symSize: 0x28 }
  - { offsetInCU: 0x8F551, offset: 0x8F551, size: 0x8, addend: 0x0, symName: __ZNSt3__16vectorIN5memdb9OperationENS_9allocatorIS2_EEEC1B8ue170006ESt16initializer_listIS2_E, symObjAddr: 0x83C, symBinAddr: 0x100004590, symSize: 0x29C }
  - { offsetInCU: 0x8F591, offset: 0x8F591, size: 0x8, addend: 0x0, symName: __ZNSt3__16vectorIN5memdb9OperationENS_9allocatorIS2_EEED1B8ue170006Ev, symObjAddr: 0xAD8, symBinAddr: 0x10000482C, symSize: 0x78 }
  - { offsetInCU: 0x8F5BB, offset: 0x8F5BB, size: 0x8, addend: 0x0, symName: __ZNSt3__16vectorIN5memdb9OperationENS_9allocatorIS2_EEE5beginB8ue170006Ev, symObjAddr: 0x110C, symBinAddr: 0x100004E60, symSize: 0x2B0 }
  - { offsetInCU: 0x8F5E4, offset: 0x8F5E4, size: 0x8, addend: 0x0, symName: __ZNSt3__16vectorIN5memdb9OperationENS_9allocatorIS2_EEE3endB8ue170006Ev, symObjAddr: 0x13BC, symBinAddr: 0x100005110, symSize: 0x2B4 }
  - { offsetInCU: 0x8F62D, offset: 0x8F62D, size: 0x8, addend: 0x0, symName: __ZNSt3__14pairIKNS_17basic_string_viewIcNS_11char_traitsIcEEEEN5memdb5lexer7CommandEEC1B8ue170006IRA7_KcS8_LPv0EEEOT_OT0_, symObjAddr: 0x2C28, symBinAddr: 0x10000697C, symSize: 0x88 }
  - { offsetInCU: 0x8F6A5, offset: 0x8F6A5, size: 0x8, addend: 0x0, symName: __ZNSt3__14pairIKNS_17basic_string_viewIcNS_11char_traitsIcEEEEN5memdb5lexer7CommandEEC1B8ue170006IRA5_KcS8_LPv0EEEOT_OT0_, symObjAddr: 0x2CB0, symBinAddr: 0x100006A04, symSize: 0x88 }
  - { offsetInCU: 0x8F703, offset: 0x8F703, size: 0x8, addend: 0x0, symName: __ZNSt3__13mapINS_17basic_string_viewIcNS_11char_traitsIcEEEEN5memdb5lexer7CommandENS_4lessIS4_EENS_9allocatorINS_4pairIKS4_S7_EEEEEC1B8ue170006ESt16initializer_listISD_ERKS9_, symObjAddr: 0x2D38, symBinAddr: 0x100006A8C, symSize: 0x2B4 }
  - { offsetInCU: 0x8F751, offset: 0x8F751, size: 0x8, addend: 0x0, symName: __ZNSt3__13mapINS_17basic_string_viewIcNS_11char_traitsIcEEEEN5memdb5lexer7CommandENS_4lessIS4_EENS_9allocatorINS_4pairIKS4_S7_EEEEED1B8ue170006Ev, symObjAddr: 0x2FEC, symBinAddr: 0x100006D40, symSize: 0x78 }
  - { offsetInCU: 0x8F79B, offset: 0x8F79B, size: 0x8, addend: 0x0, symName: __ZNSt3__14pairIKNS_17basic_string_viewIcNS_11char_traitsIcEEEEN5memdb5lexer10SubCommandEEC1B8ue170006IRA6_KcS8_LPv0EEEOT_OT0_, symObjAddr: 0x3064, symBinAddr: 0x100006DB8, symSize: 0x88 }
  - { offsetInCU: 0x8F813, offset: 0x8F813, size: 0x8, addend: 0x0, symName: __ZNSt3__14pairIKNS_17basic_string_viewIcNS_11char_traitsIcEEEEN5memdb5lexer10SubCommandEEC1B8ue170006IRA3_KcS8_LPv0EEEOT_OT0_, symObjAddr: 0x30EC, symBinAddr: 0x100006E40, symSize: 0x88 }
  - { offsetInCU: 0x8F88B, offset: 0x8F88B, size: 0x8, addend: 0x0, symName: __ZNSt3__14pairIKNS_17basic_string_viewIcNS_11char_traitsIcEEEEN5memdb5lexer10SubCommandEEC1B8ue170006IRA4_KcS8_LPv0EEEOT_OT0_, symObjAddr: 0x3174, symBinAddr: 0x100006EC8, symSize: 0x88 }
  - { offsetInCU: 0x8F8E9, offset: 0x8F8E9, size: 0x8, addend: 0x0, symName: __ZNSt3__14pairIKNS_17basic_string_viewIcNS_11char_traitsIcEEEEN5memdb5lexer10SubCommandEEC1B8ue170006IRA5_KcS8_LPv0EEEOT_OT0_, symObjAddr: 0x31FC, symBinAddr: 0x100006F50, symSize: 0x88 }
  - { offsetInCU: 0x8F947, offset: 0x8F947, size: 0x8, addend: 0x0, symName: __ZNSt3__13mapINS_17basic_string_viewIcNS_11char_traitsIcEEEEN5memdb5lexer10SubCommandENS_4lessIS4_EENS_9allocatorINS_4pairIKS4_S7_EEEEEC1B8ue170006ESt16initializer_listISD_ERKS9_, symObjAddr: 0x3284, symBinAddr: 0x100006FD8, symSize: 0x2B4 }
  - { offsetInCU: 0x8F995, offset: 0x8F995, size: 0x8, addend: 0x0, symName: __ZNSt3__13mapINS_17basic_string_viewIcNS_11char_traitsIcEEEEN5memdb5lexer10SubCommandENS_4lessIS4_EENS_9allocatorINS_4pairIKS4_S7_EEEEED1B8ue170006Ev, symObjAddr: 0x3538, symBinAddr: 0x10000728C, symSize: 0x78 }
  - { offsetInCU: 0x8F9C5, offset: 0x8F9C5, size: 0x8, addend: 0x0, symName: __ZNSt3__14pairIKNS_17basic_string_viewIcNS_11char_traitsIcEEEEN5memdb5lexer9AttributeEEC1B8ue170006IRA7_KcS8_LPv0EEEOT_OT0_, symObjAddr: 0x35B0, symBinAddr: 0x100007304, symSize: 0x88 }
  - { offsetInCU: 0x8FA3D, offset: 0x8FA3D, size: 0x8, addend: 0x0, symName: __ZNSt3__14pairIKNS_17basic_string_viewIcNS_11char_traitsIcEEEEN5memdb5lexer9AttributeEEC1B8ue170006IRA14_KcS8_LPv0EEEOT_OT0_, symObjAddr: 0x3638, symBinAddr: 0x10000738C, symSize: 0x88 }
  - { offsetInCU: 0x8FA9B, offset: 0x8FA9B, size: 0x8, addend: 0x0, symName: __ZNSt3__14pairIKNS_17basic_string_viewIcNS_11char_traitsIcEEEEN5memdb5lexer9AttributeEEC1B8ue170006IRA4_KcS8_LPv0EEEOT_OT0_, symObjAddr: 0x36C0, symBinAddr: 0x100007414, symSize: 0x88 }
  - { offsetInCU: 0x8FB13, offset: 0x8FB13, size: 0x8, addend: 0x0, symName: __ZNSt3__14pairIKNS_17basic_string_viewIcNS_11char_traitsIcEEEEN5memdb5lexer9AttributeEEC1B8ue170006IRA8_KcS8_LPv0EEEOT_OT0_, symObjAddr: 0x3748, symBinAddr: 0x10000749C, symSize: 0x88 }
  - { offsetInCU: 0x8FB8B, offset: 0x8FB8B, size: 0x8, addend: 0x0, symName: __ZNSt3__14pairIKNS_17basic_string_viewIcNS_11char_traitsIcEEEEN5memdb5lexer9AttributeEEC1B8ue170006IRA10_KcS8_LPv0EEEOT_OT0_, symObjAddr: 0x37D0, symBinAddr: 0x100007524, symSize: 0x88 }
  - { offsetInCU: 0x8FBE9, offset: 0x8FBE9, size: 0x8, addend: 0x0, symName: __ZNSt3__13mapINS_17basic_string_viewIcNS_11char_traitsIcEEEEN5memdb5lexer9AttributeENS_4lessIS4_EENS_9allocatorINS_4pairIKS4_S7_EEEEEC1B8ue170006ESt16initializer_listISD_ERKS9_, symObjAddr: 0x3858, symBinAddr: 0x1000075AC, symSize: 0x2B4 }
  - { offsetInCU: 0x8FC37, offset: 0x8FC37, size: 0x8, addend: 0x0, symName: __ZNSt3__13mapINS_17basic_string_viewIcNS_11char_traitsIcEEEEN5memdb5lexer9AttributeENS_4lessIS4_EENS_9allocatorINS_4pairIKS4_S7_EEEEED1B8ue170006Ev, symObjAddr: 0x3B0C, symBinAddr: 0x100007860, symSize: 0x78 }
  - { offsetInCU: 0x8FC81, offset: 0x8FC81, size: 0x8, addend: 0x0, symName: __ZNSt3__14pairIKNS_17basic_string_viewIcNS_11char_traitsIcEEEEN5memdb9OperationEEC1B8ue170006IRA2_KcS7_LPv0EEEOT_OT0_, symObjAddr: 0x3B84, symBinAddr: 0x1000078D8, symSize: 0x88 }
  - { offsetInCU: 0x8FCDF, offset: 0x8FCDF, size: 0x8, addend: 0x0, symName: __ZNSt3__14pairIKNS_17basic_string_viewIcNS_11char_traitsIcEEEEN5memdb9OperationEEC1B8ue170006IRA3_KcS7_LPv0EEEOT_OT0_, symObjAddr: 0x3C0C, symBinAddr: 0x100007960, symSize: 0x88 }
  - { offsetInCU: 0x8FD3D, offset: 0x8FD3D, size: 0x8, addend: 0x0, symName: __ZNSt3__13mapINS_17basic_string_viewIcNS_11char_traitsIcEEEEN5memdb9OperationENS_4lessIS4_EENS_9allocatorINS_4pairIKS4_S6_EEEEEC1B8ue170006ESt16initializer_listISC_ERKS8_, symObjAddr: 0x3C94, symBinAddr: 0x1000079E8, symSize: 0x2B4 }
  - { offsetInCU: 0x8FD8B, offset: 0x8FD8B, size: 0x8, addend: 0x0, symName: __ZNSt3__13mapINS_17basic_string_viewIcNS_11char_traitsIcEEEEN5memdb9OperationENS_4lessIS4_EENS_9allocatorINS_4pairIKS4_S6_EEEEED1B8ue170006Ev, symObjAddr: 0x3F48, symBinAddr: 0x100007C9C, symSize: 0x78 }
  - { offsetInCU: 0x8FDBB, offset: 0x8FDBB, size: 0x8, addend: 0x0, symName: __ZNSt3__14pairIKNS_17basic_string_viewIcNS_11char_traitsIcEEEEN5memdb5lexer7BracketEEC1B8ue170006IRA2_KcS8_LPv0EEEOT_OT0_, symObjAddr: 0x3FC0, symBinAddr: 0x100007D14, symSize: 0x88 }
  - { offsetInCU: 0x8FE19, offset: 0x8FE19, size: 0x8, addend: 0x0, symName: __ZNSt3__14pairIKNS_17basic_string_viewIcNS_11char_traitsIcEEEEN5memdb5lexer7BracketEEC1B8ue170006IRA3_KcS8_LPv0EEEOT_OT0_, symObjAddr: 0x4048, symBinAddr: 0x100007D9C, symSize: 0x88 }
  - { offsetInCU: 0x8FE77, offset: 0x8FE77, size: 0x8, addend: 0x0, symName: __ZNSt3__13mapINS_17basic_string_viewIcNS_11char_traitsIcEEEEN5memdb5lexer7BracketENS_4lessIS4_EENS_9allocatorINS_4pairIKS4_S7_EEEEEC1B8ue170006ESt16initializer_listISD_ERKS9_, symObjAddr: 0x40D0, symBinAddr: 0x100007E24, symSize: 0x2B4 }
  - { offsetInCU: 0x8FEC5, offset: 0x8FEC5, size: 0x8, addend: 0x0, symName: __ZNSt3__13mapINS_17basic_string_viewIcNS_11char_traitsIcEEEEN5memdb5lexer7BracketENS_4lessIS4_EENS_9allocatorINS_4pairIKS4_S7_EEEEED1B8ue170006Ev, symObjAddr: 0x4384, symBinAddr: 0x1000080D8, symSize: 0x78 }
  - { offsetInCU: 0x8FEF5, offset: 0x8FEF5, size: 0x8, addend: 0x0, symName: __ZNSt3__14pairIKNS_17basic_string_viewIcNS_11char_traitsIcEEEEN5memdb4TypeEEC1B8ue170006IRA6_KcS7_LPv0EEEOT_OT0_, symObjAddr: 0x43FC, symBinAddr: 0x100008150, symSize: 0x88 }
  - { offsetInCU: 0x8FF53, offset: 0x8FF53, size: 0x8, addend: 0x0, symName: __ZNSt3__14pairIKNS_17basic_string_viewIcNS_11char_traitsIcEEEEN5memdb4TypeEEC1B8ue170006IRA5_KcS7_LPv0EEEOT_OT0_, symObjAddr: 0x4484, symBinAddr: 0x1000081D8, symSize: 0x88 }
  - { offsetInCU: 0x8FFB1, offset: 0x8FFB1, size: 0x8, addend: 0x0, symName: __ZNSt3__14pairIKNS_17basic_string_viewIcNS_11char_traitsIcEEEEN5memdb4TypeEEC1B8ue170006IRA7_KcS7_LPv0EEEOT_OT0_, symObjAddr: 0x450C, symBinAddr: 0x100008260, symSize: 0x88 }
  - { offsetInCU: 0x9000F, offset: 0x9000F, size: 0x8, addend: 0x0, symName: __ZNSt3__13mapINS_17basic_string_viewIcNS_11char_traitsIcEEEEN5memdb4TypeENS_4lessIS4_EENS_9allocatorINS_4pairIKS4_S6_EEEEEC1B8ue170006ESt16initializer_listISC_ERKS8_, symObjAddr: 0x4594, symBinAddr: 0x1000082E8, symSize: 0x2B4 }
  - { offsetInCU: 0x9005D, offset: 0x9005D, size: 0x8, addend: 0x0, symName: __ZNSt3__13mapINS_17basic_string_viewIcNS_11char_traitsIcEEEEN5memdb4TypeENS_4lessIS4_EENS_9allocatorINS_4pairIKS4_S6_EEEEED1B8ue170006Ev, symObjAddr: 0x4848, symBinAddr: 0x10000859C, symSize: 0x78 }
  - { offsetInCU: 0x9008D, offset: 0x9008D, size: 0x8, addend: 0x0, symName: __ZNSt3__14pairIKNS_17basic_string_viewIcNS_11char_traitsIcEEEEN5memdb5lexer5OtherEEC1B8ue170006IRA2_KcS8_LPv0EEEOT_OT0_, symObjAddr: 0x48C0, symBinAddr: 0x100008614, symSize: 0x88 }
  - { offsetInCU: 0x900EB, offset: 0x900EB, size: 0x8, addend: 0x0, symName: __ZNSt3__13mapINS_17basic_string_viewIcNS_11char_traitsIcEEEEN5memdb5lexer5OtherENS_4lessIS4_EENS_9allocatorINS_4pairIKS4_S7_EEEEEC1B8ue170006ESt16initializer_listISD_ERKS9_, symObjAddr: 0x4948, symBinAddr: 0x10000869C, symSize: 0x2B4 }
  - { offsetInCU: 0x90139, offset: 0x90139, size: 0x8, addend: 0x0, symName: __ZNSt3__13mapINS_17basic_string_viewIcNS_11char_traitsIcEEEEN5memdb5lexer5OtherENS_4lessIS4_EENS_9allocatorINS_4pairIKS4_S7_EEEEED1B8ue170006Ev, symObjAddr: 0x4BFC, symBinAddr: 0x100008950, symSize: 0x78 }
  - { offsetInCU: 0x90163, offset: 0x90163, size: 0x8, addend: 0x0, symName: __ZNKSt3__117basic_string_viewIcNS_11char_traitsIcEEEixB8ue170006Em, symObjAddr: 0x6010, symBinAddr: 0x100009D64, symSize: 0x1B0 }
  - { offsetInCU: 0x90198, offset: 0x90198, size: 0x8, addend: 0x0, symName: __ZNSt3__112basic_stringIcNS_11char_traitsIcEENS_9allocatorIcEEEC1B8ue170006Ev, symObjAddr: 0x61C0, symBinAddr: 0x100009F14, symSize: 0x78 }
  - { offsetInCU: 0x901C2, offset: 0x901C2, size: 0x8, addend: 0x0, symName: __ZNKSt3__117basic_string_viewIcNS_11char_traitsIcEEE4sizeB8ue170006Ev, symObjAddr: 0x6288, symBinAddr: 0x100009FDC, symSize: 0xB0 }
  - { offsetInCU: 0x901E8, offset: 0x901E8, size: 0x8, addend: 0x0, symName: __ZNSt3__112basic_stringIcNS_11char_traitsIcEENS_9allocatorIcEEEpLB8ue170006EPKc, symObjAddr: 0x6338, symBinAddr: 0x10000A08C, symSize: 0xBC }
  - { offsetInCU: 0x9021D, offset: 0x9021D, size: 0x8, addend: 0x0, symName: __ZNSt3__13mapINS_17basic_string_viewIcNS_11char_traitsIcEEEEN5memdb5lexer7CommandENS_4lessIS4_EENS_9allocatorINS_4pairIKS4_S7_EEEEE4findB8ue170006ERSC_, symObjAddr: 0x6CA4, symBinAddr: 0x10000A9F8, symSize: 0x390 }
  - { offsetInCU: 0x90254, offset: 0x90254, size: 0x8, addend: 0x0, symName: __ZNSt3__16vectorINS_12basic_stringIcNS_11char_traitsIcEENS_9allocatorIcEEEENS4_IS6_EEEixB8ue170006Em, symObjAddr: 0x7034, symBinAddr: 0x10000AD88, symSize: 0x1D4 }
  - { offsetInCU: 0x9028B, offset: 0x9028B, size: 0x8, addend: 0x0, symName: __ZNKSt3__112basic_stringIcNS_11char_traitsIcEENS_9allocatorIcEEEcvNS_17basic_string_viewIcS2_EEB8ue170006Ev, symObjAddr: 0x7208, symBinAddr: 0x10000AF5C, symSize: 0x26C }
  - { offsetInCU: 0x902B2, offset: 0x902B2, size: 0x8, addend: 0x0, symName: __ZNSt3__13mapINS_17basic_string_viewIcNS_11char_traitsIcEEEEN5memdb5lexer7CommandENS_4lessIS4_EENS_9allocatorINS_4pairIKS4_S7_EEEEE3endB8ue170006Ev, symObjAddr: 0x7474, symBinAddr: 0x10000B1C8, symSize: 0x340 }
  - { offsetInCU: 0x90303, offset: 0x90303, size: 0x8, addend: 0x0, symName: __ZNSt3__14pairIbN5memdb5lexer7CommandEEC1B8ue170006IbS3_LPv0EEEOT_OT0_, symObjAddr: 0x77B4, symBinAddr: 0x10000B508, symSize: 0x88 }
  - { offsetInCU: 0x90361, offset: 0x90361, size: 0x8, addend: 0x0, symName: __ZNSt3__13mapINS_17basic_string_viewIcNS_11char_traitsIcEEEEN5memdb5lexer7CommandENS_4lessIS4_EENS_9allocatorINS_4pairIKS4_S7_EEEEEixEOS4_, symObjAddr: 0x783C, symBinAddr: 0x10000B590, symSize: 0x4F8 }
  - { offsetInCU: 0x903A0, offset: 0x903A0, size: 0x8, addend: 0x0, symName: __ZNSt3__14pairIbN5memdb5lexer7CommandEEC1B8ue170006IbRS3_LPv0EEEOT_OT0_, symObjAddr: 0x7D34, symBinAddr: 0x10000BA88, symSize: 0x88 }
  - { offsetInCU: 0x903FE, offset: 0x903FE, size: 0x8, addend: 0x0, symName: __ZNSt3__13mapINS_17basic_string_viewIcNS_11char_traitsIcEEEEN5memdb5lexer10SubCommandENS_4lessIS4_EENS_9allocatorINS_4pairIKS4_S7_EEEEE4findB8ue170006ERSC_, symObjAddr: 0x866C, symBinAddr: 0x10000C3C0, symSize: 0x390 }
  - { offsetInCU: 0x90435, offset: 0x90435, size: 0x8, addend: 0x0, symName: __ZNSt3__13mapINS_17basic_string_viewIcNS_11char_traitsIcEEEEN5memdb5lexer10SubCommandENS_4lessIS4_EENS_9allocatorINS_4pairIKS4_S7_EEEEE3endB8ue170006Ev, symObjAddr: 0x89FC, symBinAddr: 0x10000C750, symSize: 0x340 }
  - { offsetInCU: 0x90480, offset: 0x90480, size: 0x8, addend: 0x0, symName: __ZNSt3__14pairIbN5memdb5lexer10SubCommandEEC1B8ue170006IbS3_LPv0EEEOT_OT0_, symObjAddr: 0x8D3C, symBinAddr: 0x10000CA90, symSize: 0x88 }
  - { offsetInCU: 0x904DE, offset: 0x904DE, size: 0x8, addend: 0x0, symName: __ZNSt3__13mapINS_17basic_string_viewIcNS_11char_traitsIcEEEEN5memdb5lexer10SubCommandENS_4lessIS4_EENS_9allocatorINS_4pairIKS4_S7_EEEEEixEOS4_, symObjAddr: 0x8DC4, symBinAddr: 0x10000CB18, symSize: 0x4F8 }
  - { offsetInCU: 0x9051D, offset: 0x9051D, size: 0x8, addend: 0x0, symName: __ZNSt3__14pairIbN5memdb5lexer10SubCommandEEC1B8ue170006IbRS3_LPv0EEEOT_OT0_, symObjAddr: 0x92BC, symBinAddr: 0x10000D010, symSize: 0x88 }
  - { offsetInCU: 0x9057B, offset: 0x9057B, size: 0x8, addend: 0x0, symName: __ZNSt3__13mapINS_17basic_string_viewIcNS_11char_traitsIcEEEEN5memdb5lexer9AttributeENS_4lessIS4_EENS_9allocatorINS_4pairIKS4_S7_EEEEE4findB8ue170006ERSC_, symObjAddr: 0x9BF4, symBinAddr: 0x10000D948, symSize: 0x390 }
  - { offsetInCU: 0x905B2, offset: 0x905B2, size: 0x8, addend: 0x0, symName: __ZNSt3__13mapINS_17basic_string_viewIcNS_11char_traitsIcEEEEN5memdb5lexer9AttributeENS_4lessIS4_EENS_9allocatorINS_4pairIKS4_S7_EEEEE3endB8ue170006Ev, symObjAddr: 0x9F84, symBinAddr: 0x10000DCD8, symSize: 0x340 }
  - { offsetInCU: 0x905FD, offset: 0x905FD, size: 0x8, addend: 0x0, symName: __ZNSt3__14pairIbN5memdb5lexer9AttributeEEC1B8ue170006IbS3_LPv0EEEOT_OT0_, symObjAddr: 0xA2C4, symBinAddr: 0x10000E018, symSize: 0x88 }
  - { offsetInCU: 0x9065B, offset: 0x9065B, size: 0x8, addend: 0x0, symName: __ZNSt3__13mapINS_17basic_string_viewIcNS_11char_traitsIcEEEEN5memdb5lexer9AttributeENS_4lessIS4_EENS_9allocatorINS_4pairIKS4_S7_EEEEEixEOS4_, symObjAddr: 0xA34C, symBinAddr: 0x10000E0A0, symSize: 0x4F8 }
  - { offsetInCU: 0x9069A, offset: 0x9069A, size: 0x8, addend: 0x0, symName: __ZNSt3__14pairIbN5memdb5lexer9AttributeEEC1B8ue170006IbRS3_LPv0EEEOT_OT0_, symObjAddr: 0xA844, symBinAddr: 0x10000E598, symSize: 0x88 }
  - { offsetInCU: 0x906F8, offset: 0x906F8, size: 0x8, addend: 0x0, symName: __ZNSt3__13mapINS_17basic_string_viewIcNS_11char_traitsIcEEEEN5memdb9OperationENS_4lessIS4_EENS_9allocatorINS_4pairIKS4_S6_EEEEE4findB8ue170006ERSB_, symObjAddr: 0xB17C, symBinAddr: 0x10000EED0, symSize: 0x390 }
  - { offsetInCU: 0x9072F, offset: 0x9072F, size: 0x8, addend: 0x0, symName: __ZNSt3__13mapINS_17basic_string_viewIcNS_11char_traitsIcEEEEN5memdb9OperationENS_4lessIS4_EENS_9allocatorINS_4pairIKS4_S6_EEEEE3endB8ue170006Ev, symObjAddr: 0xB50C, symBinAddr: 0x10000F260, symSize: 0x340 }
  - { offsetInCU: 0x9077A, offset: 0x9077A, size: 0x8, addend: 0x0, symName: __ZNSt3__14pairIbN5memdb9OperationEEC1B8ue170006IbS2_LPv0EEEOT_OT0_, symObjAddr: 0xB84C, symBinAddr: 0x10000F5A0, symSize: 0x88 }
  - { offsetInCU: 0x907D8, offset: 0x907D8, size: 0x8, addend: 0x0, symName: __ZNSt3__13mapINS_17basic_string_viewIcNS_11char_traitsIcEEEEN5memdb9OperationENS_4lessIS4_EENS_9allocatorINS_4pairIKS4_S6_EEEEEixEOS4_, symObjAddr: 0xB8D4, symBinAddr: 0x10000F628, symSize: 0x4F8 }
  - { offsetInCU: 0x90811, offset: 0x90811, size: 0x8, addend: 0x0, symName: __ZNSt3__14pairIbN5memdb9OperationEEC1B8ue170006IbRS2_LPv0EEEOT_OT0_, symObjAddr: 0xBDCC, symBinAddr: 0x10000FB20, symSize: 0x88 }
  - { offsetInCU: 0x9086F, offset: 0x9086F, size: 0x8, addend: 0x0, symName: __ZNSt3__13mapINS_17basic_string_viewIcNS_11char_traitsIcEEEEN5memdb5lexer5OtherENS_4lessIS4_EENS_9allocatorINS_4pairIKS4_S7_EEEEE4findB8ue170006ERSC_, symObjAddr: 0xC704, symBinAddr: 0x100010458, symSize: 0x390 }
  - { offsetInCU: 0x908A6, offset: 0x908A6, size: 0x8, addend: 0x0, symName: __ZNSt3__13mapINS_17basic_string_viewIcNS_11char_traitsIcEEEEN5memdb5lexer5OtherENS_4lessIS4_EENS_9allocatorINS_4pairIKS4_S7_EEEEE3endB8ue170006Ev, symObjAddr: 0xCA94, symBinAddr: 0x1000107E8, symSize: 0x340 }
  - { offsetInCU: 0x908F1, offset: 0x908F1, size: 0x8, addend: 0x0, symName: __ZNSt3__14pairIbN5memdb5lexer5OtherEEC1B8ue170006IbS3_LPv0EEEOT_OT0_, symObjAddr: 0xCDD4, symBinAddr: 0x100010B28, symSize: 0x88 }
  - { offsetInCU: 0x9094F, offset: 0x9094F, size: 0x8, addend: 0x0, symName: __ZNSt3__13mapINS_17basic_string_viewIcNS_11char_traitsIcEEEEN5memdb5lexer5OtherENS_4lessIS4_EENS_9allocatorINS_4pairIKS4_S7_EEEEEixEOS4_, symObjAddr: 0xCE5C, symBinAddr: 0x100010BB0, symSize: 0x4F8 }
  - { offsetInCU: 0x9098E, offset: 0x9098E, size: 0x8, addend: 0x0, symName: __ZNSt3__14pairIbN5memdb5lexer5OtherEEC1B8ue170006IbRS3_LPv0EEEOT_OT0_, symObjAddr: 0xD354, symBinAddr: 0x1000110A8, symSize: 0x88 }
  - { offsetInCU: 0x909EC, offset: 0x909EC, size: 0x8, addend: 0x0, symName: __ZNKSt3__16vectorINS_12basic_stringIcNS_11char_traitsIcEENS_9allocatorIcEEEENS4_IS6_EEE4sizeB8ue170006Ev, symObjAddr: 0xE5B8, symBinAddr: 0x10001230C, symSize: 0xF8 }
  - { offsetInCU: 0x90A12, offset: 0x90A12, size: 0x8, addend: 0x0, symName: __ZNSt3__13mapINS_17basic_string_viewIcNS_11char_traitsIcEEEEN5memdb5lexer7BracketENS_4lessIS4_EENS_9allocatorINS_4pairIKS4_S7_EEEEE4findB8ue170006ERSC_, symObjAddr: 0xE770, symBinAddr: 0x1000124C4, symSize: 0x390 }
  - { offsetInCU: 0x90A49, offset: 0x90A49, size: 0x8, addend: 0x0, symName: __ZNSt3__13mapINS_17basic_string_viewIcNS_11char_traitsIcEEEEN5memdb5lexer7BracketENS_4lessIS4_EENS_9allocatorINS_4pairIKS4_S7_EEEEE3endB8ue170006Ev, symObjAddr: 0xF1A0, symBinAddr: 0x100012EF4, symSize: 0x340 }
  - { offsetInCU: 0x90A70, offset: 0x90A70, size: 0x8, addend: 0x0, symName: __ZNSt3__13mapINS_17basic_string_viewIcNS_11char_traitsIcEEEEN5memdb5lexer7BracketENS_4lessIS4_EENS_9allocatorINS_4pairIKS4_S7_EEEEEixEOS4_, symObjAddr: 0xF4E0, symBinAddr: 0x100013234, symSize: 0x4F8 }
  - { offsetInCU: 0x90AD3, offset: 0x90AD3, size: 0x8, addend: 0x0, symName: __ZNSt3__14pairIbN5memdb5lexer7BracketEEC1B8ue170006IbRS3_LPv0EEEOT_OT0_, symObjAddr: 0xF9D8, symBinAddr: 0x10001372C, symSize: 0x88 }
  - { offsetInCU: 0x90B31, offset: 0x90B31, size: 0x8, addend: 0x0, symName: __ZNSt3__14pairIbN5memdb5lexer7BracketEEC1B8ue170006IbS3_LPv0EEEOT_OT0_, symObjAddr: 0xFB20, symBinAddr: 0x100013874, symSize: 0x88 }
  - { offsetInCU: 0x90B8F, offset: 0x90B8F, size: 0x8, addend: 0x0, symName: __ZNSt3__112basic_stringIcNS_11char_traitsIcEENS_9allocatorIcEEE5beginB8ue170006Ev, symObjAddr: 0x10758, symBinAddr: 0x1000144AC, symSize: 0x29C }
  - { offsetInCU: 0x90BB6, offset: 0x90BB6, size: 0x8, addend: 0x0, symName: __ZNSt3__112basic_stringIcNS_11char_traitsIcEENS_9allocatorIcEEE3endB8ue170006Ev, symObjAddr: 0x109F4, symBinAddr: 0x100014748, symSize: 0x370 }
  - { offsetInCU: 0x90C07, offset: 0x90C07, size: 0x8, addend: 0x0, symName: __ZNSt3__14pairIbiEC1B8ue170006IbiLPv0EEEOT_OT0_, symObjAddr: 0x10D64, symBinAddr: 0x100014AB8, symSize: 0x88 }
  - { offsetInCU: 0x90C65, offset: 0x90C65, size: 0x8, addend: 0x0, symName: __ZNSt3__13mapINS_17basic_string_viewIcNS_11char_traitsIcEEEEN5memdb4TypeENS_4lessIS4_EENS_9allocatorINS_4pairIKS4_S6_EEEEE4findB8ue170006ERSB_, symObjAddr: 0x125E8, symBinAddr: 0x10001633C, symSize: 0x390 }
  - { offsetInCU: 0x90C9C, offset: 0x90C9C, size: 0x8, addend: 0x0, symName: __ZNSt3__13mapINS_17basic_string_viewIcNS_11char_traitsIcEEEEN5memdb4TypeENS_4lessIS4_EENS_9allocatorINS_4pairIKS4_S6_EEEEE3endB8ue170006Ev, symObjAddr: 0x12978, symBinAddr: 0x1000166CC, symSize: 0x340 }
  - { offsetInCU: 0x90CC3, offset: 0x90CC3, size: 0x8, addend: 0x0, symName: __ZN5memdb10ColumnTypeC1ENS_4TypeE, symObjAddr: 0x12CB8, symBinAddr: 0x100016A0C, symSize: 0x80 }
  - { offsetInCU: 0x90D25, offset: 0x90D25, size: 0x8, addend: 0x0, symName: __ZNSt3__14pairIbN5memdb10ColumnTypeEEC1B8ue170006IbS2_LPv0EEEOT_OT0_, symObjAddr: 0x12D38, symBinAddr: 0x100016A8C, symSize: 0x88 }
  - { offsetInCU: 0x90D83, offset: 0x90D83, size: 0x8, addend: 0x0, symName: __ZNSt3__13mapINS_17basic_string_viewIcNS_11char_traitsIcEEEEN5memdb4TypeENS_4lessIS4_EENS_9allocatorINS_4pairIKS4_S6_EEEEEixEOS4_, symObjAddr: 0x12DC0, symBinAddr: 0x100016B14, symSize: 0x4F8 }
  - { offsetInCU: 0x90DBC, offset: 0x90DBC, size: 0x8, addend: 0x0, symName: __ZN5memdb10ColumnTypeC1ENS_4TypeEi, symObjAddr: 0x132B8, symBinAddr: 0x10001700C, symSize: 0x88 }
  - { offsetInCU: 0x90E02, offset: 0x90E02, size: 0x8, addend: 0x0, symName: __ZNSt3__112basic_stringIcNS_11char_traitsIcEENS_9allocatorIcEEE5frontB8ue170006Ev, symObjAddr: 0x13B7C, symBinAddr: 0x1000178D0, symSize: 0x98 }
  - { offsetInCU: 0x90E28, offset: 0x90E28, size: 0x8, addend: 0x0, symName: __ZNSt3__112basic_stringIcNS_11char_traitsIcEENS_9allocatorIcEEE4backB8ue170006Ev, symObjAddr: 0x13C14, symBinAddr: 0x100017968, symSize: 0x218 }
  - { offsetInCU: 0x90E4E, offset: 0x90E4E, size: 0x8, addend: 0x0, symName: __ZNKRSt3__112basic_stringIcNS_11char_traitsIcEENS_9allocatorIcEEE6substrB8ue170006Emm, symObjAddr: 0x13E2C, symBinAddr: 0x100017B80, symSize: 0x2E0 }
  - { offsetInCU: 0x90E95, offset: 0x90E95, size: 0x8, addend: 0x0, symName: __ZNKSt3__112basic_stringIcNS_11char_traitsIcEENS_9allocatorIcEEE4sizeB8ue170006Ev, symObjAddr: 0x1410C, symBinAddr: 0x100017E60, symSize: 0x98 }
  - { offsetInCU: 0x90EE5, offset: 0x90EE5, size: 0x8, addend: 0x0, symName: __ZNSt3__14pairIbNS_12basic_stringIcNS_11char_traitsIcEENS_9allocatorIcEEEEEC1B8ue170006IbS6_LPv0EEEOT_OT0_, symObjAddr: 0x141A4, symBinAddr: 0x100017EF8, symSize: 0x88 }
  - { offsetInCU: 0x90F43, offset: 0x90F43, size: 0x8, addend: 0x0, symName: __ZNSt3__112basic_stringIcNS_11char_traitsIcEENS_9allocatorIcEEEixB8ue170006Em, symObjAddr: 0x157B0, symBinAddr: 0x100019504, symSize: 0x170 }
  - { offsetInCU: 0x90F78, offset: 0x90F78, size: 0x8, addend: 0x0, symName: __ZNSt3__16vectorIcNS_9allocatorIcEEEC1Em, symObjAddr: 0x15920, symBinAddr: 0x100019674, symSize: 0x80 }
  - { offsetInCU: 0x90FB3, offset: 0x90FB3, size: 0x8, addend: 0x0, symName: __ZNSt3__16vectorIcNS_9allocatorIcEEEixB8ue170006Em, symObjAddr: 0x159A0, symBinAddr: 0x1000196F4, symSize: 0x1B0 }
  - { offsetInCU: 0x90FEA, offset: 0x90FEA, size: 0x8, addend: 0x0, symName: __ZNSt3__16vectorIcNS_9allocatorIcEEEC1B8ue170006Ev, symObjAddr: 0x15B50, symBinAddr: 0x1000198A4, symSize: 0x78 }
  - { offsetInCU: 0x91038, offset: 0x91038, size: 0x8, addend: 0x0, symName: __ZNSt3__14pairIbNS_6vectorIcNS_9allocatorIcEEEEEC1B8ue170006IbS4_LPv0EEEOT_OT0_, symObjAddr: 0x15BC8, symBinAddr: 0x10001991C, symSize: 0x88 }
  - { offsetInCU: 0x91096, offset: 0x91096, size: 0x8, addend: 0x0, symName: __ZNSt3__16vectorIcNS_9allocatorIcEEED1B8ue170006Ev, symObjAddr: 0x15C50, symBinAddr: 0x1000199A4, symSize: 0x78 }
  - { offsetInCU: 0x910C0, offset: 0x910C0, size: 0x8, addend: 0x0, symName: __ZNSt3__14pairIbNS_6vectorIcNS_9allocatorIcEEEEEC1B8ue170006IbRS4_LPv0EEEOT_OT0_, symObjAddr: 0x15CC8, symBinAddr: 0x100019A1C, symSize: 0x88 }
  - { offsetInCU: 0x91142, offset: 0x91142, size: 0x8, addend: 0x0, symName: __ZNSt3__14pairIbbEC1B8ue170006IbbLPv0EEEOT_OT0_, symObjAddr: 0x1674C, symBinAddr: 0x10001A4A0, symSize: 0x6C }
  - { offsetInCU: 0x911A0, offset: 0x911A0, size: 0x8, addend: 0x0, symName: __ZNKSt3__112basic_stringIcNS_11char_traitsIcEENS_9allocatorIcEEE13find_first_ofB8ue170006Ecm, symObjAddr: 0x16E7C, symBinAddr: 0x10001ABD0, symSize: 0x7C }
  - { offsetInCU: 0x911E6, offset: 0x911E6, size: 0x8, addend: 0x0, symName: __ZNKSt3__112basic_stringIcNS_11char_traitsIcEENS_9allocatorIcEEE12find_last_ofB8ue170006Ecm, symObjAddr: 0x16EF8, symBinAddr: 0x10001AC4C, symSize: 0x7C }
  - { offsetInCU: 0x9122C, offset: 0x9122C, size: 0x8, addend: 0x0, symName: __ZNSt3__14pairINS_12basic_stringIcNS_11char_traitsIcEENS_9allocatorIcEEEES6_EC1B8ue170006IS6_S6_LPv0EEEOT_OT0_, symObjAddr: 0x16F74, symBinAddr: 0x10001ACC8, symSize: 0x88 }
  - { offsetInCU: 0x912A4, offset: 0x912A4, size: 0x8, addend: 0x0, symName: __ZNSt3__14pairINS_12basic_stringIcNS_11char_traitsIcEENS_9allocatorIcEEEES6_EC1B8ue170006IRA1_KcRKS6_LPv0EEEOT_OT0_, symObjAddr: 0x16FFC, symBinAddr: 0x10001AD50, symSize: 0x88 }
  - { offsetInCU: 0x91302, offset: 0x91302, size: 0x8, addend: 0x0, symName: __ZNSt3__16vectorINS0_IN5memdb9OperationENS_9allocatorIS2_EEEENS3_IS5_EEEC1B8ue170006ESt16initializer_listIS5_E, symObjAddr: 0x17084, symBinAddr: 0x10001ADD8, symSize: 0x29C }
  - { offsetInCU: 0x91342, offset: 0x91342, size: 0x8, addend: 0x0, symName: __ZNSt3__16vectorINS0_IN5memdb9OperationENS_9allocatorIS2_EEEENS3_IS5_EEED1B8ue170006Ev, symObjAddr: 0x17320, symBinAddr: 0x10001B074, symSize: 0x78 }
  - { offsetInCU: 0x9136C, offset: 0x9136C, size: 0x8, addend: 0x0, symName: __ZNSt3__16vectorIbNS_9allocatorIbEEED1B8ue170006Ev, symObjAddr: 0x17398, symBinAddr: 0x10001B0EC, symSize: 0x78 }
  - { offsetInCU: 0x91396, offset: 0x91396, size: 0x8, addend: 0x0, symName: __ZNSt3__110shared_ptrIN5memdb6parser9CmdParserEED1B8ue170006Ev, symObjAddr: 0x17B64, symBinAddr: 0x10001B8B8, symSize: 0x78 }
  - { offsetInCU: 0x913C0, offset: 0x913C0, size: 0x8, addend: 0x0, symName: __ZNSt3__16vectorINS_10shared_ptrIN5memdb6parser9CmdParserEEENS_9allocatorIS5_EEEC1B8ue170006ESt16initializer_listIS5_E, symObjAddr: 0x17BDC, symBinAddr: 0x10001B930, symSize: 0x29C }
  - { offsetInCU: 0x91400, offset: 0x91400, size: 0x8, addend: 0x0, symName: __ZNSt3__16vectorINS_10shared_ptrIN5memdb6parser9CmdParserEEENS_9allocatorIS5_EEED1B8ue170006Ev, symObjAddr: 0x17E78, symBinAddr: 0x10001BBCC, symSize: 0x78 }
  - { offsetInCU: 0x9142A, offset: 0x9142A, size: 0x8, addend: 0x0, symName: _main, symObjAddr: 0x17EF0, symBinAddr: 0x10001BC44, symSize: 0x490 }
  - { offsetInCU: 0x915DD, offset: 0x915DD, size: 0x8, addend: 0x0, symName: __ZN5memdb8DatabaseC1Ev, symObjAddr: 0x18380, symBinAddr: 0x10001C0D4, symSize: 0x78 }
  - { offsetInCU: 0x91607, offset: 0x91607, size: 0x8, addend: 0x0, symName: __ZNSt3__117basic_string_viewIcNS_11char_traitsIcEEEC1B8ue170006EPKc, symObjAddr: 0x183F8, symBinAddr: 0x10001C14C, symSize: 0x80 }
  - { offsetInCU: 0x91640, offset: 0x91640, size: 0x8, addend: 0x0, symName: __ZN5memdb8Database7ExecuteERKNSt3__117basic_string_viewIcNS1_11char_traitsIcEEEE, symObjAddr: 0x18478, symBinAddr: 0x10001C1CC, symSize: 0x240C }
  - { offsetInCU: 0x91779, offset: 0x91779, size: 0x8, addend: 0x0, symName: __ZNSt3__18optionalIN5memdb9TableViewEED1Ev, symObjAddr: 0x1A8A0, symBinAddr: 0x10001E5F4, symSize: 0x78 }
  - { offsetInCU: 0x917A6, offset: 0x917A6, size: 0x8, addend: 0x0, symName: __ZN5memdb8DatabaseD1Ev, symObjAddr: 0x1A918, symBinAddr: 0x10001E66C, symSize: 0x78 }
  - { offsetInCU: 0x917D2, offset: 0x917D2, size: 0x8, addend: 0x0, symName: __ZNSt3__16vectorIN5memdb9OperationENS_9allocatorIS2_EEEC2B8ue170006ESt16initializer_listIS2_E, symObjAddr: 0x1A990, symBinAddr: 0x10001E6E4, symSize: 0x5B0 }
  - { offsetInCU: 0x91837, offset: 0x91837, size: 0x8, addend: 0x0, symName: __ZNSt3__117__compressed_pairIPN5memdb9OperationENS_9allocatorIS2_EEEC1B8ue170006IDnNS_18__default_init_tagEEEOT_OT0_, symObjAddr: 0x1AF40, symBinAddr: 0x10001EC94, symSize: 0x88 }
  - { offsetInCU: 0x9188F, offset: 0x9188F, size: 0x8, addend: 0x0, symName: __ZNSt3__16vectorIN5memdb9OperationENS_9allocatorIS2_EEE16__destroy_vectorC1B8ue170006ERS5_, symObjAddr: 0x1B284, symBinAddr: 0x10001EFD8, symSize: 0x80 }
  - { offsetInCU: 0x918C8, offset: 0x918C8, size: 0x8, addend: 0x0, symName: __ZNKSt16initializer_listIN5memdb9OperationEE4sizeB8ue170006Ev, symObjAddr: 0x1B304, symBinAddr: 0x10001F058, symSize: 0xB0 }
  - { offsetInCU: 0x918EE, offset: 0x918EE, size: 0x8, addend: 0x0, symName: __ZNSt3__16vectorIN5memdb9OperationENS_9allocatorIS2_EEE11__vallocateB8ue170006Em, symObjAddr: 0x1B3B4, symBinAddr: 0x10001F108, symSize: 0x5E8 }
  - { offsetInCU: 0x91938, offset: 0x91938, size: 0x8, addend: 0x0, symName: __ZNSt3__16vectorIN5memdb9OperationENS_9allocatorIS2_EEE18__construct_at_endIPKS2_S8_EEvT_T0_m, symObjAddr: 0x1B99C, symBinAddr: 0x10001F6F0, symSize: 0x494 }
  - { offsetInCU: 0x919B6, offset: 0x919B6, size: 0x8, addend: 0x0, symName: __ZNKSt16initializer_listIN5memdb9OperationEE5beginB8ue170006Ev, symObjAddr: 0x1BE30, symBinAddr: 0x10001FB84, symSize: 0xAC }
  - { offsetInCU: 0x919DC, offset: 0x919DC, size: 0x8, addend: 0x0, symName: __ZNKSt16initializer_listIN5memdb9OperationEE3endB8ue170006Ev, symObjAddr: 0x1BEDC, symBinAddr: 0x10001FC30, symSize: 0x1C0 }
  - { offsetInCU: 0x91A02, offset: 0x91A02, size: 0x8, addend: 0x0, symName: __ZNSt3__128__exception_guard_exceptionsINS_6vectorIN5memdb9OperationENS_9allocatorIS3_EEE16__destroy_vectorEE10__completeB8ue170006Ev, symObjAddr: 0x1C09C, symBinAddr: 0x10001FDF0, symSize: 0xD8 }
  - { offsetInCU: 0x91A28, offset: 0x91A28, size: 0x8, addend: 0x0, symName: __ZNSt3__128__exception_guard_exceptionsINS_6vectorIN5memdb9OperationENS_9allocatorIS3_EEE16__destroy_vectorEED1B8ue170006Ev, symObjAddr: 0x1C174, symBinAddr: 0x10001FEC8, symSize: 0x78 }
  - { offsetInCU: 0x91A52, offset: 0x91A52, size: 0x8, addend: 0x0, symName: __ZNSt3__117__compressed_pairIPN5memdb9OperationENS_9allocatorIS2_EEEC2B8ue170006IDnNS_18__default_init_tagEEEOT_OT0_, symObjAddr: 0x1C1EC, symBinAddr: 0x10001FF40, symSize: 0x140 }
  - { offsetInCU: 0x91AAA, offset: 0x91AAA, size: 0x8, addend: 0x0, symName: __ZNSt3__122__compressed_pair_elemIPN5memdb9OperationELi0ELb0EEC2B8ue170006IDnvEEOT_, symObjAddr: 0x1C32C, symBinAddr: 0x100020080, symSize: 0xBC }
  - { offsetInCU: 0x91AEC, offset: 0x91AEC, size: 0x8, addend: 0x0, symName: __ZNSt3__122__compressed_pair_elemINS_9allocatorIN5memdb9OperationEEELi1ELb1EEC2B8ue170006ENS_18__default_init_tagE, symObjAddr: 0x1C3E8, symBinAddr: 0x10002013C, symSize: 0x84 }
  - { offsetInCU: 0x91B21, offset: 0x91B21, size: 0x8, addend: 0x0, symName: __ZNSt3__19allocatorIN5memdb9OperationEEC2B8ue170006Ev, symObjAddr: 0x1C46C, symBinAddr: 0x1000201C0, symSize: 0x84 }
  - { offsetInCU: 0x91B4B, offset: 0x91B4B, size: 0x8, addend: 0x0, symName: __ZNSt3__116__non_trivial_ifILb1ENS_9allocatorIN5memdb9OperationEEEEC2B8ue170006Ev, symObjAddr: 0x1C4F0, symBinAddr: 0x100020244, symSize: 0x54 }
  - { offsetInCU: 0x91B75, offset: 0x91B75, size: 0x8, addend: 0x0, symName: __ZNSt3__128__exception_guard_exceptionsINS_6vectorIN5memdb9OperationENS_9allocatorIS3_EEE16__destroy_vectorEEC1B8ue170006ES7_, symObjAddr: 0x1C544, symBinAddr: 0x100020298, symSize: 0x28C }
  - { offsetInCU: 0x91BB2, offset: 0x91BB2, size: 0x8, addend: 0x0, symName: __ZNSt3__128__exception_guard_exceptionsINS_6vectorIN5memdb9OperationENS_9allocatorIS3_EEE16__destroy_vectorEEC2B8ue170006ES7_, symObjAddr: 0x1C7D0, symBinAddr: 0x100020524, symSize: 0x2BC }
  - { offsetInCU: 0x91BEF, offset: 0x91BEF, size: 0x8, addend: 0x0, symName: __ZNSt3__16vectorIN5memdb9OperationENS_9allocatorIS2_EEE16__destroy_vectorC2B8ue170006ERS5_, symObjAddr: 0x1CA8C, symBinAddr: 0x1000207E0, symSize: 0x108 }
  - { offsetInCU: 0x91C28, offset: 0x91C28, size: 0x8, addend: 0x0, symName: __ZNKSt3__16vectorIN5memdb9OperationENS_9allocatorIS2_EEE8max_sizeEv, symObjAddr: 0x1CB94, symBinAddr: 0x1000208E8, symSize: 0x3B8 }
  - { offsetInCU: 0x91C51, offset: 0x91C51, size: 0x8, addend: 0x0, symName: __ZNKSt3__16vectorIN5memdb9OperationENS_9allocatorIS2_EEE20__throw_length_errorB8ue170006Ev, symObjAddr: 0x1CF4C, symBinAddr: 0x100020CA0, symSize: 0x80 }
  - { offsetInCU: 0x91C77, offset: 0x91C77, size: 0x8, addend: 0x0, symName: __ZNSt3__16vectorIN5memdb9OperationENS_9allocatorIS2_EEE7__allocB8ue170006Ev, symObjAddr: 0x1D21C, symBinAddr: 0x100020F70, symSize: 0xE4 }
  - { offsetInCU: 0x91C9D, offset: 0x91C9D, size: 0x8, addend: 0x0, symName: __ZNSt3__16vectorIN5memdb9OperationENS_9allocatorIS2_EEE9__end_capB8ue170006Ev, symObjAddr: 0x1D300, symBinAddr: 0x100021054, symSize: 0x100 }
  - { offsetInCU: 0x91CC3, offset: 0x91CC3, size: 0x8, addend: 0x0, symName: __ZNKSt3__16vectorIN5memdb9OperationENS_9allocatorIS2_EEE14__annotate_newB8ue170006Em, symObjAddr: 0x1D400, symBinAddr: 0x100021154, symSize: 0x360 }
  - { offsetInCU: 0x91D04, offset: 0x91D04, size: 0x8, addend: 0x0, symName: __ZNSt3__116allocator_traitsINS_9allocatorIN5memdb9OperationEEEE8max_sizeB8ue170006IS4_vvEEmRKS4_, symObjAddr: 0x1D864, symBinAddr: 0x1000215B8, symSize: 0x54 }
  - { offsetInCU: 0x91D30, offset: 0x91D30, size: 0x8, addend: 0x0, symName: __ZNKSt3__16vectorIN5memdb9OperationENS_9allocatorIS2_EEE7__allocB8ue170006Ev, symObjAddr: 0x1D8B8, symBinAddr: 0x10002160C, symSize: 0xE4 }
  - { offsetInCU: 0x91D56, offset: 0x91D56, size: 0x8, addend: 0x0, symName: __ZNSt3__114numeric_limitsIlE3maxB8ue170006Ev, symObjAddr: 0x1D99C, symBinAddr: 0x1000216F0, symSize: 0x14 }
  - { offsetInCU: 0x91D76, offset: 0x91D76, size: 0x8, addend: 0x0, symName: __ZNKSt3__16__lessIvvEclB8ue170006ImmEEbRKT_RKT0_, symObjAddr: 0x1DC7C, symBinAddr: 0x1000219D0, symSize: 0xEC }
  - { offsetInCU: 0x91DCA, offset: 0x91DCA, size: 0x8, addend: 0x0, symName: __ZNSt3__114numeric_limitsImE3maxB8ue170006Ev, symObjAddr: 0x1DD68, symBinAddr: 0x100021ABC, symSize: 0x14 }
  - { offsetInCU: 0x91DDE, offset: 0x91DDE, size: 0x8, addend: 0x0, symName: __ZNSt3__123__libcpp_numeric_limitsImLb1EE3maxB8ue170006Ev, symObjAddr: 0x1DD7C, symBinAddr: 0x100021AD0, symSize: 0x8 }
  - { offsetInCU: 0x91DF2, offset: 0x91DF2, size: 0x8, addend: 0x0, symName: __ZNKSt3__117__compressed_pairIPN5memdb9OperationENS_9allocatorIS2_EEE6secondB8ue170006Ev, symObjAddr: 0x1DD84, symBinAddr: 0x100021AD8, symSize: 0x108 }
  - { offsetInCU: 0x91E18, offset: 0x91E18, size: 0x8, addend: 0x0, symName: __ZNKSt3__122__compressed_pair_elemINS_9allocatorIN5memdb9OperationEEELi1ELb1EE5__getB8ue170006Ev, symObjAddr: 0x1DE8C, symBinAddr: 0x100021BE0, symSize: 0x74 }
  - { offsetInCU: 0x91E3E, offset: 0x91E3E, size: 0x8, addend: 0x0, symName: __ZNSt3__123__libcpp_numeric_limitsIlLb1EE3maxB8ue170006Ev, symObjAddr: 0x1DF00, symBinAddr: 0x100021C54, symSize: 0x8 }
  - { offsetInCU: 0x91E52, offset: 0x91E52, size: 0x8, addend: 0x0, symName: __ZNSt12length_errorC1B8ue170006EPKc, symObjAddr: 0x1DFBC, symBinAddr: 0x100021D10, symSize: 0x80 }
  - { offsetInCU: 0x91E8A, offset: 0x91E8A, size: 0x8, addend: 0x0, symName: __ZNSt12length_errorC2B8ue170006EPKc, symObjAddr: 0x1E03C, symBinAddr: 0x100021D90, symSize: 0x128 }
  - { offsetInCU: 0x91EC2, offset: 0x91EC2, size: 0x8, addend: 0x0, symName: __ZNSt3__19allocatorIN5memdb9OperationEE17allocate_at_leastB8ue170006Em, symObjAddr: 0x1E388, symBinAddr: 0x1000220DC, symSize: 0x2B8 }
  - { offsetInCU: 0x91EF8, offset: 0x91EF8, size: 0x8, addend: 0x0, symName: __ZNSt3__19allocatorIN5memdb9OperationEE8allocateB8ue170006Em, symObjAddr: 0x1E640, symBinAddr: 0x100022394, symSize: 0xCC }
  - { offsetInCU: 0x91F2C, offset: 0x91F2C, size: 0x8, addend: 0x0, symName: __ZNSt3__117__compressed_pairIPN5memdb9OperationENS_9allocatorIS2_EEE6secondB8ue170006Ev, symObjAddr: 0x1E898, symBinAddr: 0x1000225EC, symSize: 0x108 }
  - { offsetInCU: 0x91F52, offset: 0x91F52, size: 0x8, addend: 0x0, symName: __ZNSt3__122__compressed_pair_elemINS_9allocatorIN5memdb9OperationEEELi1ELb1EE5__getB8ue170006Ev, symObjAddr: 0x1E9A0, symBinAddr: 0x1000226F4, symSize: 0x74 }
  - { offsetInCU: 0x91F78, offset: 0x91F78, size: 0x8, addend: 0x0, symName: __ZNSt3__117__compressed_pairIPN5memdb9OperationENS_9allocatorIS2_EEE5firstB8ue170006Ev, symObjAddr: 0x1EA14, symBinAddr: 0x100022768, symSize: 0x124 }
  - { offsetInCU: 0x91F9E, offset: 0x91F9E, size: 0x8, addend: 0x0, symName: __ZNSt3__122__compressed_pair_elemIPN5memdb9OperationELi0ELb0EE5__getB8ue170006Ev, symObjAddr: 0x1EB38, symBinAddr: 0x10002288C, symSize: 0xAC }
  - { offsetInCU: 0x91FC4, offset: 0x91FC4, size: 0x8, addend: 0x0, symName: __ZNKSt3__16vectorIN5memdb9OperationENS_9allocatorIS2_EEE31__annotate_contiguous_containerEPKvS7_S7_S7_, symObjAddr: 0x1EBE4, symBinAddr: 0x100022938, symSize: 0x9C }
  - { offsetInCU: 0x92026, offset: 0x92026, size: 0x8, addend: 0x0, symName: __ZNKSt3__16vectorIN5memdb9OperationENS_9allocatorIS2_EEE4dataB8ue170006Ev, symObjAddr: 0x1EC80, symBinAddr: 0x1000229D4, symSize: 0xB0 }
  - { offsetInCU: 0x9204C, offset: 0x9204C, size: 0x8, addend: 0x0, symName: __ZNKSt3__16vectorIN5memdb9OperationENS_9allocatorIS2_EEE8capacityB8ue170006Ev, symObjAddr: 0x1ED30, symBinAddr: 0x100022A84, symSize: 0x144 }
  - { offsetInCU: 0x92072, offset: 0x92072, size: 0x8, addend: 0x0, symName: __ZNKSt3__16vectorIN5memdb9OperationENS_9allocatorIS2_EEE9__end_capB8ue170006Ev, symObjAddr: 0x1EE88, symBinAddr: 0x100022BDC, symSize: 0x100 }
  - { offsetInCU: 0x92098, offset: 0x92098, size: 0x8, addend: 0x0, symName: __ZNKSt3__117__compressed_pairIPN5memdb9OperationENS_9allocatorIS2_EEE5firstB8ue170006Ev, symObjAddr: 0x1EF88, symBinAddr: 0x100022CDC, symSize: 0x124 }
  - { offsetInCU: 0x920BE, offset: 0x920BE, size: 0x8, addend: 0x0, symName: __ZNKSt3__122__compressed_pair_elemIPN5memdb9OperationELi0ELb0EE5__getB8ue170006Ev, symObjAddr: 0x1F0AC, symBinAddr: 0x100022E00, symSize: 0xAC }
  - { offsetInCU: 0x92102, offset: 0x92102, size: 0x8, addend: 0x0, symName: __ZNSt3__16vectorIN5memdb9OperationENS_9allocatorIS2_EEE21_ConstructTransactionC1B8ue170006ERS5_m, symObjAddr: 0x1F158, symBinAddr: 0x100022EAC, symSize: 0x88 }
  - { offsetInCU: 0x9214A, offset: 0x9214A, size: 0x8, addend: 0x0, symName: __ZNSt3__16vectorIN5memdb9OperationENS_9allocatorIS2_EEE21_ConstructTransactionD1B8ue170006Ev, symObjAddr: 0x1F514, symBinAddr: 0x100023268, symSize: 0x78 }
  - { offsetInCU: 0x92174, offset: 0x92174, size: 0x8, addend: 0x0, symName: __ZNSt3__16vectorIN5memdb9OperationENS_9allocatorIS2_EEE21_ConstructTransactionC2B8ue170006ERS5_m, symObjAddr: 0x1F58C, symBinAddr: 0x1000232E0, symSize: 0x3D8 }
  - { offsetInCU: 0x921BC, offset: 0x921BC, size: 0x8, addend: 0x0, symName: __ZNKSt3__16vectorIN5memdb9OperationENS_9allocatorIS2_EEE19__annotate_increaseB8ue170006Em, symObjAddr: 0x1F964, symBinAddr: 0x1000236B8, symSize: 0x44C }
  - { offsetInCU: 0x921F1, offset: 0x921F1, size: 0x8, addend: 0x0, symName: __ZNKSt3__16vectorIN5memdb9OperationENS_9allocatorIS2_EEE4sizeB8ue170006Ev, symObjAddr: 0x1FDB0, symBinAddr: 0x100023B04, symSize: 0xF8 }
  - { offsetInCU: 0x9223B, offset: 0x9223B, size: 0x8, addend: 0x0, symName: __ZNSt3__119__unwrap_range_implIPKN5memdb9OperationES4_E8__unwrapB8ue170006ES4_S4_, symObjAddr: 0x20170, symBinAddr: 0x100023EC4, symSize: 0x30C }
  - { offsetInCU: 0x92274, offset: 0x92274, size: 0x8, addend: 0x0, symName: __ZNSt3__14pairIPKN5memdb9OperationES4_EC1B8ue170006IS4_S4_LPv0EEEOT_OT0_, symObjAddr: 0x204A0, symBinAddr: 0x1000241F4, symSize: 0x88 }
  - { offsetInCU: 0x922D2, offset: 0x922D2, size: 0x8, addend: 0x0, symName: __ZNSt3__118__unwrap_iter_implIPKN5memdb9OperationELb1EE8__unwrapB8ue170006ES4_, symObjAddr: 0x20528, symBinAddr: 0x10002427C, symSize: 0x24 }
  - { offsetInCU: 0x922F5, offset: 0x922F5, size: 0x8, addend: 0x0, symName: __ZNSt3__14pairIPKN5memdb9OperationES4_EC2B8ue170006IS4_S4_LPv0EEEOT_OT0_, symObjAddr: 0x20560, symBinAddr: 0x1000242B4, symSize: 0x210 }
  - { offsetInCU: 0x92383, offset: 0x92383, size: 0x8, addend: 0x0, symName: __ZNKSt3__114__copy_trivialclB8ue170006IKN5memdb9OperationES3_Li0EEENS_4pairIPT_PT0_EES7_S7_S9_, symObjAddr: 0x214B0, symBinAddr: 0x100025204, symSize: 0x25C }
  - { offsetInCU: 0x923FB, offset: 0x923FB, size: 0x8, addend: 0x0, symName: __ZNSt3__14pairIPKN5memdb9OperationEPS2_EC1B8ue170006IRS4_S5_LPv0EEEOT_OT0_, symObjAddr: 0x2215C, symBinAddr: 0x100025EB0, symSize: 0x88 }
  - { offsetInCU: 0x92459, offset: 0x92459, size: 0x8, addend: 0x0, symName: __ZNSt3__14pairIPKN5memdb9OperationEPS2_EC2B8ue170006IRS4_S5_LPv0EEEOT_OT0_, symObjAddr: 0x221E4, symBinAddr: 0x100025F38, symSize: 0x210 }
  - { offsetInCU: 0x924B7, offset: 0x924B7, size: 0x8, addend: 0x0, symName: __ZNSt3__14pairIPKN5memdb9OperationEPS2_EC1B8ue170006IS4_S5_LPv0EEEOT_OT0_, symObjAddr: 0x223F4, symBinAddr: 0x100026148, symSize: 0x88 }
  - { offsetInCU: 0x92515, offset: 0x92515, size: 0x8, addend: 0x0, symName: __ZNSt3__14pairIPKN5memdb9OperationEPS2_EC2B8ue170006IS4_S5_LPv0EEEOT_OT0_, symObjAddr: 0x2247C, symBinAddr: 0x1000261D0, symSize: 0x210 }
  - { offsetInCU: 0x92573, offset: 0x92573, size: 0x8, addend: 0x0, symName: __ZNSt3__119__unwrap_range_implIPKN5memdb9OperationES4_E8__rewrapB8ue170006ES4_S4_, symObjAddr: 0x2268C, symBinAddr: 0x1000263E0, symSize: 0x2C }
  - { offsetInCU: 0x925A4, offset: 0x925A4, size: 0x8, addend: 0x0, symName: __ZNSt3__118__unwrap_iter_implIPKN5memdb9OperationELb1EE8__rewrapB8ue170006ES4_S4_, symObjAddr: 0x22700, symBinAddr: 0x100026454, symSize: 0x13C }
  - { offsetInCU: 0x925D5, offset: 0x925D5, size: 0x8, addend: 0x0, symName: __ZNSt3__118__unwrap_iter_implIPN5memdb9OperationELb1EE8__unwrapB8ue170006ES3_, symObjAddr: 0x2283C, symBinAddr: 0x100026590, symSize: 0x24 }
  - { offsetInCU: 0x925F8, offset: 0x925F8, size: 0x8, addend: 0x0, symName: __ZNSt3__118__unwrap_iter_implIPN5memdb9OperationELb1EE8__rewrapB8ue170006ES3_S3_, symObjAddr: 0x22860, symBinAddr: 0x1000265B4, symSize: 0x13C }
  - { offsetInCU: 0x92629, offset: 0x92629, size: 0x8, addend: 0x0, symName: __ZNSt3__16vectorIN5memdb9OperationENS_9allocatorIS2_EEE21_ConstructTransactionD2B8ue170006Ev, symObjAddr: 0x2299C, symBinAddr: 0x1000266F0, symSize: 0x390 }
  - { offsetInCU: 0x92653, offset: 0x92653, size: 0x8, addend: 0x0, symName: __ZNKSt3__16vectorIN5memdb9OperationENS_9allocatorIS2_EEE17__annotate_shrinkB8ue170006Em, symObjAddr: 0x22D2C, symBinAddr: 0x100026A80, symSize: 0x360 }
  - { offsetInCU: 0x92688, offset: 0x92688, size: 0x8, addend: 0x0, symName: __ZNSt3__128__exception_guard_exceptionsINS_6vectorIN5memdb9OperationENS_9allocatorIS3_EEE16__destroy_vectorEED2B8ue170006Ev, symObjAddr: 0x2308C, symBinAddr: 0x100026DE0, symSize: 0x17C }
  - { offsetInCU: 0x926B2, offset: 0x926B2, size: 0x8, addend: 0x0, symName: __ZNSt3__16vectorIN5memdb9OperationENS_9allocatorIS2_EEE16__destroy_vectorclB8ue170006Ev, symObjAddr: 0x23208, symBinAddr: 0x100026F5C, symSize: 0x43C }
  - { offsetInCU: 0x926D8, offset: 0x926D8, size: 0x8, addend: 0x0, symName: __ZNSt3__16vectorIN5memdb9OperationENS_9allocatorIS2_EEE7__clearB8ue170006Ev, symObjAddr: 0x23644, symBinAddr: 0x100027398, symSize: 0xB0 }
  - { offsetInCU: 0x926FE, offset: 0x926FE, size: 0x8, addend: 0x0, symName: __ZNKSt3__16vectorIN5memdb9OperationENS_9allocatorIS2_EEE17__annotate_deleteB8ue170006Ev, symObjAddr: 0x236F4, symBinAddr: 0x100027448, symSize: 0x370 }
  - { offsetInCU: 0x92724, offset: 0x92724, size: 0x8, addend: 0x0, symName: __ZNSt3__116allocator_traitsINS_9allocatorIN5memdb9OperationEEEE10deallocateB8ue170006ERS4_PS3_m, symObjAddr: 0x23A64, symBinAddr: 0x1000277B8, symSize: 0x34 }
  - { offsetInCU: 0x92766, offset: 0x92766, size: 0x8, addend: 0x0, symName: __ZNSt3__16vectorIN5memdb9OperationENS_9allocatorIS2_EEE22__base_destruct_at_endB8ue170006EPS2_, symObjAddr: 0x23A98, symBinAddr: 0x1000277EC, symSize: 0x1FC }
  - { offsetInCU: 0x927AA, offset: 0x927AA, size: 0x8, addend: 0x0, symName: __ZNSt3__116allocator_traitsINS_9allocatorIN5memdb9OperationEEEE7destroyB8ue170006IS3_vvEEvRS4_PT_, symObjAddr: 0x23C94, symBinAddr: 0x1000279E8, symSize: 0x28 }
  - { offsetInCU: 0x927E5, offset: 0x927E5, size: 0x8, addend: 0x0, symName: __ZNSt3__19allocatorIN5memdb9OperationEE10deallocateB8ue170006EPS2_m, symObjAddr: 0x23CF0, symBinAddr: 0x100027A44, symSize: 0x78 }
  - { offsetInCU: 0x92827, offset: 0x92827, size: 0x8, addend: 0x0, symName: __ZNSt3__16vectorIN5memdb9OperationENS_9allocatorIS2_EEED2B8ue170006Ev, symObjAddr: 0x23E70, symBinAddr: 0x100027BC4, symSize: 0x294 }
  - { offsetInCU: 0x92852, offset: 0x92852, size: 0x8, addend: 0x0, symName: __ZNKSt3__111__wrap_iterIPN5memdb9OperationEE4baseB8ue170006Ev, symObjAddr: 0x241A0, symBinAddr: 0x100027EF4, symSize: 0xAC }
  - { offsetInCU: 0x92878, offset: 0x92878, size: 0x8, addend: 0x0, symName: __ZNSt3__118__unwrap_iter_implINS_11__wrap_iterIPN5memdb9OperationEEELb1EE8__rewrapB8ue170006ES5_S4_, symObjAddr: 0x24A84, symBinAddr: 0x1000287D8, symSize: 0x2D4 }
  - { offsetInCU: 0x928AE, offset: 0x928AE, size: 0x8, addend: 0x0, symName: __ZNKSt3__111__wrap_iterIPN5memdb9OperationEEplB8ue170006El, symObjAddr: 0x24D58, symBinAddr: 0x100028AAC, symSize: 0x258 }
  - { offsetInCU: 0x928F6, offset: 0x928F6, size: 0x8, addend: 0x0, symName: __ZNSt3__111__wrap_iterIPN5memdb9OperationEEpLB8ue170006El, symObjAddr: 0x2501C, symBinAddr: 0x100028D70, symSize: 0x228 }
  - { offsetInCU: 0x92936, offset: 0x92936, size: 0x8, addend: 0x0, symName: __ZNSt3__119__to_address_helperINS_11__wrap_iterIPN5memdb9OperationEEEvE6__callB8ue170006ERKS5_, symObjAddr: 0x25244, symBinAddr: 0x100028F98, symSize: 0x200 }
  - { offsetInCU: 0x9295A, offset: 0x9295A, size: 0x8, addend: 0x0, symName: __ZNSt3__114pointer_traitsINS_11__wrap_iterIPN5memdb9OperationEEEE10to_addressB8ue170006ES5_, symObjAddr: 0x25444, symBinAddr: 0x100029198, symSize: 0x1F4 }
  - { offsetInCU: 0x9298D, offset: 0x9298D, size: 0x8, addend: 0x0, symName: __ZNKSt3__110__identityclB8ue170006IRN5memdb9OperationEEEOT_S6_, symObjAddr: 0x25720, symBinAddr: 0x100029474, symSize: 0x98 }
  - { offsetInCU: 0x929CA, offset: 0x929CA, size: 0x8, addend: 0x0, symName: __ZNSt3__118__unwrap_iter_implINS_11__wrap_iterIPN5memdb9OperationEEELb1EE8__unwrapB8ue170006ES5_, symObjAddr: 0x257B8, symBinAddr: 0x10002950C, symSize: 0x1F0 }
  - { offsetInCU: 0x929F1, offset: 0x929F1, size: 0x8, addend: 0x0, symName: __ZNSt3__16vectorIN5memdb9OperationENS_9allocatorIS2_EEE11__make_iterB8ue170006EPS2_, symObjAddr: 0x259A8, symBinAddr: 0x1000296FC, symSize: 0x244 }
  - { offsetInCU: 0x92A28, offset: 0x92A28, size: 0x8, addend: 0x0, symName: __ZNSt3__111__wrap_iterIPN5memdb9OperationEEC1B8ue170006ES3_, symObjAddr: 0x25BEC, symBinAddr: 0x100029940, symSize: 0x80 }
  - { offsetInCU: 0x92A60, offset: 0x92A60, size: 0x8, addend: 0x0, symName: __ZNSt3__111__wrap_iterIPN5memdb9OperationEEC2B8ue170006ES3_, symObjAddr: 0x25C6C, symBinAddr: 0x1000299C0, symSize: 0xC8 }
  - { offsetInCU: 0x92A98, offset: 0x92A98, size: 0x8, addend: 0x0, symName: __ZNSt3__14pairIKNS_17basic_string_viewIcNS_11char_traitsIcEEEEN5memdb5lexer7CommandEEC2B8ue170006IRA7_KcS8_LPv0EEEOT_OT0_, symObjAddr: 0x25D34, symBinAddr: 0x100029A88, symSize: 0x1B0 }
  - { offsetInCU: 0x92AF6, offset: 0x92AF6, size: 0x8, addend: 0x0, symName: __ZNSt3__14pairIKNS_17basic_string_viewIcNS_11char_traitsIcEEEEN5memdb5lexer7CommandEEC2B8ue170006IRA5_KcS8_LPv0EEEOT_OT0_, symObjAddr: 0x25EE4, symBinAddr: 0x100029C38, symSize: 0x1B0 }
  - { offsetInCU: 0x92B54, offset: 0x92B54, size: 0x8, addend: 0x0, symName: __ZNSt3__14pairIKNS_17basic_string_viewIcNS_11char_traitsIcEEEEN5memdb5lexer10SubCommandEEC2B8ue170006IRA6_KcS8_LPv0EEEOT_OT0_, symObjAddr: 0x26094, symBinAddr: 0x100029DE8, symSize: 0x1B0 }
  - { offsetInCU: 0x92BB2, offset: 0x92BB2, size: 0x8, addend: 0x0, symName: __ZNSt3__14pairIKNS_17basic_string_viewIcNS_11char_traitsIcEEEEN5memdb5lexer10SubCommandEEC2B8ue170006IRA3_KcS8_LPv0EEEOT_OT0_, symObjAddr: 0x26244, symBinAddr: 0x100029F98, symSize: 0x1B0 }
  - { offsetInCU: 0x92C10, offset: 0x92C10, size: 0x8, addend: 0x0, symName: __ZNSt3__14pairIKNS_17basic_string_viewIcNS_11char_traitsIcEEEEN5memdb5lexer10SubCommandEEC2B8ue170006IRA4_KcS8_LPv0EEEOT_OT0_, symObjAddr: 0x263F4, symBinAddr: 0x10002A148, symSize: 0x1B0 }
  - { offsetInCU: 0x92C6E, offset: 0x92C6E, size: 0x8, addend: 0x0, symName: __ZNSt3__14pairIKNS_17basic_string_viewIcNS_11char_traitsIcEEEEN5memdb5lexer10SubCommandEEC2B8ue170006IRA5_KcS8_LPv0EEEOT_OT0_, symObjAddr: 0x265A4, symBinAddr: 0x10002A2F8, symSize: 0x1B0 }
  - { offsetInCU: 0x92CCC, offset: 0x92CCC, size: 0x8, addend: 0x0, symName: __ZNSt3__14pairIKNS_17basic_string_viewIcNS_11char_traitsIcEEEEN5memdb5lexer9AttributeEEC2B8ue170006IRA7_KcS8_LPv0EEEOT_OT0_, symObjAddr: 0x26754, symBinAddr: 0x10002A4A8, symSize: 0x1B0 }
  - { offsetInCU: 0x92D2A, offset: 0x92D2A, size: 0x8, addend: 0x0, symName: __ZNSt3__14pairIKNS_17basic_string_viewIcNS_11char_traitsIcEEEEN5memdb5lexer9AttributeEEC2B8ue170006IRA14_KcS8_LPv0EEEOT_OT0_, symObjAddr: 0x26904, symBinAddr: 0x10002A658, symSize: 0x1B0 }
  - { offsetInCU: 0x92D88, offset: 0x92D88, size: 0x8, addend: 0x0, symName: __ZNSt3__14pairIKNS_17basic_string_viewIcNS_11char_traitsIcEEEEN5memdb5lexer9AttributeEEC2B8ue170006IRA4_KcS8_LPv0EEEOT_OT0_, symObjAddr: 0x26AB4, symBinAddr: 0x10002A808, symSize: 0x1B0 }
  - { offsetInCU: 0x92DE6, offset: 0x92DE6, size: 0x8, addend: 0x0, symName: __ZNSt3__14pairIKNS_17basic_string_viewIcNS_11char_traitsIcEEEEN5memdb5lexer9AttributeEEC2B8ue170006IRA8_KcS8_LPv0EEEOT_OT0_, symObjAddr: 0x26C64, symBinAddr: 0x10002A9B8, symSize: 0x1B0 }
  - { offsetInCU: 0x92E44, offset: 0x92E44, size: 0x8, addend: 0x0, symName: __ZNSt3__14pairIKNS_17basic_string_viewIcNS_11char_traitsIcEEEEN5memdb5lexer9AttributeEEC2B8ue170006IRA10_KcS8_LPv0EEEOT_OT0_, symObjAddr: 0x26E14, symBinAddr: 0x10002AB68, symSize: 0x1B0 }
  - { offsetInCU: 0x92EA2, offset: 0x92EA2, size: 0x8, addend: 0x0, symName: __ZNSt3__14pairIKNS_17basic_string_viewIcNS_11char_traitsIcEEEEN5memdb9OperationEEC2B8ue170006IRA2_KcS7_LPv0EEEOT_OT0_, symObjAddr: 0x26FC4, symBinAddr: 0x10002AD18, symSize: 0x1B0 }
  - { offsetInCU: 0x92F00, offset: 0x92F00, size: 0x8, addend: 0x0, symName: __ZNSt3__14pairIKNS_17basic_string_viewIcNS_11char_traitsIcEEEEN5memdb9OperationEEC2B8ue170006IRA3_KcS7_LPv0EEEOT_OT0_, symObjAddr: 0x27174, symBinAddr: 0x10002AEC8, symSize: 0x1B0 }
  - { offsetInCU: 0x92F5E, offset: 0x92F5E, size: 0x8, addend: 0x0, symName: __ZNSt3__14pairIKNS_17basic_string_viewIcNS_11char_traitsIcEEEEN5memdb5lexer7BracketEEC2B8ue170006IRA2_KcS8_LPv0EEEOT_OT0_, symObjAddr: 0x27324, symBinAddr: 0x10002B078, symSize: 0x1B0 }
  - { offsetInCU: 0x92FBC, offset: 0x92FBC, size: 0x8, addend: 0x0, symName: __ZNSt3__14pairIKNS_17basic_string_viewIcNS_11char_traitsIcEEEEN5memdb5lexer7BracketEEC2B8ue170006IRA3_KcS8_LPv0EEEOT_OT0_, symObjAddr: 0x274D4, symBinAddr: 0x10002B228, symSize: 0x1B0 }
  - { offsetInCU: 0x9301A, offset: 0x9301A, size: 0x8, addend: 0x0, symName: __ZNSt3__14pairIKNS_17basic_string_viewIcNS_11char_traitsIcEEEEN5memdb4TypeEEC2B8ue170006IRA6_KcS7_LPv0EEEOT_OT0_, symObjAddr: 0x27684, symBinAddr: 0x10002B3D8, symSize: 0x1B0 }
  - { offsetInCU: 0x93078, offset: 0x93078, size: 0x8, addend: 0x0, symName: __ZNSt3__14pairIKNS_17basic_string_viewIcNS_11char_traitsIcEEEEN5memdb4TypeEEC2B8ue170006IRA5_KcS7_LPv0EEEOT_OT0_, symObjAddr: 0x27834, symBinAddr: 0x10002B588, symSize: 0x1B0 }
  - { offsetInCU: 0x930D6, offset: 0x930D6, size: 0x8, addend: 0x0, symName: __ZNSt3__14pairIKNS_17basic_string_viewIcNS_11char_traitsIcEEEEN5memdb4TypeEEC2B8ue170006IRA7_KcS7_LPv0EEEOT_OT0_, symObjAddr: 0x279E4, symBinAddr: 0x10002B738, symSize: 0x1B0 }
  - { offsetInCU: 0x93134, offset: 0x93134, size: 0x8, addend: 0x0, symName: __ZNSt3__14pairIKNS_17basic_string_viewIcNS_11char_traitsIcEEEEN5memdb5lexer5OtherEEC2B8ue170006IRA2_KcS8_LPv0EEEOT_OT0_, symObjAddr: 0x27B94, symBinAddr: 0x10002B8E8, symSize: 0x1B0 }
  - { offsetInCU: 0x93192, offset: 0x93192, size: 0x8, addend: 0x0, symName: __ZNSt3__112basic_stringIcNS_11char_traitsIcEENS_9allocatorIcEEEC2B8ue170006Ev, symObjAddr: 0x27D44, symBinAddr: 0x10002BA98, symSize: 0x274 }
  - { offsetInCU: 0x931BD, offset: 0x931BD, size: 0x8, addend: 0x0, symName: __ZNSt3__117__compressed_pairINS_12basic_stringIcNS_11char_traitsIcEENS_9allocatorIcEEE5__repES5_EC1B8ue170006INS_18__default_init_tagESA_EEOT_OT0_, symObjAddr: 0x27FB8, symBinAddr: 0x10002BD0C, symSize: 0x88 }
  - { offsetInCU: 0x93215, offset: 0x93215, size: 0x8, addend: 0x0, symName: __ZNSt3__112basic_stringIcNS_11char_traitsIcEENS_9allocatorIcEEE14__default_initB8ue170006Ev, symObjAddr: 0x28040, symBinAddr: 0x10002BD94, symSize: 0x2B4 }
  - { offsetInCU: 0x9323C, offset: 0x9323C, size: 0x8, addend: 0x0, symName: __ZNSt3__117__compressed_pairINS_12basic_stringIcNS_11char_traitsIcEENS_9allocatorIcEEE5__repES5_EC2B8ue170006INS_18__default_init_tagESA_EEOT_OT0_, symObjAddr: 0x282F4, symBinAddr: 0x10002C048, symSize: 0xF4 }
  - { offsetInCU: 0x93294, offset: 0x93294, size: 0x8, addend: 0x0, symName: __ZNSt3__122__compressed_pair_elemINS_12basic_stringIcNS_11char_traitsIcEENS_9allocatorIcEEE5__repELi0ELb0EEC2B8ue170006ENS_18__default_init_tagE, symObjAddr: 0x283E8, symBinAddr: 0x10002C13C, symSize: 0x6C }
  - { offsetInCU: 0x932C9, offset: 0x932C9, size: 0x8, addend: 0x0, symName: __ZNSt3__122__compressed_pair_elemINS_9allocatorIcEELi1ELb1EEC2B8ue170006ENS_18__default_init_tagE, symObjAddr: 0x28454, symBinAddr: 0x10002C1A8, symSize: 0x84 }
  - { offsetInCU: 0x932FE, offset: 0x932FE, size: 0x8, addend: 0x0, symName: __ZNSt3__19allocatorIcEC2B8ue170006Ev, symObjAddr: 0x284D8, symBinAddr: 0x10002C22C, symSize: 0x84 }
  - { offsetInCU: 0x93328, offset: 0x93328, size: 0x8, addend: 0x0, symName: __ZNSt3__116__non_trivial_ifILb1ENS_9allocatorIcEEEC2B8ue170006Ev, symObjAddr: 0x2855C, symBinAddr: 0x10002C2B0, symSize: 0x54 }
  - { offsetInCU: 0x93352, offset: 0x93352, size: 0x8, addend: 0x0, symName: __ZNSt3__117__compressed_pairINS_12basic_stringIcNS_11char_traitsIcEENS_9allocatorIcEEE5__repES5_E5firstB8ue170006Ev, symObjAddr: 0x285B0, symBinAddr: 0x10002C304, symSize: 0x124 }
  - { offsetInCU: 0x93378, offset: 0x93378, size: 0x8, addend: 0x0, symName: __ZNSt3__122__compressed_pair_elemINS_12basic_stringIcNS_11char_traitsIcEENS_9allocatorIcEEE5__repELi0ELb0EE5__getB8ue170006Ev, symObjAddr: 0x286D4, symBinAddr: 0x10002C428, symSize: 0xAC }
  - { offsetInCU: 0x9339D, offset: 0x9339D, size: 0x8, addend: 0x0, symName: __Z9__isctypeim, symObjAddr: 0x28780, symBinAddr: 0x10002C4D4, symSize: 0x27C }
  - { offsetInCU: 0x933D7, offset: 0x933D7, size: 0x8, addend: 0x0, symName: __Z8__istypeim, symObjAddr: 0x289FC, symBinAddr: 0x10002C750, symSize: 0x250 }
  - { offsetInCU: 0x93412, offset: 0x93412, size: 0x8, addend: 0x0, symName: __Z7isasciii, symObjAddr: 0x28C4C, symBinAddr: 0x10002C9A0, symSize: 0x24 }
  - { offsetInCU: 0x9343E, offset: 0x9343E, size: 0x8, addend: 0x0, symName: __ZNKSt3__112basic_stringIcNS_11char_traitsIcEENS_9allocatorIcEEE4dataB8ue170006Ev, symObjAddr: 0x28C70, symBinAddr: 0x10002C9C4, symSize: 0x70 }
  - { offsetInCU: 0x93464, offset: 0x93464, size: 0x8, addend: 0x0, symName: __ZNSt3__117basic_string_viewIcNS_11char_traitsIcEEEC1B8ue170006EPKcm, symObjAddr: 0x28CE0, symBinAddr: 0x10002CA34, symSize: 0x88 }
  - { offsetInCU: 0x934AC, offset: 0x934AC, size: 0x8, addend: 0x0, symName: __ZNKSt3__112basic_stringIcNS_11char_traitsIcEENS_9allocatorIcEEE13__get_pointerB8ue170006Ev, symObjAddr: 0x28D7C, symBinAddr: 0x10002CAD0, symSize: 0x98 }
  - { offsetInCU: 0x934D2, offset: 0x934D2, size: 0x8, addend: 0x0, symName: __ZNKSt3__112basic_stringIcNS_11char_traitsIcEENS_9allocatorIcEEE9__is_longB8ue170006Ev, symObjAddr: 0x28E14, symBinAddr: 0x10002CB68, symSize: 0x1FC }
  - { offsetInCU: 0x934F8, offset: 0x934F8, size: 0x8, addend: 0x0, symName: __ZNKSt3__112basic_stringIcNS_11char_traitsIcEENS_9allocatorIcEEE18__get_long_pointerB8ue170006Ev, symObjAddr: 0x29010, symBinAddr: 0x10002CD64, symSize: 0x208 }
  - { offsetInCU: 0x9351E, offset: 0x9351E, size: 0x8, addend: 0x0, symName: __ZNKSt3__112basic_stringIcNS_11char_traitsIcEENS_9allocatorIcEEE19__get_short_pointerB8ue170006Ev, symObjAddr: 0x29218, symBinAddr: 0x10002CF6C, symSize: 0x1CC }
  - { offsetInCU: 0x93544, offset: 0x93544, size: 0x8, addend: 0x0, symName: __ZNKSt3__117__compressed_pairINS_12basic_stringIcNS_11char_traitsIcEENS_9allocatorIcEEE5__repES5_E5firstB8ue170006Ev, symObjAddr: 0x293E4, symBinAddr: 0x10002D138, symSize: 0x124 }
  - { offsetInCU: 0x9356A, offset: 0x9356A, size: 0x8, addend: 0x0, symName: __ZNKSt3__122__compressed_pair_elemINS_12basic_stringIcNS_11char_traitsIcEENS_9allocatorIcEEE5__repELi0ELb0EE5__getB8ue170006Ev, symObjAddr: 0x29508, symBinAddr: 0x10002D25C, symSize: 0xAC }
  - { offsetInCU: 0x93590, offset: 0x93590, size: 0x8, addend: 0x0, symName: __ZNSt3__114pointer_traitsIPKcE10pointer_toB8ue170006ERS1_, symObjAddr: 0x295B4, symBinAddr: 0x10002D308, symSize: 0x14 }
  - { offsetInCU: 0x935B3, offset: 0x935B3, size: 0x8, addend: 0x0, symName: __ZNSt3__117basic_string_viewIcNS_11char_traitsIcEEEC2B8ue170006EPKcm, symObjAddr: 0x295C8, symBinAddr: 0x10002D31C, symSize: 0x110 }
  - { offsetInCU: 0x935FB, offset: 0x935FB, size: 0x8, addend: 0x0, symName: __ZNSt3__14pairIbN5memdb5lexer7CommandEEC2B8ue170006IbS3_LPv0EEEOT_OT0_, symObjAddr: 0x296D8, symBinAddr: 0x10002D42C, symSize: 0x2C4 }
  - { offsetInCU: 0x93659, offset: 0x93659, size: 0x8, addend: 0x0, symName: __ZNSt3__14pairIbN5memdb5lexer7CommandEEC2B8ue170006IbRS3_LPv0EEEOT_OT0_, symObjAddr: 0x2999C, symBinAddr: 0x10002D6F0, symSize: 0x2C4 }
  - { offsetInCU: 0x936B7, offset: 0x936B7, size: 0x8, addend: 0x0, symName: __ZNSt3__14pairIbN5memdb5lexer10SubCommandEEC2B8ue170006IbS3_LPv0EEEOT_OT0_, symObjAddr: 0x29C60, symBinAddr: 0x10002D9B4, symSize: 0x2C4 }
  - { offsetInCU: 0x93715, offset: 0x93715, size: 0x8, addend: 0x0, symName: __ZNSt3__14pairIbN5memdb5lexer10SubCommandEEC2B8ue170006IbRS3_LPv0EEEOT_OT0_, symObjAddr: 0x29F24, symBinAddr: 0x10002DC78, symSize: 0x2C4 }
  - { offsetInCU: 0x93773, offset: 0x93773, size: 0x8, addend: 0x0, symName: __ZNSt3__14pairIbN5memdb5lexer9AttributeEEC2B8ue170006IbS3_LPv0EEEOT_OT0_, symObjAddr: 0x2A1E8, symBinAddr: 0x10002DF3C, symSize: 0x2C4 }
  - { offsetInCU: 0x937D1, offset: 0x937D1, size: 0x8, addend: 0x0, symName: __ZNSt3__14pairIbN5memdb5lexer9AttributeEEC2B8ue170006IbRS3_LPv0EEEOT_OT0_, symObjAddr: 0x2A4AC, symBinAddr: 0x10002E200, symSize: 0x2C4 }
  - { offsetInCU: 0x9382F, offset: 0x9382F, size: 0x8, addend: 0x0, symName: __ZNSt3__14pairIbN5memdb9OperationEEC2B8ue170006IbS2_LPv0EEEOT_OT0_, symObjAddr: 0x2A770, symBinAddr: 0x10002E4C4, symSize: 0x2C4 }
  - { offsetInCU: 0x9388D, offset: 0x9388D, size: 0x8, addend: 0x0, symName: __ZNSt3__14pairIbN5memdb9OperationEEC2B8ue170006IbRS2_LPv0EEEOT_OT0_, symObjAddr: 0x2AA34, symBinAddr: 0x10002E788, symSize: 0x2C4 }
  - { offsetInCU: 0x938EB, offset: 0x938EB, size: 0x8, addend: 0x0, symName: __ZNSt3__14pairIbN5memdb5lexer5OtherEEC2B8ue170006IbS3_LPv0EEEOT_OT0_, symObjAddr: 0x2ACF8, symBinAddr: 0x10002EA4C, symSize: 0x2C4 }
  - { offsetInCU: 0x93949, offset: 0x93949, size: 0x8, addend: 0x0, symName: __ZNSt3__14pairIbN5memdb5lexer5OtherEEC2B8ue170006IbRS3_LPv0EEEOT_OT0_, symObjAddr: 0x2AFBC, symBinAddr: 0x10002ED10, symSize: 0x2C4 }
  - { offsetInCU: 0x939B3, offset: 0x939B3, size: 0x8, addend: 0x0, symName: __ZNSt3__116allocator_traitsINS_9allocatorIcEEE37select_on_container_copy_constructionB8ue170006IS2_vvEES2_RKS2_, symObjAddr: 0x2B280, symBinAddr: 0x10002EFD4, symSize: 0x10 }
  - { offsetInCU: 0x939E2, offset: 0x939E2, size: 0x8, addend: 0x0, symName: __ZNKSt3__112basic_stringIcNS_11char_traitsIcEENS_9allocatorIcEEE13get_allocatorB8ue170006Ev, symObjAddr: 0x2B290, symBinAddr: 0x10002EFE4, symSize: 0x6C }
  - { offsetInCU: 0x93A08, offset: 0x93A08, size: 0x8, addend: 0x0, symName: __ZNSt3__112basic_stringIcNS_11char_traitsIcEENS_9allocatorIcEEEC1B8ue170006ENS_24__uninitialized_size_tagEmRKS4_, symObjAddr: 0x2B2FC, symBinAddr: 0x10002F050, symSize: 0x88 }
  - { offsetInCU: 0x93A5C, offset: 0x93A5C, size: 0x8, addend: 0x0, symName: __ZNSt3__112basic_stringIcNS_11char_traitsIcEENS_9allocatorIcEEE13__get_pointerB8ue170006Ev, symObjAddr: 0x2B398, symBinAddr: 0x10002F0EC, symSize: 0x98 }
  - { offsetInCU: 0x93A82, offset: 0x93A82, size: 0x8, addend: 0x0, symName: __ZNSt3__111char_traitsIcE4copyB8ue170006EPcPKcm, symObjAddr: 0x2B430, symBinAddr: 0x10002F184, symSize: 0x4C }
  - { offsetInCU: 0x93AC1, offset: 0x93AC1, size: 0x8, addend: 0x0, symName: __ZNSt3__111char_traitsIcE6assignB8ue170006EPcmc, symObjAddr: 0x2B47C, symBinAddr: 0x10002F1D0, symSize: 0x23C }
  - { offsetInCU: 0x93B06, offset: 0x93B06, size: 0x8, addend: 0x0, symName: __ZNKSt3__112basic_stringIcNS_11char_traitsIcEENS_9allocatorIcEEE7__allocB8ue170006Ev, symObjAddr: 0x2B6B8, symBinAddr: 0x10002F40C, symSize: 0xDC }
  - { offsetInCU: 0x93B2C, offset: 0x93B2C, size: 0x8, addend: 0x0, symName: __ZNKSt3__117__compressed_pairINS_12basic_stringIcNS_11char_traitsIcEENS_9allocatorIcEEE5__repES5_E6secondB8ue170006Ev, symObjAddr: 0x2B794, symBinAddr: 0x10002F4E8, symSize: 0x108 }
  - { offsetInCU: 0x93B52, offset: 0x93B52, size: 0x8, addend: 0x0, symName: __ZNKSt3__122__compressed_pair_elemINS_9allocatorIcEELi1ELb1EE5__getB8ue170006Ev, symObjAddr: 0x2B89C, symBinAddr: 0x10002F5F0, symSize: 0x74 }
  - { offsetInCU: 0x93B78, offset: 0x93B78, size: 0x8, addend: 0x0, symName: __ZNSt3__112basic_stringIcNS_11char_traitsIcEENS_9allocatorIcEEEC2B8ue170006ENS_24__uninitialized_size_tagEmRKS4_, symObjAddr: 0x2B910, symBinAddr: 0x10002F664, symSize: 0x42C }
  - { offsetInCU: 0x93BFE, offset: 0x93BFE, size: 0x8, addend: 0x0, symName: __ZNSt3__117__compressed_pairINS_12basic_stringIcNS_11char_traitsIcEENS_9allocatorIcEEE5__repES5_EC1B8ue170006INS_18__default_init_tagERKS5_EEOT_OT0_, symObjAddr: 0x2BD3C, symBinAddr: 0x10002FA90, symSize: 0x88 }
  - { offsetInCU: 0x93C56, offset: 0x93C56, size: 0x8, addend: 0x0, symName: __ZNKSt3__112basic_stringIcNS_11char_traitsIcEENS_9allocatorIcEEE8max_sizeB8ue170006Ev, symObjAddr: 0x2BDC4, symBinAddr: 0x10002FB18, symSize: 0x1B8 }
  - { offsetInCU: 0x93CA8, offset: 0x93CA8, size: 0x8, addend: 0x0, symName: __ZNKSt3__112basic_stringIcNS_11char_traitsIcEENS_9allocatorIcEEE20__throw_length_errorB8ue170006Ev, symObjAddr: 0x2BF7C, symBinAddr: 0x10002FCD0, symSize: 0x80 }
  - { offsetInCU: 0x93CCE, offset: 0x93CCE, size: 0x8, addend: 0x0, symName: __ZNSt3__112basic_stringIcNS_11char_traitsIcEENS_9allocatorIcEEE13__fits_in_ssoB8ue170006Em, symObjAddr: 0x2BFFC, symBinAddr: 0x10002FD50, symSize: 0x20 }
  - { offsetInCU: 0x93CF2, offset: 0x93CF2, size: 0x8, addend: 0x0, symName: __ZNSt3__112basic_stringIcNS_11char_traitsIcEENS_9allocatorIcEEE16__set_short_sizeB8ue170006Em, symObjAddr: 0x2C01C, symBinAddr: 0x10002FD70, symSize: 0x394 }
  - { offsetInCU: 0x93D27, offset: 0x93D27, size: 0x8, addend: 0x0, symName: __ZNSt3__112basic_stringIcNS_11char_traitsIcEENS_9allocatorIcEEE11__recommendB8ue170006Em, symObjAddr: 0x2C3B0, symBinAddr: 0x100030104, symSize: 0x84 }
  - { offsetInCU: 0x93D5A, offset: 0x93D5A, size: 0x8, addend: 0x0, symName: __ZNSt3__116allocator_traitsINS_9allocatorIcEEE8allocateB8ue170006ERS2_m, symObjAddr: 0x2C434, symBinAddr: 0x100030188, symSize: 0x2C }
  - { offsetInCU: 0x93D8D, offset: 0x93D8D, size: 0x8, addend: 0x0, symName: __ZNSt3__112basic_stringIcNS_11char_traitsIcEENS_9allocatorIcEEE7__allocB8ue170006Ev, symObjAddr: 0x2C460, symBinAddr: 0x1000301B4, symSize: 0xDC }
  - { offsetInCU: 0x93DB3, offset: 0x93DB3, size: 0x8, addend: 0x0, symName: __ZNSt3__112basic_stringIcNS_11char_traitsIcEENS_9allocatorIcEEE16__begin_lifetimeB8ue170006EPcm, symObjAddr: 0x2C53C, symBinAddr: 0x100030290, symSize: 0x14 }
  - { offsetInCU: 0x93DE6, offset: 0x93DE6, size: 0x8, addend: 0x0, symName: __ZNSt3__112basic_stringIcNS_11char_traitsIcEENS_9allocatorIcEEE14__set_long_capB8ue170006Em, symObjAddr: 0x2C550, symBinAddr: 0x1000302A4, symSize: 0x37C }
  - { offsetInCU: 0x93E1B, offset: 0x93E1B, size: 0x8, addend: 0x0, symName: __ZNSt3__112basic_stringIcNS_11char_traitsIcEENS_9allocatorIcEEE18__set_long_pointerB8ue170006EPc, symObjAddr: 0x2C8CC, symBinAddr: 0x100030620, symSize: 0x218 }
  - { offsetInCU: 0x93E50, offset: 0x93E50, size: 0x8, addend: 0x0, symName: __ZNSt3__112basic_stringIcNS_11char_traitsIcEENS_9allocatorIcEEE15__set_long_sizeB8ue170006Em, symObjAddr: 0x2CAE4, symBinAddr: 0x100030838, symSize: 0x220 }
  - { offsetInCU: 0x93E85, offset: 0x93E85, size: 0x8, addend: 0x0, symName: __ZNSt3__117__compressed_pairINS_12basic_stringIcNS_11char_traitsIcEENS_9allocatorIcEEE5__repES5_EC2B8ue170006INS_18__default_init_tagERKS5_EEOT_OT0_, symObjAddr: 0x2CD04, symBinAddr: 0x100030A58, symSize: 0x124 }
  - { offsetInCU: 0x93EDD, offset: 0x93EDD, size: 0x8, addend: 0x0, symName: __ZNSt3__122__compressed_pair_elemINS_9allocatorIcEELi1ELb1EEC2B8ue170006IRKS2_vEEOT_, symObjAddr: 0x2CE28, symBinAddr: 0x100030B7C, symSize: 0x58 }
  - { offsetInCU: 0x93F1F, offset: 0x93F1F, size: 0x8, addend: 0x0, symName: __ZNSt3__116allocator_traitsINS_9allocatorIcEEE8max_sizeB8ue170006IS2_vvEEmRKS2_, symObjAddr: 0x2CE80, symBinAddr: 0x100030BD4, symSize: 0x54 }
  - { offsetInCU: 0x93F4B, offset: 0x93F4B, size: 0x8, addend: 0x0, symName: __ZNSt3__112basic_stringIcNS_11char_traitsIcEENS_9allocatorIcEEE10__align_itB8ue170006ILm16EEEmm, symObjAddr: 0x2CED4, symBinAddr: 0x100030C28, symSize: 0x1C }
  - { offsetInCU: 0x93F79, offset: 0x93F79, size: 0x8, addend: 0x0, symName: __ZNSt3__19allocatorIcE8allocateB8ue170006Em, symObjAddr: 0x2CEF0, symBinAddr: 0x100030C44, symSize: 0xCC }
  - { offsetInCU: 0x93FAD, offset: 0x93FAD, size: 0x8, addend: 0x0, symName: __ZNSt3__117__compressed_pairINS_12basic_stringIcNS_11char_traitsIcEENS_9allocatorIcEEE5__repES5_E6secondB8ue170006Ev, symObjAddr: 0x2CFBC, symBinAddr: 0x100030D10, symSize: 0x108 }
  - { offsetInCU: 0x93FD3, offset: 0x93FD3, size: 0x8, addend: 0x0, symName: __ZNSt3__122__compressed_pair_elemINS_9allocatorIcEELi1ELb1EE5__getB8ue170006Ev, symObjAddr: 0x2D0C4, symBinAddr: 0x100030E18, symSize: 0x74 }
  - { offsetInCU: 0x93FF9, offset: 0x93FF9, size: 0x8, addend: 0x0, symName: __ZNSt3__112basic_stringIcNS_11char_traitsIcEENS_9allocatorIcEEE18__get_long_pointerB8ue170006Ev, symObjAddr: 0x2D138, symBinAddr: 0x100030E8C, symSize: 0x208 }
  - { offsetInCU: 0x9401F, offset: 0x9401F, size: 0x8, addend: 0x0, symName: __ZNSt3__112basic_stringIcNS_11char_traitsIcEENS_9allocatorIcEEE19__get_short_pointerB8ue170006Ev, symObjAddr: 0x2D340, symBinAddr: 0x100031094, symSize: 0x1CC }
  - { offsetInCU: 0x94045, offset: 0x94045, size: 0x8, addend: 0x0, symName: __ZNSt3__114pointer_traitsIPcE10pointer_toB8ue170006ERc, symObjAddr: 0x2D50C, symBinAddr: 0x100031260, symSize: 0x14 }
  - { offsetInCU: 0x9408C, offset: 0x9408C, size: 0x8, addend: 0x0, symName: __ZNKSt3__114__copy_trivialclB8ue170006IKccLi0EEENS_4pairIPT_PT0_EES5_S5_S7_, symObjAddr: 0x2E5C0, symBinAddr: 0x100032314, symSize: 0x25C }
  - { offsetInCU: 0x9411C, offset: 0x9411C, size: 0x8, addend: 0x0, symName: __ZNSt3__119__unwrap_range_implIPKcS2_E8__unwrapB8ue170006ES2_S2_, symObjAddr: 0x2EB54, symBinAddr: 0x1000328A8, symSize: 0x30C }
  - { offsetInCU: 0x94155, offset: 0x94155, size: 0x8, addend: 0x0, symName: __ZNSt3__14pairIPKcS2_EC1B8ue170006IS2_S2_LPv0EEEOT_OT0_, symObjAddr: 0x2EE84, symBinAddr: 0x100032BD8, symSize: 0x88 }
  - { offsetInCU: 0x941B3, offset: 0x941B3, size: 0x8, addend: 0x0, symName: __ZNSt3__118__unwrap_iter_implIPKcLb1EE8__unwrapB8ue170006ES2_, symObjAddr: 0x2EF0C, symBinAddr: 0x100032C60, symSize: 0x24 }
  - { offsetInCU: 0x941D6, offset: 0x941D6, size: 0x8, addend: 0x0, symName: __ZNSt3__14pairIPKcS2_EC2B8ue170006IS2_S2_LPv0EEEOT_OT0_, symObjAddr: 0x2EF30, symBinAddr: 0x100032C84, symSize: 0x210 }
  - { offsetInCU: 0x94240, offset: 0x94240, size: 0x8, addend: 0x0, symName: __ZNSt3__14pairIPKcPcEC1B8ue170006IRS2_S3_LPv0EEEOT_OT0_, symObjAddr: 0x2F8B8, symBinAddr: 0x10003360C, symSize: 0x88 }
  - { offsetInCU: 0x9429E, offset: 0x9429E, size: 0x8, addend: 0x0, symName: __ZNSt3__14pairIPKcPcEC2B8ue170006IRS2_S3_LPv0EEEOT_OT0_, symObjAddr: 0x2F940, symBinAddr: 0x100033694, symSize: 0x210 }
  - { offsetInCU: 0x942FC, offset: 0x942FC, size: 0x8, addend: 0x0, symName: __ZNSt3__118__unwrap_iter_implIPcLb1EE8__unwrapB8ue170006ES1_, symObjAddr: 0x2FB50, symBinAddr: 0x1000338A4, symSize: 0x24 }
  - { offsetInCU: 0x9431F, offset: 0x9431F, size: 0x8, addend: 0x0, symName: __ZNSt3__14pairIPKcPcEC1B8ue170006IS2_S3_LPv0EEEOT_OT0_, symObjAddr: 0x2FB74, symBinAddr: 0x1000338C8, symSize: 0x88 }
  - { offsetInCU: 0x9437D, offset: 0x9437D, size: 0x8, addend: 0x0, symName: __ZNSt3__14pairIPKcPcEC2B8ue170006IS2_S3_LPv0EEEOT_OT0_, symObjAddr: 0x2FBFC, symBinAddr: 0x100033950, symSize: 0x210 }
  - { offsetInCU: 0x943DB, offset: 0x943DB, size: 0x8, addend: 0x0, symName: __ZNSt3__119__unwrap_range_implIPKcS2_E8__rewrapB8ue170006ES2_S2_, symObjAddr: 0x2FE0C, symBinAddr: 0x100033B60, symSize: 0x2C }
  - { offsetInCU: 0x9440C, offset: 0x9440C, size: 0x8, addend: 0x0, symName: __ZNSt3__118__unwrap_iter_implIPKcLb1EE8__rewrapB8ue170006ES2_S2_, symObjAddr: 0x2FE80, symBinAddr: 0x100033BD4, symSize: 0x134 }
  - { offsetInCU: 0x9443D, offset: 0x9443D, size: 0x8, addend: 0x0, symName: __ZNSt3__118__unwrap_iter_implIPcLb1EE8__rewrapB8ue170006ES1_S1_, symObjAddr: 0x2FFB4, symBinAddr: 0x100033D08, symSize: 0x134 }
  - { offsetInCU: 0x9446E, offset: 0x9446E, size: 0x8, addend: 0x0, symName: __ZNSt3__14pairIbN5memdb5lexer7BracketEEC2B8ue170006IbRS3_LPv0EEEOT_OT0_, symObjAddr: 0x3034C, symBinAddr: 0x1000340A0, symSize: 0x2C4 }
  - { offsetInCU: 0x944CC, offset: 0x944CC, size: 0x8, addend: 0x0, symName: __ZNSt3__14pairIbN5memdb5lexer7BracketEEC2B8ue170006IbS3_LPv0EEEOT_OT0_, symObjAddr: 0x30610, symBinAddr: 0x100034364, symSize: 0x2C4 }
  - { offsetInCU: 0x94536, offset: 0x94536, size: 0x8, addend: 0x0, symName: '__ZZN5memdb5lexer5IsIntERNSt3__16vectorINS1_12basic_stringIcNS1_11char_traitsIcEENS1_9allocatorIcEEEENS6_IS8_EEEEiENK3$_0clEc', symObjAddr: 0x30998, symBinAddr: 0x1000346EC, symSize: 0x50 }
  - { offsetInCU: 0x9456E, offset: 0x9456E, size: 0x8, addend: 0x0, symName: __ZNKSt3__111__wrap_iterIPcEdeB8ue170006Ev, symObjAddr: 0x309E8, symBinAddr: 0x10003473C, symSize: 0xD8 }
  - { offsetInCU: 0x94594, offset: 0x94594, size: 0x8, addend: 0x0, symName: __ZNSt3__111__wrap_iterIPcEppB8ue170006Ev, symObjAddr: 0x30AC0, symBinAddr: 0x100034814, symSize: 0x1A8 }
  - { offsetInCU: 0x945BA, offset: 0x945BA, size: 0x8, addend: 0x0, symName: __ZNKSt3__111__wrap_iterIPcE4baseB8ue170006Ev, symObjAddr: 0x30D04, symBinAddr: 0x100034A58, symSize: 0xAC }
  - { offsetInCU: 0x945E0, offset: 0x945E0, size: 0x8, addend: 0x0, symName: __ZNSt3__112basic_stringIcNS_11char_traitsIcEENS_9allocatorIcEEE15__make_iteratorB8ue170006EPc, symObjAddr: 0x30DB0, symBinAddr: 0x100034B04, symSize: 0x244 }
  - { offsetInCU: 0x94617, offset: 0x94617, size: 0x8, addend: 0x0, symName: __ZNSt3__111__wrap_iterIPcEC1B8ue170006ES1_, symObjAddr: 0x30FF4, symBinAddr: 0x100034D48, symSize: 0x80 }
  - { offsetInCU: 0x9464F, offset: 0x9464F, size: 0x8, addend: 0x0, symName: __ZNSt3__111__wrap_iterIPcEC2B8ue170006ES1_, symObjAddr: 0x31074, symBinAddr: 0x100034DC8, symSize: 0xC8 }
  - { offsetInCU: 0x94687, offset: 0x94687, size: 0x8, addend: 0x0, symName: __ZNSt3__14pairIbiEC2B8ue170006IbiLPv0EEEOT_OT0_, symObjAddr: 0x3113C, symBinAddr: 0x100034E90, symSize: 0x2C4 }
  - { offsetInCU: 0x946E5, offset: 0x946E5, size: 0x8, addend: 0x0, symName: __ZN5memdb10ColumnTypeC2ENS_4TypeE, symObjAddr: 0x31400, symBinAddr: 0x100035154, symSize: 0xF0 }
  - { offsetInCU: 0x9471D, offset: 0x9471D, size: 0x8, addend: 0x0, symName: __ZNSt3__14pairIbN5memdb10ColumnTypeEEC2B8ue170006IbS2_LPv0EEEOT_OT0_, symObjAddr: 0x314F0, symBinAddr: 0x100035244, symSize: 0x1BC }
  - { offsetInCU: 0x9477B, offset: 0x9477B, size: 0x8, addend: 0x0, symName: __ZN5memdb10ColumnTypeC2ENS_4TypeEi, symObjAddr: 0x316AC, symBinAddr: 0x100035400, symSize: 0x160 }
  - { offsetInCU: 0x947C1, offset: 0x947C1, size: 0x8, addend: 0x0, symName: __ZNSt3__19allocatorIcEC1B8ue170006Ev, symObjAddr: 0x3180C, symBinAddr: 0x100035560, symSize: 0x5C }
  - { offsetInCU: 0x947EB, offset: 0x947EB, size: 0x8, addend: 0x0, symName: __ZNKSt3__112basic_stringIcNS_11char_traitsIcEENS_9allocatorIcEEE15__get_long_sizeB8ue170006Ev, symObjAddr: 0x31868, symBinAddr: 0x1000355BC, symSize: 0x210 }
  - { offsetInCU: 0x94811, offset: 0x94811, size: 0x8, addend: 0x0, symName: __ZNKSt3__112basic_stringIcNS_11char_traitsIcEENS_9allocatorIcEEE16__get_short_sizeB8ue170006Ev, symObjAddr: 0x31A78, symBinAddr: 0x1000357CC, symSize: 0x1F8 }
  - { offsetInCU: 0x94837, offset: 0x94837, size: 0x8, addend: 0x0, symName: __ZNSt3__14pairIbNS_12basic_stringIcNS_11char_traitsIcEENS_9allocatorIcEEEEEC2B8ue170006IbS6_LPv0EEEOT_OT0_, symObjAddr: 0x31C70, symBinAddr: 0x1000359C4, symSize: 0x208 }
  - { offsetInCU: 0x94895, offset: 0x94895, size: 0x8, addend: 0x0, symName: __ZNSt3__112basic_stringIcNS_11char_traitsIcEENS_9allocatorIcEEEC1B8ue170006EOS5_, symObjAddr: 0x31E78, symBinAddr: 0x100035BCC, symSize: 0x80 }
  - { offsetInCU: 0x948CE, offset: 0x948CE, size: 0x8, addend: 0x0, symName: __ZNSt3__112basic_stringIcNS_11char_traitsIcEENS_9allocatorIcEEEC2B8ue170006EOS5_, symObjAddr: 0x31EF8, symBinAddr: 0x100035C4C, symSize: 0xB8 }
  - { offsetInCU: 0x94907, offset: 0x94907, size: 0x8, addend: 0x0, symName: __ZNSt3__16vectorIcNS_9allocatorIcEEEC2Em, symObjAddr: 0x31FB0, symBinAddr: 0x100035D04, symSize: 0x51C }
  - { offsetInCU: 0x9495D, offset: 0x9495D, size: 0x8, addend: 0x0, symName: __ZNSt3__117__compressed_pairIPcNS_9allocatorIcEEEC1B8ue170006IDnNS_18__default_init_tagEEEOT_OT0_, symObjAddr: 0x324CC, symBinAddr: 0x100036220, symSize: 0x88 }
  - { offsetInCU: 0x949B5, offset: 0x949B5, size: 0x8, addend: 0x0, symName: __ZNSt3__16vectorIcNS_9allocatorIcEEE16__destroy_vectorC1B8ue170006ERS3_, symObjAddr: 0x32810, symBinAddr: 0x100036564, symSize: 0x80 }
  - { offsetInCU: 0x949EE, offset: 0x949EE, size: 0x8, addend: 0x0, symName: __ZNSt3__16vectorIcNS_9allocatorIcEEE11__vallocateB8ue170006Em, symObjAddr: 0x32890, symBinAddr: 0x1000365E4, symSize: 0x5E8 }
  - { offsetInCU: 0x94A38, offset: 0x94A38, size: 0x8, addend: 0x0, symName: __ZNSt3__16vectorIcNS_9allocatorIcEEE18__construct_at_endEm, symObjAddr: 0x32E78, symBinAddr: 0x100036BCC, symSize: 0x5A0 }
  - { offsetInCU: 0x94AB2, offset: 0x94AB2, size: 0x8, addend: 0x0, symName: __ZNSt3__128__exception_guard_exceptionsINS_6vectorIcNS_9allocatorIcEEE16__destroy_vectorEE10__completeB8ue170006Ev, symObjAddr: 0x33418, symBinAddr: 0x10003716C, symSize: 0xD8 }
  - { offsetInCU: 0x94AD8, offset: 0x94AD8, size: 0x8, addend: 0x0, symName: __ZNSt3__128__exception_guard_exceptionsINS_6vectorIcNS_9allocatorIcEEE16__destroy_vectorEED1B8ue170006Ev, symObjAddr: 0x334F0, symBinAddr: 0x100037244, symSize: 0x78 }
  - { offsetInCU: 0x94B02, offset: 0x94B02, size: 0x8, addend: 0x0, symName: __ZNSt3__117__compressed_pairIPcNS_9allocatorIcEEEC2B8ue170006IDnNS_18__default_init_tagEEEOT_OT0_, symObjAddr: 0x33568, symBinAddr: 0x1000372BC, symSize: 0x140 }
  - { offsetInCU: 0x94B5A, offset: 0x94B5A, size: 0x8, addend: 0x0, symName: __ZNSt3__122__compressed_pair_elemIPcLi0ELb0EEC2B8ue170006IDnvEEOT_, symObjAddr: 0x336A8, symBinAddr: 0x1000373FC, symSize: 0xBC }
  - { offsetInCU: 0x94B9C, offset: 0x94B9C, size: 0x8, addend: 0x0, symName: __ZNSt3__128__exception_guard_exceptionsINS_6vectorIcNS_9allocatorIcEEE16__destroy_vectorEEC1B8ue170006ES5_, symObjAddr: 0x33764, symBinAddr: 0x1000374B8, symSize: 0x28C }
  - { offsetInCU: 0x94BD9, offset: 0x94BD9, size: 0x8, addend: 0x0, symName: __ZNSt3__128__exception_guard_exceptionsINS_6vectorIcNS_9allocatorIcEEE16__destroy_vectorEEC2B8ue170006ES5_, symObjAddr: 0x339F0, symBinAddr: 0x100037744, symSize: 0x2BC }
  - { offsetInCU: 0x94C16, offset: 0x94C16, size: 0x8, addend: 0x0, symName: __ZNSt3__16vectorIcNS_9allocatorIcEEE16__destroy_vectorC2B8ue170006ERS3_, symObjAddr: 0x33CAC, symBinAddr: 0x100037A00, symSize: 0x108 }
  - { offsetInCU: 0x94C4F, offset: 0x94C4F, size: 0x8, addend: 0x0, symName: __ZNKSt3__16vectorIcNS_9allocatorIcEEE8max_sizeEv, symObjAddr: 0x33DB4, symBinAddr: 0x100037B08, symSize: 0x3B8 }
  - { offsetInCU: 0x94C78, offset: 0x94C78, size: 0x8, addend: 0x0, symName: __ZNKSt3__16vectorIcNS_9allocatorIcEEE20__throw_length_errorB8ue170006Ev, symObjAddr: 0x3416C, symBinAddr: 0x100037EC0, symSize: 0x80 }
  - { offsetInCU: 0x94C9E, offset: 0x94C9E, size: 0x8, addend: 0x0, symName: __ZNSt3__16vectorIcNS_9allocatorIcEEE7__allocB8ue170006Ev, symObjAddr: 0x3443C, symBinAddr: 0x100038190, symSize: 0xE4 }
  - { offsetInCU: 0x94CC4, offset: 0x94CC4, size: 0x8, addend: 0x0, symName: __ZNSt3__16vectorIcNS_9allocatorIcEEE9__end_capB8ue170006Ev, symObjAddr: 0x34520, symBinAddr: 0x100038274, symSize: 0x100 }
  - { offsetInCU: 0x94CEA, offset: 0x94CEA, size: 0x8, addend: 0x0, symName: __ZNKSt3__16vectorIcNS_9allocatorIcEEE14__annotate_newB8ue170006Em, symObjAddr: 0x34620, symBinAddr: 0x100038374, symSize: 0x360 }
  - { offsetInCU: 0x94D1F, offset: 0x94D1F, size: 0x8, addend: 0x0, symName: __ZNKSt3__16vectorIcNS_9allocatorIcEEE7__allocB8ue170006Ev, symObjAddr: 0x34980, symBinAddr: 0x1000386D4, symSize: 0xE4 }
  - { offsetInCU: 0x94D45, offset: 0x94D45, size: 0x8, addend: 0x0, symName: __ZNKSt3__117__compressed_pairIPcNS_9allocatorIcEEE6secondB8ue170006Ev, symObjAddr: 0x34A64, symBinAddr: 0x1000387B8, symSize: 0x108 }
  - { offsetInCU: 0x94D6B, offset: 0x94D6B, size: 0x8, addend: 0x0, symName: __ZNSt3__19allocatorIcE17allocate_at_leastB8ue170006Em, symObjAddr: 0x34D90, symBinAddr: 0x100038AE4, symSize: 0x2B8 }
  - { offsetInCU: 0x94DA1, offset: 0x94DA1, size: 0x8, addend: 0x0, symName: __ZNSt3__117__compressed_pairIPcNS_9allocatorIcEEE6secondB8ue170006Ev, symObjAddr: 0x35048, symBinAddr: 0x100038D9C, symSize: 0x108 }
  - { offsetInCU: 0x94DC7, offset: 0x94DC7, size: 0x8, addend: 0x0, symName: __ZNSt3__117__compressed_pairIPcNS_9allocatorIcEEE5firstB8ue170006Ev, symObjAddr: 0x35150, symBinAddr: 0x100038EA4, symSize: 0x124 }
  - { offsetInCU: 0x94DED, offset: 0x94DED, size: 0x8, addend: 0x0, symName: __ZNSt3__122__compressed_pair_elemIPcLi0ELb0EE5__getB8ue170006Ev, symObjAddr: 0x35274, symBinAddr: 0x100038FC8, symSize: 0xAC }
  - { offsetInCU: 0x94E13, offset: 0x94E13, size: 0x8, addend: 0x0, symName: __ZNKSt3__16vectorIcNS_9allocatorIcEEE31__annotate_contiguous_containerEPKvS5_S5_S5_, symObjAddr: 0x35320, symBinAddr: 0x100039074, symSize: 0x9C }
  - { offsetInCU: 0x94E75, offset: 0x94E75, size: 0x8, addend: 0x0, symName: __ZNKSt3__16vectorIcNS_9allocatorIcEEE4dataB8ue170006Ev, symObjAddr: 0x353BC, symBinAddr: 0x100039110, symSize: 0xB0 }
  - { offsetInCU: 0x94E9B, offset: 0x94E9B, size: 0x8, addend: 0x0, symName: __ZNKSt3__16vectorIcNS_9allocatorIcEEE8capacityB8ue170006Ev, symObjAddr: 0x3546C, symBinAddr: 0x1000391C0, symSize: 0x13C }
  - { offsetInCU: 0x94EC1, offset: 0x94EC1, size: 0x8, addend: 0x0, symName: __ZNKSt3__16vectorIcNS_9allocatorIcEEE9__end_capB8ue170006Ev, symObjAddr: 0x355A8, symBinAddr: 0x1000392FC, symSize: 0x100 }
  - { offsetInCU: 0x94EE7, offset: 0x94EE7, size: 0x8, addend: 0x0, symName: __ZNKSt3__117__compressed_pairIPcNS_9allocatorIcEEE5firstB8ue170006Ev, symObjAddr: 0x356A8, symBinAddr: 0x1000393FC, symSize: 0x124 }
  - { offsetInCU: 0x94F0D, offset: 0x94F0D, size: 0x8, addend: 0x0, symName: __ZNKSt3__122__compressed_pair_elemIPcLi0ELb0EE5__getB8ue170006Ev, symObjAddr: 0x357CC, symBinAddr: 0x100039520, symSize: 0xAC }
  - { offsetInCU: 0x94F51, offset: 0x94F51, size: 0x8, addend: 0x0, symName: __ZNSt3__16vectorIcNS_9allocatorIcEEE21_ConstructTransactionC1B8ue170006ERS3_m, symObjAddr: 0x35878, symBinAddr: 0x1000395CC, symSize: 0x88 }
  - { offsetInCU: 0x94F99, offset: 0x94F99, size: 0x8, addend: 0x0, symName: __ZNSt3__116allocator_traitsINS_9allocatorIcEEE9constructB8ue170006IcJEvvEEvRS2_PT_DpOT0_, symObjAddr: 0x35900, symBinAddr: 0x100039654, symSize: 0x28 }
  - { offsetInCU: 0x94FD9, offset: 0x94FD9, size: 0x8, addend: 0x0, symName: __ZNSt3__16vectorIcNS_9allocatorIcEEE21_ConstructTransactionD1B8ue170006Ev, symObjAddr: 0x35928, symBinAddr: 0x10003967C, symSize: 0x78 }
  - { offsetInCU: 0x95003, offset: 0x95003, size: 0x8, addend: 0x0, symName: __ZNSt3__16vectorIcNS_9allocatorIcEEE21_ConstructTransactionC2B8ue170006ERS3_m, symObjAddr: 0x359A0, symBinAddr: 0x1000396F4, symSize: 0x3D8 }
  - { offsetInCU: 0x9504B, offset: 0x9504B, size: 0x8, addend: 0x0, symName: __ZNKSt3__16vectorIcNS_9allocatorIcEEE19__annotate_increaseB8ue170006Em, symObjAddr: 0x35D78, symBinAddr: 0x100039ACC, symSize: 0x44C }
  - { offsetInCU: 0x95080, offset: 0x95080, size: 0x8, addend: 0x0, symName: __ZNKSt3__16vectorIcNS_9allocatorIcEEE4sizeB8ue170006Ev, symObjAddr: 0x361C4, symBinAddr: 0x100039F18, symSize: 0xF0 }
  - { offsetInCU: 0x950A6, offset: 0x950A6, size: 0x8, addend: 0x0, symName: __ZNSt3__16vectorIcNS_9allocatorIcEEE21_ConstructTransactionD2B8ue170006Ev, symObjAddr: 0x3639C, symBinAddr: 0x10003A0F0, symSize: 0x388 }
  - { offsetInCU: 0x950D0, offset: 0x950D0, size: 0x8, addend: 0x0, symName: __ZNKSt3__16vectorIcNS_9allocatorIcEEE17__annotate_shrinkB8ue170006Em, symObjAddr: 0x36724, symBinAddr: 0x10003A478, symSize: 0x360 }
  - { offsetInCU: 0x95105, offset: 0x95105, size: 0x8, addend: 0x0, symName: __ZNSt3__128__exception_guard_exceptionsINS_6vectorIcNS_9allocatorIcEEE16__destroy_vectorEED2B8ue170006Ev, symObjAddr: 0x36A84, symBinAddr: 0x10003A7D8, symSize: 0x17C }
  - { offsetInCU: 0x9512F, offset: 0x9512F, size: 0x8, addend: 0x0, symName: __ZNSt3__16vectorIcNS_9allocatorIcEEE16__destroy_vectorclB8ue170006Ev, symObjAddr: 0x36C00, symBinAddr: 0x10003A954, symSize: 0x43C }
  - { offsetInCU: 0x95155, offset: 0x95155, size: 0x8, addend: 0x0, symName: __ZNSt3__16vectorIcNS_9allocatorIcEEE7__clearB8ue170006Ev, symObjAddr: 0x3703C, symBinAddr: 0x10003AD90, symSize: 0xB0 }
  - { offsetInCU: 0x9517B, offset: 0x9517B, size: 0x8, addend: 0x0, symName: __ZNKSt3__16vectorIcNS_9allocatorIcEEE17__annotate_deleteB8ue170006Ev, symObjAddr: 0x370EC, symBinAddr: 0x10003AE40, symSize: 0x370 }
  - { offsetInCU: 0x951A1, offset: 0x951A1, size: 0x8, addend: 0x0, symName: __ZNSt3__116allocator_traitsINS_9allocatorIcEEE10deallocateB8ue170006ERS2_Pcm, symObjAddr: 0x3745C, symBinAddr: 0x10003B1B0, symSize: 0x34 }
  - { offsetInCU: 0x951E3, offset: 0x951E3, size: 0x8, addend: 0x0, symName: __ZNSt3__16vectorIcNS_9allocatorIcEEE22__base_destruct_at_endB8ue170006EPc, symObjAddr: 0x37490, symBinAddr: 0x10003B1E4, symSize: 0x1FC }
  - { offsetInCU: 0x95227, offset: 0x95227, size: 0x8, addend: 0x0, symName: __ZNSt3__116allocator_traitsINS_9allocatorIcEEE7destroyB8ue170006IcvvEEvRS2_PT_, symObjAddr: 0x3768C, symBinAddr: 0x10003B3E0, symSize: 0x28 }
  - { offsetInCU: 0x95262, offset: 0x95262, size: 0x8, addend: 0x0, symName: __ZNSt3__19allocatorIcE10deallocateB8ue170006EPcm, symObjAddr: 0x376E8, symBinAddr: 0x10003B43C, symSize: 0x78 }
  - { offsetInCU: 0x952A4, offset: 0x952A4, size: 0x8, addend: 0x0, symName: __ZNSt3__16vectorIcNS_9allocatorIcEEEC2B8ue170006Ev, symObjAddr: 0x37760, symBinAddr: 0x10003B4B4, symSize: 0x340 }
  - { offsetInCU: 0x952CF, offset: 0x952CF, size: 0x8, addend: 0x0, symName: __ZNSt3__14pairIbNS_6vectorIcNS_9allocatorIcEEEEEC2B8ue170006IbS4_LPv0EEEOT_OT0_, symObjAddr: 0x37AA0, symBinAddr: 0x10003B7F4, symSize: 0x208 }
  - { offsetInCU: 0x9532D, offset: 0x9532D, size: 0x8, addend: 0x0, symName: __ZNSt3__16vectorIcNS_9allocatorIcEEEC1B8ue170006EOS3_, symObjAddr: 0x37CA8, symBinAddr: 0x10003B9FC, symSize: 0x80 }
  - { offsetInCU: 0x95368, offset: 0x95368, size: 0x8, addend: 0x0, symName: __ZNSt3__16vectorIcNS_9allocatorIcEEEC2B8ue170006EOS3_, symObjAddr: 0x37D28, symBinAddr: 0x10003BA7C, symSize: 0x77C }
  - { offsetInCU: 0x953AB, offset: 0x953AB, size: 0x8, addend: 0x0, symName: __ZNSt3__117__compressed_pairIPcNS_9allocatorIcEEEC1B8ue170006IDnS3_EEOT_OT0_, symObjAddr: 0x384A4, symBinAddr: 0x10003C1F8, symSize: 0x88 }
  - { offsetInCU: 0x95403, offset: 0x95403, size: 0x8, addend: 0x0, symName: __ZNSt3__117__compressed_pairIPcNS_9allocatorIcEEEC2B8ue170006IDnS3_EEOT_OT0_, symObjAddr: 0x3852C, symBinAddr: 0x10003C280, symSize: 0x170 }
  - { offsetInCU: 0x9545B, offset: 0x9545B, size: 0x8, addend: 0x0, symName: __ZNSt3__122__compressed_pair_elemINS_9allocatorIcEELi1ELb1EEC2B8ue170006IS2_vEEOT_, symObjAddr: 0x3869C, symBinAddr: 0x10003C3F0, symSize: 0x58 }
  - { offsetInCU: 0x9549D, offset: 0x9549D, size: 0x8, addend: 0x0, symName: __ZNSt3__16vectorIcNS_9allocatorIcEEED2B8ue170006Ev, symObjAddr: 0x386F4, symBinAddr: 0x10003C448, symSize: 0x294 }
  - { offsetInCU: 0x954C8, offset: 0x954C8, size: 0x8, addend: 0x0, symName: __ZNSt3__14pairIbNS_6vectorIcNS_9allocatorIcEEEEEC2B8ue170006IbRS4_LPv0EEEOT_OT0_, symObjAddr: 0x38988, symBinAddr: 0x10003C6DC, symSize: 0x208 }
  - { offsetInCU: 0x95526, offset: 0x95526, size: 0x8, addend: 0x0, symName: __ZNSt3__16vectorIcNS_9allocatorIcEEEC1ERKS3_, symObjAddr: 0x38B90, symBinAddr: 0x10003C8E4, symSize: 0x80 }
  - { offsetInCU: 0x95561, offset: 0x95561, size: 0x8, addend: 0x0, symName: __ZNSt3__16vectorIcNS_9allocatorIcEEEC2ERKS3_, symObjAddr: 0x38C10, symBinAddr: 0x10003C964, symSize: 0x4C0 }
  - { offsetInCU: 0x9559E, offset: 0x9559E, size: 0x8, addend: 0x0, symName: __ZNSt3__16vectorIcNS_9allocatorIcEEE16__init_with_sizeB8ue170006IPcS5_EEvT_T0_m, symObjAddr: 0x390D0, symBinAddr: 0x10003CE24, symSize: 0x3EC }
  - { offsetInCU: 0x9561A, offset: 0x9561A, size: 0x8, addend: 0x0, symName: __ZNSt3__16vectorIcNS_9allocatorIcEEE18__construct_at_endIPcS5_EEvT_T0_m, symObjAddr: 0x394BC, symBinAddr: 0x10003D210, symSize: 0x494 }
  - { offsetInCU: 0x956BC, offset: 0x956BC, size: 0x8, addend: 0x0, symName: __ZNSt3__119__unwrap_range_implIPcS1_E8__unwrapB8ue170006ES1_S1_, symObjAddr: 0x39EE0, symBinAddr: 0x10003DC34, symSize: 0x30C }
  - { offsetInCU: 0x956EF, offset: 0x956EF, size: 0x8, addend: 0x0, symName: __ZNSt3__14pairIPcS1_EC1B8ue170006IS1_S1_LPv0EEEOT_OT0_, symObjAddr: 0x3A1EC, symBinAddr: 0x10003DF40, symSize: 0x88 }
  - { offsetInCU: 0x9574D, offset: 0x9574D, size: 0x8, addend: 0x0, symName: __ZNSt3__14pairIPcS1_EC2B8ue170006IS1_S1_LPv0EEEOT_OT0_, symObjAddr: 0x3A274, symBinAddr: 0x10003DFC8, symSize: 0x210 }
  - { offsetInCU: 0x957AB, offset: 0x957AB, size: 0x8, addend: 0x0, symName: __ZNKSt3__114__copy_trivialclB8ue170006IccLi0EEENS_4pairIPT_PT0_EES4_S4_S6_, symObjAddr: 0x3B1C4, symBinAddr: 0x10003EF18, symSize: 0x25C }
  - { offsetInCU: 0x95817, offset: 0x95817, size: 0x8, addend: 0x0, symName: __ZNSt3__14pairIPcS1_EC1B8ue170006IRS1_S1_LPv0EEEOT_OT0_, symObjAddr: 0x3BE64, symBinAddr: 0x10003FBB8, symSize: 0x88 }
  - { offsetInCU: 0x95875, offset: 0x95875, size: 0x8, addend: 0x0, symName: __ZNSt3__14pairIPcS1_EC2B8ue170006IRS1_S1_LPv0EEEOT_OT0_, symObjAddr: 0x3BEEC, symBinAddr: 0x10003FC40, symSize: 0x210 }
  - { offsetInCU: 0x958D3, offset: 0x958D3, size: 0x8, addend: 0x0, symName: __ZNSt3__119__unwrap_range_implIPcS1_E8__rewrapB8ue170006ES1_S1_, symObjAddr: 0x3C0FC, symBinAddr: 0x10003FE50, symSize: 0x2C }
  - { offsetInCU: 0x95904, offset: 0x95904, size: 0x8, addend: 0x0, symName: __ZNKSt3__117basic_string_viewIcNS_11char_traitsIcEEE7compareES3_, symObjAddr: 0x3C470, symBinAddr: 0x1000401C4, symSize: 0x4BC }
  - { offsetInCU: 0x9595E, offset: 0x9595E, size: 0x8, addend: 0x0, symName: __ZNSt3__111char_traitsIcE7compareB8ue170006EPKcS3_m, symObjAddr: 0x3C92C, symBinAddr: 0x100040680, symSize: 0x34 }
  - { offsetInCU: 0x9599D, offset: 0x9599D, size: 0x8, addend: 0x0, symName: __ZNKSt3__117basic_string_viewIcNS_11char_traitsIcEEE4dataB8ue170006Ev, symObjAddr: 0x3C960, symBinAddr: 0x1000406B4, symSize: 0xAC }
  - { offsetInCU: 0x959C3, offset: 0x959C3, size: 0x8, addend: 0x0, symName: __ZNSt3__14pairIbbEC2B8ue170006IbbLPv0EEEOT_OT0_, symObjAddr: 0x3CA0C, symBinAddr: 0x100040760, symSize: 0x2BC }
  - { offsetInCU: 0x95A21, offset: 0x95A21, size: 0x8, addend: 0x0, symName: __ZNSt3__14pairINS_12basic_stringIcNS_11char_traitsIcEENS_9allocatorIcEEEES6_EC2B8ue170006IS6_S6_LPv0EEEOT_OT0_, symObjAddr: 0x3CCC8, symBinAddr: 0x100040A1C, symSize: 0x12C }
  - { offsetInCU: 0x95A7F, offset: 0x95A7F, size: 0x8, addend: 0x0, symName: __ZNSt3__14pairINS_12basic_stringIcNS_11char_traitsIcEENS_9allocatorIcEEEES6_EC2B8ue170006IRA1_KcRKS6_LPv0EEEOT_OT0_, symObjAddr: 0x3CDF4, symBinAddr: 0x100040B48, symSize: 0x10C }
  - { offsetInCU: 0x95AE3, offset: 0x95AE3, size: 0x8, addend: 0x0, symName: __ZNSt3__112basic_stringIcNS_11char_traitsIcEENS_9allocatorIcEEEC1B8ue170006ILi0EEEPKc, symObjAddr: 0x3CF00, symBinAddr: 0x100040C54, symSize: 0x80 }
  - { offsetInCU: 0x95B22, offset: 0x95B22, size: 0x8, addend: 0x0, symName: __ZNSt3__112basic_stringIcNS_11char_traitsIcEENS_9allocatorIcEEEC2B8ue170006ILi0EEEPKc, symObjAddr: 0x3CF80, symBinAddr: 0x100040CD4, symSize: 0x278 }
  - { offsetInCU: 0x95B63, offset: 0x95B63, size: 0x8, addend: 0x0, symName: __ZNSt3__111char_traitsIcE6lengthB8ue170006EPKc, symObjAddr: 0x3D1F8, symBinAddr: 0x100040F4C, symSize: 0x40 }
  - { offsetInCU: 0x95B86, offset: 0x95B86, size: 0x8, addend: 0x0, symName: __ZNSt3__16vectorINS0_IN5memdb9OperationENS_9allocatorIS2_EEEENS3_IS5_EEEC2B8ue170006ESt16initializer_listIS5_E, symObjAddr: 0x3D25C, symBinAddr: 0x100040FB0, symSize: 0x5B0 }
  - { offsetInCU: 0x95BDF, offset: 0x95BDF, size: 0x8, addend: 0x0, symName: __ZNSt3__117__compressed_pairIPNS_6vectorIN5memdb9OperationENS_9allocatorIS3_EEEENS4_IS6_EEEC1B8ue170006IDnNS_18__default_init_tagEEEOT_OT0_, symObjAddr: 0x3D80C, symBinAddr: 0x100041560, symSize: 0x88 }
  - { offsetInCU: 0x95C37, offset: 0x95C37, size: 0x8, addend: 0x0, symName: __ZNSt3__16vectorINS0_IN5memdb9OperationENS_9allocatorIS2_EEEENS3_IS5_EEE16__destroy_vectorC1B8ue170006ERS7_, symObjAddr: 0x3DB50, symBinAddr: 0x1000418A4, symSize: 0x80 }
  - { offsetInCU: 0x95C70, offset: 0x95C70, size: 0x8, addend: 0x0, symName: __ZNKSt16initializer_listINSt3__16vectorIN5memdb9OperationENS0_9allocatorIS3_EEEEE4sizeB8ue170006Ev, symObjAddr: 0x3DBD0, symBinAddr: 0x100041924, symSize: 0xB0 }
  - { offsetInCU: 0x95C96, offset: 0x95C96, size: 0x8, addend: 0x0, symName: __ZNSt3__16vectorINS0_IN5memdb9OperationENS_9allocatorIS2_EEEENS3_IS5_EEE11__vallocateB8ue170006Em, symObjAddr: 0x3DC80, symBinAddr: 0x1000419D4, symSize: 0x5F0 }
  - { offsetInCU: 0x95CE0, offset: 0x95CE0, size: 0x8, addend: 0x0, symName: __ZNSt3__16vectorINS0_IN5memdb9OperationENS_9allocatorIS2_EEEENS3_IS5_EEE18__construct_at_endIPKS5_SA_EEvT_T0_m, symObjAddr: 0x3E270, symBinAddr: 0x100041FC4, symSize: 0x494 }
  - { offsetInCU: 0x95D5E, offset: 0x95D5E, size: 0x8, addend: 0x0, symName: __ZNKSt16initializer_listINSt3__16vectorIN5memdb9OperationENS0_9allocatorIS3_EEEEE5beginB8ue170006Ev, symObjAddr: 0x3E704, symBinAddr: 0x100042458, symSize: 0xAC }
  - { offsetInCU: 0x95D84, offset: 0x95D84, size: 0x8, addend: 0x0, symName: __ZNKSt16initializer_listINSt3__16vectorIN5memdb9OperationENS0_9allocatorIS3_EEEEE3endB8ue170006Ev, symObjAddr: 0x3E7B0, symBinAddr: 0x100042504, symSize: 0x1C8 }
  - { offsetInCU: 0x95DAA, offset: 0x95DAA, size: 0x8, addend: 0x0, symName: __ZNSt3__128__exception_guard_exceptionsINS_6vectorINS1_IN5memdb9OperationENS_9allocatorIS3_EEEENS4_IS6_EEE16__destroy_vectorEE10__completeB8ue170006Ev, symObjAddr: 0x3E978, symBinAddr: 0x1000426CC, symSize: 0xD8 }
  - { offsetInCU: 0x95DD0, offset: 0x95DD0, size: 0x8, addend: 0x0, symName: __ZNSt3__128__exception_guard_exceptionsINS_6vectorINS1_IN5memdb9OperationENS_9allocatorIS3_EEEENS4_IS6_EEE16__destroy_vectorEED1B8ue170006Ev, symObjAddr: 0x3EA50, symBinAddr: 0x1000427A4, symSize: 0x78 }
  - { offsetInCU: 0x95DFA, offset: 0x95DFA, size: 0x8, addend: 0x0, symName: __ZNSt3__117__compressed_pairIPNS_6vectorIN5memdb9OperationENS_9allocatorIS3_EEEENS4_IS6_EEEC2B8ue170006IDnNS_18__default_init_tagEEEOT_OT0_, symObjAddr: 0x3EAC8, symBinAddr: 0x10004281C, symSize: 0x140 }
  - { offsetInCU: 0x95E52, offset: 0x95E52, size: 0x8, addend: 0x0, symName: __ZNSt3__122__compressed_pair_elemIPNS_6vectorIN5memdb9OperationENS_9allocatorIS3_EEEELi0ELb0EEC2B8ue170006IDnvEEOT_, symObjAddr: 0x3EC08, symBinAddr: 0x10004295C, symSize: 0xBC }
  - { offsetInCU: 0x95E94, offset: 0x95E94, size: 0x8, addend: 0x0, symName: __ZNSt3__122__compressed_pair_elemINS_9allocatorINS_6vectorIN5memdb9OperationENS1_IS4_EEEEEELi1ELb1EEC2B8ue170006ENS_18__default_init_tagE, symObjAddr: 0x3ECC4, symBinAddr: 0x100042A18, symSize: 0x84 }
  - { offsetInCU: 0x95EC9, offset: 0x95EC9, size: 0x8, addend: 0x0, symName: __ZNSt3__19allocatorINS_6vectorIN5memdb9OperationENS0_IS3_EEEEEC2B8ue170006Ev, symObjAddr: 0x3ED48, symBinAddr: 0x100042A9C, symSize: 0x84 }
  - { offsetInCU: 0x95EF3, offset: 0x95EF3, size: 0x8, addend: 0x0, symName: __ZNSt3__116__non_trivial_ifILb1ENS_9allocatorINS_6vectorIN5memdb9OperationENS1_IS4_EEEEEEEC2B8ue170006Ev, symObjAddr: 0x3EDCC, symBinAddr: 0x100042B20, symSize: 0x54 }
  - { offsetInCU: 0x95F1D, offset: 0x95F1D, size: 0x8, addend: 0x0, symName: __ZNSt3__128__exception_guard_exceptionsINS_6vectorINS1_IN5memdb9OperationENS_9allocatorIS3_EEEENS4_IS6_EEE16__destroy_vectorEEC1B8ue170006ES9_, symObjAddr: 0x3EE20, symBinAddr: 0x100042B74, symSize: 0x28C }
  - { offsetInCU: 0x95F5A, offset: 0x95F5A, size: 0x8, addend: 0x0, symName: __ZNSt3__128__exception_guard_exceptionsINS_6vectorINS1_IN5memdb9OperationENS_9allocatorIS3_EEEENS4_IS6_EEE16__destroy_vectorEEC2B8ue170006ES9_, symObjAddr: 0x3F0AC, symBinAddr: 0x100042E00, symSize: 0x2BC }
  - { offsetInCU: 0x95F97, offset: 0x95F97, size: 0x8, addend: 0x0, symName: __ZNSt3__16vectorINS0_IN5memdb9OperationENS_9allocatorIS2_EEEENS3_IS5_EEE16__destroy_vectorC2B8ue170006ERS7_, symObjAddr: 0x3F368, symBinAddr: 0x1000430BC, symSize: 0x108 }
  - { offsetInCU: 0x95FD0, offset: 0x95FD0, size: 0x8, addend: 0x0, symName: __ZNKSt3__16vectorINS0_IN5memdb9OperationENS_9allocatorIS2_EEEENS3_IS5_EEE8max_sizeEv, symObjAddr: 0x3F470, symBinAddr: 0x1000431C4, symSize: 0x3B8 }
  - { offsetInCU: 0x95FF9, offset: 0x95FF9, size: 0x8, addend: 0x0, symName: __ZNKSt3__16vectorINS0_IN5memdb9OperationENS_9allocatorIS2_EEEENS3_IS5_EEE20__throw_length_errorB8ue170006Ev, symObjAddr: 0x3F828, symBinAddr: 0x10004357C, symSize: 0x80 }
  - { offsetInCU: 0x9601F, offset: 0x9601F, size: 0x8, addend: 0x0, symName: __ZNSt3__16vectorINS0_IN5memdb9OperationENS_9allocatorIS2_EEEENS3_IS5_EEE7__allocB8ue170006Ev, symObjAddr: 0x3FAF8, symBinAddr: 0x10004384C, symSize: 0xE4 }
  - { offsetInCU: 0x96045, offset: 0x96045, size: 0x8, addend: 0x0, symName: __ZNSt3__16vectorINS0_IN5memdb9OperationENS_9allocatorIS2_EEEENS3_IS5_EEE9__end_capB8ue170006Ev, symObjAddr: 0x3FBDC, symBinAddr: 0x100043930, symSize: 0x100 }
  - { offsetInCU: 0x9606B, offset: 0x9606B, size: 0x8, addend: 0x0, symName: __ZNKSt3__16vectorINS0_IN5memdb9OperationENS_9allocatorIS2_EEEENS3_IS5_EEE14__annotate_newB8ue170006Em, symObjAddr: 0x3FCDC, symBinAddr: 0x100043A30, symSize: 0x378 }
  - { offsetInCU: 0x960AC, offset: 0x960AC, size: 0x8, addend: 0x0, symName: __ZNSt3__116allocator_traitsINS_9allocatorINS_6vectorIN5memdb9OperationENS1_IS4_EEEEEEE8max_sizeB8ue170006IS7_vvEEmRKS7_, symObjAddr: 0x40054, symBinAddr: 0x100043DA8, symSize: 0x54 }
  - { offsetInCU: 0x960D8, offset: 0x960D8, size: 0x8, addend: 0x0, symName: __ZNKSt3__16vectorINS0_IN5memdb9OperationENS_9allocatorIS2_EEEENS3_IS5_EEE7__allocB8ue170006Ev, symObjAddr: 0x400A8, symBinAddr: 0x100043DFC, symSize: 0xE4 }
  - { offsetInCU: 0x960FE, offset: 0x960FE, size: 0x8, addend: 0x0, symName: __ZNKSt3__117__compressed_pairIPNS_6vectorIN5memdb9OperationENS_9allocatorIS3_EEEENS4_IS6_EEE6secondB8ue170006Ev, symObjAddr: 0x4018C, symBinAddr: 0x100043EE0, symSize: 0x108 }
  - { offsetInCU: 0x96124, offset: 0x96124, size: 0x8, addend: 0x0, symName: __ZNKSt3__122__compressed_pair_elemINS_9allocatorINS_6vectorIN5memdb9OperationENS1_IS4_EEEEEELi1ELb1EE5__getB8ue170006Ev, symObjAddr: 0x40294, symBinAddr: 0x100043FE8, symSize: 0x74 }
  - { offsetInCU: 0x9614A, offset: 0x9614A, size: 0x8, addend: 0x0, symName: __ZNSt3__19allocatorINS_6vectorIN5memdb9OperationENS0_IS3_EEEEE17allocate_at_leastB8ue170006Em, symObjAddr: 0x4052C, symBinAddr: 0x100044280, symSize: 0x2B8 }
  - { offsetInCU: 0x96180, offset: 0x96180, size: 0x8, addend: 0x0, symName: __ZNSt3__19allocatorINS_6vectorIN5memdb9OperationENS0_IS3_EEEEE8allocateB8ue170006Em, symObjAddr: 0x407E4, symBinAddr: 0x100044538, symSize: 0xD0 }
  - { offsetInCU: 0x961B4, offset: 0x961B4, size: 0x8, addend: 0x0, symName: __ZNSt3__117__compressed_pairIPNS_6vectorIN5memdb9OperationENS_9allocatorIS3_EEEENS4_IS6_EEE6secondB8ue170006Ev, symObjAddr: 0x408B4, symBinAddr: 0x100044608, symSize: 0x108 }
  - { offsetInCU: 0x961DA, offset: 0x961DA, size: 0x8, addend: 0x0, symName: __ZNSt3__122__compressed_pair_elemINS_9allocatorINS_6vectorIN5memdb9OperationENS1_IS4_EEEEEELi1ELb1EE5__getB8ue170006Ev, symObjAddr: 0x409BC, symBinAddr: 0x100044710, symSize: 0x74 }
  - { offsetInCU: 0x96200, offset: 0x96200, size: 0x8, addend: 0x0, symName: __ZNSt3__117__compressed_pairIPNS_6vectorIN5memdb9OperationENS_9allocatorIS3_EEEENS4_IS6_EEE5firstB8ue170006Ev, symObjAddr: 0x40A30, symBinAddr: 0x100044784, symSize: 0x124 }
  - { offsetInCU: 0x96226, offset: 0x96226, size: 0x8, addend: 0x0, symName: __ZNSt3__122__compressed_pair_elemIPNS_6vectorIN5memdb9OperationENS_9allocatorIS3_EEEELi0ELb0EE5__getB8ue170006Ev, symObjAddr: 0x40B54, symBinAddr: 0x1000448A8, symSize: 0xAC }
  - { offsetInCU: 0x9624C, offset: 0x9624C, size: 0x8, addend: 0x0, symName: __ZNKSt3__16vectorINS0_IN5memdb9OperationENS_9allocatorIS2_EEEENS3_IS5_EEE31__annotate_contiguous_containerEPKvS9_S9_S9_, symObjAddr: 0x40C00, symBinAddr: 0x100044954, symSize: 0x9C }
  - { offsetInCU: 0x962AE, offset: 0x962AE, size: 0x8, addend: 0x0, symName: __ZNKSt3__16vectorINS0_IN5memdb9OperationENS_9allocatorIS2_EEEENS3_IS5_EEE4dataB8ue170006Ev, symObjAddr: 0x40C9C, symBinAddr: 0x1000449F0, symSize: 0xB0 }
  - { offsetInCU: 0x962D4, offset: 0x962D4, size: 0x8, addend: 0x0, symName: __ZNKSt3__16vectorINS0_IN5memdb9OperationENS_9allocatorIS2_EEEENS3_IS5_EEE8capacityB8ue170006Ev, symObjAddr: 0x40D4C, symBinAddr: 0x100044AA0, symSize: 0x144 }
  - { offsetInCU: 0x962FA, offset: 0x962FA, size: 0x8, addend: 0x0, symName: __ZNKSt3__16vectorINS0_IN5memdb9OperationENS_9allocatorIS2_EEEENS3_IS5_EEE9__end_capB8ue170006Ev, symObjAddr: 0x40EA4, symBinAddr: 0x100044BF8, symSize: 0x100 }
  - { offsetInCU: 0x96320, offset: 0x96320, size: 0x8, addend: 0x0, symName: __ZNKSt3__117__compressed_pairIPNS_6vectorIN5memdb9OperationENS_9allocatorIS3_EEEENS4_IS6_EEE5firstB8ue170006Ev, symObjAddr: 0x40FA4, symBinAddr: 0x100044CF8, symSize: 0x124 }
  - { offsetInCU: 0x96346, offset: 0x96346, size: 0x8, addend: 0x0, symName: __ZNKSt3__122__compressed_pair_elemIPNS_6vectorIN5memdb9OperationENS_9allocatorIS3_EEEELi0ELb0EE5__getB8ue170006Ev, symObjAddr: 0x410C8, symBinAddr: 0x100044E1C, symSize: 0xAC }
  - { offsetInCU: 0x9638A, offset: 0x9638A, size: 0x8, addend: 0x0, symName: __ZNSt3__16vectorINS0_IN5memdb9OperationENS_9allocatorIS2_EEEENS3_IS5_EEE21_ConstructTransactionC1B8ue170006ERS7_m, symObjAddr: 0x41174, symBinAddr: 0x100044EC8, symSize: 0x88 }
  - { offsetInCU: 0x963D2, offset: 0x963D2, size: 0x8, addend: 0x0, symName: __ZNSt3__16vectorINS0_IN5memdb9OperationENS_9allocatorIS2_EEEENS3_IS5_EEE21_ConstructTransactionD1B8ue170006Ev, symObjAddr: 0x41530, symBinAddr: 0x100045284, symSize: 0x78 }
  - { offsetInCU: 0x963FC, offset: 0x963FC, size: 0x8, addend: 0x0, symName: __ZNSt3__16vectorINS0_IN5memdb9OperationENS_9allocatorIS2_EEEENS3_IS5_EEE21_ConstructTransactionC2B8ue170006ERS7_m, symObjAddr: 0x415A8, symBinAddr: 0x1000452FC, symSize: 0x3E0 }
  - { offsetInCU: 0x96444, offset: 0x96444, size: 0x8, addend: 0x0, symName: __ZNKSt3__16vectorINS0_IN5memdb9OperationENS_9allocatorIS2_EEEENS3_IS5_EEE19__annotate_increaseB8ue170006Em, symObjAddr: 0x41988, symBinAddr: 0x1000456DC, symSize: 0x46C }
  - { offsetInCU: 0x96479, offset: 0x96479, size: 0x8, addend: 0x0, symName: __ZNKSt3__16vectorINS0_IN5memdb9OperationENS_9allocatorIS2_EEEENS3_IS5_EEE4sizeB8ue170006Ev, symObjAddr: 0x41DF4, symBinAddr: 0x100045B48, symSize: 0xF8 }
  - { offsetInCU: 0x964C3, offset: 0x964C3, size: 0x8, addend: 0x0, symName: __ZNSt3__119__unwrap_range_implIPKNS_6vectorIN5memdb9OperationENS_9allocatorIS3_EEEES8_E8__unwrapB8ue170006ES8_S8_, symObjAddr: 0x42868, symBinAddr: 0x1000465BC, symSize: 0x30C }
  - { offsetInCU: 0x964FC, offset: 0x964FC, size: 0x8, addend: 0x0, symName: __ZNSt3__14pairIPKNS_6vectorIN5memdb9OperationENS_9allocatorIS3_EEEES8_EC1B8ue170006IS8_S8_LPv0EEEOT_OT0_, symObjAddr: 0x42B98, symBinAddr: 0x1000468EC, symSize: 0x88 }
  - { offsetInCU: 0x9655A, offset: 0x9655A, size: 0x8, addend: 0x0, symName: __ZNSt3__118__unwrap_iter_implIPKNS_6vectorIN5memdb9OperationENS_9allocatorIS3_EEEELb1EE8__unwrapB8ue170006ES8_, symObjAddr: 0x42C20, symBinAddr: 0x100046974, symSize: 0x24 }
  - { offsetInCU: 0x9657D, offset: 0x9657D, size: 0x8, addend: 0x0, symName: __ZNSt3__14pairIPKNS_6vectorIN5memdb9OperationENS_9allocatorIS3_EEEES8_EC2B8ue170006IS8_S8_LPv0EEEOT_OT0_, symObjAddr: 0x42C58, symBinAddr: 0x1000469AC, symSize: 0x210 }
  - { offsetInCU: 0x965DB, offset: 0x965DB, size: 0x8, addend: 0x0, symName: __ZNSt3__129_AllocatorDestroyRangeReverseINS_9allocatorINS_6vectorIN5memdb9OperationENS1_IS4_EEEEEEPS6_EC1B8ue170006ERS7_RS8_SB_, symObjAddr: 0x430A4, symBinAddr: 0x100046DF8, symSize: 0x90 }
  - { offsetInCU: 0x96632, offset: 0x96632, size: 0x8, addend: 0x0, symName: __ZNSt3__116allocator_traitsINS_9allocatorINS_6vectorIN5memdb9OperationENS1_IS4_EEEEEEE9constructB8ue170006IS6_JRKS6_EvvEEvRS7_PT_DpOT0_, symObjAddr: 0x43134, symBinAddr: 0x100046E88, symSize: 0x80 }
  - { offsetInCU: 0x96687, offset: 0x96687, size: 0x8, addend: 0x0, symName: __ZNSt3__128__exception_guard_exceptionsINS_29_AllocatorDestroyRangeReverseINS_9allocatorINS_6vectorIN5memdb9OperationENS2_IS5_EEEEEEPS7_EEE10__completeB8ue170006Ev, symObjAddr: 0x431B4, symBinAddr: 0x100046F08, symSize: 0xD8 }
  - { offsetInCU: 0x966AD, offset: 0x966AD, size: 0x8, addend: 0x0, symName: __ZNSt3__128__exception_guard_exceptionsINS_29_AllocatorDestroyRangeReverseINS_9allocatorINS_6vectorIN5memdb9OperationENS2_IS5_EEEEEEPS7_EEED1B8ue170006Ev, symObjAddr: 0x4328C, symBinAddr: 0x100046FE0, symSize: 0x78 }
  - { offsetInCU: 0x966D7, offset: 0x966D7, size: 0x8, addend: 0x0, symName: __ZNSt3__128__exception_guard_exceptionsINS_29_AllocatorDestroyRangeReverseINS_9allocatorINS_6vectorIN5memdb9OperationENS2_IS5_EEEEEEPS7_EEEC1B8ue170006ESA_, symObjAddr: 0x43304, symBinAddr: 0x100047058, symSize: 0x84 }
  - { offsetInCU: 0x96710, offset: 0x96710, size: 0x8, addend: 0x0, symName: __ZNSt3__128__exception_guard_exceptionsINS_29_AllocatorDestroyRangeReverseINS_9allocatorINS_6vectorIN5memdb9OperationENS2_IS5_EEEEEEPS7_EEEC2B8ue170006ESA_, symObjAddr: 0x43388, symBinAddr: 0x1000470DC, symSize: 0xF8 }
  - { offsetInCU: 0x96749, offset: 0x96749, size: 0x8, addend: 0x0, symName: __ZNSt3__129_AllocatorDestroyRangeReverseINS_9allocatorINS_6vectorIN5memdb9OperationENS1_IS4_EEEEEEPS6_EC2B8ue170006ERS7_RS8_SB_, symObjAddr: 0x43480, symBinAddr: 0x1000471D4, symSize: 0x20C }
  - { offsetInCU: 0x967A0, offset: 0x967A0, size: 0x8, addend: 0x0, symName: __ZNSt3__16vectorIN5memdb9OperationENS_9allocatorIS2_EEEC1ERKS5_, symObjAddr: 0x4379C, symBinAddr: 0x1000474F0, symSize: 0x80 }
  - { offsetInCU: 0x967DB, offset: 0x967DB, size: 0x8, addend: 0x0, symName: __ZNSt3__16vectorIN5memdb9OperationENS_9allocatorIS2_EEEC2ERKS5_, symObjAddr: 0x4381C, symBinAddr: 0x100047570, symSize: 0x4C0 }
  - { offsetInCU: 0x96818, offset: 0x96818, size: 0x8, addend: 0x0, symName: __ZNSt3__116allocator_traitsINS_9allocatorIN5memdb9OperationEEEE37select_on_container_copy_constructionB8ue170006IS4_vvEES4_RKS4_, symObjAddr: 0x43CDC, symBinAddr: 0x100047A30, symSize: 0x10 }
  - { offsetInCU: 0x9684D, offset: 0x9684D, size: 0x8, addend: 0x0, symName: __ZNSt3__117__compressed_pairIPN5memdb9OperationENS_9allocatorIS2_EEEC1B8ue170006IDnS5_EEOT_OT0_, symObjAddr: 0x43CEC, symBinAddr: 0x100047A40, symSize: 0x88 }
  - { offsetInCU: 0x968A5, offset: 0x968A5, size: 0x8, addend: 0x0, symName: __ZNSt3__16vectorIN5memdb9OperationENS_9allocatorIS2_EEE16__init_with_sizeB8ue170006IPS2_S7_EEvT_T0_m, symObjAddr: 0x43D74, symBinAddr: 0x100047AC8, symSize: 0x3EC }
  - { offsetInCU: 0x96921, offset: 0x96921, size: 0x8, addend: 0x0, symName: __ZNSt3__117__compressed_pairIPN5memdb9OperationENS_9allocatorIS2_EEEC2B8ue170006IDnS5_EEOT_OT0_, symObjAddr: 0x44160, symBinAddr: 0x100047EB4, symSize: 0x170 }
  - { offsetInCU: 0x96979, offset: 0x96979, size: 0x8, addend: 0x0, symName: __ZNSt3__122__compressed_pair_elemINS_9allocatorIN5memdb9OperationEEELi1ELb1EEC2B8ue170006IS4_vEEOT_, symObjAddr: 0x442D0, symBinAddr: 0x100048024, symSize: 0x58 }
  - { offsetInCU: 0x969BB, offset: 0x969BB, size: 0x8, addend: 0x0, symName: __ZNSt3__16vectorIN5memdb9OperationENS_9allocatorIS2_EEE18__construct_at_endIPS2_S7_EEvT_T0_m, symObjAddr: 0x44328, symBinAddr: 0x10004807C, symSize: 0x494 }
  - { offsetInCU: 0x96A5D, offset: 0x96A5D, size: 0x8, addend: 0x0, symName: __ZNSt3__119__unwrap_range_implIPN5memdb9OperationES3_E8__unwrapB8ue170006ES3_S3_, symObjAddr: 0x44D4C, symBinAddr: 0x100048AA0, symSize: 0x30C }
  - { offsetInCU: 0x96A90, offset: 0x96A90, size: 0x8, addend: 0x0, symName: __ZNSt3__14pairIPN5memdb9OperationES3_EC1B8ue170006IS3_S3_LPv0EEEOT_OT0_, symObjAddr: 0x45058, symBinAddr: 0x100048DAC, symSize: 0x88 }
  - { offsetInCU: 0x96AEE, offset: 0x96AEE, size: 0x8, addend: 0x0, symName: __ZNSt3__14pairIPN5memdb9OperationES3_EC2B8ue170006IS3_S3_LPv0EEEOT_OT0_, symObjAddr: 0x450E0, symBinAddr: 0x100048E34, symSize: 0x210 }
  - { offsetInCU: 0x96B4C, offset: 0x96B4C, size: 0x8, addend: 0x0, symName: __ZNKSt3__114__copy_trivialclB8ue170006IN5memdb9OperationES3_Li0EEENS_4pairIPT_PT0_EES6_S6_S8_, symObjAddr: 0x46030, symBinAddr: 0x100049D84, symSize: 0x25C }
  - { offsetInCU: 0x96BB8, offset: 0x96BB8, size: 0x8, addend: 0x0, symName: __ZNSt3__14pairIPN5memdb9OperationES3_EC1B8ue170006IRS3_S3_LPv0EEEOT_OT0_, symObjAddr: 0x46CDC, symBinAddr: 0x10004AA30, symSize: 0x88 }
  - { offsetInCU: 0x96C16, offset: 0x96C16, size: 0x8, addend: 0x0, symName: __ZNSt3__14pairIPN5memdb9OperationES3_EC2B8ue170006IRS3_S3_LPv0EEEOT_OT0_, symObjAddr: 0x46D64, symBinAddr: 0x10004AAB8, symSize: 0x210 }
  - { offsetInCU: 0x96C74, offset: 0x96C74, size: 0x8, addend: 0x0, symName: __ZNSt3__119__unwrap_range_implIPN5memdb9OperationES3_E8__rewrapB8ue170006ES3_S3_, symObjAddr: 0x46F74, symBinAddr: 0x10004ACC8, symSize: 0x2C }
  - { offsetInCU: 0x96CA5, offset: 0x96CA5, size: 0x8, addend: 0x0, symName: __ZNSt3__128__exception_guard_exceptionsINS_29_AllocatorDestroyRangeReverseINS_9allocatorINS_6vectorIN5memdb9OperationENS2_IS5_EEEEEEPS7_EEED2B8ue170006Ev, symObjAddr: 0x46FA0, symBinAddr: 0x10004ACF4, symSize: 0x17C }
  - { offsetInCU: 0x96CCF, offset: 0x96CCF, size: 0x8, addend: 0x0, symName: __ZNKSt3__129_AllocatorDestroyRangeReverseINS_9allocatorINS_6vectorIN5memdb9OperationENS1_IS4_EEEEEEPS6_EclB8ue170006Ev, symObjAddr: 0x4711C, symBinAddr: 0x10004AE70, symSize: 0x40C }
  - { offsetInCU: 0x96CF6, offset: 0x96CF6, size: 0x8, addend: 0x0, symName: __ZNSt3__116reverse_iteratorIPNS_6vectorIN5memdb9OperationENS_9allocatorIS3_EEEEEC1B8ue170006ES7_, symObjAddr: 0x47804, symBinAddr: 0x10004B558, symSize: 0x80 }
  - { offsetInCU: 0x96D2E, offset: 0x96D2E, size: 0x8, addend: 0x0, symName: __ZNSt3__116allocator_traitsINS_9allocatorINS_6vectorIN5memdb9OperationENS1_IS4_EEEEEEE7destroyB8ue170006IS6_vvEEvRS7_PT_, symObjAddr: 0x47920, symBinAddr: 0x10004B674, symSize: 0x28 }
  - { offsetInCU: 0x96D69, offset: 0x96D69, size: 0x8, addend: 0x0, symName: __ZNSt3__116reverse_iteratorIPNS_6vectorIN5memdb9OperationENS_9allocatorIS3_EEEEEppB8ue170006Ev, symObjAddr: 0x479B4, symBinAddr: 0x10004B708, symSize: 0x1B0 }
  - { offsetInCU: 0x96D8F, offset: 0x96D8F, size: 0x8, addend: 0x0, symName: __ZNKSt3__116reverse_iteratorIPNS_6vectorIN5memdb9OperationENS_9allocatorIS3_EEEEE4baseB8ue170006Ev, symObjAddr: 0x47B64, symBinAddr: 0x10004B8B8, symSize: 0xB0 }
  - { offsetInCU: 0x96DBB, offset: 0x96DBB, size: 0x8, addend: 0x0, symName: __ZNSt3__119__to_address_helperINS_16reverse_iteratorIPNS_6vectorIN5memdb9OperationENS_9allocatorIS4_EEEEEEvE6__callB8ue170006ERKS9_, symObjAddr: 0x47CA4, symBinAddr: 0x10004B9F8, symSize: 0x70 }
  - { offsetInCU: 0x96DDE, offset: 0x96DDE, size: 0x8, addend: 0x0, symName: __ZNKSt3__116reverse_iteratorIPNS_6vectorIN5memdb9OperationENS_9allocatorIS3_EEEEEptB8ue170006Ev, symObjAddr: 0x47D14, symBinAddr: 0x10004BA68, symSize: 0xB8 }
  - { offsetInCU: 0x96E04, offset: 0x96E04, size: 0x8, addend: 0x0, symName: __ZNSt3__116reverse_iteratorIPNS_6vectorIN5memdb9OperationENS_9allocatorIS3_EEEEEC2B8ue170006ES7_, symObjAddr: 0x48274, symBinAddr: 0x10004BFC8, symSize: 0x10C }
  - { offsetInCU: 0x96E3C, offset: 0x96E3C, size: 0x8, addend: 0x0, symName: __ZNSt3__118__unwrap_iter_implIPNS_6vectorIN5memdb9OperationENS_9allocatorIS3_EEEELb1EE8__unwrapB8ue170006ES7_, symObjAddr: 0x48380, symBinAddr: 0x10004C0D4, symSize: 0x24 }
  - { offsetInCU: 0x96E5F, offset: 0x96E5F, size: 0x8, addend: 0x0, symName: __ZNSt3__118__unwrap_iter_implIPNS_6vectorIN5memdb9OperationENS_9allocatorIS3_EEEELb1EE8__rewrapB8ue170006ES7_S7_, symObjAddr: 0x483A4, symBinAddr: 0x10004C0F8, symSize: 0x140 }
  - { offsetInCU: 0x96E90, offset: 0x96E90, size: 0x8, addend: 0x0, symName: __ZNSt3__16vectorINS0_IN5memdb9OperationENS_9allocatorIS2_EEEENS3_IS5_EEE21_ConstructTransactionD2B8ue170006Ev, symObjAddr: 0x484E4, symBinAddr: 0x10004C238, symSize: 0x390 }
  - { offsetInCU: 0x96EBA, offset: 0x96EBA, size: 0x8, addend: 0x0, symName: __ZNKSt3__16vectorINS0_IN5memdb9OperationENS_9allocatorIS2_EEEENS3_IS5_EEE17__annotate_shrinkB8ue170006Em, symObjAddr: 0x48874, symBinAddr: 0x10004C5C8, symSize: 0x378 }
  - { offsetInCU: 0x96EEF, offset: 0x96EEF, size: 0x8, addend: 0x0, symName: __ZNSt3__128__exception_guard_exceptionsINS_6vectorINS1_IN5memdb9OperationENS_9allocatorIS3_EEEENS4_IS6_EEE16__destroy_vectorEED2B8ue170006Ev, symObjAddr: 0x48BEC, symBinAddr: 0x10004C940, symSize: 0x17C }
  - { offsetInCU: 0x96F19, offset: 0x96F19, size: 0x8, addend: 0x0, symName: __ZNSt3__16vectorINS0_IN5memdb9OperationENS_9allocatorIS2_EEEENS3_IS5_EEE16__destroy_vectorclB8ue170006Ev, symObjAddr: 0x48D68, symBinAddr: 0x10004CABC, symSize: 0x43C }
  - { offsetInCU: 0x96F3F, offset: 0x96F3F, size: 0x8, addend: 0x0, symName: __ZNSt3__16vectorINS0_IN5memdb9OperationENS_9allocatorIS2_EEEENS3_IS5_EEE7__clearB8ue170006Ev, symObjAddr: 0x491A4, symBinAddr: 0x10004CEF8, symSize: 0xB0 }
  - { offsetInCU: 0x96F65, offset: 0x96F65, size: 0x8, addend: 0x0, symName: __ZNKSt3__16vectorINS0_IN5memdb9OperationENS_9allocatorIS2_EEEENS3_IS5_EEE17__annotate_deleteB8ue170006Ev, symObjAddr: 0x49254, symBinAddr: 0x10004CFA8, symSize: 0x388 }
  - { offsetInCU: 0x96F8B, offset: 0x96F8B, size: 0x8, addend: 0x0, symName: __ZNSt3__116allocator_traitsINS_9allocatorINS_6vectorIN5memdb9OperationENS1_IS4_EEEEEEE10deallocateB8ue170006ERS7_PS6_m, symObjAddr: 0x495DC, symBinAddr: 0x10004D330, symSize: 0x34 }
  - { offsetInCU: 0x96FCD, offset: 0x96FCD, size: 0x8, addend: 0x0, symName: __ZNSt3__16vectorINS0_IN5memdb9OperationENS_9allocatorIS2_EEEENS3_IS5_EEE22__base_destruct_at_endB8ue170006EPS5_, symObjAddr: 0x49610, symBinAddr: 0x10004D364, symSize: 0x1FC }
  - { offsetInCU: 0x97011, offset: 0x97011, size: 0x8, addend: 0x0, symName: __ZNSt3__19allocatorINS_6vectorIN5memdb9OperationENS0_IS3_EEEEE10deallocateB8ue170006EPS5_m, symObjAddr: 0x4980C, symBinAddr: 0x10004D560, symSize: 0x7C }
  - { offsetInCU: 0x97053, offset: 0x97053, size: 0x8, addend: 0x0, symName: __ZNSt3__16vectorINS0_IN5memdb9OperationENS_9allocatorIS2_EEEENS3_IS5_EEED2B8ue170006Ev, symObjAddr: 0x49888, symBinAddr: 0x10004D5DC, symSize: 0x294 }
  - { offsetInCU: 0x9707E, offset: 0x9707E, size: 0x8, addend: 0x0, symName: __ZNSt3__16vectorIbNS_9allocatorIbEEED2B8ue170006Ev, symObjAddr: 0x49B1C, symBinAddr: 0x10004D870, symSize: 0x298 }
  - { offsetInCU: 0x970A9, offset: 0x970A9, size: 0x8, addend: 0x0, symName: __ZNSt3__16vectorIbNS_9allocatorIbEEE16__destroy_vectorC1B8ue170006ERS3_, symObjAddr: 0x49DB4, symBinAddr: 0x10004DB08, symSize: 0x80 }
  - { offsetInCU: 0x970E2, offset: 0x970E2, size: 0x8, addend: 0x0, symName: __ZNSt3__16vectorIbNS_9allocatorIbEEE16__destroy_vectorclB8ue170006Ev, symObjAddr: 0x49E34, symBinAddr: 0x10004DB88, symSize: 0x3AC }
  - { offsetInCU: 0x97108, offset: 0x97108, size: 0x8, addend: 0x0, symName: __ZNSt3__16vectorIbNS_9allocatorIbEEE16__destroy_vectorC2B8ue170006ERS3_, symObjAddr: 0x4A1E0, symBinAddr: 0x10004DF34, symSize: 0x108 }
  - { offsetInCU: 0x97141, offset: 0x97141, size: 0x8, addend: 0x0, symName: __ZNSt3__116allocator_traitsINS_9allocatorImEEE10deallocateB8ue170006ERS2_Pmm, symObjAddr: 0x4A2E8, symBinAddr: 0x10004E03C, symSize: 0x34 }
  - { offsetInCU: 0x97183, offset: 0x97183, size: 0x8, addend: 0x0, symName: __ZNSt3__16vectorIbNS_9allocatorIbEEE7__allocB8ue170006Ev, symObjAddr: 0x4A31C, symBinAddr: 0x10004E070, symSize: 0xE4 }
  - { offsetInCU: 0x971A9, offset: 0x971A9, size: 0x8, addend: 0x0, symName: __ZNSt3__16vectorIbNS_9allocatorIbEEE5__capB8ue170006Ev, symObjAddr: 0x4A400, symBinAddr: 0x10004E154, symSize: 0x100 }
  - { offsetInCU: 0x971CF, offset: 0x971CF, size: 0x8, addend: 0x0, symName: __ZNSt3__19allocatorImE10deallocateB8ue170006EPmm, symObjAddr: 0x4A500, symBinAddr: 0x10004E254, symSize: 0x78 }
  - { offsetInCU: 0x97211, offset: 0x97211, size: 0x8, addend: 0x0, symName: __ZNSt3__117__compressed_pairImNS_9allocatorImEEE6secondB8ue170006Ev, symObjAddr: 0x4A578, symBinAddr: 0x10004E2CC, symSize: 0x108 }
  - { offsetInCU: 0x97237, offset: 0x97237, size: 0x8, addend: 0x0, symName: __ZNSt3__122__compressed_pair_elemINS_9allocatorImEELi1ELb1EE5__getB8ue170006Ev, symObjAddr: 0x4A680, symBinAddr: 0x10004E3D4, symSize: 0x74 }
  - { offsetInCU: 0x9725D, offset: 0x9725D, size: 0x8, addend: 0x0, symName: __ZNSt3__117__compressed_pairImNS_9allocatorImEEE5firstB8ue170006Ev, symObjAddr: 0x4A6F4, symBinAddr: 0x10004E448, symSize: 0x124 }
  - { offsetInCU: 0x97283, offset: 0x97283, size: 0x8, addend: 0x0, symName: __ZNSt3__122__compressed_pair_elemImLi0ELb0EE5__getB8ue170006Ev, symObjAddr: 0x4A818, symBinAddr: 0x10004E56C, symSize: 0xAC }
  - { offsetInCU: 0x972A9, offset: 0x972A9, size: 0x8, addend: 0x0, symName: __ZNSt3__16vectorINS_10shared_ptrIN5memdb6parser9CmdParserEEENS_9allocatorIS5_EEEC2B8ue170006ESt16initializer_listIS5_E, symObjAddr: 0x4A8C4, symBinAddr: 0x10004E618, symSize: 0x5B0 }
  - { offsetInCU: 0x97302, offset: 0x97302, size: 0x8, addend: 0x0, symName: __ZNSt3__117__compressed_pairIPNS_10shared_ptrIN5memdb6parser9CmdParserEEENS_9allocatorIS5_EEEC1B8ue170006IDnNS_18__default_init_tagEEEOT_OT0_, symObjAddr: 0x4AE74, symBinAddr: 0x10004EBC8, symSize: 0x88 }
  - { offsetInCU: 0x9735A, offset: 0x9735A, size: 0x8, addend: 0x0, symName: __ZNSt3__16vectorINS_10shared_ptrIN5memdb6parser9CmdParserEEENS_9allocatorIS5_EEE16__destroy_vectorC1B8ue170006ERS8_, symObjAddr: 0x4B1B8, symBinAddr: 0x10004EF0C, symSize: 0x80 }
  - { offsetInCU: 0x97393, offset: 0x97393, size: 0x8, addend: 0x0, symName: __ZNKSt16initializer_listINSt3__110shared_ptrIN5memdb6parser9CmdParserEEEE4sizeB8ue170006Ev, symObjAddr: 0x4B238, symBinAddr: 0x10004EF8C, symSize: 0xB0 }
  - { offsetInCU: 0x973B9, offset: 0x973B9, size: 0x8, addend: 0x0, symName: __ZNSt3__16vectorINS_10shared_ptrIN5memdb6parser9CmdParserEEENS_9allocatorIS5_EEE11__vallocateB8ue170006Em, symObjAddr: 0x4B2E8, symBinAddr: 0x10004F03C, symSize: 0x5E8 }
  - { offsetInCU: 0x97403, offset: 0x97403, size: 0x8, addend: 0x0, symName: __ZNSt3__16vectorINS_10shared_ptrIN5memdb6parser9CmdParserEEENS_9allocatorIS5_EEE18__construct_at_endIPKS5_SB_EEvT_T0_m, symObjAddr: 0x4B8D0, symBinAddr: 0x10004F624, symSize: 0x494 }
  - { offsetInCU: 0x97481, offset: 0x97481, size: 0x8, addend: 0x0, symName: __ZNKSt16initializer_listINSt3__110shared_ptrIN5memdb6parser9CmdParserEEEE5beginB8ue170006Ev, symObjAddr: 0x4BD64, symBinAddr: 0x10004FAB8, symSize: 0xAC }
  - { offsetInCU: 0x974A7, offset: 0x974A7, size: 0x8, addend: 0x0, symName: __ZNKSt16initializer_listINSt3__110shared_ptrIN5memdb6parser9CmdParserEEEE3endB8ue170006Ev, symObjAddr: 0x4BE10, symBinAddr: 0x10004FB64, symSize: 0x1C0 }
  - { offsetInCU: 0x974CD, offset: 0x974CD, size: 0x8, addend: 0x0, symName: __ZNSt3__128__exception_guard_exceptionsINS_6vectorINS_10shared_ptrIN5memdb6parser9CmdParserEEENS_9allocatorIS6_EEE16__destroy_vectorEE10__completeB8ue170006Ev, symObjAddr: 0x4BFD0, symBinAddr: 0x10004FD24, symSize: 0xD8 }
  - { offsetInCU: 0x974F3, offset: 0x974F3, size: 0x8, addend: 0x0, symName: __ZNSt3__128__exception_guard_exceptionsINS_6vectorINS_10shared_ptrIN5memdb6parser9CmdParserEEENS_9allocatorIS6_EEE16__destroy_vectorEED1B8ue170006Ev, symObjAddr: 0x4C0A8, symBinAddr: 0x10004FDFC, symSize: 0x78 }
  - { offsetInCU: 0x9751D, offset: 0x9751D, size: 0x8, addend: 0x0, symName: __ZNSt3__117__compressed_pairIPNS_10shared_ptrIN5memdb6parser9CmdParserEEENS_9allocatorIS5_EEEC2B8ue170006IDnNS_18__default_init_tagEEEOT_OT0_, symObjAddr: 0x4C120, symBinAddr: 0x10004FE74, symSize: 0x140 }
  - { offsetInCU: 0x97575, offset: 0x97575, size: 0x8, addend: 0x0, symName: __ZNSt3__122__compressed_pair_elemIPNS_10shared_ptrIN5memdb6parser9CmdParserEEELi0ELb0EEC2B8ue170006IDnvEEOT_, symObjAddr: 0x4C260, symBinAddr: 0x10004FFB4, symSize: 0xBC }
  - { offsetInCU: 0x975B7, offset: 0x975B7, size: 0x8, addend: 0x0, symName: __ZNSt3__122__compressed_pair_elemINS_9allocatorINS_10shared_ptrIN5memdb6parser9CmdParserEEEEELi1ELb1EEC2B8ue170006ENS_18__default_init_tagE, symObjAddr: 0x4C31C, symBinAddr: 0x100050070, symSize: 0x84 }
  - { offsetInCU: 0x975EC, offset: 0x975EC, size: 0x8, addend: 0x0, symName: __ZNSt3__19allocatorINS_10shared_ptrIN5memdb6parser9CmdParserEEEEC2B8ue170006Ev, symObjAddr: 0x4C3A0, symBinAddr: 0x1000500F4, symSize: 0x84 }
  - { offsetInCU: 0x97616, offset: 0x97616, size: 0x8, addend: 0x0, symName: __ZNSt3__116__non_trivial_ifILb1ENS_9allocatorINS_10shared_ptrIN5memdb6parser9CmdParserEEEEEEC2B8ue170006Ev, symObjAddr: 0x4C424, symBinAddr: 0x100050178, symSize: 0x54 }
  - { offsetInCU: 0x97640, offset: 0x97640, size: 0x8, addend: 0x0, symName: __ZNSt3__128__exception_guard_exceptionsINS_6vectorINS_10shared_ptrIN5memdb6parser9CmdParserEEENS_9allocatorIS6_EEE16__destroy_vectorEEC1B8ue170006ESA_, symObjAddr: 0x4C478, symBinAddr: 0x1000501CC, symSize: 0x28C }
  - { offsetInCU: 0x9767D, offset: 0x9767D, size: 0x8, addend: 0x0, symName: __ZNSt3__128__exception_guard_exceptionsINS_6vectorINS_10shared_ptrIN5memdb6parser9CmdParserEEENS_9allocatorIS6_EEE16__destroy_vectorEEC2B8ue170006ESA_, symObjAddr: 0x4C704, symBinAddr: 0x100050458, symSize: 0x2BC }
  - { offsetInCU: 0x976BA, offset: 0x976BA, size: 0x8, addend: 0x0, symName: __ZNSt3__16vectorINS_10shared_ptrIN5memdb6parser9CmdParserEEENS_9allocatorIS5_EEE16__destroy_vectorC2B8ue170006ERS8_, symObjAddr: 0x4C9C0, symBinAddr: 0x100050714, symSize: 0x108 }
  - { offsetInCU: 0x976F3, offset: 0x976F3, size: 0x8, addend: 0x0, symName: __ZNKSt3__16vectorINS_10shared_ptrIN5memdb6parser9CmdParserEEENS_9allocatorIS5_EEE8max_sizeEv, symObjAddr: 0x4CAC8, symBinAddr: 0x10005081C, symSize: 0x3B8 }
  - { offsetInCU: 0x9771C, offset: 0x9771C, size: 0x8, addend: 0x0, symName: __ZNKSt3__16vectorINS_10shared_ptrIN5memdb6parser9CmdParserEEENS_9allocatorIS5_EEE20__throw_length_errorB8ue170006Ev, symObjAddr: 0x4CE80, symBinAddr: 0x100050BD4, symSize: 0x80 }
  - { offsetInCU: 0x97742, offset: 0x97742, size: 0x8, addend: 0x0, symName: __ZNSt3__16vectorINS_10shared_ptrIN5memdb6parser9CmdParserEEENS_9allocatorIS5_EEE7__allocB8ue170006Ev, symObjAddr: 0x4D150, symBinAddr: 0x100050EA4, symSize: 0xE4 }
  - { offsetInCU: 0x97768, offset: 0x97768, size: 0x8, addend: 0x0, symName: __ZNSt3__16vectorINS_10shared_ptrIN5memdb6parser9CmdParserEEENS_9allocatorIS5_EEE9__end_capB8ue170006Ev, symObjAddr: 0x4D234, symBinAddr: 0x100050F88, symSize: 0x100 }
  - { offsetInCU: 0x9778E, offset: 0x9778E, size: 0x8, addend: 0x0, symName: __ZNKSt3__16vectorINS_10shared_ptrIN5memdb6parser9CmdParserEEENS_9allocatorIS5_EEE14__annotate_newB8ue170006Em, symObjAddr: 0x4D334, symBinAddr: 0x100051088, symSize: 0x360 }
  - { offsetInCU: 0x977CF, offset: 0x977CF, size: 0x8, addend: 0x0, symName: __ZNSt3__116allocator_traitsINS_9allocatorINS_10shared_ptrIN5memdb6parser9CmdParserEEEEEE8max_sizeB8ue170006IS7_vvEEmRKS7_, symObjAddr: 0x4D694, symBinAddr: 0x1000513E8, symSize: 0x54 }
  - { offsetInCU: 0x977FB, offset: 0x977FB, size: 0x8, addend: 0x0, symName: __ZNKSt3__16vectorINS_10shared_ptrIN5memdb6parser9CmdParserEEENS_9allocatorIS5_EEE7__allocB8ue170006Ev, symObjAddr: 0x4D6E8, symBinAddr: 0x10005143C, symSize: 0xE4 }
  - { offsetInCU: 0x97821, offset: 0x97821, size: 0x8, addend: 0x0, symName: __ZNKSt3__117__compressed_pairIPNS_10shared_ptrIN5memdb6parser9CmdParserEEENS_9allocatorIS5_EEE6secondB8ue170006Ev, symObjAddr: 0x4D7CC, symBinAddr: 0x100051520, symSize: 0x108 }
  - { offsetInCU: 0x97847, offset: 0x97847, size: 0x8, addend: 0x0, symName: __ZNKSt3__122__compressed_pair_elemINS_9allocatorINS_10shared_ptrIN5memdb6parser9CmdParserEEEEELi1ELb1EE5__getB8ue170006Ev, symObjAddr: 0x4D8D4, symBinAddr: 0x100051628, symSize: 0x74 }
  - { offsetInCU: 0x9786D, offset: 0x9786D, size: 0x8, addend: 0x0, symName: __ZNSt3__19allocatorINS_10shared_ptrIN5memdb6parser9CmdParserEEEE17allocate_at_leastB8ue170006Em, symObjAddr: 0x4DB6C, symBinAddr: 0x1000518C0, symSize: 0x2B8 }
  - { offsetInCU: 0x978A3, offset: 0x978A3, size: 0x8, addend: 0x0, symName: __ZNSt3__19allocatorINS_10shared_ptrIN5memdb6parser9CmdParserEEEE8allocateB8ue170006Em, symObjAddr: 0x4DE24, symBinAddr: 0x100051B78, symSize: 0xCC }
  - { offsetInCU: 0x978D7, offset: 0x978D7, size: 0x8, addend: 0x0, symName: __ZNSt3__117__compressed_pairIPNS_10shared_ptrIN5memdb6parser9CmdParserEEENS_9allocatorIS5_EEE6secondB8ue170006Ev, symObjAddr: 0x4DEF0, symBinAddr: 0x100051C44, symSize: 0x108 }
  - { offsetInCU: 0x978FD, offset: 0x978FD, size: 0x8, addend: 0x0, symName: __ZNSt3__122__compressed_pair_elemINS_9allocatorINS_10shared_ptrIN5memdb6parser9CmdParserEEEEELi1ELb1EE5__getB8ue170006Ev, symObjAddr: 0x4DFF8, symBinAddr: 0x100051D4C, symSize: 0x74 }
  - { offsetInCU: 0x97923, offset: 0x97923, size: 0x8, addend: 0x0, symName: __ZNSt3__117__compressed_pairIPNS_10shared_ptrIN5memdb6parser9CmdParserEEENS_9allocatorIS5_EEE5firstB8ue170006Ev, symObjAddr: 0x4E06C, symBinAddr: 0x100051DC0, symSize: 0x124 }
  - { offsetInCU: 0x97949, offset: 0x97949, size: 0x8, addend: 0x0, symName: __ZNSt3__122__compressed_pair_elemIPNS_10shared_ptrIN5memdb6parser9CmdParserEEELi0ELb0EE5__getB8ue170006Ev, symObjAddr: 0x4E190, symBinAddr: 0x100051EE4, symSize: 0xAC }
  - { offsetInCU: 0x9796F, offset: 0x9796F, size: 0x8, addend: 0x0, symName: __ZNKSt3__16vectorINS_10shared_ptrIN5memdb6parser9CmdParserEEENS_9allocatorIS5_EEE31__annotate_contiguous_containerEPKvSA_SA_SA_, symObjAddr: 0x4E23C, symBinAddr: 0x100051F90, symSize: 0x9C }
  - { offsetInCU: 0x979D1, offset: 0x979D1, size: 0x8, addend: 0x0, symName: __ZNKSt3__16vectorINS_10shared_ptrIN5memdb6parser9CmdParserEEENS_9allocatorIS5_EEE4dataB8ue170006Ev, symObjAddr: 0x4E2D8, symBinAddr: 0x10005202C, symSize: 0xB0 }
  - { offsetInCU: 0x979F7, offset: 0x979F7, size: 0x8, addend: 0x0, symName: __ZNKSt3__16vectorINS_10shared_ptrIN5memdb6parser9CmdParserEEENS_9allocatorIS5_EEE8capacityB8ue170006Ev, symObjAddr: 0x4E388, symBinAddr: 0x1000520DC, symSize: 0x144 }
  - { offsetInCU: 0x97A1D, offset: 0x97A1D, size: 0x8, addend: 0x0, symName: __ZNKSt3__16vectorINS_10shared_ptrIN5memdb6parser9CmdParserEEENS_9allocatorIS5_EEE9__end_capB8ue170006Ev, symObjAddr: 0x4E4E0, symBinAddr: 0x100052234, symSize: 0x100 }
  - { offsetInCU: 0x97A43, offset: 0x97A43, size: 0x8, addend: 0x0, symName: __ZNKSt3__117__compressed_pairIPNS_10shared_ptrIN5memdb6parser9CmdParserEEENS_9allocatorIS5_EEE5firstB8ue170006Ev, symObjAddr: 0x4E5E0, symBinAddr: 0x100052334, symSize: 0x124 }
  - { offsetInCU: 0x97A69, offset: 0x97A69, size: 0x8, addend: 0x0, symName: __ZNKSt3__122__compressed_pair_elemIPNS_10shared_ptrIN5memdb6parser9CmdParserEEELi0ELb0EE5__getB8ue170006Ev, symObjAddr: 0x4E704, symBinAddr: 0x100052458, symSize: 0xAC }
  - { offsetInCU: 0x97AAD, offset: 0x97AAD, size: 0x8, addend: 0x0, symName: __ZNSt3__16vectorINS_10shared_ptrIN5memdb6parser9CmdParserEEENS_9allocatorIS5_EEE21_ConstructTransactionC1B8ue170006ERS8_m, symObjAddr: 0x4E7B0, symBinAddr: 0x100052504, symSize: 0x88 }
  - { offsetInCU: 0x97AF5, offset: 0x97AF5, size: 0x8, addend: 0x0, symName: __ZNSt3__16vectorINS_10shared_ptrIN5memdb6parser9CmdParserEEENS_9allocatorIS5_EEE21_ConstructTransactionD1B8ue170006Ev, symObjAddr: 0x4EB6C, symBinAddr: 0x1000528C0, symSize: 0x78 }
  - { offsetInCU: 0x97B1F, offset: 0x97B1F, size: 0x8, addend: 0x0, symName: __ZNSt3__16vectorINS_10shared_ptrIN5memdb6parser9CmdParserEEENS_9allocatorIS5_EEE21_ConstructTransactionC2B8ue170006ERS8_m, symObjAddr: 0x4EBE4, symBinAddr: 0x100052938, symSize: 0x3D8 }
  - { offsetInCU: 0x97B67, offset: 0x97B67, size: 0x8, addend: 0x0, symName: __ZNKSt3__16vectorINS_10shared_ptrIN5memdb6parser9CmdParserEEENS_9allocatorIS5_EEE19__annotate_increaseB8ue170006Em, symObjAddr: 0x4EFBC, symBinAddr: 0x100052D10, symSize: 0x44C }
  - { offsetInCU: 0x97B9C, offset: 0x97B9C, size: 0x8, addend: 0x0, symName: __ZNKSt3__16vectorINS_10shared_ptrIN5memdb6parser9CmdParserEEENS_9allocatorIS5_EEE4sizeB8ue170006Ev, symObjAddr: 0x4F408, symBinAddr: 0x10005315C, symSize: 0xF8 }
  - { offsetInCU: 0x97BE6, offset: 0x97BE6, size: 0x8, addend: 0x0, symName: __ZNSt3__119__unwrap_range_implIPKNS_10shared_ptrIN5memdb6parser9CmdParserEEES7_E8__unwrapB8ue170006ES7_S7_, symObjAddr: 0x4FE7C, symBinAddr: 0x100053BD0, symSize: 0x30C }
  - { offsetInCU: 0x97C1F, offset: 0x97C1F, size: 0x8, addend: 0x0, symName: __ZNSt3__14pairIPKNS_10shared_ptrIN5memdb6parser9CmdParserEEES7_EC1B8ue170006IS7_S7_LPv0EEEOT_OT0_, symObjAddr: 0x501AC, symBinAddr: 0x100053F00, symSize: 0x88 }
  - { offsetInCU: 0x97C7D, offset: 0x97C7D, size: 0x8, addend: 0x0, symName: __ZNSt3__118__unwrap_iter_implIPKNS_10shared_ptrIN5memdb6parser9CmdParserEEELb1EE8__unwrapB8ue170006ES7_, symObjAddr: 0x50234, symBinAddr: 0x100053F88, symSize: 0x24 }
  - { offsetInCU: 0x97CA0, offset: 0x97CA0, size: 0x8, addend: 0x0, symName: __ZNSt3__14pairIPKNS_10shared_ptrIN5memdb6parser9CmdParserEEES7_EC2B8ue170006IS7_S7_LPv0EEEOT_OT0_, symObjAddr: 0x5026C, symBinAddr: 0x100053FC0, symSize: 0x210 }
  - { offsetInCU: 0x97CFE, offset: 0x97CFE, size: 0x8, addend: 0x0, symName: __ZNSt3__129_AllocatorDestroyRangeReverseINS_9allocatorINS_10shared_ptrIN5memdb6parser9CmdParserEEEEEPS6_EC1B8ue170006ERS7_RS8_SB_, symObjAddr: 0x506B8, symBinAddr: 0x10005440C, symSize: 0x90 }
  - { offsetInCU: 0x97D55, offset: 0x97D55, size: 0x8, addend: 0x0, symName: __ZNSt3__116allocator_traitsINS_9allocatorINS_10shared_ptrIN5memdb6parser9CmdParserEEEEEE9constructB8ue170006IS6_JRKS6_EvvEEvRS7_PT_DpOT0_, symObjAddr: 0x50748, symBinAddr: 0x10005449C, symSize: 0x80 }
  - { offsetInCU: 0x97DAA, offset: 0x97DAA, size: 0x8, addend: 0x0, symName: __ZNSt3__128__exception_guard_exceptionsINS_29_AllocatorDestroyRangeReverseINS_9allocatorINS_10shared_ptrIN5memdb6parser9CmdParserEEEEEPS7_EEE10__completeB8ue170006Ev, symObjAddr: 0x507C8, symBinAddr: 0x10005451C, symSize: 0xD8 }
  - { offsetInCU: 0x97DD0, offset: 0x97DD0, size: 0x8, addend: 0x0, symName: __ZNSt3__128__exception_guard_exceptionsINS_29_AllocatorDestroyRangeReverseINS_9allocatorINS_10shared_ptrIN5memdb6parser9CmdParserEEEEEPS7_EEED1B8ue170006Ev, symObjAddr: 0x508A0, symBinAddr: 0x1000545F4, symSize: 0x78 }
  - { offsetInCU: 0x97DFA, offset: 0x97DFA, size: 0x8, addend: 0x0, symName: __ZNSt3__128__exception_guard_exceptionsINS_29_AllocatorDestroyRangeReverseINS_9allocatorINS_10shared_ptrIN5memdb6parser9CmdParserEEEEEPS7_EEEC1B8ue170006ESA_, symObjAddr: 0x50918, symBinAddr: 0x10005466C, symSize: 0x84 }
  - { offsetInCU: 0x97E33, offset: 0x97E33, size: 0x8, addend: 0x0, symName: __ZNSt3__128__exception_guard_exceptionsINS_29_AllocatorDestroyRangeReverseINS_9allocatorINS_10shared_ptrIN5memdb6parser9CmdParserEEEEEPS7_EEEC2B8ue170006ESA_, symObjAddr: 0x5099C, symBinAddr: 0x1000546F0, symSize: 0xF8 }
  - { offsetInCU: 0x97E6C, offset: 0x97E6C, size: 0x8, addend: 0x0, symName: __ZNSt3__129_AllocatorDestroyRangeReverseINS_9allocatorINS_10shared_ptrIN5memdb6parser9CmdParserEEEEEPS6_EC2B8ue170006ERS7_RS8_SB_, symObjAddr: 0x50A94, symBinAddr: 0x1000547E8, symSize: 0x20C }
  - { offsetInCU: 0x97EC3, offset: 0x97EC3, size: 0x8, addend: 0x0, symName: __ZNSt3__110shared_ptrIN5memdb6parser9CmdParserEEC1B8ue170006ERKS4_, symObjAddr: 0x50DB0, symBinAddr: 0x100054B04, symSize: 0x80 }
  - { offsetInCU: 0x97EFC, offset: 0x97EFC, size: 0x8, addend: 0x0, symName: __ZNSt3__110shared_ptrIN5memdb6parser9CmdParserEEC2B8ue170006ERKS4_, symObjAddr: 0x50E30, symBinAddr: 0x100054B84, symSize: 0x35C }
  - { offsetInCU: 0x97F35, offset: 0x97F35, size: 0x8, addend: 0x0, symName: __ZNSt3__119__shared_weak_count12__add_sharedB8ue170006Ev, symObjAddr: 0x5118C, symBinAddr: 0x100054EE0, symSize: 0x120 }
  - { offsetInCU: 0x97F5B, offset: 0x97F5B, size: 0x8, addend: 0x0, symName: __ZNSt3__114__shared_count12__add_sharedB8ue170006Ev, symObjAddr: 0x512AC, symBinAddr: 0x100055000, symSize: 0x140 }
  - { offsetInCU: 0x97F81, offset: 0x97F81, size: 0x8, addend: 0x0, symName: __ZNSt3__128__exception_guard_exceptionsINS_29_AllocatorDestroyRangeReverseINS_9allocatorINS_10shared_ptrIN5memdb6parser9CmdParserEEEEEPS7_EEED2B8ue170006Ev, symObjAddr: 0x5146C, symBinAddr: 0x1000551C0, symSize: 0x17C }
  - { offsetInCU: 0x97FAB, offset: 0x97FAB, size: 0x8, addend: 0x0, symName: __ZNKSt3__129_AllocatorDestroyRangeReverseINS_9allocatorINS_10shared_ptrIN5memdb6parser9CmdParserEEEEEPS6_EclB8ue170006Ev, symObjAddr: 0x515E8, symBinAddr: 0x10005533C, symSize: 0x40C }
  - { offsetInCU: 0x97FD2, offset: 0x97FD2, size: 0x8, addend: 0x0, symName: __ZNSt3__116reverse_iteratorIPNS_10shared_ptrIN5memdb6parser9CmdParserEEEEC1B8ue170006ES6_, symObjAddr: 0x51CD0, symBinAddr: 0x100055A24, symSize: 0x80 }
  - { offsetInCU: 0x9800A, offset: 0x9800A, size: 0x8, addend: 0x0, symName: __ZNSt3__116allocator_traitsINS_9allocatorINS_10shared_ptrIN5memdb6parser9CmdParserEEEEEE7destroyB8ue170006IS6_vvEEvRS7_PT_, symObjAddr: 0x51DEC, symBinAddr: 0x100055B40, symSize: 0x28 }
  - { offsetInCU: 0x98045, offset: 0x98045, size: 0x8, addend: 0x0, symName: __ZNSt3__116reverse_iteratorIPNS_10shared_ptrIN5memdb6parser9CmdParserEEEEppB8ue170006Ev, symObjAddr: 0x51E80, symBinAddr: 0x100055BD4, symSize: 0x1B0 }
  - { offsetInCU: 0x9806B, offset: 0x9806B, size: 0x8, addend: 0x0, symName: __ZNKSt3__116reverse_iteratorIPNS_10shared_ptrIN5memdb6parser9CmdParserEEEE4baseB8ue170006Ev, symObjAddr: 0x52030, symBinAddr: 0x100055D84, symSize: 0xB0 }
  - { offsetInCU: 0x98097, offset: 0x98097, size: 0x8, addend: 0x0, symName: __ZNSt3__119__to_address_helperINS_16reverse_iteratorIPNS_10shared_ptrIN5memdb6parser9CmdParserEEEEEvE6__callB8ue170006ERKS8_, symObjAddr: 0x52170, symBinAddr: 0x100055EC4, symSize: 0x70 }
  - { offsetInCU: 0x980BA, offset: 0x980BA, size: 0x8, addend: 0x0, symName: __ZNKSt3__116reverse_iteratorIPNS_10shared_ptrIN5memdb6parser9CmdParserEEEEptB8ue170006Ev, symObjAddr: 0x521E0, symBinAddr: 0x100055F34, symSize: 0xB8 }
  - { offsetInCU: 0x980E0, offset: 0x980E0, size: 0x8, addend: 0x0, symName: __ZNSt3__116reverse_iteratorIPNS_10shared_ptrIN5memdb6parser9CmdParserEEEEC2B8ue170006ES6_, symObjAddr: 0x52724, symBinAddr: 0x100056478, symSize: 0x10C }
  - { offsetInCU: 0x98118, offset: 0x98118, size: 0x8, addend: 0x0, symName: __ZNSt3__118__unwrap_iter_implIPNS_10shared_ptrIN5memdb6parser9CmdParserEEELb1EE8__unwrapB8ue170006ES6_, symObjAddr: 0x52830, symBinAddr: 0x100056584, symSize: 0x24 }
  - { offsetInCU: 0x9813B, offset: 0x9813B, size: 0x8, addend: 0x0, symName: __ZNSt3__118__unwrap_iter_implIPNS_10shared_ptrIN5memdb6parser9CmdParserEEELb1EE8__rewrapB8ue170006ES6_S6_, symObjAddr: 0x52854, symBinAddr: 0x1000565A8, symSize: 0x13C }
  - { offsetInCU: 0x9816C, offset: 0x9816C, size: 0x8, addend: 0x0, symName: __ZNSt3__16vectorINS_10shared_ptrIN5memdb6parser9CmdParserEEENS_9allocatorIS5_EEE21_ConstructTransactionD2B8ue170006Ev, symObjAddr: 0x52990, symBinAddr: 0x1000566E4, symSize: 0x390 }
  - { offsetInCU: 0x98196, offset: 0x98196, size: 0x8, addend: 0x0, symName: __ZNKSt3__16vectorINS_10shared_ptrIN5memdb6parser9CmdParserEEENS_9allocatorIS5_EEE17__annotate_shrinkB8ue170006Em, symObjAddr: 0x52D20, symBinAddr: 0x100056A74, symSize: 0x360 }
  - { offsetInCU: 0x981CB, offset: 0x981CB, size: 0x8, addend: 0x0, symName: __ZNSt3__128__exception_guard_exceptionsINS_6vectorINS_10shared_ptrIN5memdb6parser9CmdParserEEENS_9allocatorIS6_EEE16__destroy_vectorEED2B8ue170006Ev, symObjAddr: 0x53080, symBinAddr: 0x100056DD4, symSize: 0x17C }
  - { offsetInCU: 0x981F5, offset: 0x981F5, size: 0x8, addend: 0x0, symName: __ZNSt3__16vectorINS_10shared_ptrIN5memdb6parser9CmdParserEEENS_9allocatorIS5_EEE16__destroy_vectorclB8ue170006Ev, symObjAddr: 0x531FC, symBinAddr: 0x100056F50, symSize: 0x43C }
  - { offsetInCU: 0x9821B, offset: 0x9821B, size: 0x8, addend: 0x0, symName: __ZNSt3__16vectorINS_10shared_ptrIN5memdb6parser9CmdParserEEENS_9allocatorIS5_EEE7__clearB8ue170006Ev, symObjAddr: 0x53638, symBinAddr: 0x10005738C, symSize: 0xB0 }
  - { offsetInCU: 0x98241, offset: 0x98241, size: 0x8, addend: 0x0, symName: __ZNKSt3__16vectorINS_10shared_ptrIN5memdb6parser9CmdParserEEENS_9allocatorIS5_EEE17__annotate_deleteB8ue170006Ev, symObjAddr: 0x536E8, symBinAddr: 0x10005743C, symSize: 0x370 }
  - { offsetInCU: 0x98267, offset: 0x98267, size: 0x8, addend: 0x0, symName: __ZNSt3__116allocator_traitsINS_9allocatorINS_10shared_ptrIN5memdb6parser9CmdParserEEEEEE10deallocateB8ue170006ERS7_PS6_m, symObjAddr: 0x53A58, symBinAddr: 0x1000577AC, symSize: 0x34 }
  - { offsetInCU: 0x982A9, offset: 0x982A9, size: 0x8, addend: 0x0, symName: __ZNSt3__16vectorINS_10shared_ptrIN5memdb6parser9CmdParserEEENS_9allocatorIS5_EEE22__base_destruct_at_endB8ue170006EPS5_, symObjAddr: 0x53A8C, symBinAddr: 0x1000577E0, symSize: 0x1FC }
  - { offsetInCU: 0x982ED, offset: 0x982ED, size: 0x8, addend: 0x0, symName: __ZNSt3__19allocatorINS_10shared_ptrIN5memdb6parser9CmdParserEEEE10deallocateB8ue170006EPS5_m, symObjAddr: 0x53C88, symBinAddr: 0x1000579DC, symSize: 0x78 }
  - { offsetInCU: 0x9832F, offset: 0x9832F, size: 0x8, addend: 0x0, symName: __ZNSt3__16vectorINS_10shared_ptrIN5memdb6parser9CmdParserEEENS_9allocatorIS5_EEED2B8ue170006Ev, symObjAddr: 0x53D00, symBinAddr: 0x100057A54, symSize: 0x294 }
  - { offsetInCU: 0x9835A, offset: 0x9835A, size: 0x8, addend: 0x0, symName: __ZN5memdb8DatabaseC2Ev, symObjAddr: 0x53F94, symBinAddr: 0x100057CE8, symSize: 0x84 }
  - { offsetInCU: 0x98384, offset: 0x98384, size: 0x8, addend: 0x0, symName: __ZNSt3__16vectorIN5memdb5TableENS_9allocatorIS2_EEEC1B8ue170006Ev, symObjAddr: 0x54018, symBinAddr: 0x100057D6C, symSize: 0x78 }
  - { offsetInCU: 0x983AE, offset: 0x983AE, size: 0x8, addend: 0x0, symName: __ZNSt3__13mapINS_17basic_string_viewIcNS_11char_traitsIcEEEElNS_4lessIS4_EENS_9allocatorINS_4pairIKS4_lEEEEEC1B8ue170006Ev, symObjAddr: 0x54090, symBinAddr: 0x100057DE4, symSize: 0x78 }
  - { offsetInCU: 0x983D8, offset: 0x983D8, size: 0x8, addend: 0x0, symName: __ZNSt3__16vectorIN5memdb5TableENS_9allocatorIS2_EEEC2B8ue170006Ev, symObjAddr: 0x54108, symBinAddr: 0x100057E5C, symSize: 0x340 }
  - { offsetInCU: 0x98403, offset: 0x98403, size: 0x8, addend: 0x0, symName: __ZNSt3__117__compressed_pairIPN5memdb5TableENS_9allocatorIS2_EEEC1B8ue170006IDnNS_18__default_init_tagEEEOT_OT0_, symObjAddr: 0x54448, symBinAddr: 0x10005819C, symSize: 0x88 }
  - { offsetInCU: 0x9845B, offset: 0x9845B, size: 0x8, addend: 0x0, symName: __ZNSt3__117__compressed_pairIPN5memdb5TableENS_9allocatorIS2_EEEC2B8ue170006IDnNS_18__default_init_tagEEEOT_OT0_, symObjAddr: 0x544D0, symBinAddr: 0x100058224, symSize: 0x140 }
  - { offsetInCU: 0x984B3, offset: 0x984B3, size: 0x8, addend: 0x0, symName: __ZNSt3__122__compressed_pair_elemIPN5memdb5TableELi0ELb0EEC2B8ue170006IDnvEEOT_, symObjAddr: 0x54610, symBinAddr: 0x100058364, symSize: 0xBC }
  - { offsetInCU: 0x984F5, offset: 0x984F5, size: 0x8, addend: 0x0, symName: __ZNSt3__122__compressed_pair_elemINS_9allocatorIN5memdb5TableEEELi1ELb1EEC2B8ue170006ENS_18__default_init_tagE, symObjAddr: 0x546CC, symBinAddr: 0x100058420, symSize: 0x84 }
  - { offsetInCU: 0x9852A, offset: 0x9852A, size: 0x8, addend: 0x0, symName: __ZNSt3__19allocatorIN5memdb5TableEEC2B8ue170006Ev, symObjAddr: 0x54750, symBinAddr: 0x1000584A4, symSize: 0x84 }
  - { offsetInCU: 0x98554, offset: 0x98554, size: 0x8, addend: 0x0, symName: __ZNSt3__116__non_trivial_ifILb1ENS_9allocatorIN5memdb5TableEEEEC2B8ue170006Ev, symObjAddr: 0x547D4, symBinAddr: 0x100058528, symSize: 0x54 }
  - { offsetInCU: 0x9857E, offset: 0x9857E, size: 0x8, addend: 0x0, symName: __ZNSt3__13mapINS_17basic_string_viewIcNS_11char_traitsIcEEEElNS_4lessIS4_EENS_9allocatorINS_4pairIKS4_lEEEEEC2B8ue170006Ev, symObjAddr: 0x54828, symBinAddr: 0x10005857C, symSize: 0x240 }
  - { offsetInCU: 0x985A9, offset: 0x985A9, size: 0x8, addend: 0x0, symName: __ZNSt3__119__map_value_compareINS_17basic_string_viewIcNS_11char_traitsIcEEEENS_12__value_typeIS4_lEENS_4lessIS4_EELb1EEC1B8ue170006ES8_, symObjAddr: 0x54A68, symBinAddr: 0x1000587BC, symSize: 0x5C }
  - { offsetInCU: 0x985E2, offset: 0x985E2, size: 0x8, addend: 0x0, symName: __ZNSt3__16__treeINS_12__value_typeINS_17basic_string_viewIcNS_11char_traitsIcEEEElEENS_19__map_value_compareIS5_S6_NS_4lessIS5_EELb1EEENS_9allocatorIS6_EEEC1ERKSA_, symObjAddr: 0x54AC4, symBinAddr: 0x100058818, symSize: 0x80 }
  - { offsetInCU: 0x9861D, offset: 0x9861D, size: 0x8, addend: 0x0, symName: __ZNSt3__119__map_value_compareINS_17basic_string_viewIcNS_11char_traitsIcEEEENS_12__value_typeIS4_lEENS_4lessIS4_EELb1EEC2B8ue170006ES8_, symObjAddr: 0x54B44, symBinAddr: 0x100058898, symSize: 0x54 }
  - { offsetInCU: 0x98656, offset: 0x98656, size: 0x8, addend: 0x0, symName: __ZNSt3__16__treeINS_12__value_typeINS_17basic_string_viewIcNS_11char_traitsIcEEEElEENS_19__map_value_compareIS5_S6_NS_4lessIS5_EELb1EEENS_9allocatorIS6_EEEC2ERKSA_, symObjAddr: 0x54B98, symBinAddr: 0x1000588EC, symSize: 0x394 }
  - { offsetInCU: 0x98693, offset: 0x98693, size: 0x8, addend: 0x0, symName: __ZNSt3__117__compressed_pairINS_15__tree_end_nodeIPNS_16__tree_node_baseIPvEEEENS_9allocatorINS_11__tree_nodeINS_12__value_typeINS_17basic_string_viewIcNS_11char_traitsIcEEEElEES3_EEEEEC1B8ue170006ILb1EvEEv, symObjAddr: 0x54F2C, symBinAddr: 0x100058C80, symSize: 0x78 }
  - { offsetInCU: 0x986C8, offset: 0x986C8, size: 0x8, addend: 0x0, symName: __ZNSt3__117__compressed_pairImNS_19__map_value_compareINS_17basic_string_viewIcNS_11char_traitsIcEEEENS_12__value_typeIS5_lEENS_4lessIS5_EELb1EEEEC1B8ue170006IiRKSA_EEOT_OT0_, symObjAddr: 0x54FA4, symBinAddr: 0x100058CF8, symSize: 0x88 }
  - { offsetInCU: 0x98720, offset: 0x98720, size: 0x8, addend: 0x0, symName: __ZNSt3__16__treeINS_12__value_typeINS_17basic_string_viewIcNS_11char_traitsIcEEEElEENS_19__map_value_compareIS5_S6_NS_4lessIS5_EELb1EEENS_9allocatorIS6_EEE10__end_nodeB8ue170006Ev, symObjAddr: 0x5502C, symBinAddr: 0x100058D80, symSize: 0x104 }
  - { offsetInCU: 0x98746, offset: 0x98746, size: 0x8, addend: 0x0, symName: __ZNSt3__16__treeINS_12__value_typeINS_17basic_string_viewIcNS_11char_traitsIcEEEElEENS_19__map_value_compareIS5_S6_NS_4lessIS5_EELb1EEENS_9allocatorIS6_EEE12__begin_nodeB8ue170006Ev, symObjAddr: 0x55130, symBinAddr: 0x100058E84, symSize: 0xAC }
  - { offsetInCU: 0x9876C, offset: 0x9876C, size: 0x8, addend: 0x0, symName: __ZNSt3__117__compressed_pairINS_15__tree_end_nodeIPNS_16__tree_node_baseIPvEEEENS_9allocatorINS_11__tree_nodeINS_12__value_typeINS_17basic_string_viewIcNS_11char_traitsIcEEEElEES3_EEEEEC2B8ue170006ILb1EvEEv, symObjAddr: 0x551DC, symBinAddr: 0x100058F30, symSize: 0xEC }
  - { offsetInCU: 0x987A1, offset: 0x987A1, size: 0x8, addend: 0x0, symName: __ZNSt3__122__compressed_pair_elemINS_15__tree_end_nodeIPNS_16__tree_node_baseIPvEEEELi0ELb0EEC2B8ue170006ENS_16__value_init_tagE, symObjAddr: 0x552C8, symBinAddr: 0x10005901C, symSize: 0x78 }
  - { offsetInCU: 0x987D6, offset: 0x987D6, size: 0x8, addend: 0x0, symName: __ZNSt3__122__compressed_pair_elemINS_9allocatorINS_11__tree_nodeINS_12__value_typeINS_17basic_string_viewIcNS_11char_traitsIcEEEElEEPvEEEELi1ELb1EEC2B8ue170006ENS_16__value_init_tagE, symObjAddr: 0x55340, symBinAddr: 0x100059094, symSize: 0x84 }
  - { offsetInCU: 0x9880B, offset: 0x9880B, size: 0x8, addend: 0x0, symName: __ZNSt3__115__tree_end_nodeIPNS_16__tree_node_baseIPvEEEC1B8ue170006Ev, symObjAddr: 0x553C4, symBinAddr: 0x100059118, symSize: 0x78 }
  - { offsetInCU: 0x98835, offset: 0x98835, size: 0x8, addend: 0x0, symName: __ZNSt3__115__tree_end_nodeIPNS_16__tree_node_baseIPvEEEC2B8ue170006Ev, symObjAddr: 0x5543C, symBinAddr: 0x100059190, symSize: 0xB8 }
  - { offsetInCU: 0x9885F, offset: 0x9885F, size: 0x8, addend: 0x0, symName: __ZNSt3__19allocatorINS_11__tree_nodeINS_12__value_typeINS_17basic_string_viewIcNS_11char_traitsIcEEEElEEPvEEEC2B8ue170006Ev, symObjAddr: 0x554F4, symBinAddr: 0x100059248, symSize: 0x84 }
  - { offsetInCU: 0x98889, offset: 0x98889, size: 0x8, addend: 0x0, symName: __ZNSt3__116__non_trivial_ifILb1ENS_9allocatorINS_11__tree_nodeINS_12__value_typeINS_17basic_string_viewIcNS_11char_traitsIcEEEElEEPvEEEEEC2B8ue170006Ev, symObjAddr: 0x55578, symBinAddr: 0x1000592CC, symSize: 0x54 }
  - { offsetInCU: 0x988B3, offset: 0x988B3, size: 0x8, addend: 0x0, symName: __ZNSt3__117__compressed_pairImNS_19__map_value_compareINS_17basic_string_viewIcNS_11char_traitsIcEEEENS_12__value_typeIS5_lEENS_4lessIS5_EELb1EEEEC2B8ue170006IiRKSA_EEOT_OT0_, symObjAddr: 0x555CC, symBinAddr: 0x100059320, symSize: 0x170 }
  - { offsetInCU: 0x9890B, offset: 0x9890B, size: 0x8, addend: 0x0, symName: __ZNSt3__122__compressed_pair_elemImLi0ELb0EEC2B8ue170006IivEEOT_, symObjAddr: 0x5573C, symBinAddr: 0x100059490, symSize: 0x16C }
  - { offsetInCU: 0x9894D, offset: 0x9894D, size: 0x8, addend: 0x0, symName: __ZNSt3__122__compressed_pair_elemINS_19__map_value_compareINS_17basic_string_viewIcNS_11char_traitsIcEEEENS_12__value_typeIS5_lEENS_4lessIS5_EELb1EEELi1ELb1EEC2B8ue170006IRKSA_vEEOT_, symObjAddr: 0x558A8, symBinAddr: 0x1000595FC, symSize: 0x58 }
  - { offsetInCU: 0x9898F, offset: 0x9898F, size: 0x8, addend: 0x0, symName: __ZNSt3__114pointer_traitsIPNS_15__tree_end_nodeIPNS_16__tree_node_baseIPvEEEEE10pointer_toB8ue170006ERS6_, symObjAddr: 0x55900, symBinAddr: 0x100059654, symSize: 0x14 }
  - { offsetInCU: 0x989B2, offset: 0x989B2, size: 0x8, addend: 0x0, symName: __ZNSt3__117__compressed_pairINS_15__tree_end_nodeIPNS_16__tree_node_baseIPvEEEENS_9allocatorINS_11__tree_nodeINS_12__value_typeINS_17basic_string_viewIcNS_11char_traitsIcEEEElEES3_EEEEE5firstB8ue170006Ev, symObjAddr: 0x55914, symBinAddr: 0x100059668, symSize: 0x124 }
  - { offsetInCU: 0x989D8, offset: 0x989D8, size: 0x8, addend: 0x0, symName: __ZNSt3__122__compressed_pair_elemINS_15__tree_end_nodeIPNS_16__tree_node_baseIPvEEEELi0ELb0EE5__getB8ue170006Ev, symObjAddr: 0x55A38, symBinAddr: 0x10005978C, symSize: 0xAC }
  - { offsetInCU: 0x989FE, offset: 0x989FE, size: 0x8, addend: 0x0, symName: __ZNSt3__117basic_string_viewIcNS_11char_traitsIcEEEC2B8ue170006EPKc, symObjAddr: 0x55AE4, symBinAddr: 0x100059838, symSize: 0x118 }
  - { offsetInCU: 0x98A37, offset: 0x98A37, size: 0x8, addend: 0x0, symName: __ZNSt3__18optionalIN5memdb9TableViewEEC1B8ue170006Ev, symObjAddr: 0x55C20, symBinAddr: 0x100059974, symSize: 0x78 }
  - { offsetInCU: 0x98AF7, offset: 0x98AF7, size: 0x8, addend: 0x0, symName: __ZN5memdb6parser6Parser5ParseERKNSt3__117basic_string_viewIcNS2_11char_traitsIcEEEEii, symObjAddr: 0x55C98, symBinAddr: 0x1000599EC, symSize: 0x11C8 }
  - { offsetInCU: 0x98BCC, offset: 0x98BCC, size: 0x8, addend: 0x0, symName: __ZNSt3__16vectorINS_10shared_ptrIN5memdb6parser9CmdParserEEENS_9allocatorIS5_EEE5beginB8ue170006Ev, symObjAddr: 0x56E60, symBinAddr: 0x10005ABB4, symSize: 0x2B0 }
  - { offsetInCU: 0x98BF5, offset: 0x98BF5, size: 0x8, addend: 0x0, symName: __ZNSt3__16vectorINS_10shared_ptrIN5memdb6parser9CmdParserEEENS_9allocatorIS5_EEE3endB8ue170006Ev, symObjAddr: 0x57110, symBinAddr: 0x10005AE64, symSize: 0x2B4 }
  - { offsetInCU: 0x98C1E, offset: 0x98C1E, size: 0x8, addend: 0x0, symName: __ZNKSt3__111__wrap_iterIPNS_10shared_ptrIN5memdb6parser9CmdParserEEEEdeB8ue170006Ev, symObjAddr: 0x57488, symBinAddr: 0x10005B1DC, symSize: 0xF4 }
  - { offsetInCU: 0x98C44, offset: 0x98C44, size: 0x8, addend: 0x0, symName: __ZNKSt3__110shared_ptrIN5memdb6parser9CmdParserEEptB8ue170006Ev, symObjAddr: 0x5757C, symBinAddr: 0x10005B2D0, symSize: 0xAC }
  - { offsetInCU: 0x98C6A, offset: 0x98C6A, size: 0x8, addend: 0x0, symName: __ZNSt3__111__wrap_iterIPNS_10shared_ptrIN5memdb6parser9CmdParserEEEEppB8ue170006Ev, symObjAddr: 0x57628, symBinAddr: 0x10005B37C, symSize: 0x1A8 }
  - { offsetInCU: 0x98C96, offset: 0x98C96, size: 0x8, addend: 0x0, symName: __ZN5memdb6parser18ColumnDescriptionsC1Ev, symObjAddr: 0x577D0, symBinAddr: 0x10005B524, symSize: 0x78 }
  - { offsetInCU: 0x98CC8, offset: 0x98CC8, size: 0x8, addend: 0x0, symName: __ZN5memdb6parser10InsertDataC1Ev, symObjAddr: 0x57848, symBinAddr: 0x10005B59C, symSize: 0x78 }
  - { offsetInCU: 0x98CF4, offset: 0x98CF4, size: 0x8, addend: 0x0, symName: __ZN5memdb6parser11AssignmentsC1Ev, symObjAddr: 0x578C0, symBinAddr: 0x10005B614, symSize: 0x78 }
  - { offsetInCU: 0x98D24, offset: 0x98D24, size: 0x8, addend: 0x0, symName: __ZN5memdb6parser10SelectDataC1Ev, symObjAddr: 0x57938, symBinAddr: 0x10005B68C, symSize: 0x78 }
  - { offsetInCU: 0x98D50, offset: 0x98D50, size: 0x8, addend: 0x0, symName: __ZN5memdb6parser9ConditionC1Ev, symObjAddr: 0x579B0, symBinAddr: 0x10005B704, symSize: 0x78 }
  - { offsetInCU: 0x98D7A, offset: 0x98D7A, size: 0x8, addend: 0x0, symName: __ZNSt3__16vectorINS_10shared_ptrIN5memdb9Tokenizer5TokenEEENS_9allocatorIS5_EEEixB8ue170006Em, symObjAddr: 0x57D30, symBinAddr: 0x10005BA84, symSize: 0x1CC }
  - { offsetInCU: 0x98DB1, offset: 0x98DB1, size: 0x8, addend: 0x0, symName: __ZNSt3__110shared_ptrIN5memdb9Tokenizer5TokenEEC1B8ue170006ERKS4_, symObjAddr: 0x57EFC, symBinAddr: 0x10005BC50, symSize: 0x80 }
  - { offsetInCU: 0x98DEA, offset: 0x98DEA, size: 0x8, addend: 0x0, symName: __ZNSt3__112basic_stringIcNS_11char_traitsIcEENS_9allocatorIcEEEaSB8ue170006EOS5_, symObjAddr: 0x57F7C, symBinAddr: 0x10005BCD0, symSize: 0x104 }
  - { offsetInCU: 0x98E1F, offset: 0x98E1F, size: 0x8, addend: 0x0, symName: __ZNSt3__110shared_ptrIN5memdb9Tokenizer5TokenEED1B8ue170006Ev, symObjAddr: 0x58080, symBinAddr: 0x10005BDD4, symSize: 0x78 }
  - { offsetInCU: 0x98EC1, offset: 0x98EC1, size: 0x8, addend: 0x0, symName: __ZN5memdb6parser12ColumnParser5ParseERKNSt3__16vectorINS2_10shared_ptrINS_9Tokenizer5TokenEEENS2_9allocatorIS7_EEEEll, symObjAddr: 0x580F8, symBinAddr: 0x10005BE4C, symSize: 0x7A0 }
  - { offsetInCU: 0x98F28, offset: 0x98F28, size: 0x8, addend: 0x0, symName: __ZNKSt3__16vectorINS_10shared_ptrIN5memdb9Tokenizer5TokenEEENS_9allocatorIS5_EEE4sizeB8ue170006Ev, symObjAddr: 0x58898, symBinAddr: 0x10005C5EC, symSize: 0xF8 }
  - { offsetInCU: 0x98F5A, offset: 0x98F5A, size: 0x8, addend: 0x0, symName: __ZN5memdb6parser18ColumnDescriptionsaSEOS1_, symObjAddr: 0x58990, symBinAddr: 0x10005C6E4, symSize: 0x18C }
  - { offsetInCU: 0x98F8B, offset: 0x98F8B, size: 0x8, addend: 0x0, symName: __ZN5memdb6parser18ColumnDescriptionsD1Ev, symObjAddr: 0x58B1C, symBinAddr: 0x10005C870, symSize: 0x78 }
  - { offsetInCU: 0x98FB7, offset: 0x98FB7, size: 0x8, addend: 0x0, symName: __ZN5memdb8Database11CreateTableERKNSt3__117basic_string_viewIcNS1_11char_traitsIcEEEERKNS1_6vectorINS_21ColumnFullDescriptionENS1_9allocatorIS9_EEEE, symObjAddr: 0x58B94, symBinAddr: 0x10005C8E8, symSize: 0x8B4 }
  - { offsetInCU: 0x99011, offset: 0x99011, size: 0x8, addend: 0x0, symName: __ZNSt3__16vectorINS_10shared_ptrIN5memdb9Tokenizer5TokenEEENS_9allocatorIS5_EEE4backB8ue170006Ev, symObjAddr: 0x59448, symBinAddr: 0x10005D19C, symSize: 0x18C }
  - { offsetInCU: 0x9903D, offset: 0x9903D, size: 0x8, addend: 0x0, symName: __ZN5memdb6parser17InserValuesParser5ParseERKNSt3__16vectorINS2_10shared_ptrINS_9Tokenizer5TokenEEENS2_9allocatorIS7_EEEEll, symObjAddr: 0x595D4, symBinAddr: 0x10005D328, symSize: 0x1684 }
  - { offsetInCU: 0x990B0, offset: 0x990B0, size: 0x8, addend: 0x0, symName: __ZN5memdb6parser14TokenStructure7getScmdENS_5lexer10SubCommandE, symObjAddr: 0x5AC58, symBinAddr: 0x10005E9AC, symSize: 0x4F8 }
  - { offsetInCU: 0x990F6, offset: 0x990F6, size: 0x8, addend: 0x0, symName: __ZN5memdb6parser10InsertDataaSEOS1_, symObjAddr: 0x5B150, symBinAddr: 0x10005EEA4, symSize: 0x18C }
  - { offsetInCU: 0x99127, offset: 0x99127, size: 0x8, addend: 0x0, symName: __ZN5memdb6parser10InsertDataD1Ev, symObjAddr: 0x5B2DC, symBinAddr: 0x10005F030, symSize: 0x78 }
  - { offsetInCU: 0x99153, offset: 0x99153, size: 0x8, addend: 0x0, symName: __ZN5memdb8Database6InsertERKNSt3__117basic_string_viewIcNS1_11char_traitsIcEEEERKNS1_6vectorINS_5Table5ValueENS1_9allocatorISA_EEEE, symObjAddr: 0x5B354, symBinAddr: 0x10005F0A8, symSize: 0x5E8 }
  - { offsetInCU: 0x9919E, offset: 0x9919E, size: 0x8, addend: 0x0, symName: __ZN5memdb6parser18SelectValuesParser5ParseERKNSt3__16vectorINS2_10shared_ptrINS_9Tokenizer5TokenEEENS2_9allocatorIS7_EEEEll, symObjAddr: 0x5B93C, symBinAddr: 0x10005F690, symSize: 0xCF8 }
  - { offsetInCU: 0x9920E, offset: 0x9920E, size: 0x8, addend: 0x0, symName: __ZN5memdb6parser10SelectDataaSEOS1_, symObjAddr: 0x5C634, symBinAddr: 0x100060388, symSize: 0x18C }
  - { offsetInCU: 0x9923F, offset: 0x9923F, size: 0x8, addend: 0x0, symName: __ZN5memdb6parser10SelectDataD1Ev, symObjAddr: 0x5C7C0, symBinAddr: 0x100060514, symSize: 0x78 }
  - { offsetInCU: 0x99271, offset: 0x99271, size: 0x8, addend: 0x0, symName: __ZN5memdb6parser15ConditionParser5ParseERKNSt3__16vectorINS2_10shared_ptrINS_9Tokenizer5TokenEEENS2_9allocatorIS7_EEEEll, symObjAddr: 0x5C838, symBinAddr: 0x10006058C, symSize: 0x36E0 }
  - { offsetInCU: 0x9946D, offset: 0x9946D, size: 0x8, addend: 0x0, symName: __ZN5memdb6parser9ConditionaSEOS1_, symObjAddr: 0x5FF18, symBinAddr: 0x100063C6C, symSize: 0x384 }
  - { offsetInCU: 0x9949E, offset: 0x9949E, size: 0x8, addend: 0x0, symName: __ZN5memdb6parser9ConditionD1Ev, symObjAddr: 0x6029C, symBinAddr: 0x100063FF0, symSize: 0x78 }
  - { offsetInCU: 0x994CA, offset: 0x994CA, size: 0x8, addend: 0x0, symName: __ZN5memdb8Database6SelectERKNSt3__16vectorINS_11TableColumnENS1_9allocatorIS3_EEEERNS_6parser9ConditionERNS1_12basic_stringIcNS1_11char_traitsIcEENS4_IcEEEE, symObjAddr: 0x60314, symBinAddr: 0x100064068, symSize: 0xD00 }
  - { offsetInCU: 0x99524, offset: 0x99524, size: 0x8, addend: 0x0, symName: __ZN5memdb6parser17AssignmentsParser5ParseERKNSt3__16vectorINS2_10shared_ptrINS_9Tokenizer5TokenEEENS2_9allocatorIS7_EEEEll, symObjAddr: 0x61014, symBinAddr: 0x100064D68, symSize: 0xF70 }
  - { offsetInCU: 0x995C8, offset: 0x995C8, size: 0x8, addend: 0x0, symName: __ZN5memdb6parser11AssignmentsaSEOS1_, symObjAddr: 0x61F84, symBinAddr: 0x100065CD8, symSize: 0x18C }
  - { offsetInCU: 0x995F9, offset: 0x995F9, size: 0x8, addend: 0x0, symName: __ZN5memdb6parser11AssignmentsD1Ev, symObjAddr: 0x62110, symBinAddr: 0x100065E64, symSize: 0x78 }
  - { offsetInCU: 0x99625, offset: 0x99625, size: 0x8, addend: 0x0, symName: __ZN5memdb8Database6UpdateERKNSt3__117basic_string_viewIcNS1_11char_traitsIcEEEERNS_6parser11AssignmentsERNS8_9ConditionE, symObjAddr: 0x62188, symBinAddr: 0x100065EDC, symSize: 0x638 }
  - { offsetInCU: 0x99679, offset: 0x99679, size: 0x8, addend: 0x0, symName: __ZN5memdb6parser14TokenStructureD1Ev, symObjAddr: 0x627C0, symBinAddr: 0x100066514, symSize: 0x78 }
  - { offsetInCU: 0x996A6, offset: 0x996A6, size: 0x8, addend: 0x0, symName: __ZNSt3__18optionalIN5memdb9TableViewEEC2B8ue170006Ev, symObjAddr: 0x62838, symBinAddr: 0x10006658C, symSize: 0xBC }
  - { offsetInCU: 0x996D0, offset: 0x996D0, size: 0x8, addend: 0x0, symName: __ZNSt3__127__optional_move_assign_baseIN5memdb9TableViewELb0EEC2B8ue170006Ev, symObjAddr: 0x628F4, symBinAddr: 0x100066648, symSize: 0xBC }
  - { offsetInCU: 0x996FA, offset: 0x996FA, size: 0x8, addend: 0x0, symName: __ZNSt3__127__optional_copy_assign_baseIN5memdb9TableViewELb0EEC2B8ue170006Ev, symObjAddr: 0x629B0, symBinAddr: 0x100066704, symSize: 0xBC }
  - { offsetInCU: 0x99724, offset: 0x99724, size: 0x8, addend: 0x0, symName: __ZNSt3__120__optional_move_baseIN5memdb9TableViewELb0EEC2B8ue170006Ev, symObjAddr: 0x62A6C, symBinAddr: 0x1000667C0, symSize: 0xBC }
  - { offsetInCU: 0x9974E, offset: 0x9974E, size: 0x8, addend: 0x0, symName: __ZNSt3__120__optional_copy_baseIN5memdb9TableViewELb0EEC2B8ue170006Ev, symObjAddr: 0x62B28, symBinAddr: 0x10006687C, symSize: 0xBC }
  - { offsetInCU: 0x99778, offset: 0x99778, size: 0x8, addend: 0x0, symName: __ZNSt3__123__optional_storage_baseIN5memdb9TableViewELb0EEC2Ev, symObjAddr: 0x62BE4, symBinAddr: 0x100066938, symSize: 0xBC }
  - { offsetInCU: 0x997A5, offset: 0x997A5, size: 0x8, addend: 0x0, symName: __ZNSt3__124__optional_destruct_baseIN5memdb9TableViewELb0EEC2B8ue170006Ev, symObjAddr: 0x62CA0, symBinAddr: 0x1000669F4, symSize: 0x138 }
  - { offsetInCU: 0x997CF, offset: 0x997CF, size: 0x8, addend: 0x0, symName: __ZNSt3__112basic_stringIcNS_11char_traitsIcEENS_9allocatorIcEEEpLB8ue170006ERKS5_, symObjAddr: 0x62DD8, symBinAddr: 0x100066B2C, symSize: 0x104 }
  - { offsetInCU: 0x99804, offset: 0x99804, size: 0x8, addend: 0x0, symName: __ZNSt3__16vectorINS_12basic_stringIcNS_11char_traitsIcEENS_9allocatorIcEEEENS4_IS6_EEEC1B8ue170006Ev, symObjAddr: 0x62EDC, symBinAddr: 0x100066C30, symSize: 0x78 }
  - { offsetInCU: 0x9982E, offset: 0x9982E, size: 0x8, addend: 0x0, symName: __ZNSt3__16vectorINS_12basic_stringIcNS_11char_traitsIcEENS_9allocatorIcEEEENS4_IS6_EEE12emplace_backIJS6_EEERS6_DpOT_, symObjAddr: 0x62F54, symBinAddr: 0x100066CA8, symSize: 0x24C }
  - { offsetInCU: 0x99870, offset: 0x99870, size: 0x8, addend: 0x0, symName: __ZN5memdb6parser6Parser9parseWordERKNSt3__117basic_string_viewIcNS2_11char_traitsIcEEEERi, symObjAddr: 0x631A0, symBinAddr: 0x100066EF4, symSize: 0x65C }
  - { offsetInCU: 0x998C1, offset: 0x998C1, size: 0x8, addend: 0x0, symName: __ZN5memdb9Tokenizer14getSharedTokenINS0_8CommandTEEENSt3__110shared_ptrINS0_5TokenEEEv, symObjAddr: 0x637FC, symBinAddr: 0x100067550, symSize: 0x124 }
  - { offsetInCU: 0x998EF, offset: 0x998EF, size: 0x8, addend: 0x0, symName: __ZN5memdb9Tokenizer14getSharedTokenINS0_11SubCommandTEEENSt3__110shared_ptrINS0_5TokenEEEv, symObjAddr: 0x63920, symBinAddr: 0x100067674, symSize: 0x124 }
  - { offsetInCU: 0x9991D, offset: 0x9991D, size: 0x8, addend: 0x0, symName: __ZN5memdb9Tokenizer14getSharedTokenINS0_10AttributeTEEENSt3__110shared_ptrINS0_5TokenEEEv, symObjAddr: 0x63A44, symBinAddr: 0x100067798, symSize: 0x124 }
  - { offsetInCU: 0x9994B, offset: 0x9994B, size: 0x8, addend: 0x0, symName: __ZN5memdb9Tokenizer14getSharedTokenINS0_10OperationTEEENSt3__110shared_ptrINS0_5TokenEEEv, symObjAddr: 0x63B68, symBinAddr: 0x1000678BC, symSize: 0x124 }
  - { offsetInCU: 0x99979, offset: 0x99979, size: 0x8, addend: 0x0, symName: __ZN5memdb9Tokenizer14getSharedTokenINS0_8BracketTEEENSt3__110shared_ptrINS0_5TokenEEEv, symObjAddr: 0x63C8C, symBinAddr: 0x1000679E0, symSize: 0x124 }
  - { offsetInCU: 0x999A7, offset: 0x999A7, size: 0x8, addend: 0x0, symName: __ZN5memdb9Tokenizer14getSharedTokenINS0_11ColumnTypeTEEENSt3__110shared_ptrINS0_5TokenEEEv, symObjAddr: 0x63DB0, symBinAddr: 0x100067B04, symSize: 0x124 }
  - { offsetInCU: 0x999D5, offset: 0x999D5, size: 0x8, addend: 0x0, symName: __ZN5memdb9Tokenizer14getSharedTokenINS0_7DBTypeTEEENSt3__110shared_ptrINS0_5TokenEEEv, symObjAddr: 0x63ED4, symBinAddr: 0x100067C28, symSize: 0x124 }
  - { offsetInCU: 0x99A03, offset: 0x99A03, size: 0x8, addend: 0x0, symName: __ZN5memdb9Tokenizer14getSharedTokenINS0_6OtherTEEENSt3__110shared_ptrINS0_5TokenEEEv, symObjAddr: 0x63FF8, symBinAddr: 0x100067D4C, symSize: 0x124 }
  - { offsetInCU: 0x99A31, offset: 0x99A31, size: 0x8, addend: 0x0, symName: __ZN5memdb9Tokenizer14getSharedTokenINS0_7StringTEEENSt3__110shared_ptrINS0_5TokenEEEv, symObjAddr: 0x6411C, symBinAddr: 0x100067E70, symSize: 0x124 }
  - { offsetInCU: 0x99A5F, offset: 0x99A5F, size: 0x8, addend: 0x0, symName: __ZNSt3__16vectorINS_10shared_ptrIN5memdb9Tokenizer5TokenEEENS_9allocatorIS5_EEEC1B8ue170006ESt16initializer_listIS5_E, symObjAddr: 0x64240, symBinAddr: 0x100067F94, symSize: 0x29C }
  - { offsetInCU: 0x99A9F, offset: 0x99A9F, size: 0x8, addend: 0x0, symName: __ZN5memdb9Tokenizer8TokenizeENSt3__16vectorINS1_12basic_stringIcNS1_11char_traitsIcEENS1_9allocatorIcEEEENS6_IS8_EEEEi, symObjAddr: 0x644DC, symBinAddr: 0x100068230, symSize: 0xB20 }
  - { offsetInCU: 0x99B52, offset: 0x99B52, size: 0x8, addend: 0x0, symName: __ZNSt3__16vectorINS_12basic_stringIcNS_11char_traitsIcEENS_9allocatorIcEEEENS4_IS6_EEEC1ERKS8_, symObjAddr: 0x64FFC, symBinAddr: 0x100068D50, symSize: 0x80 }
  - { offsetInCU: 0x99B8D, offset: 0x99B8D, size: 0x8, addend: 0x0, symName: __ZNSt3__16vectorINS_12basic_stringIcNS_11char_traitsIcEENS_9allocatorIcEEEENS4_IS6_EEED1B8ue170006Ev, symObjAddr: 0x6507C, symBinAddr: 0x100068DD0, symSize: 0x78 }
  - { offsetInCU: 0x99BB7, offset: 0x99BB7, size: 0x8, addend: 0x0, symName: __ZN5memdb9TokenizerD1Ev, symObjAddr: 0x650F4, symBinAddr: 0x100068E48, symSize: 0x78 }
  - { offsetInCU: 0x99BE3, offset: 0x99BE3, size: 0x8, addend: 0x0, symName: __ZNKSt3__16vectorINS_10shared_ptrIN5memdb9Tokenizer5TokenEEENS_9allocatorIS5_EEE5emptyB8ue170006Ev, symObjAddr: 0x6516C, symBinAddr: 0x100068EC0, symSize: 0xF8 }
  - { offsetInCU: 0x99C09, offset: 0x99C09, size: 0x8, addend: 0x0, symName: __ZN5memdb6parser14TokenStructureC1EOKNSt3__16vectorINS2_10shared_ptrINS_9Tokenizer5TokenEEENS2_9allocatorIS7_EEEEll, symObjAddr: 0x65264, symBinAddr: 0x100068FB8, symSize: 0x90 }
  - { offsetInCU: 0x99C60, offset: 0x99C60, size: 0x8, addend: 0x0, symName: __ZNSt3__16vectorINS_10shared_ptrIN5memdb9Tokenizer5TokenEEENS_9allocatorIS5_EEED1B8ue170006Ev, symObjAddr: 0x652F4, symBinAddr: 0x100069048, symSize: 0x78 }
  - { offsetInCU: 0x99C8A, offset: 0x99C8A, size: 0x8, addend: 0x0, symName: __ZNSt3__112basic_stringIcNS_11char_traitsIcEENS_9allocatorIcEEE6appendB8ue170006ERKS5_, symObjAddr: 0x6536C, symBinAddr: 0x1000690C0, symSize: 0x12C }
  - { offsetInCU: 0x99CBF, offset: 0x99CBF, size: 0x8, addend: 0x0, symName: __ZNSt3__16vectorINS_12basic_stringIcNS_11char_traitsIcEENS_9allocatorIcEEEENS4_IS6_EEEC2B8ue170006Ev, symObjAddr: 0x65498, symBinAddr: 0x1000691EC, symSize: 0x340 }
  - { offsetInCU: 0x99CEA, offset: 0x99CEA, size: 0x8, addend: 0x0, symName: __ZNSt3__117__compressed_pairIPNS_12basic_stringIcNS_11char_traitsIcEENS_9allocatorIcEEEENS4_IS6_EEEC1B8ue170006IDnNS_18__default_init_tagEEEOT_OT0_, symObjAddr: 0x657D8, symBinAddr: 0x10006952C, symSize: 0x88 }
  - { offsetInCU: 0x99D42, offset: 0x99D42, size: 0x8, addend: 0x0, symName: __ZNSt3__117__compressed_pairIPNS_12basic_stringIcNS_11char_traitsIcEENS_9allocatorIcEEEENS4_IS6_EEEC2B8ue170006IDnNS_18__default_init_tagEEEOT_OT0_, symObjAddr: 0x65860, symBinAddr: 0x1000695B4, symSize: 0x140 }
  - { offsetInCU: 0x99D9A, offset: 0x99D9A, size: 0x8, addend: 0x0, symName: __ZNSt3__122__compressed_pair_elemIPNS_12basic_stringIcNS_11char_traitsIcEENS_9allocatorIcEEEELi0ELb0EEC2B8ue170006IDnvEEOT_, symObjAddr: 0x659A0, symBinAddr: 0x1000696F4, symSize: 0xBC }
  - { offsetInCU: 0x99DDC, offset: 0x99DDC, size: 0x8, addend: 0x0, symName: __ZNSt3__122__compressed_pair_elemINS_9allocatorINS_12basic_stringIcNS_11char_traitsIcEENS1_IcEEEEEELi1ELb1EEC2B8ue170006ENS_18__default_init_tagE, symObjAddr: 0x65A5C, symBinAddr: 0x1000697B0, symSize: 0x84 }
  - { offsetInCU: 0x99E11, offset: 0x99E11, size: 0x8, addend: 0x0, symName: __ZNSt3__19allocatorINS_12basic_stringIcNS_11char_traitsIcEENS0_IcEEEEEC2B8ue170006Ev, symObjAddr: 0x65AE0, symBinAddr: 0x100069834, symSize: 0x84 }
  - { offsetInCU: 0x99E3B, offset: 0x99E3B, size: 0x8, addend: 0x0, symName: __ZNSt3__116__non_trivial_ifILb1ENS_9allocatorINS_12basic_stringIcNS_11char_traitsIcEENS1_IcEEEEEEEC2B8ue170006Ev, symObjAddr: 0x65B64, symBinAddr: 0x1000698B8, symSize: 0x54 }
  - { offsetInCU: 0x99E65, offset: 0x99E65, size: 0x8, addend: 0x0, symName: __ZNSt3__16vectorINS_12basic_stringIcNS_11char_traitsIcEENS_9allocatorIcEEEENS4_IS6_EEE9__end_capB8ue170006Ev, symObjAddr: 0x65BB8, symBinAddr: 0x10006990C, symSize: 0x100 }
  - { offsetInCU: 0x99E8B, offset: 0x99E8B, size: 0x8, addend: 0x0, symName: __ZNSt3__16vectorINS_12basic_stringIcNS_11char_traitsIcEENS_9allocatorIcEEEENS4_IS6_EEE22__construct_one_at_endB8ue170006IJS6_EEEvDpOT_, symObjAddr: 0x65CB8, symBinAddr: 0x100069A0C, symSize: 0x550 }
  - { offsetInCU: 0x99EE0, offset: 0x99EE0, size: 0x8, addend: 0x0, symName: __ZNSt3__16vectorINS_12basic_stringIcNS_11char_traitsIcEENS_9allocatorIcEEEENS4_IS6_EEE24__emplace_back_slow_pathIJS6_EEEvDpOT_, symObjAddr: 0x66208, symBinAddr: 0x100069F5C, symSize: 0x5B0 }
  - { offsetInCU: 0x99F47, offset: 0x99F47, size: 0x8, addend: 0x0, symName: __ZNSt3__16vectorINS_12basic_stringIcNS_11char_traitsIcEENS_9allocatorIcEEEENS4_IS6_EEE4backB8ue170006Ev, symObjAddr: 0x667B8, symBinAddr: 0x10006A50C, symSize: 0x18C }
  - { offsetInCU: 0x99F6D, offset: 0x99F6D, size: 0x8, addend: 0x0, symName: __ZNSt3__117__compressed_pairIPNS_12basic_stringIcNS_11char_traitsIcEENS_9allocatorIcEEEENS4_IS6_EEE5firstB8ue170006Ev, symObjAddr: 0x66944, symBinAddr: 0x10006A698, symSize: 0x124 }
  - { offsetInCU: 0x99F93, offset: 0x99F93, size: 0x8, addend: 0x0, symName: __ZNSt3__122__compressed_pair_elemIPNS_12basic_stringIcNS_11char_traitsIcEENS_9allocatorIcEEEELi0ELb0EE5__getB8ue170006Ev, symObjAddr: 0x66A68, symBinAddr: 0x10006A7BC, symSize: 0xAC }
  - { offsetInCU: 0x99FD7, offset: 0x99FD7, size: 0x8, addend: 0x0, symName: __ZNSt3__16vectorINS_12basic_stringIcNS_11char_traitsIcEENS_9allocatorIcEEEENS4_IS6_EEE21_ConstructTransactionC1B8ue170006ERS8_m, symObjAddr: 0x66B14, symBinAddr: 0x10006A868, symSize: 0x88 }
  - { offsetInCU: 0x9A01F, offset: 0x9A01F, size: 0x8, addend: 0x0, symName: __ZNSt3__116allocator_traitsINS_9allocatorINS_12basic_stringIcNS_11char_traitsIcEENS1_IcEEEEEEE9constructB8ue170006IS6_JS6_EvvEEvRS7_PT_DpOT0_, symObjAddr: 0x66B9C, symBinAddr: 0x10006A8F0, symSize: 0x80 }
  - { offsetInCU: 0x9A074, offset: 0x9A074, size: 0x8, addend: 0x0, symName: __ZNSt3__16vectorINS_12basic_stringIcNS_11char_traitsIcEENS_9allocatorIcEEEENS4_IS6_EEE7__allocB8ue170006Ev, symObjAddr: 0x66C1C, symBinAddr: 0x10006A970, symSize: 0xE4 }
  - { offsetInCU: 0x9A09A, offset: 0x9A09A, size: 0x8, addend: 0x0, symName: __ZNSt3__16vectorINS_12basic_stringIcNS_11char_traitsIcEENS_9allocatorIcEEEENS4_IS6_EEE21_ConstructTransactionD1B8ue170006Ev, symObjAddr: 0x66D14, symBinAddr: 0x10006AA68, symSize: 0x78 }
  - { offsetInCU: 0x9A0C4, offset: 0x9A0C4, size: 0x8, addend: 0x0, symName: __ZNSt3__16vectorINS_12basic_stringIcNS_11char_traitsIcEENS_9allocatorIcEEEENS4_IS6_EEE21_ConstructTransactionC2B8ue170006ERS8_m, symObjAddr: 0x66D8C, symBinAddr: 0x10006AAE0, symSize: 0x3E0 }
  - { offsetInCU: 0x9A10C, offset: 0x9A10C, size: 0x8, addend: 0x0, symName: __ZNKSt3__16vectorINS_12basic_stringIcNS_11char_traitsIcEENS_9allocatorIcEEEENS4_IS6_EEE19__annotate_increaseB8ue170006Em, symObjAddr: 0x6716C, symBinAddr: 0x10006AEC0, symSize: 0x46C }
  - { offsetInCU: 0x9A141, offset: 0x9A141, size: 0x8, addend: 0x0, symName: __ZNKSt3__16vectorINS_12basic_stringIcNS_11char_traitsIcEENS_9allocatorIcEEEENS4_IS6_EEE31__annotate_contiguous_containerEPKvSA_SA_SA_, symObjAddr: 0x675D8, symBinAddr: 0x10006B32C, symSize: 0x9C }
  - { offsetInCU: 0x9A1A3, offset: 0x9A1A3, size: 0x8, addend: 0x0, symName: __ZNKSt3__16vectorINS_12basic_stringIcNS_11char_traitsIcEENS_9allocatorIcEEEENS4_IS6_EEE4dataB8ue170006Ev, symObjAddr: 0x67674, symBinAddr: 0x10006B3C8, symSize: 0xB0 }
  - { offsetInCU: 0x9A1C9, offset: 0x9A1C9, size: 0x8, addend: 0x0, symName: __ZNKSt3__16vectorINS_12basic_stringIcNS_11char_traitsIcEENS_9allocatorIcEEEENS4_IS6_EEE8capacityB8ue170006Ev, symObjAddr: 0x67724, symBinAddr: 0x10006B478, symSize: 0x144 }
  - { offsetInCU: 0x9A1EF, offset: 0x9A1EF, size: 0x8, addend: 0x0, symName: __ZNKSt3__16vectorINS_12basic_stringIcNS_11char_traitsIcEENS_9allocatorIcEEEENS4_IS6_EEE9__end_capB8ue170006Ev, symObjAddr: 0x67868, symBinAddr: 0x10006B5BC, symSize: 0x100 }
  - { offsetInCU: 0x9A215, offset: 0x9A215, size: 0x8, addend: 0x0, symName: __ZNKSt3__117__compressed_pairIPNS_12basic_stringIcNS_11char_traitsIcEENS_9allocatorIcEEEENS4_IS6_EEE5firstB8ue170006Ev, symObjAddr: 0x67968, symBinAddr: 0x10006B6BC, symSize: 0x124 }
  - { offsetInCU: 0x9A23B, offset: 0x9A23B, size: 0x8, addend: 0x0, symName: __ZNKSt3__122__compressed_pair_elemIPNS_12basic_stringIcNS_11char_traitsIcEENS_9allocatorIcEEEELi0ELb0EE5__getB8ue170006Ev, symObjAddr: 0x67A8C, symBinAddr: 0x10006B7E0, symSize: 0xAC }
  - { offsetInCU: 0x9A261, offset: 0x9A261, size: 0x8, addend: 0x0, symName: __ZNSt3__117__compressed_pairIPNS_12basic_stringIcNS_11char_traitsIcEENS_9allocatorIcEEEENS4_IS6_EEE6secondB8ue170006Ev, symObjAddr: 0x67C48, symBinAddr: 0x10006B99C, symSize: 0x108 }
  - { offsetInCU: 0x9A287, offset: 0x9A287, size: 0x8, addend: 0x0, symName: __ZNSt3__122__compressed_pair_elemINS_9allocatorINS_12basic_stringIcNS_11char_traitsIcEENS1_IcEEEEEELi1ELb1EE5__getB8ue170006Ev, symObjAddr: 0x67D50, symBinAddr: 0x10006BAA4, symSize: 0x74 }
  - { offsetInCU: 0x9A2AD, offset: 0x9A2AD, size: 0x8, addend: 0x0, symName: __ZNSt3__16vectorINS_12basic_stringIcNS_11char_traitsIcEENS_9allocatorIcEEEENS4_IS6_EEE21_ConstructTransactionD2B8ue170006Ev, symObjAddr: 0x67DC4, symBinAddr: 0x10006BB18, symSize: 0x390 }
  - { offsetInCU: 0x9A2D7, offset: 0x9A2D7, size: 0x8, addend: 0x0, symName: __ZNKSt3__16vectorINS_12basic_stringIcNS_11char_traitsIcEENS_9allocatorIcEEEENS4_IS6_EEE17__annotate_shrinkB8ue170006Em, symObjAddr: 0x68154, symBinAddr: 0x10006BEA8, symSize: 0x378 }
  - { offsetInCU: 0x9A30C, offset: 0x9A30C, size: 0x8, addend: 0x0, symName: __ZNKSt3__16vectorINS_12basic_stringIcNS_11char_traitsIcEENS_9allocatorIcEEEENS4_IS6_EEE11__recommendB8ue170006Em, symObjAddr: 0x684CC, symBinAddr: 0x10006C220, symSize: 0x45C }
  - { offsetInCU: 0x9A368, offset: 0x9A368, size: 0x8, addend: 0x0, symName: __ZNSt3__114__split_bufferINS_12basic_stringIcNS_11char_traitsIcEENS_9allocatorIcEEEERNS4_IS6_EEEC1EmmS8_, symObjAddr: 0x68928, symBinAddr: 0x10006C67C, symSize: 0x90 }
  - { offsetInCU: 0x9A3BE, offset: 0x9A3BE, size: 0x8, addend: 0x0, symName: __ZNSt3__114__split_bufferINS_12basic_stringIcNS_11char_traitsIcEENS_9allocatorIcEEEERNS4_IS6_EEED1Ev, symObjAddr: 0x69214, symBinAddr: 0x10006CF68, symSize: 0x78 }
  - { offsetInCU: 0x9A3EA, offset: 0x9A3EA, size: 0x8, addend: 0x0, symName: __ZNKSt3__16vectorINS_12basic_stringIcNS_11char_traitsIcEENS_9allocatorIcEEEENS4_IS6_EEE8max_sizeEv, symObjAddr: 0x6928C, symBinAddr: 0x10006CFE0, symSize: 0x3B8 }
  - { offsetInCU: 0x9A413, offset: 0x9A413, size: 0x8, addend: 0x0, symName: __ZNKSt3__16vectorINS_12basic_stringIcNS_11char_traitsIcEENS_9allocatorIcEEEENS4_IS6_EEE20__throw_length_errorB8ue170006Ev, symObjAddr: 0x69644, symBinAddr: 0x10006D398, symSize: 0x80 }
  - { offsetInCU: 0x9A445, offset: 0x9A445, size: 0x8, addend: 0x0, symName: __ZNSt3__116allocator_traitsINS_9allocatorINS_12basic_stringIcNS_11char_traitsIcEENS1_IcEEEEEEE8max_sizeB8ue170006IS7_vvEEmRKS7_, symObjAddr: 0x697C8, symBinAddr: 0x10006D51C, symSize: 0x54 }
  - { offsetInCU: 0x9A471, offset: 0x9A471, size: 0x8, addend: 0x0, symName: __ZNKSt3__16vectorINS_12basic_stringIcNS_11char_traitsIcEENS_9allocatorIcEEEENS4_IS6_EEE7__allocB8ue170006Ev, symObjAddr: 0x6981C, symBinAddr: 0x10006D570, symSize: 0xE4 }
  - { offsetInCU: 0x9A497, offset: 0x9A497, size: 0x8, addend: 0x0, symName: __ZNKSt3__117__compressed_pairIPNS_12basic_stringIcNS_11char_traitsIcEENS_9allocatorIcEEEENS4_IS6_EEE6secondB8ue170006Ev, symObjAddr: 0x69900, symBinAddr: 0x10006D654, symSize: 0x108 }
  - { offsetInCU: 0x9A4BD, offset: 0x9A4BD, size: 0x8, addend: 0x0, symName: __ZNKSt3__122__compressed_pair_elemINS_9allocatorINS_12basic_stringIcNS_11char_traitsIcEENS1_IcEEEEEELi1ELb1EE5__getB8ue170006Ev, symObjAddr: 0x69A08, symBinAddr: 0x10006D75C, symSize: 0x74 }
  - { offsetInCU: 0x9A4E3, offset: 0x9A4E3, size: 0x8, addend: 0x0, symName: __ZNSt3__114__split_bufferINS_12basic_stringIcNS_11char_traitsIcEENS_9allocatorIcEEEERNS4_IS6_EEEC2EmmS8_, symObjAddr: 0x69D3C, symBinAddr: 0x10006DA90, symSize: 0x7E8 }
  - { offsetInCU: 0x9A55E, offset: 0x9A55E, size: 0x8, addend: 0x0, symName: __ZNSt3__117__compressed_pairIPNS_12basic_stringIcNS_11char_traitsIcEENS_9allocatorIcEEEERNS4_IS6_EEEC1B8ue170006IDnS9_EEOT_OT0_, symObjAddr: 0x6A524, symBinAddr: 0x10006E278, symSize: 0x88 }
  - { offsetInCU: 0x9A5B6, offset: 0x9A5B6, size: 0x8, addend: 0x0, symName: __ZNSt3__114__split_bufferINS_12basic_stringIcNS_11char_traitsIcEENS_9allocatorIcEEEERNS4_IS6_EEE7__allocB8ue170006Ev, symObjAddr: 0x6A7FC, symBinAddr: 0x10006E550, symSize: 0xE4 }
  - { offsetInCU: 0x9A5DC, offset: 0x9A5DC, size: 0x8, addend: 0x0, symName: __ZNSt3__114__split_bufferINS_12basic_stringIcNS_11char_traitsIcEENS_9allocatorIcEEEERNS4_IS6_EEE9__end_capB8ue170006Ev, symObjAddr: 0x6A8E0, symBinAddr: 0x10006E634, symSize: 0x100 }
  - { offsetInCU: 0x9A602, offset: 0x9A602, size: 0x8, addend: 0x0, symName: __ZNSt3__117__compressed_pairIPNS_12basic_stringIcNS_11char_traitsIcEENS_9allocatorIcEEEERNS4_IS6_EEEC2B8ue170006IDnS9_EEOT_OT0_, symObjAddr: 0x6A9E0, symBinAddr: 0x10006E734, symSize: 0x198 }
  - { offsetInCU: 0x9A65A, offset: 0x9A65A, size: 0x8, addend: 0x0, symName: __ZNSt3__122__compressed_pair_elemIRNS_9allocatorINS_12basic_stringIcNS_11char_traitsIcEENS1_IcEEEEEELi1ELb0EEC2B8ue170006IS8_vEEOT_, symObjAddr: 0x6AB78, symBinAddr: 0x10006E8CC, symSize: 0xEC }
  - { offsetInCU: 0x9A69C, offset: 0x9A69C, size: 0x8, addend: 0x0, symName: __ZNSt3__19allocatorINS_12basic_stringIcNS_11char_traitsIcEENS0_IcEEEEE17allocate_at_leastB8ue170006Em, symObjAddr: 0x6AE88, symBinAddr: 0x10006EBDC, symSize: 0x2B8 }
  - { offsetInCU: 0x9A6D2, offset: 0x9A6D2, size: 0x8, addend: 0x0, symName: __ZNSt3__19allocatorINS_12basic_stringIcNS_11char_traitsIcEENS0_IcEEEEE8allocateB8ue170006Em, symObjAddr: 0x6B140, symBinAddr: 0x10006EE94, symSize: 0xD0 }
  - { offsetInCU: 0x9A706, offset: 0x9A706, size: 0x8, addend: 0x0, symName: __ZNSt3__117__compressed_pairIPNS_12basic_stringIcNS_11char_traitsIcEENS_9allocatorIcEEEERNS4_IS6_EEE6secondB8ue170006Ev, symObjAddr: 0x6B210, symBinAddr: 0x10006EF64, symSize: 0x110 }
  - { offsetInCU: 0x9A72C, offset: 0x9A72C, size: 0x8, addend: 0x0, symName: __ZNSt3__122__compressed_pair_elemIRNS_9allocatorINS_12basic_stringIcNS_11char_traitsIcEENS1_IcEEEEEELi1ELb0EE5__getB8ue170006Ev, symObjAddr: 0x6B320, symBinAddr: 0x10006F074, symSize: 0xD8 }
  - { offsetInCU: 0x9A752, offset: 0x9A752, size: 0x8, addend: 0x0, symName: __ZNSt3__117__compressed_pairIPNS_12basic_stringIcNS_11char_traitsIcEENS_9allocatorIcEEEERNS4_IS6_EEE5firstB8ue170006Ev, symObjAddr: 0x6B3F8, symBinAddr: 0x10006F14C, symSize: 0x124 }
  - { offsetInCU: 0x9A778, offset: 0x9A778, size: 0x8, addend: 0x0, symName: __ZNKSt3__16vectorINS_12basic_stringIcNS_11char_traitsIcEENS_9allocatorIcEEEENS4_IS6_EEE17__annotate_deleteB8ue170006Ev, symObjAddr: 0x6B51C, symBinAddr: 0x10006F270, symSize: 0x388 }
  - { offsetInCU: 0x9A79E, offset: 0x9A79E, size: 0x8, addend: 0x0, symName: __ZNSt3__116reverse_iteratorIPNS_12basic_stringIcNS_11char_traitsIcEENS_9allocatorIcEEEEEC1B8ue170006ES7_, symObjAddr: 0x6BE7C, symBinAddr: 0x10006FBD0, symSize: 0x80 }
  - { offsetInCU: 0x9A7D6, offset: 0x9A7D6, size: 0x8, addend: 0x0, symName: __ZNKSt3__116reverse_iteratorIPNS_12basic_stringIcNS_11char_traitsIcEENS_9allocatorIcEEEEE4baseB8ue170006Ev, symObjAddr: 0x6BEFC, symBinAddr: 0x10006FC50, symSize: 0xB0 }
  - { offsetInCU: 0x9A7FC, offset: 0x9A7FC, size: 0x8, addend: 0x0, symName: __ZNKSt3__16vectorINS_12basic_stringIcNS_11char_traitsIcEENS_9allocatorIcEEEENS4_IS6_EEE14__annotate_newB8ue170006Em, symObjAddr: 0x6C16C, symBinAddr: 0x10006FEC0, symSize: 0x378 }
  - { offsetInCU: 0x9A831, offset: 0x9A831, size: 0x8, addend: 0x0, symName: __ZNSt3__129_AllocatorDestroyRangeReverseINS_9allocatorINS_12basic_stringIcNS_11char_traitsIcEENS1_IcEEEEEENS_16reverse_iteratorIPS6_EEEC1B8ue170006ERS7_RSA_SD_, symObjAddr: 0x6C720, symBinAddr: 0x100070474, symSize: 0x90 }
  - { offsetInCU: 0x9A888, offset: 0x9A888, size: 0x8, addend: 0x0, symName: __ZNKSt3__116reverse_iteratorIPNS_12basic_stringIcNS_11char_traitsIcEENS_9allocatorIcEEEEEdeB8ue170006Ev, symObjAddr: 0x6C8B8, symBinAddr: 0x10007060C, symSize: 0x184 }
  - { offsetInCU: 0x9A8BC, offset: 0x9A8BC, size: 0x8, addend: 0x0, symName: __ZNSt3__116reverse_iteratorIPNS_12basic_stringIcNS_11char_traitsIcEENS_9allocatorIcEEEEEppB8ue170006Ev, symObjAddr: 0x6CA3C, symBinAddr: 0x100070790, symSize: 0x1B0 }
  - { offsetInCU: 0x9A8E2, offset: 0x9A8E2, size: 0x8, addend: 0x0, symName: __ZNSt3__128__exception_guard_exceptionsINS_29_AllocatorDestroyRangeReverseINS_9allocatorINS_12basic_stringIcNS_11char_traitsIcEENS2_IcEEEEEENS_16reverse_iteratorIPS7_EEEEE10__completeB8ue170006Ev, symObjAddr: 0x6CBEC, symBinAddr: 0x100070940, symSize: 0xD8 }
  - { offsetInCU: 0x9A908, offset: 0x9A908, size: 0x8, addend: 0x0, symName: __ZNSt3__128__exception_guard_exceptionsINS_29_AllocatorDestroyRangeReverseINS_9allocatorINS_12basic_stringIcNS_11char_traitsIcEENS2_IcEEEEEENS_16reverse_iteratorIPS7_EEEEED1B8ue170006Ev, symObjAddr: 0x6CCC4, symBinAddr: 0x100070A18, symSize: 0x78 }
  - { offsetInCU: 0x9A932, offset: 0x9A932, size: 0x8, addend: 0x0, symName: __ZNSt3__128__exception_guard_exceptionsINS_29_AllocatorDestroyRangeReverseINS_9allocatorINS_12basic_stringIcNS_11char_traitsIcEENS2_IcEEEEEENS_16reverse_iteratorIPS7_EEEEEC1B8ue170006ESC_, symObjAddr: 0x6CD3C, symBinAddr: 0x100070A90, symSize: 0x84 }
  - { offsetInCU: 0x9A96B, offset: 0x9A96B, size: 0x8, addend: 0x0, symName: __ZNSt3__128__exception_guard_exceptionsINS_29_AllocatorDestroyRangeReverseINS_9allocatorINS_12basic_stringIcNS_11char_traitsIcEENS2_IcEEEEEENS_16reverse_iteratorIPS7_EEEEEC2B8ue170006ESC_, symObjAddr: 0x6CDC0, symBinAddr: 0x100070B14, symSize: 0xF8 }
  - { offsetInCU: 0x9A9A4, offset: 0x9A9A4, size: 0x8, addend: 0x0, symName: __ZNSt3__129_AllocatorDestroyRangeReverseINS_9allocatorINS_12basic_stringIcNS_11char_traitsIcEENS1_IcEEEEEENS_16reverse_iteratorIPS6_EEEC2B8ue170006ERS7_RSA_SD_, symObjAddr: 0x6CEB8, symBinAddr: 0x100070C0C, symSize: 0x20C }
  - { offsetInCU: 0x9AA01, offset: 0x9AA01, size: 0x8, addend: 0x0, symName: __ZNSt3__119__to_address_helperINS_16reverse_iteratorIPNS_12basic_stringIcNS_11char_traitsIcEENS_9allocatorIcEEEEEEvE6__callB8ue170006ERKS9_, symObjAddr: 0x6D0C4, symBinAddr: 0x100070E18, symSize: 0x70 }
  - { offsetInCU: 0x9AA24, offset: 0x9AA24, size: 0x8, addend: 0x0, symName: __ZNKSt3__116reverse_iteratorIPNS_12basic_stringIcNS_11char_traitsIcEENS_9allocatorIcEEEEEptB8ue170006Ev, symObjAddr: 0x6D134, symBinAddr: 0x100070E88, symSize: 0xB8 }
  - { offsetInCU: 0x9AA4A, offset: 0x9AA4A, size: 0x8, addend: 0x0, symName: __ZNSt3__128__exception_guard_exceptionsINS_29_AllocatorDestroyRangeReverseINS_9allocatorINS_12basic_stringIcNS_11char_traitsIcEENS2_IcEEEEEENS_16reverse_iteratorIPS7_EEEEED2B8ue170006Ev, symObjAddr: 0x6D680, symBinAddr: 0x1000713D4, symSize: 0x17C }
  - { offsetInCU: 0x9AA74, offset: 0x9AA74, size: 0x8, addend: 0x0, symName: __ZNKSt3__129_AllocatorDestroyRangeReverseINS_9allocatorINS_12basic_stringIcNS_11char_traitsIcEENS1_IcEEEEEENS_16reverse_iteratorIPS6_EEEclB8ue170006Ev, symObjAddr: 0x6D7FC, symBinAddr: 0x100071550, symSize: 0x418 }
  - { offsetInCU: 0x9AA9B, offset: 0x9AA9B, size: 0x8, addend: 0x0, symName: __ZNSt3__116reverse_iteratorINS0_IPNS_12basic_stringIcNS_11char_traitsIcEENS_9allocatorIcEEEEEEEC1B8ue170006ES8_, symObjAddr: 0x6DDB8, symBinAddr: 0x100071B0C, symSize: 0x29C }
  - { offsetInCU: 0x9AAD8, offset: 0x9AAD8, size: 0x8, addend: 0x0, symName: __ZNSt3__116allocator_traitsINS_9allocatorINS_12basic_stringIcNS_11char_traitsIcEENS1_IcEEEEEEE7destroyB8ue170006IS6_vvEEvRS7_PT_, symObjAddr: 0x6E378, symBinAddr: 0x1000720CC, symSize: 0x28 }
  - { offsetInCU: 0x9AB13, offset: 0x9AB13, size: 0x8, addend: 0x0, symName: __ZNSt3__116reverse_iteratorINS0_IPNS_12basic_stringIcNS_11char_traitsIcEENS_9allocatorIcEEEEEEEppB8ue170006Ev, symObjAddr: 0x6E40C, symBinAddr: 0x100072160, symSize: 0x100 }
  - { offsetInCU: 0x9AB39, offset: 0x9AB39, size: 0x8, addend: 0x0, symName: __ZNKSt3__116reverse_iteratorINS0_IPNS_12basic_stringIcNS_11char_traitsIcEENS_9allocatorIcEEEEEEE4baseB8ue170006Ev, symObjAddr: 0x6E50C, symBinAddr: 0x100072260, symSize: 0x258 }
  - { offsetInCU: 0x9AB66, offset: 0x9AB66, size: 0x8, addend: 0x0, symName: __ZNSt3__119__to_address_helperINS_16reverse_iteratorINS1_IPNS_12basic_stringIcNS_11char_traitsIcEENS_9allocatorIcEEEEEEEEvE6__callB8ue170006ERKSA_, symObjAddr: 0x6E7F4, symBinAddr: 0x100072548, symSize: 0x70 }
  - { offsetInCU: 0x9AB89, offset: 0x9AB89, size: 0x8, addend: 0x0, symName: __ZNKSt3__116reverse_iteratorINS0_IPNS_12basic_stringIcNS_11char_traitsIcEENS_9allocatorIcEEEEEEEptB8ue170006Ev, symObjAddr: 0x6E864, symBinAddr: 0x1000725B8, symSize: 0x2F0 }
  - { offsetInCU: 0x9ABB0, offset: 0x9ABB0, size: 0x8, addend: 0x0, symName: __ZNSt3__116reverse_iteratorIPNS_12basic_stringIcNS_11char_traitsIcEENS_9allocatorIcEEEEEpLB8ue170006El, symObjAddr: 0x6EF14, symBinAddr: 0x100072C68, symSize: 0x240 }
  - { offsetInCU: 0x9ABE4, offset: 0x9ABE4, size: 0x8, addend: 0x0, symName: __ZNSt3__116reverse_iteratorIPNS_12basic_stringIcNS_11char_traitsIcEENS_9allocatorIcEEEEEmmB8ue170006Ev, symObjAddr: 0x6F154, symBinAddr: 0x100072EA8, symSize: 0x1B0 }
  - { offsetInCU: 0x9AC0A, offset: 0x9AC0A, size: 0x8, addend: 0x0, symName: __ZNSt3__116reverse_iteratorINS0_IPNS_12basic_stringIcNS_11char_traitsIcEENS_9allocatorIcEEEEEEEC2B8ue170006ES8_, symObjAddr: 0x6F304, symBinAddr: 0x100073058, symSize: 0x284 }
  - { offsetInCU: 0x9AC47, offset: 0x9AC47, size: 0x8, addend: 0x0, symName: __ZNSt3__116reverse_iteratorIPNS_12basic_stringIcNS_11char_traitsIcEENS_9allocatorIcEEEEEC2B8ue170006ES7_, symObjAddr: 0x6F588, symBinAddr: 0x1000732DC, symSize: 0x10C }
  - { offsetInCU: 0x9AC7F, offset: 0x9AC7F, size: 0x8, addend: 0x0, symName: __ZNSt3__114__split_bufferINS_12basic_stringIcNS_11char_traitsIcEENS_9allocatorIcEEEERNS4_IS6_EEED2Ev, symObjAddr: 0x6F694, symBinAddr: 0x1000733E8, symSize: 0x16C }
  - { offsetInCU: 0x9ACAB, offset: 0x9ACAB, size: 0x8, addend: 0x0, symName: __ZNSt3__114__split_bufferINS_12basic_stringIcNS_11char_traitsIcEENS_9allocatorIcEEEERNS4_IS6_EEE5clearB8ue170006Ev, symObjAddr: 0x6F800, symBinAddr: 0x100073554, symSize: 0xB4 }
  - { offsetInCU: 0x9ACD1, offset: 0x9ACD1, size: 0x8, addend: 0x0, symName: __ZNSt3__116allocator_traitsINS_9allocatorINS_12basic_stringIcNS_11char_traitsIcEENS1_IcEEEEEEE10deallocateB8ue170006ERS7_PS6_m, symObjAddr: 0x6F8B4, symBinAddr: 0x100073608, symSize: 0x34 }
  - { offsetInCU: 0x9AD13, offset: 0x9AD13, size: 0x8, addend: 0x0, symName: __ZNKSt3__114__split_bufferINS_12basic_stringIcNS_11char_traitsIcEENS_9allocatorIcEEEERNS4_IS6_EEE8capacityB8ue170006Ev, symObjAddr: 0x6F8E8, symBinAddr: 0x10007363C, symSize: 0x144 }
  - { offsetInCU: 0x9AD39, offset: 0x9AD39, size: 0x8, addend: 0x0, symName: __ZNSt3__114__split_bufferINS_12basic_stringIcNS_11char_traitsIcEENS_9allocatorIcEEEERNS4_IS6_EEE17__destruct_at_endB8ue170006EPS6_, symObjAddr: 0x6FA2C, symBinAddr: 0x100073780, symSize: 0x74 }
  - { offsetInCU: 0x9AD6D, offset: 0x9AD6D, size: 0x8, addend: 0x0, symName: __ZNSt3__114__split_bufferINS_12basic_stringIcNS_11char_traitsIcEENS_9allocatorIcEEEERNS4_IS6_EEE17__destruct_at_endB8ue170006EPS6_NS_17integral_constantIbLb0EEE, symObjAddr: 0x6FAA0, symBinAddr: 0x1000737F4, symSize: 0x224 }
  - { offsetInCU: 0x9ADAE, offset: 0x9ADAE, size: 0x8, addend: 0x0, symName: __ZNSt3__19allocatorINS_12basic_stringIcNS_11char_traitsIcEENS0_IcEEEEE10deallocateB8ue170006EPS5_m, symObjAddr: 0x6FCC4, symBinAddr: 0x100073A18, symSize: 0x7C }
  - { offsetInCU: 0x9ADF0, offset: 0x9ADF0, size: 0x8, addend: 0x0, symName: __ZNKSt3__114__split_bufferINS_12basic_stringIcNS_11char_traitsIcEENS_9allocatorIcEEEERNS4_IS6_EEE9__end_capB8ue170006Ev, symObjAddr: 0x6FD40, symBinAddr: 0x100073A94, symSize: 0x100 }
  - { offsetInCU: 0x9AE16, offset: 0x9AE16, size: 0x8, addend: 0x0, symName: __ZNKSt3__117__compressed_pairIPNS_12basic_stringIcNS_11char_traitsIcEENS_9allocatorIcEEEERNS4_IS6_EEE5firstB8ue170006Ev, symObjAddr: 0x6FE40, symBinAddr: 0x100073B94, symSize: 0x124 }
  - { offsetInCU: 0x9AE3C, offset: 0x9AE3C, size: 0x8, addend: 0x0, symName: __ZN5memdb6parser6Parser11parseSpacesERKNSt3__117basic_string_viewIcNS2_11char_traitsIcEEEERi, symObjAddr: 0x6FF64, symBinAddr: 0x100073CB8, symSize: 0x36C }
  - { offsetInCU: 0x9AE7E, offset: 0x9AE7E, size: 0x8, addend: 0x0, symName: __ZNSt3__112basic_stringIcNS_11char_traitsIcEENS_9allocatorIcEEEpLB8ue170006Ec, symObjAddr: 0x702D0, symBinAddr: 0x100074024, symSize: 0xBC }
  - { offsetInCU: 0x9AEB3, offset: 0x9AEB3, size: 0x8, addend: 0x0, symName: __ZN5memdb9Tokenizer8CommandTC1Ev, symObjAddr: 0x7038C, symBinAddr: 0x1000740E0, symSize: 0x78 }
  - { offsetInCU: 0x9AEDD, offset: 0x9AEDD, size: 0x8, addend: 0x0, symName: __ZNSt3__110shared_ptrIN5memdb9Tokenizer5TokenEEC1B8ue170006INS2_8CommandTEvEEPT_, symObjAddr: 0x70404, symBinAddr: 0x100074158, symSize: 0x80 }
  - { offsetInCU: 0x9AF20, offset: 0x9AF20, size: 0x8, addend: 0x0, symName: __ZN5memdb9Tokenizer8CommandTC2Ev, symObjAddr: 0x70484, symBinAddr: 0x1000741D8, symSize: 0x118 }
  - { offsetInCU: 0x9AF4A, offset: 0x9AF4A, size: 0x8, addend: 0x0, symName: __ZN5memdb9Tokenizer5TokenC2Ev, symObjAddr: 0x7059C, symBinAddr: 0x1000742F0, symSize: 0xCC }
  - { offsetInCU: 0x9AF76, offset: 0x9AF76, size: 0x8, addend: 0x0, symName: __ZNK5memdb9Tokenizer8CommandT7GetTypeEv, symObjAddr: 0x70668, symBinAddr: 0x1000743BC, symSize: 0x64 }
  - { offsetInCU: 0x9AF9C, offset: 0x9AF9C, size: 0x8, addend: 0x0, symName: __ZN5memdb9Tokenizer8CommandT4CopyEv, symObjAddr: 0x706CC, symBinAddr: 0x100074420, symSize: 0x26C }
  - { offsetInCU: 0x9AFD2, offset: 0x9AFD2, size: 0x8, addend: 0x0, symName: __ZN5memdb9Tokenizer8CommandT5ParseERNSt3__16vectorINS2_12basic_stringIcNS2_11char_traitsIcEENS2_9allocatorIcEEEENS7_IS9_EEEERi, symObjAddr: 0x70938, symBinAddr: 0x10007468C, symSize: 0x738 }
  - { offsetInCU: 0x9B02C, offset: 0x9B02C, size: 0x8, addend: 0x0, symName: __ZN5memdb9Tokenizer8CommandTC1ENS_5lexer7CommandE, symObjAddr: 0x71070, symBinAddr: 0x100074DC4, symSize: 0x80 }
  - { offsetInCU: 0x9B065, offset: 0x9B065, size: 0x8, addend: 0x0, symName: __ZN5memdb9Tokenizer8CommandTC2ENS_5lexer7CommandE, symObjAddr: 0x710F0, symBinAddr: 0x100074E44, symSize: 0x188 }
  - { offsetInCU: 0x9B09E, offset: 0x9B09E, size: 0x8, addend: 0x0, symName: __ZNSt3__110shared_ptrIN5memdb9Tokenizer5TokenEEC2B8ue170006INS2_8CommandTEvEEPT_, symObjAddr: 0x71278, symBinAddr: 0x100074FCC, symSize: 0x4D8 }
  - { offsetInCU: 0x9B1B0, offset: 0x9B1B0, size: 0x8, addend: 0x0, symName: __ZNSt3__110unique_ptrIN5memdb9Tokenizer8CommandTENS_14default_deleteIS3_EEEC1B8ue170006ILb1EvEEPS3_, symObjAddr: 0x71750, symBinAddr: 0x1000754A4, symSize: 0x80 }
  - { offsetInCU: 0x9B1FF, offset: 0x9B1FF, size: 0x8, addend: 0x0, symName: __ZNSt3__19allocatorIN5memdb9Tokenizer8CommandTEEC1B8ue170006Ev, symObjAddr: 0x717D0, symBinAddr: 0x100075524, symSize: 0x5C }
  - { offsetInCU: 0x9B2E9, offset: 0x9B2E9, size: 0x8, addend: 0x0, symName: __ZNSt3__120__shared_ptr_pointerIPN5memdb9Tokenizer8CommandTENS_10shared_ptrINS2_5TokenEE27__shared_ptr_default_deleteIS6_S3_EENS_9allocatorIS3_EEEC1B8ue170006ES4_S9_SB_, symObjAddr: 0x7182C, symBinAddr: 0x100075580, symSize: 0x80 }
  - { offsetInCU: 0x9B33D, offset: 0x9B33D, size: 0x8, addend: 0x0, symName: __ZNSt3__110unique_ptrIN5memdb9Tokenizer8CommandTENS_14default_deleteIS3_EEE7releaseB8ue170006Ev, symObjAddr: 0x718AC, symBinAddr: 0x100075600, symSize: 0x20C }
  - { offsetInCU: 0x9B372, offset: 0x9B372, size: 0x8, addend: 0x0, symName: __ZNSt3__110shared_ptrIN5memdb9Tokenizer5TokenEE18__enable_weak_thisB8ue170006Ez, symObjAddr: 0x71AB8, symBinAddr: 0x10007580C, symSize: 0x60 }
  - { offsetInCU: 0x9B399, offset: 0x9B399, size: 0x8, addend: 0x0, symName: __ZNSt3__110unique_ptrIN5memdb9Tokenizer8CommandTENS_14default_deleteIS3_EEED1B8ue170006Ev, symObjAddr: 0x71B18, symBinAddr: 0x10007586C, symSize: 0x78 }
  - { offsetInCU: 0x9B3C3, offset: 0x9B3C3, size: 0x8, addend: 0x0, symName: __ZNSt3__110unique_ptrIN5memdb9Tokenizer8CommandTENS_14default_deleteIS3_EEEC2B8ue170006ILb1EvEEPS3_, symObjAddr: 0x71B90, symBinAddr: 0x1000758E4, symSize: 0x2B8 }
  - { offsetInCU: 0x9B411, offset: 0x9B411, size: 0x8, addend: 0x0, symName: __ZNSt3__117__compressed_pairIPN5memdb9Tokenizer8CommandTENS_14default_deleteIS3_EEEC1B8ue170006IRS4_NS_16__value_init_tagEEEOT_OT0_, symObjAddr: 0x71E48, symBinAddr: 0x100075B9C, symSize: 0x88 }
  - { offsetInCU: 0x9B469, offset: 0x9B469, size: 0x8, addend: 0x0, symName: __ZNSt3__117__compressed_pairIPN5memdb9Tokenizer8CommandTENS_14default_deleteIS3_EEEC2B8ue170006IRS4_NS_16__value_init_tagEEEOT_OT0_, symObjAddr: 0x71ED0, symBinAddr: 0x100075C24, symSize: 0x140 }
  - { offsetInCU: 0x9B4C1, offset: 0x9B4C1, size: 0x8, addend: 0x0, symName: __ZNSt3__122__compressed_pair_elemIPN5memdb9Tokenizer8CommandTELi0ELb0EEC2B8ue170006IRS4_vEEOT_, symObjAddr: 0x72010, symBinAddr: 0x100075D64, symSize: 0x144 }
  - { offsetInCU: 0x9B503, offset: 0x9B503, size: 0x8, addend: 0x0, symName: __ZNSt3__122__compressed_pair_elemINS_14default_deleteIN5memdb9Tokenizer8CommandTEEELi1ELb1EEC2B8ue170006ENS_16__value_init_tagE, symObjAddr: 0x72154, symBinAddr: 0x100075EA8, symSize: 0x54 }
  - { offsetInCU: 0x9B538, offset: 0x9B538, size: 0x8, addend: 0x0, symName: __ZNSt3__19allocatorIN5memdb9Tokenizer8CommandTEEC2B8ue170006Ev, symObjAddr: 0x721A8, symBinAddr: 0x100075EFC, symSize: 0x84 }
  - { offsetInCU: 0x9B562, offset: 0x9B562, size: 0x8, addend: 0x0, symName: __ZNSt3__116__non_trivial_ifILb1ENS_9allocatorIN5memdb9Tokenizer8CommandTEEEEC2B8ue170006Ev, symObjAddr: 0x7222C, symBinAddr: 0x100075F80, symSize: 0x54 }
  - { offsetInCU: 0x9B58C, offset: 0x9B58C, size: 0x8, addend: 0x0, symName: __ZNSt3__120__shared_ptr_pointerIPN5memdb9Tokenizer8CommandTENS_10shared_ptrINS2_5TokenEE27__shared_ptr_default_deleteIS6_S3_EENS_9allocatorIS3_EEEC2B8ue170006ES4_S9_SB_, symObjAddr: 0x72280, symBinAddr: 0x100075FD4, symSize: 0x44C }
  - { offsetInCU: 0x9B5ED, offset: 0x9B5ED, size: 0x8, addend: 0x0, symName: __ZNSt3__119__shared_weak_countC2B8ue170006El, symObjAddr: 0x726CC, symBinAddr: 0x100076420, symSize: 0x16C }
  - { offsetInCU: 0x9B62B, offset: 0x9B62B, size: 0x8, addend: 0x0, symName: __ZNSt3__117__compressed_pairIPN5memdb9Tokenizer8CommandTENS_10shared_ptrINS2_5TokenEE27__shared_ptr_default_deleteIS6_S3_EEEC1B8ue170006IRS4_S9_EEOT_OT0_, symObjAddr: 0x72838, symBinAddr: 0x10007658C, symSize: 0x88 }
  - { offsetInCU: 0x9B68F, offset: 0x9B68F, size: 0x8, addend: 0x0, symName: __ZNSt3__117__compressed_pairINS0_IPN5memdb9Tokenizer8CommandTENS_10shared_ptrINS2_5TokenEE27__shared_ptr_default_deleteIS6_S3_EEEENS_9allocatorIS3_EEEC1B8ue170006ISA_SC_EEOT_OT0_, symObjAddr: 0x728C0, symBinAddr: 0x100076614, symSize: 0x88 }
  - { offsetInCU: 0x9B6E7, offset: 0x9B6E7, size: 0x8, addend: 0x0, symName: __ZNSt3__120__shared_ptr_pointerIPN5memdb9Tokenizer8CommandTENS_10shared_ptrINS2_5TokenEE27__shared_ptr_default_deleteIS6_S3_EENS_9allocatorIS3_EEED1Ev, symObjAddr: 0x72948, symBinAddr: 0x10007669C, symSize: 0x78 }
  - { offsetInCU: 0x9B713, offset: 0x9B713, size: 0x8, addend: 0x0, symName: __ZNSt3__120__shared_ptr_pointerIPN5memdb9Tokenizer8CommandTENS_10shared_ptrINS2_5TokenEE27__shared_ptr_default_deleteIS6_S3_EENS_9allocatorIS3_EEED0Ev, symObjAddr: 0x729C0, symBinAddr: 0x100076714, symSize: 0x74 }
  - { offsetInCU: 0x9B73F, offset: 0x9B73F, size: 0x8, addend: 0x0, symName: __ZNSt3__120__shared_ptr_pointerIPN5memdb9Tokenizer8CommandTENS_10shared_ptrINS2_5TokenEE27__shared_ptr_default_deleteIS6_S3_EENS_9allocatorIS3_EEE16__on_zero_sharedEv, symObjAddr: 0x72A34, symBinAddr: 0x100076788, symSize: 0x460 }
  - { offsetInCU: 0x9B767, offset: 0x9B767, size: 0x8, addend: 0x0, symName: __ZNKSt3__120__shared_ptr_pointerIPN5memdb9Tokenizer8CommandTENS_10shared_ptrINS2_5TokenEE27__shared_ptr_default_deleteIS6_S3_EENS_9allocatorIS3_EEE13__get_deleterERKSt9type_info, symObjAddr: 0x72E94, symBinAddr: 0x100076BE8, symSize: 0x298 }
  - { offsetInCU: 0x9B79C, offset: 0x9B79C, size: 0x8, addend: 0x0, symName: __ZNSt3__120__shared_ptr_pointerIPN5memdb9Tokenizer8CommandTENS_10shared_ptrINS2_5TokenEE27__shared_ptr_default_deleteIS6_S3_EENS_9allocatorIS3_EEE21__on_zero_shared_weakEv, symObjAddr: 0x7312C, symBinAddr: 0x100076E80, symSize: 0x448 }
  - { offsetInCU: 0x9B7E4, offset: 0x9B7E4, size: 0x8, addend: 0x0, symName: __ZNSt3__114__shared_countC2B8ue170006El, symObjAddr: 0x73574, symBinAddr: 0x1000772C8, symSize: 0x114 }
  - { offsetInCU: 0x9B81C, offset: 0x9B81C, size: 0x8, addend: 0x0, symName: __ZNSt3__117__compressed_pairIPN5memdb9Tokenizer8CommandTENS_10shared_ptrINS2_5TokenEE27__shared_ptr_default_deleteIS6_S3_EEEC2B8ue170006IRS4_S9_EEOT_OT0_, symObjAddr: 0x73688, symBinAddr: 0x1000773DC, symSize: 0x170 }
  - { offsetInCU: 0x9B874, offset: 0x9B874, size: 0x8, addend: 0x0, symName: __ZNSt3__122__compressed_pair_elemINS_10shared_ptrIN5memdb9Tokenizer5TokenEE27__shared_ptr_default_deleteIS4_NS3_8CommandTEEELi1ELb1EEC2B8ue170006IS8_vEEOT_, symObjAddr: 0x737F8, symBinAddr: 0x10007754C, symSize: 0x58 }
  - { offsetInCU: 0x9B8B6, offset: 0x9B8B6, size: 0x8, addend: 0x0, symName: __ZNSt3__117__compressed_pairINS0_IPN5memdb9Tokenizer8CommandTENS_10shared_ptrINS2_5TokenEE27__shared_ptr_default_deleteIS6_S3_EEEENS_9allocatorIS3_EEEC2B8ue170006ISA_SC_EEOT_OT0_, symObjAddr: 0x73850, symBinAddr: 0x1000775A4, symSize: 0x170 }
  - { offsetInCU: 0x9B90E, offset: 0x9B90E, size: 0x8, addend: 0x0, symName: __ZNSt3__122__compressed_pair_elemINS_17__compressed_pairIPN5memdb9Tokenizer8CommandTENS_10shared_ptrINS3_5TokenEE27__shared_ptr_default_deleteIS7_S4_EEEELi0ELb0EEC2B8ue170006ISB_vEEOT_, symObjAddr: 0x739C0, symBinAddr: 0x100077714, symSize: 0x84 }
  - { offsetInCU: 0x9B950, offset: 0x9B950, size: 0x8, addend: 0x0, symName: __ZNSt3__122__compressed_pair_elemINS_9allocatorIN5memdb9Tokenizer8CommandTEEELi1ELb1EEC2B8ue170006IS5_vEEOT_, symObjAddr: 0x73A44, symBinAddr: 0x100077798, symSize: 0x58 }
  - { offsetInCU: 0x9B992, offset: 0x9B992, size: 0x8, addend: 0x0, symName: __ZNSt3__120__shared_ptr_pointerIPN5memdb9Tokenizer8CommandTENS_10shared_ptrINS2_5TokenEE27__shared_ptr_default_deleteIS6_S3_EENS_9allocatorIS3_EEED2Ev, symObjAddr: 0x73A9C, symBinAddr: 0x1000777F0, symSize: 0x78 }
  - { offsetInCU: 0x9B9BE, offset: 0x9B9BE, size: 0x8, addend: 0x0, symName: __ZNSt3__117__compressed_pairINS0_IPN5memdb9Tokenizer8CommandTENS_10shared_ptrINS2_5TokenEE27__shared_ptr_default_deleteIS6_S3_EEEENS_9allocatorIS3_EEE5firstB8ue170006Ev, symObjAddr: 0x73B14, symBinAddr: 0x100077868, symSize: 0x124 }
  - { offsetInCU: 0x9B9E4, offset: 0x9B9E4, size: 0x8, addend: 0x0, symName: __ZNSt3__117__compressed_pairIPN5memdb9Tokenizer8CommandTENS_10shared_ptrINS2_5TokenEE27__shared_ptr_default_deleteIS6_S3_EEE6secondB8ue170006Ev, symObjAddr: 0x73C38, symBinAddr: 0x10007798C, symSize: 0x108 }
  - { offsetInCU: 0x9BA0A, offset: 0x9BA0A, size: 0x8, addend: 0x0, symName: __ZNKSt3__114default_deleteIN5memdb9Tokenizer8CommandTEEclB8ue170006EPS3_, symObjAddr: 0x73D40, symBinAddr: 0x100077A94, symSize: 0x158 }
  - { offsetInCU: 0x9BA3E, offset: 0x9BA3E, size: 0x8, addend: 0x0, symName: __ZNSt3__117__compressed_pairIPN5memdb9Tokenizer8CommandTENS_10shared_ptrINS2_5TokenEE27__shared_ptr_default_deleteIS6_S3_EEE5firstB8ue170006Ev, symObjAddr: 0x73E98, symBinAddr: 0x100077BEC, symSize: 0x124 }
  - { offsetInCU: 0x9BA64, offset: 0x9BA64, size: 0x8, addend: 0x0, symName: __ZNSt3__122__compressed_pair_elemINS_17__compressed_pairIPN5memdb9Tokenizer8CommandTENS_10shared_ptrINS3_5TokenEE27__shared_ptr_default_deleteIS7_S4_EEEELi0ELb0EE5__getB8ue170006Ev, symObjAddr: 0x73FBC, symBinAddr: 0x100077D10, symSize: 0xAC }
  - { offsetInCU: 0x9BA8A, offset: 0x9BA8A, size: 0x8, addend: 0x0, symName: __ZNSt3__122__compressed_pair_elemINS_10shared_ptrIN5memdb9Tokenizer5TokenEE27__shared_ptr_default_deleteIS4_NS3_8CommandTEEELi1ELb1EE5__getB8ue170006Ev, symObjAddr: 0x74068, symBinAddr: 0x100077DBC, symSize: 0x74 }
  - { offsetInCU: 0x9BAB0, offset: 0x9BAB0, size: 0x8, addend: 0x0, symName: __ZNSt3__122__compressed_pair_elemIPN5memdb9Tokenizer8CommandTELi0ELb0EE5__getB8ue170006Ev, symObjAddr: 0x740DC, symBinAddr: 0x100077E30, symSize: 0xAC }
  - { offsetInCU: 0x9BB0C, offset: 0x9BB0C, size: 0x8, addend: 0x0, symName: __ZNKSt9type_infoeqB8ue170006ERKS_, symObjAddr: 0x74188, symBinAddr: 0x100077EDC, symSize: 0x260 }
  - { offsetInCU: 0x9BBAA, offset: 0x9BBAA, size: 0x8, addend: 0x0, symName: __ZNKSt3__117__compressed_pairINS0_IPN5memdb9Tokenizer8CommandTENS_10shared_ptrINS2_5TokenEE27__shared_ptr_default_deleteIS6_S3_EEEENS_9allocatorIS3_EEE5firstB8ue170006Ev, symObjAddr: 0x743E8, symBinAddr: 0x10007813C, symSize: 0x124 }
  - { offsetInCU: 0x9BBD0, offset: 0x9BBD0, size: 0x8, addend: 0x0, symName: __ZNKSt3__117__compressed_pairIPN5memdb9Tokenizer8CommandTENS_10shared_ptrINS2_5TokenEE27__shared_ptr_default_deleteIS6_S3_EEE6secondB8ue170006Ev, symObjAddr: 0x7450C, symBinAddr: 0x100078260, symSize: 0x108 }
  - { offsetInCU: 0x9BBF6, offset: 0x9BBF6, size: 0x8, addend: 0x0, symName: __ZNSt27__type_info_implementations30__non_unique_arm_rtti_bit_impl21__is_type_name_uniqueB8ue170006Em, symObjAddr: 0x74614, symBinAddr: 0x100078368, symSize: 0x20 }
  - { offsetInCU: 0x9BC1A, offset: 0x9BC1A, size: 0x8, addend: 0x0, symName: __ZNKSt3__122__compressed_pair_elemINS_17__compressed_pairIPN5memdb9Tokenizer8CommandTENS_10shared_ptrINS3_5TokenEE27__shared_ptr_default_deleteIS7_S4_EEEELi0ELb0EE5__getB8ue170006Ev, symObjAddr: 0x74634, symBinAddr: 0x100078388, symSize: 0xAC }
  - { offsetInCU: 0x9BC40, offset: 0x9BC40, size: 0x8, addend: 0x0, symName: __ZNKSt3__122__compressed_pair_elemINS_10shared_ptrIN5memdb9Tokenizer5TokenEE27__shared_ptr_default_deleteIS4_NS3_8CommandTEEELi1ELb1EE5__getB8ue170006Ev, symObjAddr: 0x746E0, symBinAddr: 0x100078434, symSize: 0x74 }
  - { offsetInCU: 0x9BC66, offset: 0x9BC66, size: 0x8, addend: 0x0, symName: __ZNSt3__117__compressed_pairINS0_IPN5memdb9Tokenizer8CommandTENS_10shared_ptrINS2_5TokenEE27__shared_ptr_default_deleteIS6_S3_EEEENS_9allocatorIS3_EEE6secondB8ue170006Ev, symObjAddr: 0x74754, symBinAddr: 0x1000784A8, symSize: 0x108 }
  - { offsetInCU: 0x9BC9E, offset: 0x9BC9E, size: 0x8, addend: 0x0, symName: __ZNSt3__19allocatorINS_20__shared_ptr_pointerIPN5memdb9Tokenizer8CommandTENS_10shared_ptrINS3_5TokenEE27__shared_ptr_default_deleteIS7_S4_EENS0_IS4_EEEEEC1B8ue170006IS4_EERKNS0_IT_EE, symObjAddr: 0x7485C, symBinAddr: 0x1000785B0, symSize: 0x64 }
  - { offsetInCU: 0x9BCDC, offset: 0x9BCDC, size: 0x8, addend: 0x0, symName: __ZNSt3__19allocatorINS_20__shared_ptr_pointerIPN5memdb9Tokenizer8CommandTENS_10shared_ptrINS3_5TokenEE27__shared_ptr_default_deleteIS7_S4_EENS0_IS4_EEEEE10deallocateB8ue170006EPSC_m, symObjAddr: 0x748C0, symBinAddr: 0x100078614, symSize: 0x78 }
  - { offsetInCU: 0x9BD24, offset: 0x9BD24, size: 0x8, addend: 0x0, symName: __ZNSt3__114pointer_traitsIPNS_20__shared_ptr_pointerIPN5memdb9Tokenizer8CommandTENS_10shared_ptrINS3_5TokenEE27__shared_ptr_default_deleteIS7_S4_EENS_9allocatorIS4_EEEEE10pointer_toB8ue170006ERSD_, symObjAddr: 0x74938, symBinAddr: 0x10007868C, symSize: 0x14 }
  - { offsetInCU: 0x9BD47, offset: 0x9BD47, size: 0x8, addend: 0x0, symName: __ZNSt3__122__compressed_pair_elemINS_9allocatorIN5memdb9Tokenizer8CommandTEEELi1ELb1EE5__getB8ue170006Ev, symObjAddr: 0x7494C, symBinAddr: 0x1000786A0, symSize: 0x74 }
  - { offsetInCU: 0x9BD6D, offset: 0x9BD6D, size: 0x8, addend: 0x0, symName: __ZNSt3__19allocatorINS_20__shared_ptr_pointerIPN5memdb9Tokenizer8CommandTENS_10shared_ptrINS3_5TokenEE27__shared_ptr_default_deleteIS7_S4_EENS0_IS4_EEEEEC2B8ue170006IS4_EERKNS0_IT_EE, symObjAddr: 0x749C0, symBinAddr: 0x100078714, symSize: 0x88 }
  - { offsetInCU: 0x9BDAB, offset: 0x9BDAB, size: 0x8, addend: 0x0, symName: __ZNSt3__116__non_trivial_ifILb1ENS_9allocatorINS_20__shared_ptr_pointerIPN5memdb9Tokenizer8CommandTENS_10shared_ptrINS4_5TokenEE27__shared_ptr_default_deleteIS8_S5_EENS1_IS5_EEEEEEEC2B8ue170006Ev, symObjAddr: 0x74A48, symBinAddr: 0x10007879C, symSize: 0x54 }
  - { offsetInCU: 0x9BDD5, offset: 0x9BDD5, size: 0x8, addend: 0x0, symName: __ZNSt3__117__compressed_pairIPN5memdb9Tokenizer8CommandTENS_14default_deleteIS3_EEE5firstB8ue170006Ev, symObjAddr: 0x74A9C, symBinAddr: 0x1000787F0, symSize: 0x124 }
  - { offsetInCU: 0x9BDFB, offset: 0x9BDFB, size: 0x8, addend: 0x0, symName: __ZNSt3__110unique_ptrIN5memdb9Tokenizer8CommandTENS_14default_deleteIS3_EEED2B8ue170006Ev, symObjAddr: 0x74BC0, symBinAddr: 0x100078914, symSize: 0x7C }
  - { offsetInCU: 0x9BE25, offset: 0x9BE25, size: 0x8, addend: 0x0, symName: __ZNSt3__110unique_ptrIN5memdb9Tokenizer8CommandTENS_14default_deleteIS3_EEE5resetB8ue170006EPS3_, symObjAddr: 0x74C3C, symBinAddr: 0x100078990, symSize: 0x2B0 }
  - { offsetInCU: 0x9BE69, offset: 0x9BE69, size: 0x8, addend: 0x0, symName: __ZNSt3__117__compressed_pairIPN5memdb9Tokenizer8CommandTENS_14default_deleteIS3_EEE6secondB8ue170006Ev, symObjAddr: 0x74EEC, symBinAddr: 0x100078C40, symSize: 0x108 }
  - { offsetInCU: 0x9BE8F, offset: 0x9BE8F, size: 0x8, addend: 0x0, symName: __ZNSt3__122__compressed_pair_elemINS_14default_deleteIN5memdb9Tokenizer8CommandTEEELi1ELb1EE5__getB8ue170006Ev, symObjAddr: 0x74FF4, symBinAddr: 0x100078D48, symSize: 0x74 }
  - { offsetInCU: 0x9BEB5, offset: 0x9BEB5, size: 0x8, addend: 0x0, symName: __ZN5memdb9Tokenizer11SubCommandTC1Ev, symObjAddr: 0x75068, symBinAddr: 0x100078DBC, symSize: 0x78 }
  - { offsetInCU: 0x9BEDF, offset: 0x9BEDF, size: 0x8, addend: 0x0, symName: __ZNSt3__110shared_ptrIN5memdb9Tokenizer5TokenEEC1B8ue170006INS2_11SubCommandTEvEEPT_, symObjAddr: 0x750E0, symBinAddr: 0x100078E34, symSize: 0x80 }
  - { offsetInCU: 0x9BF22, offset: 0x9BF22, size: 0x8, addend: 0x0, symName: __ZN5memdb9Tokenizer11SubCommandTC2Ev, symObjAddr: 0x75160, symBinAddr: 0x100078EB4, symSize: 0x118 }
  - { offsetInCU: 0x9BF4C, offset: 0x9BF4C, size: 0x8, addend: 0x0, symName: __ZNK5memdb9Tokenizer11SubCommandT7GetTypeEv, symObjAddr: 0x75278, symBinAddr: 0x100078FCC, symSize: 0x64 }
  - { offsetInCU: 0x9BF72, offset: 0x9BF72, size: 0x8, addend: 0x0, symName: __ZN5memdb9Tokenizer11SubCommandT4CopyEv, symObjAddr: 0x752DC, symBinAddr: 0x100079030, symSize: 0x26C }
  - { offsetInCU: 0x9BFA8, offset: 0x9BFA8, size: 0x8, addend: 0x0, symName: __ZN5memdb9Tokenizer11SubCommandT5ParseERNSt3__16vectorINS2_12basic_stringIcNS2_11char_traitsIcEENS2_9allocatorIcEEEENS7_IS9_EEEERi, symObjAddr: 0x75548, symBinAddr: 0x10007929C, symSize: 0x738 }
  - { offsetInCU: 0x9C002, offset: 0x9C002, size: 0x8, addend: 0x0, symName: __ZN5memdb9Tokenizer11SubCommandTC1ENS_5lexer10SubCommandE, symObjAddr: 0x75C80, symBinAddr: 0x1000799D4, symSize: 0x80 }
  - { offsetInCU: 0x9C03B, offset: 0x9C03B, size: 0x8, addend: 0x0, symName: __ZN5memdb9Tokenizer11SubCommandTC2ENS_5lexer10SubCommandE, symObjAddr: 0x75D00, symBinAddr: 0x100079A54, symSize: 0x188 }
  - { offsetInCU: 0x9C074, offset: 0x9C074, size: 0x8, addend: 0x0, symName: __ZNSt3__110shared_ptrIN5memdb9Tokenizer5TokenEEC2B8ue170006INS2_11SubCommandTEvEEPT_, symObjAddr: 0x75E88, symBinAddr: 0x100079BDC, symSize: 0x4D8 }
  - { offsetInCU: 0x9C186, offset: 0x9C186, size: 0x8, addend: 0x0, symName: __ZNSt3__110unique_ptrIN5memdb9Tokenizer11SubCommandTENS_14default_deleteIS3_EEEC1B8ue170006ILb1EvEEPS3_, symObjAddr: 0x76360, symBinAddr: 0x10007A0B4, symSize: 0x80 }
  - { offsetInCU: 0x9C1D5, offset: 0x9C1D5, size: 0x8, addend: 0x0, symName: __ZNSt3__19allocatorIN5memdb9Tokenizer11SubCommandTEEC1B8ue170006Ev, symObjAddr: 0x763E0, symBinAddr: 0x10007A134, symSize: 0x5C }
  - { offsetInCU: 0x9C2BF, offset: 0x9C2BF, size: 0x8, addend: 0x0, symName: __ZNSt3__120__shared_ptr_pointerIPN5memdb9Tokenizer11SubCommandTENS_10shared_ptrINS2_5TokenEE27__shared_ptr_default_deleteIS6_S3_EENS_9allocatorIS3_EEEC1B8ue170006ES4_S9_SB_, symObjAddr: 0x7643C, symBinAddr: 0x10007A190, symSize: 0x80 }
  - { offsetInCU: 0x9C313, offset: 0x9C313, size: 0x8, addend: 0x0, symName: __ZNSt3__110unique_ptrIN5memdb9Tokenizer11SubCommandTENS_14default_deleteIS3_EEE7releaseB8ue170006Ev, symObjAddr: 0x764BC, symBinAddr: 0x10007A210, symSize: 0x20C }
  - { offsetInCU: 0x9C348, offset: 0x9C348, size: 0x8, addend: 0x0, symName: __ZNSt3__110unique_ptrIN5memdb9Tokenizer11SubCommandTENS_14default_deleteIS3_EEED1B8ue170006Ev, symObjAddr: 0x766C8, symBinAddr: 0x10007A41C, symSize: 0x78 }
  - { offsetInCU: 0x9C372, offset: 0x9C372, size: 0x8, addend: 0x0, symName: __ZNSt3__110unique_ptrIN5memdb9Tokenizer11SubCommandTENS_14default_deleteIS3_EEEC2B8ue170006ILb1EvEEPS3_, symObjAddr: 0x76740, symBinAddr: 0x10007A494, symSize: 0x2B8 }
  - { offsetInCU: 0x9C3BA, offset: 0x9C3BA, size: 0x8, addend: 0x0, symName: __ZNSt3__117__compressed_pairIPN5memdb9Tokenizer11SubCommandTENS_14default_deleteIS3_EEEC1B8ue170006IRS4_NS_16__value_init_tagEEEOT_OT0_, symObjAddr: 0x769F8, symBinAddr: 0x10007A74C, symSize: 0x88 }
  - { offsetInCU: 0x9C412, offset: 0x9C412, size: 0x8, addend: 0x0, symName: __ZNSt3__117__compressed_pairIPN5memdb9Tokenizer11SubCommandTENS_14default_deleteIS3_EEEC2B8ue170006IRS4_NS_16__value_init_tagEEEOT_OT0_, symObjAddr: 0x76A80, symBinAddr: 0x10007A7D4, symSize: 0x140 }
  - { offsetInCU: 0x9C46A, offset: 0x9C46A, size: 0x8, addend: 0x0, symName: __ZNSt3__122__compressed_pair_elemIPN5memdb9Tokenizer11SubCommandTELi0ELb0EEC2B8ue170006IRS4_vEEOT_, symObjAddr: 0x76BC0, symBinAddr: 0x10007A914, symSize: 0x144 }
  - { offsetInCU: 0x9C4AC, offset: 0x9C4AC, size: 0x8, addend: 0x0, symName: __ZNSt3__122__compressed_pair_elemINS_14default_deleteIN5memdb9Tokenizer11SubCommandTEEELi1ELb1EEC2B8ue170006ENS_16__value_init_tagE, symObjAddr: 0x76D04, symBinAddr: 0x10007AA58, symSize: 0x54 }
  - { offsetInCU: 0x9C4E1, offset: 0x9C4E1, size: 0x8, addend: 0x0, symName: __ZNSt3__19allocatorIN5memdb9Tokenizer11SubCommandTEEC2B8ue170006Ev, symObjAddr: 0x76D58, symBinAddr: 0x10007AAAC, symSize: 0x84 }
  - { offsetInCU: 0x9C50B, offset: 0x9C50B, size: 0x8, addend: 0x0, symName: __ZNSt3__116__non_trivial_ifILb1ENS_9allocatorIN5memdb9Tokenizer11SubCommandTEEEEC2B8ue170006Ev, symObjAddr: 0x76DDC, symBinAddr: 0x10007AB30, symSize: 0x54 }
  - { offsetInCU: 0x9C535, offset: 0x9C535, size: 0x8, addend: 0x0, symName: __ZNSt3__120__shared_ptr_pointerIPN5memdb9Tokenizer11SubCommandTENS_10shared_ptrINS2_5TokenEE27__shared_ptr_default_deleteIS6_S3_EENS_9allocatorIS3_EEEC2B8ue170006ES4_S9_SB_, symObjAddr: 0x76E30, symBinAddr: 0x10007AB84, symSize: 0x44C }
  - { offsetInCU: 0x9C59C, offset: 0x9C59C, size: 0x8, addend: 0x0, symName: __ZNSt3__117__compressed_pairIPN5memdb9Tokenizer11SubCommandTENS_10shared_ptrINS2_5TokenEE27__shared_ptr_default_deleteIS6_S3_EEEC1B8ue170006IRS4_S9_EEOT_OT0_, symObjAddr: 0x7727C, symBinAddr: 0x10007AFD0, symSize: 0x88 }
  - { offsetInCU: 0x9C600, offset: 0x9C600, size: 0x8, addend: 0x0, symName: __ZNSt3__117__compressed_pairINS0_IPN5memdb9Tokenizer11SubCommandTENS_10shared_ptrINS2_5TokenEE27__shared_ptr_default_deleteIS6_S3_EEEENS_9allocatorIS3_EEEC1B8ue170006ISA_SC_EEOT_OT0_, symObjAddr: 0x77304, symBinAddr: 0x10007B058, symSize: 0x88 }
  - { offsetInCU: 0x9C658, offset: 0x9C658, size: 0x8, addend: 0x0, symName: __ZNSt3__120__shared_ptr_pointerIPN5memdb9Tokenizer11SubCommandTENS_10shared_ptrINS2_5TokenEE27__shared_ptr_default_deleteIS6_S3_EENS_9allocatorIS3_EEED1Ev, symObjAddr: 0x7738C, symBinAddr: 0x10007B0E0, symSize: 0x78 }
  - { offsetInCU: 0x9C684, offset: 0x9C684, size: 0x8, addend: 0x0, symName: __ZNSt3__120__shared_ptr_pointerIPN5memdb9Tokenizer11SubCommandTENS_10shared_ptrINS2_5TokenEE27__shared_ptr_default_deleteIS6_S3_EENS_9allocatorIS3_EEED0Ev, symObjAddr: 0x77404, symBinAddr: 0x10007B158, symSize: 0x74 }
  - { offsetInCU: 0x9C6B0, offset: 0x9C6B0, size: 0x8, addend: 0x0, symName: __ZNSt3__120__shared_ptr_pointerIPN5memdb9Tokenizer11SubCommandTENS_10shared_ptrINS2_5TokenEE27__shared_ptr_default_deleteIS6_S3_EENS_9allocatorIS3_EEE16__on_zero_sharedEv, symObjAddr: 0x77478, symBinAddr: 0x10007B1CC, symSize: 0x460 }
  - { offsetInCU: 0x9C6D8, offset: 0x9C6D8, size: 0x8, addend: 0x0, symName: __ZNKSt3__120__shared_ptr_pointerIPN5memdb9Tokenizer11SubCommandTENS_10shared_ptrINS2_5TokenEE27__shared_ptr_default_deleteIS6_S3_EENS_9allocatorIS3_EEE13__get_deleterERKSt9type_info, symObjAddr: 0x778D8, symBinAddr: 0x10007B62C, symSize: 0x298 }
  - { offsetInCU: 0x9C70D, offset: 0x9C70D, size: 0x8, addend: 0x0, symName: __ZNSt3__120__shared_ptr_pointerIPN5memdb9Tokenizer11SubCommandTENS_10shared_ptrINS2_5TokenEE27__shared_ptr_default_deleteIS6_S3_EENS_9allocatorIS3_EEE21__on_zero_shared_weakEv, symObjAddr: 0x77B70, symBinAddr: 0x10007B8C4, symSize: 0x448 }
  - { offsetInCU: 0x9C755, offset: 0x9C755, size: 0x8, addend: 0x0, symName: __ZNSt3__117__compressed_pairIPN5memdb9Tokenizer11SubCommandTENS_10shared_ptrINS2_5TokenEE27__shared_ptr_default_deleteIS6_S3_EEEC2B8ue170006IRS4_S9_EEOT_OT0_, symObjAddr: 0x77FB8, symBinAddr: 0x10007BD0C, symSize: 0x170 }
  - { offsetInCU: 0x9C7AD, offset: 0x9C7AD, size: 0x8, addend: 0x0, symName: __ZNSt3__122__compressed_pair_elemINS_10shared_ptrIN5memdb9Tokenizer5TokenEE27__shared_ptr_default_deleteIS4_NS3_11SubCommandTEEELi1ELb1EEC2B8ue170006IS8_vEEOT_, symObjAddr: 0x78128, symBinAddr: 0x10007BE7C, symSize: 0x58 }
  - { offsetInCU: 0x9C7EF, offset: 0x9C7EF, size: 0x8, addend: 0x0, symName: __ZNSt3__117__compressed_pairINS0_IPN5memdb9Tokenizer11SubCommandTENS_10shared_ptrINS2_5TokenEE27__shared_ptr_default_deleteIS6_S3_EEEENS_9allocatorIS3_EEEC2B8ue170006ISA_SC_EEOT_OT0_, symObjAddr: 0x78180, symBinAddr: 0x10007BED4, symSize: 0x170 }
  - { offsetInCU: 0x9C847, offset: 0x9C847, size: 0x8, addend: 0x0, symName: __ZNSt3__122__compressed_pair_elemINS_17__compressed_pairIPN5memdb9Tokenizer11SubCommandTENS_10shared_ptrINS3_5TokenEE27__shared_ptr_default_deleteIS7_S4_EEEELi0ELb0EEC2B8ue170006ISB_vEEOT_, symObjAddr: 0x782F0, symBinAddr: 0x10007C044, symSize: 0x84 }
  - { offsetInCU: 0x9C889, offset: 0x9C889, size: 0x8, addend: 0x0, symName: __ZNSt3__122__compressed_pair_elemINS_9allocatorIN5memdb9Tokenizer11SubCommandTEEELi1ELb1EEC2B8ue170006IS5_vEEOT_, symObjAddr: 0x78374, symBinAddr: 0x10007C0C8, symSize: 0x58 }
  - { offsetInCU: 0x9C8CB, offset: 0x9C8CB, size: 0x8, addend: 0x0, symName: __ZNSt3__120__shared_ptr_pointerIPN5memdb9Tokenizer11SubCommandTENS_10shared_ptrINS2_5TokenEE27__shared_ptr_default_deleteIS6_S3_EENS_9allocatorIS3_EEED2Ev, symObjAddr: 0x783CC, symBinAddr: 0x10007C120, symSize: 0x78 }
  - { offsetInCU: 0x9C8F7, offset: 0x9C8F7, size: 0x8, addend: 0x0, symName: __ZNSt3__117__compressed_pairINS0_IPN5memdb9Tokenizer11SubCommandTENS_10shared_ptrINS2_5TokenEE27__shared_ptr_default_deleteIS6_S3_EEEENS_9allocatorIS3_EEE5firstB8ue170006Ev, symObjAddr: 0x78444, symBinAddr: 0x10007C198, symSize: 0x124 }
  - { offsetInCU: 0x9C91D, offset: 0x9C91D, size: 0x8, addend: 0x0, symName: __ZNSt3__117__compressed_pairIPN5memdb9Tokenizer11SubCommandTENS_10shared_ptrINS2_5TokenEE27__shared_ptr_default_deleteIS6_S3_EEE6secondB8ue170006Ev, symObjAddr: 0x78568, symBinAddr: 0x10007C2BC, symSize: 0x108 }
  - { offsetInCU: 0x9C943, offset: 0x9C943, size: 0x8, addend: 0x0, symName: __ZNKSt3__114default_deleteIN5memdb9Tokenizer11SubCommandTEEclB8ue170006EPS3_, symObjAddr: 0x78670, symBinAddr: 0x10007C3C4, symSize: 0x158 }
  - { offsetInCU: 0x9C977, offset: 0x9C977, size: 0x8, addend: 0x0, symName: __ZNSt3__117__compressed_pairIPN5memdb9Tokenizer11SubCommandTENS_10shared_ptrINS2_5TokenEE27__shared_ptr_default_deleteIS6_S3_EEE5firstB8ue170006Ev, symObjAddr: 0x787C8, symBinAddr: 0x10007C51C, symSize: 0x124 }
  - { offsetInCU: 0x9C99D, offset: 0x9C99D, size: 0x8, addend: 0x0, symName: __ZNSt3__122__compressed_pair_elemINS_17__compressed_pairIPN5memdb9Tokenizer11SubCommandTENS_10shared_ptrINS3_5TokenEE27__shared_ptr_default_deleteIS7_S4_EEEELi0ELb0EE5__getB8ue170006Ev, symObjAddr: 0x788EC, symBinAddr: 0x10007C640, symSize: 0xAC }
  - { offsetInCU: 0x9C9C3, offset: 0x9C9C3, size: 0x8, addend: 0x0, symName: __ZNSt3__122__compressed_pair_elemINS_10shared_ptrIN5memdb9Tokenizer5TokenEE27__shared_ptr_default_deleteIS4_NS3_11SubCommandTEEELi1ELb1EE5__getB8ue170006Ev, symObjAddr: 0x78998, symBinAddr: 0x10007C6EC, symSize: 0x74 }
  - { offsetInCU: 0x9C9E9, offset: 0x9C9E9, size: 0x8, addend: 0x0, symName: __ZNSt3__122__compressed_pair_elemIPN5memdb9Tokenizer11SubCommandTELi0ELb0EE5__getB8ue170006Ev, symObjAddr: 0x78A0C, symBinAddr: 0x10007C760, symSize: 0xAC }
  - { offsetInCU: 0x9CA0F, offset: 0x9CA0F, size: 0x8, addend: 0x0, symName: __ZNKSt3__117__compressed_pairINS0_IPN5memdb9Tokenizer11SubCommandTENS_10shared_ptrINS2_5TokenEE27__shared_ptr_default_deleteIS6_S3_EEEENS_9allocatorIS3_EEE5firstB8ue170006Ev, symObjAddr: 0x78AB8, symBinAddr: 0x10007C80C, symSize: 0x124 }
  - { offsetInCU: 0x9CA35, offset: 0x9CA35, size: 0x8, addend: 0x0, symName: __ZNKSt3__117__compressed_pairIPN5memdb9Tokenizer11SubCommandTENS_10shared_ptrINS2_5TokenEE27__shared_ptr_default_deleteIS6_S3_EEE6secondB8ue170006Ev, symObjAddr: 0x78BDC, symBinAddr: 0x10007C930, symSize: 0x108 }
  - { offsetInCU: 0x9CA5B, offset: 0x9CA5B, size: 0x8, addend: 0x0, symName: __ZNKSt3__122__compressed_pair_elemINS_17__compressed_pairIPN5memdb9Tokenizer11SubCommandTENS_10shared_ptrINS3_5TokenEE27__shared_ptr_default_deleteIS7_S4_EEEELi0ELb0EE5__getB8ue170006Ev, symObjAddr: 0x78CE4, symBinAddr: 0x10007CA38, symSize: 0xAC }
  - { offsetInCU: 0x9CA81, offset: 0x9CA81, size: 0x8, addend: 0x0, symName: __ZNKSt3__122__compressed_pair_elemINS_10shared_ptrIN5memdb9Tokenizer5TokenEE27__shared_ptr_default_deleteIS4_NS3_11SubCommandTEEELi1ELb1EE5__getB8ue170006Ev, symObjAddr: 0x78D90, symBinAddr: 0x10007CAE4, symSize: 0x74 }
  - { offsetInCU: 0x9CAA7, offset: 0x9CAA7, size: 0x8, addend: 0x0, symName: __ZNSt3__117__compressed_pairINS0_IPN5memdb9Tokenizer11SubCommandTENS_10shared_ptrINS2_5TokenEE27__shared_ptr_default_deleteIS6_S3_EEEENS_9allocatorIS3_EEE6secondB8ue170006Ev, symObjAddr: 0x78E04, symBinAddr: 0x10007CB58, symSize: 0x108 }
  - { offsetInCU: 0x9CADF, offset: 0x9CADF, size: 0x8, addend: 0x0, symName: __ZNSt3__19allocatorINS_20__shared_ptr_pointerIPN5memdb9Tokenizer11SubCommandTENS_10shared_ptrINS3_5TokenEE27__shared_ptr_default_deleteIS7_S4_EENS0_IS4_EEEEEC1B8ue170006IS4_EERKNS0_IT_EE, symObjAddr: 0x78F0C, symBinAddr: 0x10007CC60, symSize: 0x64 }
  - { offsetInCU: 0x9CB1D, offset: 0x9CB1D, size: 0x8, addend: 0x0, symName: __ZNSt3__19allocatorINS_20__shared_ptr_pointerIPN5memdb9Tokenizer11SubCommandTENS_10shared_ptrINS3_5TokenEE27__shared_ptr_default_deleteIS7_S4_EENS0_IS4_EEEEE10deallocateB8ue170006EPSC_m, symObjAddr: 0x78F70, symBinAddr: 0x10007CCC4, symSize: 0x78 }
  - { offsetInCU: 0x9CB65, offset: 0x9CB65, size: 0x8, addend: 0x0, symName: __ZNSt3__114pointer_traitsIPNS_20__shared_ptr_pointerIPN5memdb9Tokenizer11SubCommandTENS_10shared_ptrINS3_5TokenEE27__shared_ptr_default_deleteIS7_S4_EENS_9allocatorIS4_EEEEE10pointer_toB8ue170006ERSD_, symObjAddr: 0x78FE8, symBinAddr: 0x10007CD3C, symSize: 0x14 }
  - { offsetInCU: 0x9CB88, offset: 0x9CB88, size: 0x8, addend: 0x0, symName: __ZNSt3__122__compressed_pair_elemINS_9allocatorIN5memdb9Tokenizer11SubCommandTEEELi1ELb1EE5__getB8ue170006Ev, symObjAddr: 0x78FFC, symBinAddr: 0x10007CD50, symSize: 0x74 }
  - { offsetInCU: 0x9CBAE, offset: 0x9CBAE, size: 0x8, addend: 0x0, symName: __ZNSt3__19allocatorINS_20__shared_ptr_pointerIPN5memdb9Tokenizer11SubCommandTENS_10shared_ptrINS3_5TokenEE27__shared_ptr_default_deleteIS7_S4_EENS0_IS4_EEEEEC2B8ue170006IS4_EERKNS0_IT_EE, symObjAddr: 0x79070, symBinAddr: 0x10007CDC4, symSize: 0x88 }
  - { offsetInCU: 0x9CBEC, offset: 0x9CBEC, size: 0x8, addend: 0x0, symName: __ZNSt3__116__non_trivial_ifILb1ENS_9allocatorINS_20__shared_ptr_pointerIPN5memdb9Tokenizer11SubCommandTENS_10shared_ptrINS4_5TokenEE27__shared_ptr_default_deleteIS8_S5_EENS1_IS5_EEEEEEEC2B8ue170006Ev, symObjAddr: 0x790F8, symBinAddr: 0x10007CE4C, symSize: 0x54 }
  - { offsetInCU: 0x9CC16, offset: 0x9CC16, size: 0x8, addend: 0x0, symName: __ZNSt3__117__compressed_pairIPN5memdb9Tokenizer11SubCommandTENS_14default_deleteIS3_EEE5firstB8ue170006Ev, symObjAddr: 0x7914C, symBinAddr: 0x10007CEA0, symSize: 0x124 }
  - { offsetInCU: 0x9CC3C, offset: 0x9CC3C, size: 0x8, addend: 0x0, symName: __ZNSt3__110unique_ptrIN5memdb9Tokenizer11SubCommandTENS_14default_deleteIS3_EEED2B8ue170006Ev, symObjAddr: 0x79270, symBinAddr: 0x10007CFC4, symSize: 0x7C }
  - { offsetInCU: 0x9CC66, offset: 0x9CC66, size: 0x8, addend: 0x0, symName: __ZNSt3__110unique_ptrIN5memdb9Tokenizer11SubCommandTENS_14default_deleteIS3_EEE5resetB8ue170006EPS3_, symObjAddr: 0x792EC, symBinAddr: 0x10007D040, symSize: 0x2B0 }
  - { offsetInCU: 0x9CCAA, offset: 0x9CCAA, size: 0x8, addend: 0x0, symName: __ZNSt3__117__compressed_pairIPN5memdb9Tokenizer11SubCommandTENS_14default_deleteIS3_EEE6secondB8ue170006Ev, symObjAddr: 0x7959C, symBinAddr: 0x10007D2F0, symSize: 0x108 }
  - { offsetInCU: 0x9CCD0, offset: 0x9CCD0, size: 0x8, addend: 0x0, symName: __ZNSt3__122__compressed_pair_elemINS_14default_deleteIN5memdb9Tokenizer11SubCommandTEEELi1ELb1EE5__getB8ue170006Ev, symObjAddr: 0x796A4, symBinAddr: 0x10007D3F8, symSize: 0x74 }
  - { offsetInCU: 0x9CCF6, offset: 0x9CCF6, size: 0x8, addend: 0x0, symName: __ZN5memdb9Tokenizer10AttributeTC1Ev, symObjAddr: 0x79718, symBinAddr: 0x10007D46C, symSize: 0x78 }
  - { offsetInCU: 0x9CD20, offset: 0x9CD20, size: 0x8, addend: 0x0, symName: __ZNSt3__110shared_ptrIN5memdb9Tokenizer5TokenEEC1B8ue170006INS2_10AttributeTEvEEPT_, symObjAddr: 0x79790, symBinAddr: 0x10007D4E4, symSize: 0x80 }
  - { offsetInCU: 0x9CD63, offset: 0x9CD63, size: 0x8, addend: 0x0, symName: __ZN5memdb9Tokenizer10AttributeTC2Ev, symObjAddr: 0x79810, symBinAddr: 0x10007D564, symSize: 0x118 }
  - { offsetInCU: 0x9CD8D, offset: 0x9CD8D, size: 0x8, addend: 0x0, symName: __ZNK5memdb9Tokenizer10AttributeT7GetTypeEv, symObjAddr: 0x79928, symBinAddr: 0x10007D67C, symSize: 0x64 }
  - { offsetInCU: 0x9CDB3, offset: 0x9CDB3, size: 0x8, addend: 0x0, symName: __ZN5memdb9Tokenizer10AttributeT4CopyEv, symObjAddr: 0x7998C, symBinAddr: 0x10007D6E0, symSize: 0x26C }
  - { offsetInCU: 0x9CDE9, offset: 0x9CDE9, size: 0x8, addend: 0x0, symName: __ZN5memdb9Tokenizer10AttributeT5ParseERNSt3__16vectorINS2_12basic_stringIcNS2_11char_traitsIcEENS2_9allocatorIcEEEENS7_IS9_EEEERi, symObjAddr: 0x79BF8, symBinAddr: 0x10007D94C, symSize: 0x738 }
  - { offsetInCU: 0x9CE43, offset: 0x9CE43, size: 0x8, addend: 0x0, symName: __ZN5memdb9Tokenizer10AttributeTC1ENS_5lexer9AttributeE, symObjAddr: 0x7A330, symBinAddr: 0x10007E084, symSize: 0x80 }
  - { offsetInCU: 0x9CE7C, offset: 0x9CE7C, size: 0x8, addend: 0x0, symName: __ZN5memdb9Tokenizer10AttributeTC2ENS_5lexer9AttributeE, symObjAddr: 0x7A3B0, symBinAddr: 0x10007E104, symSize: 0x188 }
  - { offsetInCU: 0x9CEB5, offset: 0x9CEB5, size: 0x8, addend: 0x0, symName: __ZNSt3__110shared_ptrIN5memdb9Tokenizer5TokenEEC2B8ue170006INS2_10AttributeTEvEEPT_, symObjAddr: 0x7A538, symBinAddr: 0x10007E28C, symSize: 0x4D8 }
  - { offsetInCU: 0x9CFC7, offset: 0x9CFC7, size: 0x8, addend: 0x0, symName: __ZNSt3__110unique_ptrIN5memdb9Tokenizer10AttributeTENS_14default_deleteIS3_EEEC1B8ue170006ILb1EvEEPS3_, symObjAddr: 0x7AA10, symBinAddr: 0x10007E764, symSize: 0x80 }
  - { offsetInCU: 0x9D016, offset: 0x9D016, size: 0x8, addend: 0x0, symName: __ZNSt3__19allocatorIN5memdb9Tokenizer10AttributeTEEC1B8ue170006Ev, symObjAddr: 0x7AA90, symBinAddr: 0x10007E7E4, symSize: 0x5C }
  - { offsetInCU: 0x9D100, offset: 0x9D100, size: 0x8, addend: 0x0, symName: __ZNSt3__120__shared_ptr_pointerIPN5memdb9Tokenizer10AttributeTENS_10shared_ptrINS2_5TokenEE27__shared_ptr_default_deleteIS6_S3_EENS_9allocatorIS3_EEEC1B8ue170006ES4_S9_SB_, symObjAddr: 0x7AAEC, symBinAddr: 0x10007E840, symSize: 0x80 }
  - { offsetInCU: 0x9D154, offset: 0x9D154, size: 0x8, addend: 0x0, symName: __ZNSt3__110unique_ptrIN5memdb9Tokenizer10AttributeTENS_14default_deleteIS3_EEE7releaseB8ue170006Ev, symObjAddr: 0x7AB6C, symBinAddr: 0x10007E8C0, symSize: 0x20C }
  - { offsetInCU: 0x9D189, offset: 0x9D189, size: 0x8, addend: 0x0, symName: __ZNSt3__110unique_ptrIN5memdb9Tokenizer10AttributeTENS_14default_deleteIS3_EEED1B8ue170006Ev, symObjAddr: 0x7AD78, symBinAddr: 0x10007EACC, symSize: 0x78 }
  - { offsetInCU: 0x9D1B3, offset: 0x9D1B3, size: 0x8, addend: 0x0, symName: __ZNSt3__110unique_ptrIN5memdb9Tokenizer10AttributeTENS_14default_deleteIS3_EEEC2B8ue170006ILb1EvEEPS3_, symObjAddr: 0x7ADF0, symBinAddr: 0x10007EB44, symSize: 0x2B8 }
  - { offsetInCU: 0x9D1FB, offset: 0x9D1FB, size: 0x8, addend: 0x0, symName: __ZNSt3__117__compressed_pairIPN5memdb9Tokenizer10AttributeTENS_14default_deleteIS3_EEEC1B8ue170006IRS4_NS_16__value_init_tagEEEOT_OT0_, symObjAddr: 0x7B0A8, symBinAddr: 0x10007EDFC, symSize: 0x88 }
  - { offsetInCU: 0x9D253, offset: 0x9D253, size: 0x8, addend: 0x0, symName: __ZNSt3__117__compressed_pairIPN5memdb9Tokenizer10AttributeTENS_14default_deleteIS3_EEEC2B8ue170006IRS4_NS_16__value_init_tagEEEOT_OT0_, symObjAddr: 0x7B130, symBinAddr: 0x10007EE84, symSize: 0x140 }
  - { offsetInCU: 0x9D2AB, offset: 0x9D2AB, size: 0x8, addend: 0x0, symName: __ZNSt3__122__compressed_pair_elemIPN5memdb9Tokenizer10AttributeTELi0ELb0EEC2B8ue170006IRS4_vEEOT_, symObjAddr: 0x7B270, symBinAddr: 0x10007EFC4, symSize: 0x144 }
  - { offsetInCU: 0x9D2ED, offset: 0x9D2ED, size: 0x8, addend: 0x0, symName: __ZNSt3__122__compressed_pair_elemINS_14default_deleteIN5memdb9Tokenizer10AttributeTEEELi1ELb1EEC2B8ue170006ENS_16__value_init_tagE, symObjAddr: 0x7B3B4, symBinAddr: 0x10007F108, symSize: 0x54 }
  - { offsetInCU: 0x9D322, offset: 0x9D322, size: 0x8, addend: 0x0, symName: __ZNSt3__19allocatorIN5memdb9Tokenizer10AttributeTEEC2B8ue170006Ev, symObjAddr: 0x7B408, symBinAddr: 0x10007F15C, symSize: 0x84 }
  - { offsetInCU: 0x9D34C, offset: 0x9D34C, size: 0x8, addend: 0x0, symName: __ZNSt3__116__non_trivial_ifILb1ENS_9allocatorIN5memdb9Tokenizer10AttributeTEEEEC2B8ue170006Ev, symObjAddr: 0x7B48C, symBinAddr: 0x10007F1E0, symSize: 0x54 }
  - { offsetInCU: 0x9D376, offset: 0x9D376, size: 0x8, addend: 0x0, symName: __ZNSt3__120__shared_ptr_pointerIPN5memdb9Tokenizer10AttributeTENS_10shared_ptrINS2_5TokenEE27__shared_ptr_default_deleteIS6_S3_EENS_9allocatorIS3_EEEC2B8ue170006ES4_S9_SB_, symObjAddr: 0x7B4E0, symBinAddr: 0x10007F234, symSize: 0x44C }
  - { offsetInCU: 0x9D3DD, offset: 0x9D3DD, size: 0x8, addend: 0x0, symName: __ZNSt3__117__compressed_pairIPN5memdb9Tokenizer10AttributeTENS_10shared_ptrINS2_5TokenEE27__shared_ptr_default_deleteIS6_S3_EEEC1B8ue170006IRS4_S9_EEOT_OT0_, symObjAddr: 0x7B92C, symBinAddr: 0x10007F680, symSize: 0x88 }
  - { offsetInCU: 0x9D441, offset: 0x9D441, size: 0x8, addend: 0x0, symName: __ZNSt3__117__compressed_pairINS0_IPN5memdb9Tokenizer10AttributeTENS_10shared_ptrINS2_5TokenEE27__shared_ptr_default_deleteIS6_S3_EEEENS_9allocatorIS3_EEEC1B8ue170006ISA_SC_EEOT_OT0_, symObjAddr: 0x7B9B4, symBinAddr: 0x10007F708, symSize: 0x88 }
  - { offsetInCU: 0x9D499, offset: 0x9D499, size: 0x8, addend: 0x0, symName: __ZNSt3__120__shared_ptr_pointerIPN5memdb9Tokenizer10AttributeTENS_10shared_ptrINS2_5TokenEE27__shared_ptr_default_deleteIS6_S3_EENS_9allocatorIS3_EEED1Ev, symObjAddr: 0x7BA3C, symBinAddr: 0x10007F790, symSize: 0x78 }
  - { offsetInCU: 0x9D4C5, offset: 0x9D4C5, size: 0x8, addend: 0x0, symName: __ZNSt3__120__shared_ptr_pointerIPN5memdb9Tokenizer10AttributeTENS_10shared_ptrINS2_5TokenEE27__shared_ptr_default_deleteIS6_S3_EENS_9allocatorIS3_EEED0Ev, symObjAddr: 0x7BAB4, symBinAddr: 0x10007F808, symSize: 0x74 }
  - { offsetInCU: 0x9D4F1, offset: 0x9D4F1, size: 0x8, addend: 0x0, symName: __ZNSt3__120__shared_ptr_pointerIPN5memdb9Tokenizer10AttributeTENS_10shared_ptrINS2_5TokenEE27__shared_ptr_default_deleteIS6_S3_EENS_9allocatorIS3_EEE16__on_zero_sharedEv, symObjAddr: 0x7BB28, symBinAddr: 0x10007F87C, symSize: 0x460 }
  - { offsetInCU: 0x9D519, offset: 0x9D519, size: 0x8, addend: 0x0, symName: __ZNKSt3__120__shared_ptr_pointerIPN5memdb9Tokenizer10AttributeTENS_10shared_ptrINS2_5TokenEE27__shared_ptr_default_deleteIS6_S3_EENS_9allocatorIS3_EEE13__get_deleterERKSt9type_info, symObjAddr: 0x7BF88, symBinAddr: 0x10007FCDC, symSize: 0x298 }
  - { offsetInCU: 0x9D54E, offset: 0x9D54E, size: 0x8, addend: 0x0, symName: __ZNSt3__120__shared_ptr_pointerIPN5memdb9Tokenizer10AttributeTENS_10shared_ptrINS2_5TokenEE27__shared_ptr_default_deleteIS6_S3_EENS_9allocatorIS3_EEE21__on_zero_shared_weakEv, symObjAddr: 0x7C220, symBinAddr: 0x10007FF74, symSize: 0x448 }
  - { offsetInCU: 0x9D596, offset: 0x9D596, size: 0x8, addend: 0x0, symName: __ZNSt3__117__compressed_pairIPN5memdb9Tokenizer10AttributeTENS_10shared_ptrINS2_5TokenEE27__shared_ptr_default_deleteIS6_S3_EEEC2B8ue170006IRS4_S9_EEOT_OT0_, symObjAddr: 0x7C668, symBinAddr: 0x1000803BC, symSize: 0x170 }
  - { offsetInCU: 0x9D5EE, offset: 0x9D5EE, size: 0x8, addend: 0x0, symName: __ZNSt3__122__compressed_pair_elemINS_10shared_ptrIN5memdb9Tokenizer5TokenEE27__shared_ptr_default_deleteIS4_NS3_10AttributeTEEELi1ELb1EEC2B8ue170006IS8_vEEOT_, symObjAddr: 0x7C7D8, symBinAddr: 0x10008052C, symSize: 0x58 }
  - { offsetInCU: 0x9D630, offset: 0x9D630, size: 0x8, addend: 0x0, symName: __ZNSt3__117__compressed_pairINS0_IPN5memdb9Tokenizer10AttributeTENS_10shared_ptrINS2_5TokenEE27__shared_ptr_default_deleteIS6_S3_EEEENS_9allocatorIS3_EEEC2B8ue170006ISA_SC_EEOT_OT0_, symObjAddr: 0x7C830, symBinAddr: 0x100080584, symSize: 0x170 }
  - { offsetInCU: 0x9D688, offset: 0x9D688, size: 0x8, addend: 0x0, symName: __ZNSt3__122__compressed_pair_elemINS_17__compressed_pairIPN5memdb9Tokenizer10AttributeTENS_10shared_ptrINS3_5TokenEE27__shared_ptr_default_deleteIS7_S4_EEEELi0ELb0EEC2B8ue170006ISB_vEEOT_, symObjAddr: 0x7C9A0, symBinAddr: 0x1000806F4, symSize: 0x84 }
  - { offsetInCU: 0x9D6CA, offset: 0x9D6CA, size: 0x8, addend: 0x0, symName: __ZNSt3__122__compressed_pair_elemINS_9allocatorIN5memdb9Tokenizer10AttributeTEEELi1ELb1EEC2B8ue170006IS5_vEEOT_, symObjAddr: 0x7CA24, symBinAddr: 0x100080778, symSize: 0x58 }
  - { offsetInCU: 0x9D70C, offset: 0x9D70C, size: 0x8, addend: 0x0, symName: __ZNSt3__120__shared_ptr_pointerIPN5memdb9Tokenizer10AttributeTENS_10shared_ptrINS2_5TokenEE27__shared_ptr_default_deleteIS6_S3_EENS_9allocatorIS3_EEED2Ev, symObjAddr: 0x7CA7C, symBinAddr: 0x1000807D0, symSize: 0x78 }
  - { offsetInCU: 0x9D738, offset: 0x9D738, size: 0x8, addend: 0x0, symName: __ZNSt3__117__compressed_pairINS0_IPN5memdb9Tokenizer10AttributeTENS_10shared_ptrINS2_5TokenEE27__shared_ptr_default_deleteIS6_S3_EEEENS_9allocatorIS3_EEE5firstB8ue170006Ev, symObjAddr: 0x7CAF4, symBinAddr: 0x100080848, symSize: 0x124 }
  - { offsetInCU: 0x9D75E, offset: 0x9D75E, size: 0x8, addend: 0x0, symName: __ZNSt3__117__compressed_pairIPN5memdb9Tokenizer10AttributeTENS_10shared_ptrINS2_5TokenEE27__shared_ptr_default_deleteIS6_S3_EEE6secondB8ue170006Ev, symObjAddr: 0x7CC18, symBinAddr: 0x10008096C, symSize: 0x108 }
  - { offsetInCU: 0x9D784, offset: 0x9D784, size: 0x8, addend: 0x0, symName: __ZNKSt3__114default_deleteIN5memdb9Tokenizer10AttributeTEEclB8ue170006EPS3_, symObjAddr: 0x7CD20, symBinAddr: 0x100080A74, symSize: 0x158 }
  - { offsetInCU: 0x9D7B8, offset: 0x9D7B8, size: 0x8, addend: 0x0, symName: __ZNSt3__117__compressed_pairIPN5memdb9Tokenizer10AttributeTENS_10shared_ptrINS2_5TokenEE27__shared_ptr_default_deleteIS6_S3_EEE5firstB8ue170006Ev, symObjAddr: 0x7CE78, symBinAddr: 0x100080BCC, symSize: 0x124 }
  - { offsetInCU: 0x9D7DE, offset: 0x9D7DE, size: 0x8, addend: 0x0, symName: __ZNSt3__122__compressed_pair_elemINS_17__compressed_pairIPN5memdb9Tokenizer10AttributeTENS_10shared_ptrINS3_5TokenEE27__shared_ptr_default_deleteIS7_S4_EEEELi0ELb0EE5__getB8ue170006Ev, symObjAddr: 0x7CF9C, symBinAddr: 0x100080CF0, symSize: 0xAC }
  - { offsetInCU: 0x9D804, offset: 0x9D804, size: 0x8, addend: 0x0, symName: __ZNSt3__122__compressed_pair_elemINS_10shared_ptrIN5memdb9Tokenizer5TokenEE27__shared_ptr_default_deleteIS4_NS3_10AttributeTEEELi1ELb1EE5__getB8ue170006Ev, symObjAddr: 0x7D048, symBinAddr: 0x100080D9C, symSize: 0x74 }
  - { offsetInCU: 0x9D82A, offset: 0x9D82A, size: 0x8, addend: 0x0, symName: __ZNSt3__122__compressed_pair_elemIPN5memdb9Tokenizer10AttributeTELi0ELb0EE5__getB8ue170006Ev, symObjAddr: 0x7D0BC, symBinAddr: 0x100080E10, symSize: 0xAC }
  - { offsetInCU: 0x9D850, offset: 0x9D850, size: 0x8, addend: 0x0, symName: __ZNKSt3__117__compressed_pairINS0_IPN5memdb9Tokenizer10AttributeTENS_10shared_ptrINS2_5TokenEE27__shared_ptr_default_deleteIS6_S3_EEEENS_9allocatorIS3_EEE5firstB8ue170006Ev, symObjAddr: 0x7D168, symBinAddr: 0x100080EBC, symSize: 0x124 }
  - { offsetInCU: 0x9D876, offset: 0x9D876, size: 0x8, addend: 0x0, symName: __ZNKSt3__117__compressed_pairIPN5memdb9Tokenizer10AttributeTENS_10shared_ptrINS2_5TokenEE27__shared_ptr_default_deleteIS6_S3_EEE6secondB8ue170006Ev, symObjAddr: 0x7D28C, symBinAddr: 0x100080FE0, symSize: 0x108 }
  - { offsetInCU: 0x9D89C, offset: 0x9D89C, size: 0x8, addend: 0x0, symName: __ZNKSt3__122__compressed_pair_elemINS_17__compressed_pairIPN5memdb9Tokenizer10AttributeTENS_10shared_ptrINS3_5TokenEE27__shared_ptr_default_deleteIS7_S4_EEEELi0ELb0EE5__getB8ue170006Ev, symObjAddr: 0x7D394, symBinAddr: 0x1000810E8, symSize: 0xAC }
  - { offsetInCU: 0x9D8C2, offset: 0x9D8C2, size: 0x8, addend: 0x0, symName: __ZNKSt3__122__compressed_pair_elemINS_10shared_ptrIN5memdb9Tokenizer5TokenEE27__shared_ptr_default_deleteIS4_NS3_10AttributeTEEELi1ELb1EE5__getB8ue170006Ev, symObjAddr: 0x7D440, symBinAddr: 0x100081194, symSize: 0x74 }
  - { offsetInCU: 0x9D8E8, offset: 0x9D8E8, size: 0x8, addend: 0x0, symName: __ZNSt3__117__compressed_pairINS0_IPN5memdb9Tokenizer10AttributeTENS_10shared_ptrINS2_5TokenEE27__shared_ptr_default_deleteIS6_S3_EEEENS_9allocatorIS3_EEE6secondB8ue170006Ev, symObjAddr: 0x7D4B4, symBinAddr: 0x100081208, symSize: 0x108 }
  - { offsetInCU: 0x9D920, offset: 0x9D920, size: 0x8, addend: 0x0, symName: __ZNSt3__19allocatorINS_20__shared_ptr_pointerIPN5memdb9Tokenizer10AttributeTENS_10shared_ptrINS3_5TokenEE27__shared_ptr_default_deleteIS7_S4_EENS0_IS4_EEEEEC1B8ue170006IS4_EERKNS0_IT_EE, symObjAddr: 0x7D5BC, symBinAddr: 0x100081310, symSize: 0x64 }
  - { offsetInCU: 0x9D95E, offset: 0x9D95E, size: 0x8, addend: 0x0, symName: __ZNSt3__19allocatorINS_20__shared_ptr_pointerIPN5memdb9Tokenizer10AttributeTENS_10shared_ptrINS3_5TokenEE27__shared_ptr_default_deleteIS7_S4_EENS0_IS4_EEEEE10deallocateB8ue170006EPSC_m, symObjAddr: 0x7D620, symBinAddr: 0x100081374, symSize: 0x78 }
  - { offsetInCU: 0x9D9A6, offset: 0x9D9A6, size: 0x8, addend: 0x0, symName: __ZNSt3__114pointer_traitsIPNS_20__shared_ptr_pointerIPN5memdb9Tokenizer10AttributeTENS_10shared_ptrINS3_5TokenEE27__shared_ptr_default_deleteIS7_S4_EENS_9allocatorIS4_EEEEE10pointer_toB8ue170006ERSD_, symObjAddr: 0x7D698, symBinAddr: 0x1000813EC, symSize: 0x14 }
  - { offsetInCU: 0x9D9C9, offset: 0x9D9C9, size: 0x8, addend: 0x0, symName: __ZNSt3__122__compressed_pair_elemINS_9allocatorIN5memdb9Tokenizer10AttributeTEEELi1ELb1EE5__getB8ue170006Ev, symObjAddr: 0x7D6AC, symBinAddr: 0x100081400, symSize: 0x74 }
  - { offsetInCU: 0x9D9EF, offset: 0x9D9EF, size: 0x8, addend: 0x0, symName: __ZNSt3__19allocatorINS_20__shared_ptr_pointerIPN5memdb9Tokenizer10AttributeTENS_10shared_ptrINS3_5TokenEE27__shared_ptr_default_deleteIS7_S4_EENS0_IS4_EEEEEC2B8ue170006IS4_EERKNS0_IT_EE, symObjAddr: 0x7D720, symBinAddr: 0x100081474, symSize: 0x88 }
  - { offsetInCU: 0x9DA2D, offset: 0x9DA2D, size: 0x8, addend: 0x0, symName: __ZNSt3__116__non_trivial_ifILb1ENS_9allocatorINS_20__shared_ptr_pointerIPN5memdb9Tokenizer10AttributeTENS_10shared_ptrINS4_5TokenEE27__shared_ptr_default_deleteIS8_S5_EENS1_IS5_EEEEEEEC2B8ue170006Ev, symObjAddr: 0x7D7A8, symBinAddr: 0x1000814FC, symSize: 0x54 }
  - { offsetInCU: 0x9DA57, offset: 0x9DA57, size: 0x8, addend: 0x0, symName: __ZNSt3__117__compressed_pairIPN5memdb9Tokenizer10AttributeTENS_14default_deleteIS3_EEE5firstB8ue170006Ev, symObjAddr: 0x7D7FC, symBinAddr: 0x100081550, symSize: 0x124 }
  - { offsetInCU: 0x9DA7D, offset: 0x9DA7D, size: 0x8, addend: 0x0, symName: __ZNSt3__110unique_ptrIN5memdb9Tokenizer10AttributeTENS_14default_deleteIS3_EEED2B8ue170006Ev, symObjAddr: 0x7D920, symBinAddr: 0x100081674, symSize: 0x7C }
  - { offsetInCU: 0x9DAA7, offset: 0x9DAA7, size: 0x8, addend: 0x0, symName: __ZNSt3__110unique_ptrIN5memdb9Tokenizer10AttributeTENS_14default_deleteIS3_EEE5resetB8ue170006EPS3_, symObjAddr: 0x7D99C, symBinAddr: 0x1000816F0, symSize: 0x2B0 }
  - { offsetInCU: 0x9DAEB, offset: 0x9DAEB, size: 0x8, addend: 0x0, symName: __ZNSt3__117__compressed_pairIPN5memdb9Tokenizer10AttributeTENS_14default_deleteIS3_EEE6secondB8ue170006Ev, symObjAddr: 0x7DC4C, symBinAddr: 0x1000819A0, symSize: 0x108 }
  - { offsetInCU: 0x9DB11, offset: 0x9DB11, size: 0x8, addend: 0x0, symName: __ZNSt3__122__compressed_pair_elemINS_14default_deleteIN5memdb9Tokenizer10AttributeTEEELi1ELb1EE5__getB8ue170006Ev, symObjAddr: 0x7DD54, symBinAddr: 0x100081AA8, symSize: 0x74 }
  - { offsetInCU: 0x9DB37, offset: 0x9DB37, size: 0x8, addend: 0x0, symName: __ZN5memdb9Tokenizer10OperationTC1Ev, symObjAddr: 0x7DDC8, symBinAddr: 0x100081B1C, symSize: 0x78 }
  - { offsetInCU: 0x9DB61, offset: 0x9DB61, size: 0x8, addend: 0x0, symName: __ZNSt3__110shared_ptrIN5memdb9Tokenizer5TokenEEC1B8ue170006INS2_10OperationTEvEEPT_, symObjAddr: 0x7DE40, symBinAddr: 0x100081B94, symSize: 0x80 }
  - { offsetInCU: 0x9DBA4, offset: 0x9DBA4, size: 0x8, addend: 0x0, symName: __ZN5memdb9Tokenizer10OperationTC2Ev, symObjAddr: 0x7DEC0, symBinAddr: 0x100081C14, symSize: 0x118 }
  - { offsetInCU: 0x9DBCE, offset: 0x9DBCE, size: 0x8, addend: 0x0, symName: __ZNK5memdb9Tokenizer10OperationT7GetTypeEv, symObjAddr: 0x7DFD8, symBinAddr: 0x100081D2C, symSize: 0x64 }
  - { offsetInCU: 0x9DBF4, offset: 0x9DBF4, size: 0x8, addend: 0x0, symName: __ZN5memdb9Tokenizer10OperationT4CopyEv, symObjAddr: 0x7E03C, symBinAddr: 0x100081D90, symSize: 0x26C }
  - { offsetInCU: 0x9DC2A, offset: 0x9DC2A, size: 0x8, addend: 0x0, symName: __ZN5memdb9Tokenizer10OperationT5ParseERNSt3__16vectorINS2_12basic_stringIcNS2_11char_traitsIcEENS2_9allocatorIcEEEENS7_IS9_EEEERi, symObjAddr: 0x7E2A8, symBinAddr: 0x100081FFC, symSize: 0x738 }
  - { offsetInCU: 0x9DC84, offset: 0x9DC84, size: 0x8, addend: 0x0, symName: __ZN5memdb9Tokenizer10OperationTC1ENS_9OperationE, symObjAddr: 0x7E9E0, symBinAddr: 0x100082734, symSize: 0x80 }
  - { offsetInCU: 0x9DCBD, offset: 0x9DCBD, size: 0x8, addend: 0x0, symName: __ZN5memdb9Tokenizer10OperationTC2ENS_9OperationE, symObjAddr: 0x7EA60, symBinAddr: 0x1000827B4, symSize: 0x188 }
  - { offsetInCU: 0x9DCF6, offset: 0x9DCF6, size: 0x8, addend: 0x0, symName: __ZNSt3__110shared_ptrIN5memdb9Tokenizer5TokenEEC2B8ue170006INS2_10OperationTEvEEPT_, symObjAddr: 0x7EBE8, symBinAddr: 0x10008293C, symSize: 0x4D8 }
  - { offsetInCU: 0x9DE08, offset: 0x9DE08, size: 0x8, addend: 0x0, symName: __ZNSt3__110unique_ptrIN5memdb9Tokenizer10OperationTENS_14default_deleteIS3_EEEC1B8ue170006ILb1EvEEPS3_, symObjAddr: 0x7F0C0, symBinAddr: 0x100082E14, symSize: 0x80 }
  - { offsetInCU: 0x9DE57, offset: 0x9DE57, size: 0x8, addend: 0x0, symName: __ZNSt3__19allocatorIN5memdb9Tokenizer10OperationTEEC1B8ue170006Ev, symObjAddr: 0x7F140, symBinAddr: 0x100082E94, symSize: 0x5C }
  - { offsetInCU: 0x9DF41, offset: 0x9DF41, size: 0x8, addend: 0x0, symName: __ZNSt3__120__shared_ptr_pointerIPN5memdb9Tokenizer10OperationTENS_10shared_ptrINS2_5TokenEE27__shared_ptr_default_deleteIS6_S3_EENS_9allocatorIS3_EEEC1B8ue170006ES4_S9_SB_, symObjAddr: 0x7F19C, symBinAddr: 0x100082EF0, symSize: 0x80 }
  - { offsetInCU: 0x9DF95, offset: 0x9DF95, size: 0x8, addend: 0x0, symName: __ZNSt3__110unique_ptrIN5memdb9Tokenizer10OperationTENS_14default_deleteIS3_EEE7releaseB8ue170006Ev, symObjAddr: 0x7F21C, symBinAddr: 0x100082F70, symSize: 0x20C }
  - { offsetInCU: 0x9DFCA, offset: 0x9DFCA, size: 0x8, addend: 0x0, symName: __ZNSt3__110unique_ptrIN5memdb9Tokenizer10OperationTENS_14default_deleteIS3_EEED1B8ue170006Ev, symObjAddr: 0x7F428, symBinAddr: 0x10008317C, symSize: 0x78 }
  - { offsetInCU: 0x9DFF4, offset: 0x9DFF4, size: 0x8, addend: 0x0, symName: __ZNSt3__110unique_ptrIN5memdb9Tokenizer10OperationTENS_14default_deleteIS3_EEEC2B8ue170006ILb1EvEEPS3_, symObjAddr: 0x7F4A0, symBinAddr: 0x1000831F4, symSize: 0x2B8 }
  - { offsetInCU: 0x9E03C, offset: 0x9E03C, size: 0x8, addend: 0x0, symName: __ZNSt3__117__compressed_pairIPN5memdb9Tokenizer10OperationTENS_14default_deleteIS3_EEEC1B8ue170006IRS4_NS_16__value_init_tagEEEOT_OT0_, symObjAddr: 0x7F758, symBinAddr: 0x1000834AC, symSize: 0x88 }
  - { offsetInCU: 0x9E094, offset: 0x9E094, size: 0x8, addend: 0x0, symName: __ZNSt3__117__compressed_pairIPN5memdb9Tokenizer10OperationTENS_14default_deleteIS3_EEEC2B8ue170006IRS4_NS_16__value_init_tagEEEOT_OT0_, symObjAddr: 0x7F7E0, symBinAddr: 0x100083534, symSize: 0x140 }
  - { offsetInCU: 0x9E0EC, offset: 0x9E0EC, size: 0x8, addend: 0x0, symName: __ZNSt3__122__compressed_pair_elemIPN5memdb9Tokenizer10OperationTELi0ELb0EEC2B8ue170006IRS4_vEEOT_, symObjAddr: 0x7F920, symBinAddr: 0x100083674, symSize: 0x144 }
  - { offsetInCU: 0x9E12E, offset: 0x9E12E, size: 0x8, addend: 0x0, symName: __ZNSt3__122__compressed_pair_elemINS_14default_deleteIN5memdb9Tokenizer10OperationTEEELi1ELb1EEC2B8ue170006ENS_16__value_init_tagE, symObjAddr: 0x7FA64, symBinAddr: 0x1000837B8, symSize: 0x54 }
  - { offsetInCU: 0x9E163, offset: 0x9E163, size: 0x8, addend: 0x0, symName: __ZNSt3__19allocatorIN5memdb9Tokenizer10OperationTEEC2B8ue170006Ev, symObjAddr: 0x7FAB8, symBinAddr: 0x10008380C, symSize: 0x84 }
  - { offsetInCU: 0x9E18D, offset: 0x9E18D, size: 0x8, addend: 0x0, symName: __ZNSt3__116__non_trivial_ifILb1ENS_9allocatorIN5memdb9Tokenizer10OperationTEEEEC2B8ue170006Ev, symObjAddr: 0x7FB3C, symBinAddr: 0x100083890, symSize: 0x54 }
  - { offsetInCU: 0x9E1B7, offset: 0x9E1B7, size: 0x8, addend: 0x0, symName: __ZNSt3__120__shared_ptr_pointerIPN5memdb9Tokenizer10OperationTENS_10shared_ptrINS2_5TokenEE27__shared_ptr_default_deleteIS6_S3_EENS_9allocatorIS3_EEEC2B8ue170006ES4_S9_SB_, symObjAddr: 0x7FB90, symBinAddr: 0x1000838E4, symSize: 0x44C }
  - { offsetInCU: 0x9E21E, offset: 0x9E21E, size: 0x8, addend: 0x0, symName: __ZNSt3__117__compressed_pairIPN5memdb9Tokenizer10OperationTENS_10shared_ptrINS2_5TokenEE27__shared_ptr_default_deleteIS6_S3_EEEC1B8ue170006IRS4_S9_EEOT_OT0_, symObjAddr: 0x7FFDC, symBinAddr: 0x100083D30, symSize: 0x88 }
  - { offsetInCU: 0x9E282, offset: 0x9E282, size: 0x8, addend: 0x0, symName: __ZNSt3__117__compressed_pairINS0_IPN5memdb9Tokenizer10OperationTENS_10shared_ptrINS2_5TokenEE27__shared_ptr_default_deleteIS6_S3_EEEENS_9allocatorIS3_EEEC1B8ue170006ISA_SC_EEOT_OT0_, symObjAddr: 0x80064, symBinAddr: 0x100083DB8, symSize: 0x88 }
  - { offsetInCU: 0x9E2DA, offset: 0x9E2DA, size: 0x8, addend: 0x0, symName: __ZNSt3__120__shared_ptr_pointerIPN5memdb9Tokenizer10OperationTENS_10shared_ptrINS2_5TokenEE27__shared_ptr_default_deleteIS6_S3_EENS_9allocatorIS3_EEED1Ev, symObjAddr: 0x800EC, symBinAddr: 0x100083E40, symSize: 0x78 }
  - { offsetInCU: 0x9E306, offset: 0x9E306, size: 0x8, addend: 0x0, symName: __ZNSt3__120__shared_ptr_pointerIPN5memdb9Tokenizer10OperationTENS_10shared_ptrINS2_5TokenEE27__shared_ptr_default_deleteIS6_S3_EENS_9allocatorIS3_EEED0Ev, symObjAddr: 0x80164, symBinAddr: 0x100083EB8, symSize: 0x74 }
  - { offsetInCU: 0x9E332, offset: 0x9E332, size: 0x8, addend: 0x0, symName: __ZNSt3__120__shared_ptr_pointerIPN5memdb9Tokenizer10OperationTENS_10shared_ptrINS2_5TokenEE27__shared_ptr_default_deleteIS6_S3_EENS_9allocatorIS3_EEE16__on_zero_sharedEv, symObjAddr: 0x801D8, symBinAddr: 0x100083F2C, symSize: 0x460 }
  - { offsetInCU: 0x9E35A, offset: 0x9E35A, size: 0x8, addend: 0x0, symName: __ZNKSt3__120__shared_ptr_pointerIPN5memdb9Tokenizer10OperationTENS_10shared_ptrINS2_5TokenEE27__shared_ptr_default_deleteIS6_S3_EENS_9allocatorIS3_EEE13__get_deleterERKSt9type_info, symObjAddr: 0x80638, symBinAddr: 0x10008438C, symSize: 0x298 }
  - { offsetInCU: 0x9E38F, offset: 0x9E38F, size: 0x8, addend: 0x0, symName: __ZNSt3__120__shared_ptr_pointerIPN5memdb9Tokenizer10OperationTENS_10shared_ptrINS2_5TokenEE27__shared_ptr_default_deleteIS6_S3_EENS_9allocatorIS3_EEE21__on_zero_shared_weakEv, symObjAddr: 0x808D0, symBinAddr: 0x100084624, symSize: 0x448 }
  - { offsetInCU: 0x9E3D7, offset: 0x9E3D7, size: 0x8, addend: 0x0, symName: __ZNSt3__117__compressed_pairIPN5memdb9Tokenizer10OperationTENS_10shared_ptrINS2_5TokenEE27__shared_ptr_default_deleteIS6_S3_EEEC2B8ue170006IRS4_S9_EEOT_OT0_, symObjAddr: 0x80D18, symBinAddr: 0x100084A6C, symSize: 0x170 }
  - { offsetInCU: 0x9E42F, offset: 0x9E42F, size: 0x8, addend: 0x0, symName: __ZNSt3__122__compressed_pair_elemINS_10shared_ptrIN5memdb9Tokenizer5TokenEE27__shared_ptr_default_deleteIS4_NS3_10OperationTEEELi1ELb1EEC2B8ue170006IS8_vEEOT_, symObjAddr: 0x80E88, symBinAddr: 0x100084BDC, symSize: 0x58 }
  - { offsetInCU: 0x9E471, offset: 0x9E471, size: 0x8, addend: 0x0, symName: __ZNSt3__117__compressed_pairINS0_IPN5memdb9Tokenizer10OperationTENS_10shared_ptrINS2_5TokenEE27__shared_ptr_default_deleteIS6_S3_EEEENS_9allocatorIS3_EEEC2B8ue170006ISA_SC_EEOT_OT0_, symObjAddr: 0x80EE0, symBinAddr: 0x100084C34, symSize: 0x170 }
  - { offsetInCU: 0x9E4C9, offset: 0x9E4C9, size: 0x8, addend: 0x0, symName: __ZNSt3__122__compressed_pair_elemINS_17__compressed_pairIPN5memdb9Tokenizer10OperationTENS_10shared_ptrINS3_5TokenEE27__shared_ptr_default_deleteIS7_S4_EEEELi0ELb0EEC2B8ue170006ISB_vEEOT_, symObjAddr: 0x81050, symBinAddr: 0x100084DA4, symSize: 0x84 }
  - { offsetInCU: 0x9E50B, offset: 0x9E50B, size: 0x8, addend: 0x0, symName: __ZNSt3__122__compressed_pair_elemINS_9allocatorIN5memdb9Tokenizer10OperationTEEELi1ELb1EEC2B8ue170006IS5_vEEOT_, symObjAddr: 0x810D4, symBinAddr: 0x100084E28, symSize: 0x58 }
  - { offsetInCU: 0x9E54D, offset: 0x9E54D, size: 0x8, addend: 0x0, symName: __ZNSt3__120__shared_ptr_pointerIPN5memdb9Tokenizer10OperationTENS_10shared_ptrINS2_5TokenEE27__shared_ptr_default_deleteIS6_S3_EENS_9allocatorIS3_EEED2Ev, symObjAddr: 0x8112C, symBinAddr: 0x100084E80, symSize: 0x78 }
  - { offsetInCU: 0x9E579, offset: 0x9E579, size: 0x8, addend: 0x0, symName: __ZNSt3__117__compressed_pairINS0_IPN5memdb9Tokenizer10OperationTENS_10shared_ptrINS2_5TokenEE27__shared_ptr_default_deleteIS6_S3_EEEENS_9allocatorIS3_EEE5firstB8ue170006Ev, symObjAddr: 0x811A4, symBinAddr: 0x100084EF8, symSize: 0x124 }
  - { offsetInCU: 0x9E59F, offset: 0x9E59F, size: 0x8, addend: 0x0, symName: __ZNSt3__117__compressed_pairIPN5memdb9Tokenizer10OperationTENS_10shared_ptrINS2_5TokenEE27__shared_ptr_default_deleteIS6_S3_EEE6secondB8ue170006Ev, symObjAddr: 0x812C8, symBinAddr: 0x10008501C, symSize: 0x108 }
  - { offsetInCU: 0x9E5C5, offset: 0x9E5C5, size: 0x8, addend: 0x0, symName: __ZNKSt3__114default_deleteIN5memdb9Tokenizer10OperationTEEclB8ue170006EPS3_, symObjAddr: 0x813D0, symBinAddr: 0x100085124, symSize: 0x158 }
  - { offsetInCU: 0x9E5F9, offset: 0x9E5F9, size: 0x8, addend: 0x0, symName: __ZNSt3__117__compressed_pairIPN5memdb9Tokenizer10OperationTENS_10shared_ptrINS2_5TokenEE27__shared_ptr_default_deleteIS6_S3_EEE5firstB8ue170006Ev, symObjAddr: 0x81528, symBinAddr: 0x10008527C, symSize: 0x124 }
  - { offsetInCU: 0x9E61F, offset: 0x9E61F, size: 0x8, addend: 0x0, symName: __ZNSt3__122__compressed_pair_elemINS_17__compressed_pairIPN5memdb9Tokenizer10OperationTENS_10shared_ptrINS3_5TokenEE27__shared_ptr_default_deleteIS7_S4_EEEELi0ELb0EE5__getB8ue170006Ev, symObjAddr: 0x8164C, symBinAddr: 0x1000853A0, symSize: 0xAC }
  - { offsetInCU: 0x9E645, offset: 0x9E645, size: 0x8, addend: 0x0, symName: __ZNSt3__122__compressed_pair_elemINS_10shared_ptrIN5memdb9Tokenizer5TokenEE27__shared_ptr_default_deleteIS4_NS3_10OperationTEEELi1ELb1EE5__getB8ue170006Ev, symObjAddr: 0x816F8, symBinAddr: 0x10008544C, symSize: 0x74 }
  - { offsetInCU: 0x9E66B, offset: 0x9E66B, size: 0x8, addend: 0x0, symName: __ZNSt3__122__compressed_pair_elemIPN5memdb9Tokenizer10OperationTELi0ELb0EE5__getB8ue170006Ev, symObjAddr: 0x8176C, symBinAddr: 0x1000854C0, symSize: 0xAC }
  - { offsetInCU: 0x9E691, offset: 0x9E691, size: 0x8, addend: 0x0, symName: __ZNKSt3__117__compressed_pairINS0_IPN5memdb9Tokenizer10OperationTENS_10shared_ptrINS2_5TokenEE27__shared_ptr_default_deleteIS6_S3_EEEENS_9allocatorIS3_EEE5firstB8ue170006Ev, symObjAddr: 0x81818, symBinAddr: 0x10008556C, symSize: 0x124 }
  - { offsetInCU: 0x9E6B7, offset: 0x9E6B7, size: 0x8, addend: 0x0, symName: __ZNKSt3__117__compressed_pairIPN5memdb9Tokenizer10OperationTENS_10shared_ptrINS2_5TokenEE27__shared_ptr_default_deleteIS6_S3_EEE6secondB8ue170006Ev, symObjAddr: 0x8193C, symBinAddr: 0x100085690, symSize: 0x108 }
  - { offsetInCU: 0x9E6DD, offset: 0x9E6DD, size: 0x8, addend: 0x0, symName: __ZNKSt3__122__compressed_pair_elemINS_17__compressed_pairIPN5memdb9Tokenizer10OperationTENS_10shared_ptrINS3_5TokenEE27__shared_ptr_default_deleteIS7_S4_EEEELi0ELb0EE5__getB8ue170006Ev, symObjAddr: 0x81A44, symBinAddr: 0x100085798, symSize: 0xAC }
  - { offsetInCU: 0x9E703, offset: 0x9E703, size: 0x8, addend: 0x0, symName: __ZNKSt3__122__compressed_pair_elemINS_10shared_ptrIN5memdb9Tokenizer5TokenEE27__shared_ptr_default_deleteIS4_NS3_10OperationTEEELi1ELb1EE5__getB8ue170006Ev, symObjAddr: 0x81AF0, symBinAddr: 0x100085844, symSize: 0x74 }
  - { offsetInCU: 0x9E729, offset: 0x9E729, size: 0x8, addend: 0x0, symName: __ZNSt3__117__compressed_pairINS0_IPN5memdb9Tokenizer10OperationTENS_10shared_ptrINS2_5TokenEE27__shared_ptr_default_deleteIS6_S3_EEEENS_9allocatorIS3_EEE6secondB8ue170006Ev, symObjAddr: 0x81B64, symBinAddr: 0x1000858B8, symSize: 0x108 }
  - { offsetInCU: 0x9E761, offset: 0x9E761, size: 0x8, addend: 0x0, symName: __ZNSt3__19allocatorINS_20__shared_ptr_pointerIPN5memdb9Tokenizer10OperationTENS_10shared_ptrINS3_5TokenEE27__shared_ptr_default_deleteIS7_S4_EENS0_IS4_EEEEEC1B8ue170006IS4_EERKNS0_IT_EE, symObjAddr: 0x81C6C, symBinAddr: 0x1000859C0, symSize: 0x64 }
  - { offsetInCU: 0x9E79F, offset: 0x9E79F, size: 0x8, addend: 0x0, symName: __ZNSt3__19allocatorINS_20__shared_ptr_pointerIPN5memdb9Tokenizer10OperationTENS_10shared_ptrINS3_5TokenEE27__shared_ptr_default_deleteIS7_S4_EENS0_IS4_EEEEE10deallocateB8ue170006EPSC_m, symObjAddr: 0x81CD0, symBinAddr: 0x100085A24, symSize: 0x78 }
  - { offsetInCU: 0x9E7E7, offset: 0x9E7E7, size: 0x8, addend: 0x0, symName: __ZNSt3__114pointer_traitsIPNS_20__shared_ptr_pointerIPN5memdb9Tokenizer10OperationTENS_10shared_ptrINS3_5TokenEE27__shared_ptr_default_deleteIS7_S4_EENS_9allocatorIS4_EEEEE10pointer_toB8ue170006ERSD_, symObjAddr: 0x81D48, symBinAddr: 0x100085A9C, symSize: 0x14 }
  - { offsetInCU: 0x9E80A, offset: 0x9E80A, size: 0x8, addend: 0x0, symName: __ZNSt3__122__compressed_pair_elemINS_9allocatorIN5memdb9Tokenizer10OperationTEEELi1ELb1EE5__getB8ue170006Ev, symObjAddr: 0x81D5C, symBinAddr: 0x100085AB0, symSize: 0x74 }
  - { offsetInCU: 0x9E830, offset: 0x9E830, size: 0x8, addend: 0x0, symName: __ZNSt3__19allocatorINS_20__shared_ptr_pointerIPN5memdb9Tokenizer10OperationTENS_10shared_ptrINS3_5TokenEE27__shared_ptr_default_deleteIS7_S4_EENS0_IS4_EEEEEC2B8ue170006IS4_EERKNS0_IT_EE, symObjAddr: 0x81DD0, symBinAddr: 0x100085B24, symSize: 0x88 }
  - { offsetInCU: 0x9E86E, offset: 0x9E86E, size: 0x8, addend: 0x0, symName: __ZNSt3__116__non_trivial_ifILb1ENS_9allocatorINS_20__shared_ptr_pointerIPN5memdb9Tokenizer10OperationTENS_10shared_ptrINS4_5TokenEE27__shared_ptr_default_deleteIS8_S5_EENS1_IS5_EEEEEEEC2B8ue170006Ev, symObjAddr: 0x81E58, symBinAddr: 0x100085BAC, symSize: 0x54 }
  - { offsetInCU: 0x9E898, offset: 0x9E898, size: 0x8, addend: 0x0, symName: __ZNSt3__117__compressed_pairIPN5memdb9Tokenizer10OperationTENS_14default_deleteIS3_EEE5firstB8ue170006Ev, symObjAddr: 0x81EAC, symBinAddr: 0x100085C00, symSize: 0x124 }
  - { offsetInCU: 0x9E8BE, offset: 0x9E8BE, size: 0x8, addend: 0x0, symName: __ZNSt3__110unique_ptrIN5memdb9Tokenizer10OperationTENS_14default_deleteIS3_EEED2B8ue170006Ev, symObjAddr: 0x81FD0, symBinAddr: 0x100085D24, symSize: 0x7C }
  - { offsetInCU: 0x9E8E8, offset: 0x9E8E8, size: 0x8, addend: 0x0, symName: __ZNSt3__110unique_ptrIN5memdb9Tokenizer10OperationTENS_14default_deleteIS3_EEE5resetB8ue170006EPS3_, symObjAddr: 0x8204C, symBinAddr: 0x100085DA0, symSize: 0x2B0 }
  - { offsetInCU: 0x9E92C, offset: 0x9E92C, size: 0x8, addend: 0x0, symName: __ZNSt3__117__compressed_pairIPN5memdb9Tokenizer10OperationTENS_14default_deleteIS3_EEE6secondB8ue170006Ev, symObjAddr: 0x822FC, symBinAddr: 0x100086050, symSize: 0x108 }
  - { offsetInCU: 0x9E952, offset: 0x9E952, size: 0x8, addend: 0x0, symName: __ZNSt3__122__compressed_pair_elemINS_14default_deleteIN5memdb9Tokenizer10OperationTEEELi1ELb1EE5__getB8ue170006Ev, symObjAddr: 0x82404, symBinAddr: 0x100086158, symSize: 0x74 }
  - { offsetInCU: 0x9E978, offset: 0x9E978, size: 0x8, addend: 0x0, symName: __ZN5memdb9Tokenizer8BracketTC1Ev, symObjAddr: 0x82478, symBinAddr: 0x1000861CC, symSize: 0x78 }
  - { offsetInCU: 0x9E9A2, offset: 0x9E9A2, size: 0x8, addend: 0x0, symName: __ZNSt3__110shared_ptrIN5memdb9Tokenizer5TokenEEC1B8ue170006INS2_8BracketTEvEEPT_, symObjAddr: 0x824F0, symBinAddr: 0x100086244, symSize: 0x80 }
  - { offsetInCU: 0x9E9E5, offset: 0x9E9E5, size: 0x8, addend: 0x0, symName: __ZN5memdb9Tokenizer8BracketTC2Ev, symObjAddr: 0x82570, symBinAddr: 0x1000862C4, symSize: 0x118 }
  - { offsetInCU: 0x9EA0F, offset: 0x9EA0F, size: 0x8, addend: 0x0, symName: __ZNK5memdb9Tokenizer8BracketT7GetTypeEv, symObjAddr: 0x82688, symBinAddr: 0x1000863DC, symSize: 0x64 }
  - { offsetInCU: 0x9EA35, offset: 0x9EA35, size: 0x8, addend: 0x0, symName: __ZN5memdb9Tokenizer8BracketT4CopyEv, symObjAddr: 0x826EC, symBinAddr: 0x100086440, symSize: 0x26C }
  - { offsetInCU: 0x9EA6B, offset: 0x9EA6B, size: 0x8, addend: 0x0, symName: __ZN5memdb9Tokenizer8BracketT5ParseERNSt3__16vectorINS2_12basic_stringIcNS2_11char_traitsIcEENS2_9allocatorIcEEEENS7_IS9_EEEERi, symObjAddr: 0x82958, symBinAddr: 0x1000866AC, symSize: 0x738 }
  - { offsetInCU: 0x9EAC5, offset: 0x9EAC5, size: 0x8, addend: 0x0, symName: __ZN5memdb9Tokenizer8BracketTC1ENS_5lexer7BracketE, symObjAddr: 0x83090, symBinAddr: 0x100086DE4, symSize: 0x80 }
  - { offsetInCU: 0x9EAFE, offset: 0x9EAFE, size: 0x8, addend: 0x0, symName: __ZN5memdb9Tokenizer8BracketTC2ENS_5lexer7BracketE, symObjAddr: 0x83110, symBinAddr: 0x100086E64, symSize: 0x188 }
  - { offsetInCU: 0x9EB37, offset: 0x9EB37, size: 0x8, addend: 0x0, symName: __ZNSt3__110shared_ptrIN5memdb9Tokenizer5TokenEEC2B8ue170006INS2_8BracketTEvEEPT_, symObjAddr: 0x83298, symBinAddr: 0x100086FEC, symSize: 0x4D8 }
  - { offsetInCU: 0x9EC49, offset: 0x9EC49, size: 0x8, addend: 0x0, symName: __ZNSt3__110unique_ptrIN5memdb9Tokenizer8BracketTENS_14default_deleteIS3_EEEC1B8ue170006ILb1EvEEPS3_, symObjAddr: 0x83770, symBinAddr: 0x1000874C4, symSize: 0x80 }
  - { offsetInCU: 0x9EC98, offset: 0x9EC98, size: 0x8, addend: 0x0, symName: __ZNSt3__19allocatorIN5memdb9Tokenizer8BracketTEEC1B8ue170006Ev, symObjAddr: 0x837F0, symBinAddr: 0x100087544, symSize: 0x5C }
  - { offsetInCU: 0x9ED82, offset: 0x9ED82, size: 0x8, addend: 0x0, symName: __ZNSt3__120__shared_ptr_pointerIPN5memdb9Tokenizer8BracketTENS_10shared_ptrINS2_5TokenEE27__shared_ptr_default_deleteIS6_S3_EENS_9allocatorIS3_EEEC1B8ue170006ES4_S9_SB_, symObjAddr: 0x8384C, symBinAddr: 0x1000875A0, symSize: 0x80 }
  - { offsetInCU: 0x9EDD6, offset: 0x9EDD6, size: 0x8, addend: 0x0, symName: __ZNSt3__110unique_ptrIN5memdb9Tokenizer8BracketTENS_14default_deleteIS3_EEE7releaseB8ue170006Ev, symObjAddr: 0x838CC, symBinAddr: 0x100087620, symSize: 0x20C }
  - { offsetInCU: 0x9EE0B, offset: 0x9EE0B, size: 0x8, addend: 0x0, symName: __ZNSt3__110unique_ptrIN5memdb9Tokenizer8BracketTENS_14default_deleteIS3_EEED1B8ue170006Ev, symObjAddr: 0x83AD8, symBinAddr: 0x10008782C, symSize: 0x78 }
  - { offsetInCU: 0x9EE35, offset: 0x9EE35, size: 0x8, addend: 0x0, symName: __ZNSt3__110unique_ptrIN5memdb9Tokenizer8BracketTENS_14default_deleteIS3_EEEC2B8ue170006ILb1EvEEPS3_, symObjAddr: 0x83B50, symBinAddr: 0x1000878A4, symSize: 0x2B8 }
  - { offsetInCU: 0x9EE7D, offset: 0x9EE7D, size: 0x8, addend: 0x0, symName: __ZNSt3__117__compressed_pairIPN5memdb9Tokenizer8BracketTENS_14default_deleteIS3_EEEC1B8ue170006IRS4_NS_16__value_init_tagEEEOT_OT0_, symObjAddr: 0x83E08, symBinAddr: 0x100087B5C, symSize: 0x88 }
  - { offsetInCU: 0x9EED5, offset: 0x9EED5, size: 0x8, addend: 0x0, symName: __ZNSt3__117__compressed_pairIPN5memdb9Tokenizer8BracketTENS_14default_deleteIS3_EEEC2B8ue170006IRS4_NS_16__value_init_tagEEEOT_OT0_, symObjAddr: 0x83E90, symBinAddr: 0x100087BE4, symSize: 0x140 }
  - { offsetInCU: 0x9EF2D, offset: 0x9EF2D, size: 0x8, addend: 0x0, symName: __ZNSt3__122__compressed_pair_elemIPN5memdb9Tokenizer8BracketTELi0ELb0EEC2B8ue170006IRS4_vEEOT_, symObjAddr: 0x83FD0, symBinAddr: 0x100087D24, symSize: 0x144 }
  - { offsetInCU: 0x9EF6F, offset: 0x9EF6F, size: 0x8, addend: 0x0, symName: __ZNSt3__122__compressed_pair_elemINS_14default_deleteIN5memdb9Tokenizer8BracketTEEELi1ELb1EEC2B8ue170006ENS_16__value_init_tagE, symObjAddr: 0x84114, symBinAddr: 0x100087E68, symSize: 0x54 }
  - { offsetInCU: 0x9EFA4, offset: 0x9EFA4, size: 0x8, addend: 0x0, symName: __ZNSt3__19allocatorIN5memdb9Tokenizer8BracketTEEC2B8ue170006Ev, symObjAddr: 0x84168, symBinAddr: 0x100087EBC, symSize: 0x84 }
  - { offsetInCU: 0x9EFCE, offset: 0x9EFCE, size: 0x8, addend: 0x0, symName: __ZNSt3__116__non_trivial_ifILb1ENS_9allocatorIN5memdb9Tokenizer8BracketTEEEEC2B8ue170006Ev, symObjAddr: 0x841EC, symBinAddr: 0x100087F40, symSize: 0x54 }
  - { offsetInCU: 0x9EFF8, offset: 0x9EFF8, size: 0x8, addend: 0x0, symName: __ZNSt3__120__shared_ptr_pointerIPN5memdb9Tokenizer8BracketTENS_10shared_ptrINS2_5TokenEE27__shared_ptr_default_deleteIS6_S3_EENS_9allocatorIS3_EEEC2B8ue170006ES4_S9_SB_, symObjAddr: 0x84240, symBinAddr: 0x100087F94, symSize: 0x44C }
  - { offsetInCU: 0x9F05F, offset: 0x9F05F, size: 0x8, addend: 0x0, symName: __ZNSt3__117__compressed_pairIPN5memdb9Tokenizer8BracketTENS_10shared_ptrINS2_5TokenEE27__shared_ptr_default_deleteIS6_S3_EEEC1B8ue170006IRS4_S9_EEOT_OT0_, symObjAddr: 0x8468C, symBinAddr: 0x1000883E0, symSize: 0x88 }
  - { offsetInCU: 0x9F0C3, offset: 0x9F0C3, size: 0x8, addend: 0x0, symName: __ZNSt3__117__compressed_pairINS0_IPN5memdb9Tokenizer8BracketTENS_10shared_ptrINS2_5TokenEE27__shared_ptr_default_deleteIS6_S3_EEEENS_9allocatorIS3_EEEC1B8ue170006ISA_SC_EEOT_OT0_, symObjAddr: 0x84714, symBinAddr: 0x100088468, symSize: 0x88 }
  - { offsetInCU: 0x9F11B, offset: 0x9F11B, size: 0x8, addend: 0x0, symName: __ZNSt3__120__shared_ptr_pointerIPN5memdb9Tokenizer8BracketTENS_10shared_ptrINS2_5TokenEE27__shared_ptr_default_deleteIS6_S3_EENS_9allocatorIS3_EEED1Ev, symObjAddr: 0x8479C, symBinAddr: 0x1000884F0, symSize: 0x78 }
  - { offsetInCU: 0x9F147, offset: 0x9F147, size: 0x8, addend: 0x0, symName: __ZNSt3__120__shared_ptr_pointerIPN5memdb9Tokenizer8BracketTENS_10shared_ptrINS2_5TokenEE27__shared_ptr_default_deleteIS6_S3_EENS_9allocatorIS3_EEED0Ev, symObjAddr: 0x84814, symBinAddr: 0x100088568, symSize: 0x74 }
  - { offsetInCU: 0x9F173, offset: 0x9F173, size: 0x8, addend: 0x0, symName: __ZNSt3__120__shared_ptr_pointerIPN5memdb9Tokenizer8BracketTENS_10shared_ptrINS2_5TokenEE27__shared_ptr_default_deleteIS6_S3_EENS_9allocatorIS3_EEE16__on_zero_sharedEv, symObjAddr: 0x84888, symBinAddr: 0x1000885DC, symSize: 0x460 }
  - { offsetInCU: 0x9F19B, offset: 0x9F19B, size: 0x8, addend: 0x0, symName: __ZNKSt3__120__shared_ptr_pointerIPN5memdb9Tokenizer8BracketTENS_10shared_ptrINS2_5TokenEE27__shared_ptr_default_deleteIS6_S3_EENS_9allocatorIS3_EEE13__get_deleterERKSt9type_info, symObjAddr: 0x84CE8, symBinAddr: 0x100088A3C, symSize: 0x298 }
  - { offsetInCU: 0x9F1D0, offset: 0x9F1D0, size: 0x8, addend: 0x0, symName: __ZNSt3__120__shared_ptr_pointerIPN5memdb9Tokenizer8BracketTENS_10shared_ptrINS2_5TokenEE27__shared_ptr_default_deleteIS6_S3_EENS_9allocatorIS3_EEE21__on_zero_shared_weakEv, symObjAddr: 0x84F80, symBinAddr: 0x100088CD4, symSize: 0x448 }
  - { offsetInCU: 0x9F218, offset: 0x9F218, size: 0x8, addend: 0x0, symName: __ZNSt3__117__compressed_pairIPN5memdb9Tokenizer8BracketTENS_10shared_ptrINS2_5TokenEE27__shared_ptr_default_deleteIS6_S3_EEEC2B8ue170006IRS4_S9_EEOT_OT0_, symObjAddr: 0x853C8, symBinAddr: 0x10008911C, symSize: 0x170 }
  - { offsetInCU: 0x9F270, offset: 0x9F270, size: 0x8, addend: 0x0, symName: __ZNSt3__122__compressed_pair_elemINS_10shared_ptrIN5memdb9Tokenizer5TokenEE27__shared_ptr_default_deleteIS4_NS3_8BracketTEEELi1ELb1EEC2B8ue170006IS8_vEEOT_, symObjAddr: 0x85538, symBinAddr: 0x10008928C, symSize: 0x58 }
  - { offsetInCU: 0x9F2B2, offset: 0x9F2B2, size: 0x8, addend: 0x0, symName: __ZNSt3__117__compressed_pairINS0_IPN5memdb9Tokenizer8BracketTENS_10shared_ptrINS2_5TokenEE27__shared_ptr_default_deleteIS6_S3_EEEENS_9allocatorIS3_EEEC2B8ue170006ISA_SC_EEOT_OT0_, symObjAddr: 0x85590, symBinAddr: 0x1000892E4, symSize: 0x170 }
  - { offsetInCU: 0x9F30A, offset: 0x9F30A, size: 0x8, addend: 0x0, symName: __ZNSt3__122__compressed_pair_elemINS_17__compressed_pairIPN5memdb9Tokenizer8BracketTENS_10shared_ptrINS3_5TokenEE27__shared_ptr_default_deleteIS7_S4_EEEELi0ELb0EEC2B8ue170006ISB_vEEOT_, symObjAddr: 0x85700, symBinAddr: 0x100089454, symSize: 0x84 }
  - { offsetInCU: 0x9F34C, offset: 0x9F34C, size: 0x8, addend: 0x0, symName: __ZNSt3__122__compressed_pair_elemINS_9allocatorIN5memdb9Tokenizer8BracketTEEELi1ELb1EEC2B8ue170006IS5_vEEOT_, symObjAddr: 0x85784, symBinAddr: 0x1000894D8, symSize: 0x58 }
  - { offsetInCU: 0x9F38E, offset: 0x9F38E, size: 0x8, addend: 0x0, symName: __ZNSt3__120__shared_ptr_pointerIPN5memdb9Tokenizer8BracketTENS_10shared_ptrINS2_5TokenEE27__shared_ptr_default_deleteIS6_S3_EENS_9allocatorIS3_EEED2Ev, symObjAddr: 0x857DC, symBinAddr: 0x100089530, symSize: 0x78 }
  - { offsetInCU: 0x9F3BA, offset: 0x9F3BA, size: 0x8, addend: 0x0, symName: __ZNSt3__117__compressed_pairINS0_IPN5memdb9Tokenizer8BracketTENS_10shared_ptrINS2_5TokenEE27__shared_ptr_default_deleteIS6_S3_EEEENS_9allocatorIS3_EEE5firstB8ue170006Ev, symObjAddr: 0x85854, symBinAddr: 0x1000895A8, symSize: 0x124 }
  - { offsetInCU: 0x9F3E0, offset: 0x9F3E0, size: 0x8, addend: 0x0, symName: __ZNSt3__117__compressed_pairIPN5memdb9Tokenizer8BracketTENS_10shared_ptrINS2_5TokenEE27__shared_ptr_default_deleteIS6_S3_EEE6secondB8ue170006Ev, symObjAddr: 0x85978, symBinAddr: 0x1000896CC, symSize: 0x108 }
  - { offsetInCU: 0x9F406, offset: 0x9F406, size: 0x8, addend: 0x0, symName: __ZNKSt3__114default_deleteIN5memdb9Tokenizer8BracketTEEclB8ue170006EPS3_, symObjAddr: 0x85A80, symBinAddr: 0x1000897D4, symSize: 0x158 }
  - { offsetInCU: 0x9F43A, offset: 0x9F43A, size: 0x8, addend: 0x0, symName: __ZNSt3__117__compressed_pairIPN5memdb9Tokenizer8BracketTENS_10shared_ptrINS2_5TokenEE27__shared_ptr_default_deleteIS6_S3_EEE5firstB8ue170006Ev, symObjAddr: 0x85BD8, symBinAddr: 0x10008992C, symSize: 0x124 }
  - { offsetInCU: 0x9F460, offset: 0x9F460, size: 0x8, addend: 0x0, symName: __ZNSt3__122__compressed_pair_elemINS_17__compressed_pairIPN5memdb9Tokenizer8BracketTENS_10shared_ptrINS3_5TokenEE27__shared_ptr_default_deleteIS7_S4_EEEELi0ELb0EE5__getB8ue170006Ev, symObjAddr: 0x85CFC, symBinAddr: 0x100089A50, symSize: 0xAC }
  - { offsetInCU: 0x9F486, offset: 0x9F486, size: 0x8, addend: 0x0, symName: __ZNSt3__122__compressed_pair_elemINS_10shared_ptrIN5memdb9Tokenizer5TokenEE27__shared_ptr_default_deleteIS4_NS3_8BracketTEEELi1ELb1EE5__getB8ue170006Ev, symObjAddr: 0x85DA8, symBinAddr: 0x100089AFC, symSize: 0x74 }
  - { offsetInCU: 0x9F4AC, offset: 0x9F4AC, size: 0x8, addend: 0x0, symName: __ZNSt3__122__compressed_pair_elemIPN5memdb9Tokenizer8BracketTELi0ELb0EE5__getB8ue170006Ev, symObjAddr: 0x85E1C, symBinAddr: 0x100089B70, symSize: 0xAC }
  - { offsetInCU: 0x9F4D2, offset: 0x9F4D2, size: 0x8, addend: 0x0, symName: __ZNKSt3__117__compressed_pairINS0_IPN5memdb9Tokenizer8BracketTENS_10shared_ptrINS2_5TokenEE27__shared_ptr_default_deleteIS6_S3_EEEENS_9allocatorIS3_EEE5firstB8ue170006Ev, symObjAddr: 0x85EC8, symBinAddr: 0x100089C1C, symSize: 0x124 }
  - { offsetInCU: 0x9F4F8, offset: 0x9F4F8, size: 0x8, addend: 0x0, symName: __ZNKSt3__117__compressed_pairIPN5memdb9Tokenizer8BracketTENS_10shared_ptrINS2_5TokenEE27__shared_ptr_default_deleteIS6_S3_EEE6secondB8ue170006Ev, symObjAddr: 0x85FEC, symBinAddr: 0x100089D40, symSize: 0x108 }
  - { offsetInCU: 0x9F51E, offset: 0x9F51E, size: 0x8, addend: 0x0, symName: __ZNKSt3__122__compressed_pair_elemINS_17__compressed_pairIPN5memdb9Tokenizer8BracketTENS_10shared_ptrINS3_5TokenEE27__shared_ptr_default_deleteIS7_S4_EEEELi0ELb0EE5__getB8ue170006Ev, symObjAddr: 0x860F4, symBinAddr: 0x100089E48, symSize: 0xAC }
  - { offsetInCU: 0x9F544, offset: 0x9F544, size: 0x8, addend: 0x0, symName: __ZNKSt3__122__compressed_pair_elemINS_10shared_ptrIN5memdb9Tokenizer5TokenEE27__shared_ptr_default_deleteIS4_NS3_8BracketTEEELi1ELb1EE5__getB8ue170006Ev, symObjAddr: 0x861A0, symBinAddr: 0x100089EF4, symSize: 0x74 }
  - { offsetInCU: 0x9F56A, offset: 0x9F56A, size: 0x8, addend: 0x0, symName: __ZNSt3__117__compressed_pairINS0_IPN5memdb9Tokenizer8BracketTENS_10shared_ptrINS2_5TokenEE27__shared_ptr_default_deleteIS6_S3_EEEENS_9allocatorIS3_EEE6secondB8ue170006Ev, symObjAddr: 0x86214, symBinAddr: 0x100089F68, symSize: 0x108 }
  - { offsetInCU: 0x9F5A2, offset: 0x9F5A2, size: 0x8, addend: 0x0, symName: __ZNSt3__19allocatorINS_20__shared_ptr_pointerIPN5memdb9Tokenizer8BracketTENS_10shared_ptrINS3_5TokenEE27__shared_ptr_default_deleteIS7_S4_EENS0_IS4_EEEEEC1B8ue170006IS4_EERKNS0_IT_EE, symObjAddr: 0x8631C, symBinAddr: 0x10008A070, symSize: 0x64 }
  - { offsetInCU: 0x9F5E0, offset: 0x9F5E0, size: 0x8, addend: 0x0, symName: __ZNSt3__19allocatorINS_20__shared_ptr_pointerIPN5memdb9Tokenizer8BracketTENS_10shared_ptrINS3_5TokenEE27__shared_ptr_default_deleteIS7_S4_EENS0_IS4_EEEEE10deallocateB8ue170006EPSC_m, symObjAddr: 0x86380, symBinAddr: 0x10008A0D4, symSize: 0x78 }
  - { offsetInCU: 0x9F628, offset: 0x9F628, size: 0x8, addend: 0x0, symName: __ZNSt3__114pointer_traitsIPNS_20__shared_ptr_pointerIPN5memdb9Tokenizer8BracketTENS_10shared_ptrINS3_5TokenEE27__shared_ptr_default_deleteIS7_S4_EENS_9allocatorIS4_EEEEE10pointer_toB8ue170006ERSD_, symObjAddr: 0x863F8, symBinAddr: 0x10008A14C, symSize: 0x14 }
  - { offsetInCU: 0x9F64B, offset: 0x9F64B, size: 0x8, addend: 0x0, symName: __ZNSt3__122__compressed_pair_elemINS_9allocatorIN5memdb9Tokenizer8BracketTEEELi1ELb1EE5__getB8ue170006Ev, symObjAddr: 0x8640C, symBinAddr: 0x10008A160, symSize: 0x74 }
  - { offsetInCU: 0x9F671, offset: 0x9F671, size: 0x8, addend: 0x0, symName: __ZNSt3__19allocatorINS_20__shared_ptr_pointerIPN5memdb9Tokenizer8BracketTENS_10shared_ptrINS3_5TokenEE27__shared_ptr_default_deleteIS7_S4_EENS0_IS4_EEEEEC2B8ue170006IS4_EERKNS0_IT_EE, symObjAddr: 0x86480, symBinAddr: 0x10008A1D4, symSize: 0x88 }
  - { offsetInCU: 0x9F6AF, offset: 0x9F6AF, size: 0x8, addend: 0x0, symName: __ZNSt3__116__non_trivial_ifILb1ENS_9allocatorINS_20__shared_ptr_pointerIPN5memdb9Tokenizer8BracketTENS_10shared_ptrINS4_5TokenEE27__shared_ptr_default_deleteIS8_S5_EENS1_IS5_EEEEEEEC2B8ue170006Ev, symObjAddr: 0x86508, symBinAddr: 0x10008A25C, symSize: 0x54 }
  - { offsetInCU: 0x9F6D9, offset: 0x9F6D9, size: 0x8, addend: 0x0, symName: __ZNSt3__117__compressed_pairIPN5memdb9Tokenizer8BracketTENS_14default_deleteIS3_EEE5firstB8ue170006Ev, symObjAddr: 0x8655C, symBinAddr: 0x10008A2B0, symSize: 0x124 }
  - { offsetInCU: 0x9F6FF, offset: 0x9F6FF, size: 0x8, addend: 0x0, symName: __ZNSt3__110unique_ptrIN5memdb9Tokenizer8BracketTENS_14default_deleteIS3_EEED2B8ue170006Ev, symObjAddr: 0x86680, symBinAddr: 0x10008A3D4, symSize: 0x7C }
  - { offsetInCU: 0x9F729, offset: 0x9F729, size: 0x8, addend: 0x0, symName: __ZNSt3__110unique_ptrIN5memdb9Tokenizer8BracketTENS_14default_deleteIS3_EEE5resetB8ue170006EPS3_, symObjAddr: 0x866FC, symBinAddr: 0x10008A450, symSize: 0x2B0 }
  - { offsetInCU: 0x9F76D, offset: 0x9F76D, size: 0x8, addend: 0x0, symName: __ZNSt3__117__compressed_pairIPN5memdb9Tokenizer8BracketTENS_14default_deleteIS3_EEE6secondB8ue170006Ev, symObjAddr: 0x869AC, symBinAddr: 0x10008A700, symSize: 0x108 }
  - { offsetInCU: 0x9F793, offset: 0x9F793, size: 0x8, addend: 0x0, symName: __ZNSt3__122__compressed_pair_elemINS_14default_deleteIN5memdb9Tokenizer8BracketTEEELi1ELb1EE5__getB8ue170006Ev, symObjAddr: 0x86AB4, symBinAddr: 0x10008A808, symSize: 0x74 }
  - { offsetInCU: 0x9F7B9, offset: 0x9F7B9, size: 0x8, addend: 0x0, symName: __ZN5memdb9Tokenizer11ColumnTypeTC1Ev, symObjAddr: 0x86B28, symBinAddr: 0x10008A87C, symSize: 0x78 }
  - { offsetInCU: 0x9F7E3, offset: 0x9F7E3, size: 0x8, addend: 0x0, symName: __ZNSt3__110shared_ptrIN5memdb9Tokenizer5TokenEEC1B8ue170006INS2_11ColumnTypeTEvEEPT_, symObjAddr: 0x86BA0, symBinAddr: 0x10008A8F4, symSize: 0x80 }
  - { offsetInCU: 0x9F826, offset: 0x9F826, size: 0x8, addend: 0x0, symName: __ZN5memdb9Tokenizer11ColumnTypeTC2Ev, symObjAddr: 0x86C20, symBinAddr: 0x10008A974, symSize: 0x124 }
  - { offsetInCU: 0x9F850, offset: 0x9F850, size: 0x8, addend: 0x0, symName: __ZNK5memdb9Tokenizer11ColumnTypeT7GetTypeEv, symObjAddr: 0x86D44, symBinAddr: 0x10008AA98, symSize: 0x64 }
  - { offsetInCU: 0x9F876, offset: 0x9F876, size: 0x8, addend: 0x0, symName: __ZN5memdb9Tokenizer11ColumnTypeT4CopyEv, symObjAddr: 0x86DA8, symBinAddr: 0x10008AAFC, symSize: 0x4C4 }
